; Listing generated by Microsoft (R) Optimizing Compiler Version 19.00.23918.0 

	TITLE	G:\Projects\Lotion\Lotion\environment.cpp
	.686P
	.XMM
	include listing.inc
	.model	flat

INCLUDELIB MSVCRTD
INCLUDELIB OLDNAMES

_DATA	SEGMENT
?tileMapGrid@@3PAY0FA@HA DD 00H				; tileMapGrid
	DD	00H
	DD	00H
	DD	00H
	DD	00H
	DD	00H
	DD	00H
	DD	00H
	DD	00H
	DD	00H
	DD	00H
	DD	00H
	DD	00H
	DD	00H
	DD	00H
	DD	00H
	DD	00H
	DD	00H
	DD	00H
	DD	00H
	DD	00H
	DD	00H
	DD	00H
	DD	00H
	DD	00H
	DD	00H
	DD	00H
	DD	00H
	DD	00H
	DD	00H
	DD	00H
	DD	00H
	DD	00H
	DD	00H
	DD	00H
	DD	00H
	DD	00H
	DD	00H
	DD	00H
	DD	00H
	DD	00H
	DD	00H
	DD	00H
	DD	00H
	DD	00H
	DD	00H
	DD	00H
	DD	00H
	DD	00H
	DD	00H
	DD	00H
	DD	00H
	DD	00H
	DD	00H
	DD	00H
	DD	00H
	DD	00H
	DD	00H
	DD	00H
	DD	00H
	DD	00H
	DD	00H
	DD	00H
	DD	00H
	DD	00H
	DD	00H
	DD	00H
	DD	00H
	DD	00H
	DD	00H
	DD	00H
	DD	00H
	DD	00H
	DD	00H
	DD	00H
	DD	00H
	DD	00H
	DD	00H
	DD	00H
	DD	00H
	DD	00H
	DD	00H
	DD	00H
	DD	00H
	DD	00H
	DD	00H
	DD	00H
	DD	00H
	DD	00H
	DD	00H
	DD	00H
	DD	00H
	DD	00H
	DD	00H
	DD	00H
	DD	00H
	DD	00H
	DD	00H
	DD	00H
	DD	00H
	DD	00H
	DD	00H
	DD	00H
	DD	00H
	DD	00H
	DD	00H
	DD	00H
	DD	00H
	DD	00H
	DD	00H
	DD	00H
	DD	00H
	DD	00H
	DD	00H
	DD	00H
	DD	00H
	DD	00H
	DD	00H
	DD	00H
	DD	00H
	DD	00H
	DD	00H
	DD	00H
	DD	00H
	DD	00H
	DD	00H
	DD	00H
	DD	00H
	DD	00H
	DD	00H
	DD	00H
	DD	00H
	DD	00H
	DD	00H
	DD	00H
	DD	00H
	DD	00H
	DD	00H
	DD	00H
	DD	00H
	DD	00H
	DD	00H
	DD	00H
	DD	00H
	DD	00H
	DD	00H
	DD	00H
	DD	00H
	DD	00H
	DD	00H
	DD	00H
	DD	00H
	DD	00H
	DD	00H
	DD	00H
	DD	00H
	DD	00H
	DD	00H
	DD	00H
	DD	00H
	DD	00H
	DD	00H
	DD	00H
	DD	00H
	DD	00H
	DD	00H
	DD	00H
	DD	00H
	DD	00H
	DD	00H
	DD	00H
	DD	00H
	DD	00H
	DD	00H
	DD	00H
	DD	00H
	DD	00H
	DD	00H
	DD	00H
	DD	00H
	DD	00H
	DD	00H
	DD	00H
	DD	00H
	DD	00H
	DD	00H
	DD	00H
	DD	00H
	DD	00H
	DD	00H
	DD	00H
	DD	00H
	DD	00H
	DD	00H
	DD	00H
	DD	00H
	DD	00H
	DD	00H
	DD	00H
	DD	00H
	DD	00H
	DD	00H
	DD	00H
	DD	00H
	DD	00H
	DD	00H
	DD	00H
	DD	00H
	DD	00H
	DD	00H
	DD	00H
	DD	00H
	DD	00H
	DD	00H
	DD	00H
	DD	00H
	DD	00H
	DD	00H
	DD	00H
	DD	00H
	DD	00H
	DD	00H
	DD	00H
	DD	00H
	DD	00H
	DD	00H
	DD	00H
	DD	00H
	DD	00H
	DD	00H
	DD	00H
	DD	00H
	DD	00H
	DD	00H
	DD	00H
	DD	00H
	DD	00H
	DD	00H
	DD	00H
	DD	00H
	DD	00H
	DD	00H
	DD	00H
	DD	00H
	DD	00H
	DD	00H
	DD	00H
	DD	00H
	DD	00H
	DD	00H
	DD	00H
	DD	00H
	DD	00H
	DD	00H
	DD	00H
	DD	00H
	DD	00H
	DD	00H
	DD	00H
	DD	00H
	DD	00H
	DD	00H
	DD	00H
	DD	00H
	DD	00H
	DD	00H
	DD	00H
	DD	00H
	DD	00H
	DD	00H
	DD	00H
	DD	00H
	DD	00H
	DD	00H
	DD	00H
	DD	00H
	DD	00H
	DD	00H
	DD	00H
	DD	00H
	DD	00H
	DD	00H
	DD	00H
	DD	00H
	DD	00H
	DD	00H
	DD	00H
	DD	00H
	DD	00H
	DD	00H
	DD	00H
	DD	00H
	DD	00H
	DD	00H
	DD	00H
	DD	00H
	DD	00H
	DD	00H
	DD	00H
	DD	00H
	DD	00H
	DD	00H
	DD	00H
	DD	00H
	DD	00H
	DD	00H
	DD	00H
	DD	00H
	DD	00H
	DD	00H
	DD	00H
	DD	00H
	DD	00H
	DD	00H
	DD	00H
	DD	00H
	DD	00H
	DD	00H
	DD	00H
	DD	00H
	DD	00H
	DD	00H
	DD	00H
	DD	00H
	DD	00H
	DD	00H
	DD	00H
	DD	00H
	DD	00H
	DD	00H
	DD	00H
	DD	00H
	DD	00H
	DD	00H
	DD	00H
	DD	00H
	DD	00H
	DD	00H
	DD	00H
	DD	00H
	DD	00H
	DD	00H
	DD	00H
	DD	00H
	DD	00H
	DD	00H
	DD	00H
	DD	00H
	DD	00H
	DD	00H
	DD	00H
	DD	00H
	DD	00H
	DD	00H
	DD	00H
	DD	00H
	DD	00H
	DD	00H
	DD	00H
	DD	00H
	DD	00H
	DD	00H
	DD	00H
	DD	00H
	DD	00H
	DD	00H
	DD	00H
	DD	00H
	DD	00H
	DD	00H
	DD	00H
	DD	00H
	DD	00H
	DD	00H
	DD	00H
	DD	00H
	DD	00H
	DD	00H
	DD	00H
	DD	00H
	DD	00H
	DD	00H
	DD	00H
	DD	00H
	DD	00H
	DD	00H
	DD	00H
	DD	00H
	DD	00H
	DD	00H
	DD	00H
	DD	00H
	DD	00H
	DD	00H
	DD	00H
	DD	00H
	DD	00H
	DD	00H
	DD	00H
	DD	00H
	DD	00H
	DD	00H
	DD	00H
	DD	00H
	DD	00H
	DD	00H
	DD	00H
	DD	00H
	DD	00H
	DD	00H
	DD	00H
	DD	00H
	DD	00H
	DD	00H
	DD	00H
	DD	00H
	DD	00H
	DD	00H
	DD	00H
	DD	00H
	DD	00H
	DD	00H
	DD	00H
	DD	00H
	DD	00H
	DD	00H
	DD	00H
	DD	00H
	DD	00H
	DD	00H
	DD	00H
	DD	00H
	DD	00H
	DD	00H
	DD	00H
	DD	00H
	DD	00H
	DD	00H
	DD	00H
	DD	00H
	DD	00H
	DD	00H
	DD	00H
	DD	00H
	DD	00H
	DD	00H
	DD	00H
	DD	00H
	DD	00H
	DD	00H
	DD	00H
	DD	00H
	DD	00H
	DD	00H
	DD	00H
	DD	00H
	DD	00H
	DD	00H
	DD	00H
	DD	00H
	DD	00H
	DD	00H
	DD	00H
	DD	00H
	DD	00H
	DD	00H
	DD	00H
	DD	00H
	DD	00H
	DD	00H
	DD	00H
	DD	00H
	DD	00H
	DD	00H
	DD	00H
	DD	00H
	DD	00H
	DD	00H
	DD	00H
	DD	00H
	DD	00H
	DD	00H
	DD	00H
	DD	00H
	DD	00H
	DD	00H
	DD	00H
	DD	00H
	DD	00H
	DD	00H
	DD	00H
	DD	00H
	DD	00H
	DD	00H
	DD	00H
	DD	00H
	DD	00H
	DD	00H
	DD	00H
	DD	00H
	DD	00H
	DD	00H
	DD	00H
	DD	00H
	DD	00H
	DD	00H
	DD	00H
	DD	00H
	DD	00H
	DD	00H
	DD	00H
	DD	00H
	DD	00H
	DD	00H
	DD	00H
	DD	00H
	DD	00H
	DD	00H
	DD	00H
	DD	00H
	DD	00H
	DD	00H
	DD	00H
	DD	00H
	DD	00H
	DD	00H
	DD	00H
	DD	00H
	DD	00H
	DD	00H
	DD	00H
	DD	00H
	DD	00H
	DD	00H
	DD	00H
	DD	00H
	DD	00H
	DD	00H
	DD	00H
	DD	00H
	DD	00H
	DD	00H
	DD	00H
	DD	00H
	DD	00H
	DD	00H
	DD	00H
	DD	00H
	DD	00H
	DD	00H
	DD	00H
	DD	00H
	DD	00H
	DD	00H
	DD	00H
	DD	00H
	DD	00H
	DD	00H
	DD	00H
	DD	00H
	DD	00H
	DD	00H
	DD	00H
	DD	00H
	DD	00H
	DD	00H
	DD	00H
	DD	00H
	DD	00H
	DD	00H
	DD	00H
	DD	00H
	DD	00H
	DD	00H
	DD	00H
	DD	00H
	DD	00H
	DD	00H
	DD	00H
	DD	00H
	DD	00H
	DD	00H
	DD	00H
	DD	00H
	DD	00H
	DD	00H
	DD	00H
	DD	00H
	DD	00H
	DD	00H
	DD	00H
	DD	00H
	DD	00H
	DD	00H
	DD	00H
	DD	00H
	DD	00H
	DD	00H
	DD	00H
	DD	00H
	DD	00H
	DD	00H
	DD	00H
	DD	00H
	DD	00H
	DD	00H
	DD	00H
	DD	00H
	DD	00H
	DD	00H
	DD	00H
	DD	00H
	DD	00H
	DD	00H
	DD	00H
	DD	00H
	DD	00H
	DD	00H
	DD	00H
	DD	00H
	DD	00H
	DD	00H
	DD	00H
	DD	00H
	DD	00H
	DD	00H
	DD	00H
	DD	00H
	DD	00H
	DD	00H
	DD	00H
	DD	00H
	DD	00H
	DD	00H
	DD	00H
	DD	00H
	DD	00H
	DD	00H
	DD	00H
	DD	00H
	DD	00H
	DD	00H
	DD	00H
	DD	00H
	DD	00H
	DD	00H
	DD	00H
	DD	00H
	DD	00H
	DD	00H
	DD	00H
	DD	00H
	DD	00H
	DD	00H
	DD	00H
	DD	00H
	DD	00H
	DD	00H
	DD	00H
	DD	00H
	DD	00H
	DD	00H
	DD	00H
	DD	00H
	DD	00H
	DD	00H
	DD	00H
	DD	00H
	DD	00H
	DD	00H
	DD	00H
	DD	00H
	DD	00H
	DD	00H
	DD	00H
	DD	00H
	DD	00H
	DD	00H
	DD	00H
	DD	00H
	DD	00H
	DD	00H
	DD	00H
	DD	00H
	DD	00H
	DD	00H
	DD	00H
	DD	00H
	DD	00H
	DD	00H
	DD	00H
	DD	00H
	DD	00H
	DD	00H
	DD	00H
	DD	00H
	DD	00H
	DD	00H
	DD	00H
	DD	00H
	DD	00H
	DD	00H
	DD	00H
	DD	00H
	DD	00H
	DD	00H
	DD	00H
	DD	00H
	DD	00H
	DD	00H
	DD	00H
	DD	00H
	DD	00H
	DD	00H
	DD	00H
	DD	00H
	DD	00H
	DD	00H
	DD	00H
	DD	00H
	DD	00H
	DD	00H
	DD	00H
	DD	00H
	DD	00H
	DD	00H
	DD	00H
	DD	00H
	DD	00H
	DD	00H
	DD	00H
	DD	00H
	DD	00H
	DD	00H
	DD	00H
	DD	00H
	DD	00H
	DD	00H
	DD	00H
	DD	00H
	DD	00H
	DD	00H
	DD	00H
	DD	00H
	DD	00H
	DD	00H
	DD	00H
	DD	00H
	DD	00H
	DD	00H
	DD	00H
	DD	00H
	DD	00H
	DD	00H
	DD	00H
	DD	00H
	DD	00H
	DD	00H
	DD	00H
	DD	00H
	DD	00H
	DD	00H
	DD	00H
	DD	00H
	DD	00H
	DD	00H
	DD	00H
	DD	00H
	DD	00H
	DD	00H
	DD	00H
	DD	00H
	DD	00H
	DD	00H
	DD	00H
	DD	00H
	DD	00H
	DD	00H
	DD	00H
	DD	00H
	DD	00H
	DD	00H
	DD	00H
	DD	00H
	DD	00H
	DD	00H
	DD	00H
	DD	00H
	DD	00H
	DD	00H
	DD	00H
	DD	00H
	DD	00H
	DD	00H
	DD	00H
	DD	00H
	DD	00H
	DD	00H
	DD	00H
	DD	00H
	DD	00H
	DD	00H
	DD	00H
	DD	00H
	DD	00H
	DD	00H
	DD	00H
	DD	00H
	DD	00H
	DD	00H
	DD	00H
	DD	00H
	DD	00H
	DD	00H
	DD	00H
	DD	00H
	DD	00H
	DD	00H
	DD	00H
	DD	00H
	DD	00H
	DD	00H
	DD	00H
	DD	00H
	DD	00H
	DD	00H
	DD	00H
	DD	00H
	DD	00H
	DD	00H
	DD	00H
	DD	00H
	DD	00H
	DD	00H
	DD	00H
	DD	00H
	DD	00H
	DD	00H
	DD	00H
	DD	00H
	DD	00H
	DD	00H
	DD	00H
	DD	00H
	DD	00H
	DD	00H
	DD	00H
	DD	00H
	DD	00H
	DD	00H
	DD	00H
	DD	00H
	DD	00H
	DD	00H
	DD	00H
	DD	00H
	DD	00H
	DD	00H
	DD	00H
	DD	00H
	DD	00H
	DD	00H
	DD	00H
	DD	00H
	DD	00H
	DD	00H
	DD	00H
	DD	00H
	DD	00H
	DD	00H
	DD	00H
	DD	00H
	DD	00H
	DD	00H
	DD	00H
	DD	00H
	DD	00H
	DD	00H
	DD	00H
	DD	00H
	DD	00H
	DD	00H
	DD	00H
	DD	00H
	DD	00H
	DD	00H
	DD	00H
	DD	00H
	DD	00H
	DD	00H
	DD	00H
	DD	00H
	DD	00H
	DD	00H
	DD	00H
	DD	00H
	DD	00H
	DD	00H
	DD	00H
	DD	00H
	DD	00H
	DD	00H
	DD	00H
	DD	00H
	DD	00H
	DD	00H
	DD	00H
	DD	00H
	DD	00H
	DD	00H
	DD	00H
	DD	00H
	DD	00H
	DD	00H
	DD	00H
	DD	00H
	DD	00H
	DD	00H
	DD	00H
	DD	00H
	DD	00H
	DD	00H
	DD	00H
	DD	00H
	DD	00H
	DD	00H
	DD	00H
	DD	00H
	DD	00H
	DD	00H
	DD	00H
	DD	00H
	DD	00H
	DD	00H
	DD	00H
	DD	00H
	DD	00H
	DD	00H
	DD	00H
	DD	00H
	DD	00H
	DD	00H
	DD	00H
	DD	00H
	DD	00H
	DD	00H
	DD	00H
	DD	00H
	DD	00H
	DD	00H
	DD	00H
	DD	00H
	DD	00H
	DD	00H
	DD	00H
	DD	00H
	DD	00H
	DD	00H
	DD	00H
	DD	00H
	DD	00H
	DD	00H
	DD	00H
	DD	00H
	DD	00H
	DD	00H
	DD	00H
	DD	00H
	DD	00H
	DD	00H
	DD	00H
	DD	00H
	DD	00H
	DD	00H
	DD	00H
	DD	00H
	DD	00H
	DD	00H
	DD	00H
	DD	00H
	DD	00H
	DD	00H
	DD	00H
	DD	00H
	DD	00H
	DD	00H
	DD	00H
	DD	00H
	DD	00H
	DD	00H
	DD	00H
	DD	00H
	DD	00H
	DD	00H
	DD	00H
	DD	00H
	DD	00H
	DD	00H
	DD	00H
	DD	00H
	DD	00H
	DD	00H
	DD	00H
	DD	00H
	DD	00H
	DD	00H
	DD	00H
	DD	00H
	DD	00H
	DD	00H
	DD	00H
	DD	00H
	DD	00H
	DD	00H
	DD	00H
	DD	00H
	DD	00H
	DD	00H
	DD	00H
	DD	00H
	DD	00H
	DD	00H
	DD	00H
	DD	00H
	DD	00H
	DD	00H
	DD	00H
	DD	00H
	DD	00H
	DD	00H
	DD	00H
	DD	00H
	DD	00H
	DD	00H
	DD	00H
	DD	00H
	DD	00H
	DD	00H
	DD	00H
	DD	00H
	DD	00H
	DD	00H
	DD	00H
	DD	00H
	DD	00H
	DD	00H
	DD	00H
	DD	00H
	DD	00H
	DD	00H
	DD	00H
	DD	00H
	DD	00H
	DD	00H
	DD	00H
	DD	00H
	DD	00H
	DD	00H
	DD	00H
	DD	00H
	DD	00H
	DD	00H
	DD	00H
	DD	00H
	DD	00H
	DD	00H
	DD	00H
	DD	00H
	DD	00H
	DD	00H
	DD	00H
	DD	00H
	DD	00H
	DD	00H
	DD	00H
	DD	00H
	DD	00H
	DD	00H
	DD	00H
	DD	00H
	DD	00H
	DD	00H
	DD	00H
	DD	00H
	DD	00H
	DD	00H
	DD	00H
	DD	00H
	DD	00H
	DD	00H
	DD	00H
	DD	00H
	DD	00H
	DD	00H
	DD	00H
	DD	00H
	DD	00H
	DD	00H
	DD	00H
	DD	00H
	DD	00H
	DD	00H
	DD	00H
	DD	00H
	DD	00H
	DD	00H
	DD	00H
	DD	00H
	DD	00H
	DD	00H
	DD	00H
	DD	00H
	DD	00H
	DD	00H
	DD	00H
	DD	00H
	DD	00H
	DD	00H
	DD	00H
	DD	00H
	DD	00H
	DD	00H
	DD	00H
	DD	00H
	DD	00H
	DD	00H
	DD	00H
	DD	00H
	DD	00H
	DD	00H
	DD	00H
	DD	00H
	DD	00H
	DD	00H
	DD	00H
	DD	00H
	DD	00H
	DD	00H
	DD	00H
	DD	00H
	DD	00H
	DD	00H
	DD	00H
	DD	00H
	DD	00H
	DD	00H
	DD	00H
	DD	00H
	DD	00H
	DD	00H
	DD	00H
	DD	00H
	DD	00H
	DD	00H
	DD	00H
	DD	00H
	DD	00H
	DD	00H
	DD	00H
	DD	00H
	DD	00H
	DD	00H
	DD	00H
	DD	00H
	DD	00H
	DD	00H
	DD	00H
	DD	00H
	DD	00H
	DD	00H
	DD	00H
	DD	00H
	DD	00H
	DD	00H
	DD	00H
	DD	00H
	DD	00H
	DD	00H
	DD	00H
	DD	00H
	DD	00H
	DD	00H
	DD	00H
	DD	00H
	DD	00H
	DD	00H
	DD	00H
	DD	00H
	DD	00H
	DD	00H
	DD	00H
	DD	00H
	DD	00H
	DD	00H
	DD	00H
	DD	00H
	DD	00H
	DD	00H
	DD	00H
	DD	00H
	DD	00H
	DD	00H
	DD	00H
	DD	00H
	DD	00H
	DD	00H
	DD	00H
	DD	00H
	DD	00H
	DD	00H
	DD	00H
	DD	00H
	DD	00H
	DD	00H
	DD	00H
	DD	00H
	DD	00H
	DD	00H
	DD	00H
	DD	00H
	DD	00H
	DD	00H
	DD	00H
	DD	00H
	DD	00H
	DD	00H
	DD	00H
	DD	00H
	DD	00H
	DD	00H
	DD	00H
	DD	00H
	DD	00H
	DD	00H
	DD	00H
	DD	00H
	DD	00H
	DD	00H
	DD	00H
	DD	00H
	DD	00H
	DD	00H
	DD	00H
	DD	00H
	DD	00H
	DD	00H
	DD	00H
	DD	00H
	DD	00H
	DD	00H
	DD	00H
	DD	00H
	DD	00H
	DD	00H
	DD	00H
	DD	00H
	DD	00H
	DD	00H
	DD	00H
	DD	00H
	DD	00H
	DD	00H
	DD	00H
	DD	00H
	DD	00H
	DD	00H
	DD	00H
	DD	00H
	DD	00H
	DD	00H
	DD	00H
	DD	00H
	DD	00H
	DD	00H
	DD	00H
	DD	00H
	DD	00H
	DD	00H
	DD	00H
	DD	00H
	DD	00H
	DD	00H
	DD	00H
	DD	00H
	DD	00H
	DD	00H
	DD	00H
	DD	00H
	DD	00H
	DD	00H
	DD	00H
	DD	00H
	DD	00H
	DD	00H
	DD	00H
	DD	00H
	DD	00H
	DD	00H
	DD	00H
	DD	00H
	DD	00H
	DD	00H
	DD	00H
	DD	00H
	DD	00H
	DD	00H
	DD	00H
	DD	00H
	DD	00H
	DD	00H
	DD	00H
	DD	00H
	DD	00H
	DD	00H
	DD	00H
	DD	00H
	DD	00H
	DD	00H
	DD	00H
	DD	00H
	DD	00H
	DD	00H
	DD	00H
	DD	00H
	DD	00H
	DD	00H
	DD	00H
	DD	00H
	DD	00H
	DD	00H
	DD	00H
	DD	00H
	DD	00H
	DD	00H
	DD	00H
	DD	00H
	DD	00H
	DD	00H
	DD	00H
	DD	00H
	DD	00H
	DD	00H
	DD	00H
	DD	00H
	DD	00H
	DD	00H
	DD	00H
	DD	00H
	DD	00H
	DD	00H
	DD	00H
	DD	00H
	DD	00H
	DD	00H
	DD	00H
	DD	00H
	DD	00H
	DD	00H
	DD	00H
	DD	00H
	DD	00H
	DD	00H
	DD	00H
	DD	00H
	DD	00H
	DD	00H
	DD	00H
	DD	00H
	DD	00H
	DD	00H
	DD	00H
	DD	00H
	DD	00H
	DD	00H
	DD	00H
	DD	00H
	DD	00H
	DD	00H
	DD	00H
	DD	00H
	DD	00H
	DD	00H
	DD	00H
	DD	00H
	DD	00H
	DD	00H
	DD	00H
	DD	00H
	DD	00H
	DD	00H
	DD	00H
	DD	00H
	DD	00H
	DD	00H
	DD	00H
	DD	00H
	DD	00H
	DD	00H
	DD	00H
	DD	00H
	DD	00H
	DD	00H
	DD	00H
	DD	00H
	DD	00H
	DD	00H
	DD	00H
	DD	00H
	DD	00H
	DD	00H
	DD	00H
	DD	00H
	DD	00H
	DD	00H
	DD	00H
	DD	00H
	DD	00H
	DD	00H
	DD	00H
	DD	00H
	DD	00H
	DD	00H
	DD	00H
	DD	00H
	DD	00H
	DD	00H
	DD	00H
	DD	00H
	DD	00H
	DD	00H
	DD	00H
	DD	00H
	DD	00H
	DD	00H
	DD	00H
	DD	00H
	DD	00H
	DD	00H
	DD	00H
	DD	00H
	DD	00H
	DD	00H
	DD	00H
	DD	00H
	DD	00H
	DD	00H
	DD	00H
	DD	00H
	DD	00H
	DD	00H
	DD	00H
	DD	00H
	DD	00H
	DD	00H
	DD	00H
	DD	00H
	DD	00H
	DD	00H
	DD	00H
	DD	00H
	DD	00H
	DD	00H
	DD	00H
	DD	00H
	DD	00H
	DD	00H
	DD	00H
	DD	00H
	DD	00H
	DD	00H
	DD	00H
	DD	00H
	DD	00H
	DD	00H
	DD	00H
	DD	00H
	DD	00H
	DD	00H
	DD	00H
	DD	00H
	DD	00H
	DD	00H
	DD	00H
	DD	00H
	DD	00H
	DD	00H
	DD	00H
	DD	00H
	DD	00H
	DD	00H
	DD	00H
	DD	00H
	DD	00H
	DD	00H
	DD	00H
	DD	00H
	DD	00H
	DD	00H
	DD	00H
	DD	00H
	DD	00H
	DD	00H
	DD	00H
	DD	00H
	DD	00H
	DD	00H
	DD	00H
	DD	00H
	DD	00H
	DD	00H
	DD	00H
	DD	00H
	DD	00H
	DD	00H
	DD	00H
	DD	00H
	DD	00H
	DD	00H
	DD	00H
	DD	00H
	DD	00H
	DD	00H
	DD	00H
	DD	00H
	DD	00H
	DD	00H
	DD	00H
	DD	00H
	DD	00H
	DD	00H
	DD	00H
	DD	00H
	DD	00H
	DD	00H
	DD	00H
	DD	00H
	DD	00H
	DD	00H
	DD	00H
	DD	00H
	DD	00H
	DD	00H
	DD	00H
	DD	00H
	DD	00H
	DD	00H
	DD	00H
	DD	00H
	DD	00H
	DD	00H
	DD	00H
	DD	00H
	DD	00H
	DD	00H
	DD	00H
	DD	00H
	DD	00H
	DD	00H
	DD	00H
	DD	00H
	DD	00H
	DD	00H
	DD	00H
	DD	00H
	DD	00H
	DD	00H
	DD	00H
	DD	00H
	DD	00H
	DD	00H
	DD	00H
	DD	00H
	DD	00H
	DD	00H
	DD	00H
	DD	00H
	DD	00H
	DD	00H
	DD	00H
	DD	00H
	DD	00H
	DD	00H
	DD	00H
	DD	00H
	DD	00H
	DD	00H
	DD	00H
	DD	00H
	DD	00H
	DD	00H
	DD	00H
	DD	00H
	DD	00H
	DD	00H
	DD	00H
	DD	00H
	DD	00H
	DD	00H
	DD	00H
	DD	00H
	DD	00H
	DD	00H
	DD	00H
	DD	00H
	DD	00H
	DD	00H
	DD	00H
	DD	00H
	DD	00H
	DD	00H
	DD	00H
	DD	00H
	DD	00H
	DD	00H
	DD	00H
	DD	00H
	DD	00H
	DD	00H
	DD	00H
	DD	00H
	DD	00H
	DD	00H
	DD	00H
	DD	00H
	DD	00H
	DD	00H
	DD	00H
	DD	00H
	DD	00H
	DD	00H
	DD	00H
	DD	00H
	DD	00H
	DD	00H
	DD	00H
	DD	00H
	DD	00H
	DD	00H
	DD	00H
	DD	00H
	DD	00H
	DD	00H
	DD	00H
	DD	00H
	DD	00H
	DD	00H
	DD	00H
	DD	00H
	DD	00H
	DD	00H
	DD	00H
	DD	00H
	DD	00H
	DD	00H
	DD	00H
	DD	00H
	DD	00H
	DD	00H
	DD	00H
	DD	00H
	DD	00H
	DD	00H
	DD	00H
	DD	00H
	DD	00H
	DD	00H
	DD	00H
	DD	00H
	DD	00H
	DD	00H
	DD	00H
	DD	00H
	DD	00H
	DD	00H
	DD	00H
	DD	00H
	DD	00H
	DD	00H
	DD	00H
	DD	00H
	DD	00H
	DD	00H
	DD	00H
	DD	00H
	DD	00H
	DD	00H
	DD	00H
	DD	00H
	DD	00H
	DD	00H
	DD	00H
	DD	00H
	DD	00H
	DD	00H
	DD	00H
	DD	00H
	DD	00H
	DD	00H
	DD	00H
	DD	00H
	DD	00H
	DD	00H
	DD	00H
	DD	00H
	DD	00H
	DD	00H
	DD	00H
	DD	00H
	DD	00H
	DD	00H
	DD	00H
	DD	00H
	DD	00H
	DD	00H
	DD	00H
	DD	00H
	DD	00H
	DD	00H
	DD	00H
	DD	00H
	DD	00H
	DD	00H
	DD	00H
	DD	00H
	DD	00H
	DD	00H
	DD	00H
	DD	00H
	DD	00H
	DD	00H
	DD	00H
	DD	00H
	DD	00H
	DD	00H
	DD	00H
	DD	00H
	DD	00H
	DD	00H
	DD	00H
	DD	00H
	DD	00H
	DD	00H
	DD	00H
	DD	00H
	DD	00H
	DD	00H
	DD	00H
	DD	00H
	DD	00H
	DD	00H
	DD	00H
	DD	00H
	DD	00H
	DD	00H
	DD	00H
	DD	00H
	DD	00H
	DD	00H
	DD	00H
	DD	00H
	DD	00H
	DD	00H
	DD	00H
	DD	00H
	DD	00H
	DD	00H
	DD	00H
	DD	00H
	DD	00H
	DD	00H
	DD	00H
	DD	00H
	DD	00H
	DD	00H
	DD	00H
	DD	00H
	DD	00H
	DD	00H
	DD	00H
	DD	00H
	DD	00H
	DD	00H
	DD	00H
	DD	00H
	DD	00H
	DD	00H
	DD	00H
	DD	00H
	DD	00H
	DD	00H
	DD	00H
	DD	00H
	DD	00H
	DD	00H
	DD	00H
	DD	00H
	DD	00H
	DD	00H
	DD	00H
	DD	00H
	DD	00H
	DD	00H
	DD	00H
	DD	00H
	DD	00H
	DD	00H
	DD	00H
	DD	00H
	DD	00H
	DD	00H
	DD	00H
	DD	00H
	DD	00H
	DD	00H
	DD	00H
	DD	00H
	DD	00H
	DD	00H
	DD	00H
	DD	00H
	DD	00H
	DD	00H
	DD	00H
	DD	00H
	DD	00H
	DD	00H
	DD	00H
	DD	00H
	DD	00H
	DD	00H
	DD	00H
	DD	00H
	DD	00H
	DD	00H
	DD	00H
	DD	00H
	DD	00H
	DD	00H
	DD	00H
	DD	00H
	DD	00H
	DD	00H
	DD	00H
	DD	00H
	DD	00H
	DD	00H
	DD	00H
	DD	00H
	DD	00H
	DD	00H
	DD	00H
	DD	00H
	DD	00H
	DD	00H
	DD	00H
	DD	00H
	DD	00H
	DD	00H
	DD	00H
	DD	00H
	DD	00H
	DD	00H
	DD	00H
	DD	00H
	DD	00H
	DD	00H
	DD	00H
	DD	00H
	DD	00H
	DD	00H
	DD	00H
	DD	00H
	DD	00H
	DD	00H
	DD	00H
	DD	00H
	DD	00H
	DD	00H
	DD	00H
	DD	00H
	DD	00H
	DD	00H
	DD	00H
	DD	00H
	DD	00H
	DD	00H
	DD	00H
	DD	00H
	DD	00H
	DD	00H
	DD	00H
	DD	00H
	DD	00H
	DD	00H
	DD	00H
	DD	00H
	DD	00H
	DD	00H
	DD	00H
	DD	00H
	DD	00H
	DD	00H
	DD	00H
	DD	00H
	DD	00H
	DD	00H
	DD	00H
	DD	00H
	DD	00H
	DD	00H
	DD	00H
	DD	00H
	DD	00H
	DD	00H
	DD	00H
	DD	00H
	DD	00H
	DD	00H
	DD	00H
	DD	00H
	DD	00H
	DD	00H
	DD	00H
	DD	00H
	DD	00H
	DD	00H
	DD	00H
	DD	00H
	DD	00H
	DD	00H
	DD	00H
	DD	00H
	DD	00H
	DD	00H
	DD	00H
	DD	00H
	DD	00H
	DD	00H
	DD	00H
	DD	00H
	DD	00H
	DD	00H
	DD	00H
	DD	00H
	DD	00H
	DD	00H
	DD	00H
	DD	00H
	DD	00H
	DD	00H
	DD	00H
	DD	00H
	DD	00H
	DD	00H
	DD	00H
	DD	00H
	DD	00H
	DD	00H
	DD	00H
	DD	00H
	DD	00H
	DD	00H
	DD	00H
	DD	00H
	DD	00H
	DD	00H
	DD	00H
	DD	00H
	DD	00H
	DD	00H
	DD	00H
	DD	00H
	DD	00H
	DD	00H
	DD	00H
	DD	00H
	DD	00H
	DD	00H
	DD	00H
	DD	00H
	DD	00H
	DD	00H
	DD	00H
	DD	00H
	DD	00H
	DD	00H
	DD	00H
	DD	00H
	DD	00H
	DD	00H
	DD	00H
	DD	00H
	DD	00H
	DD	00H
	DD	00H
	DD	00H
	DD	00H
	DD	00H
	DD	00H
	DD	00H
	DD	00H
	DD	00H
	DD	00H
	DD	00H
	DD	00H
	DD	00H
	DD	00H
	DD	00H
	DD	00H
	DD	00H
	DD	00H
	DD	00H
	DD	00H
	DD	00H
	DD	00H
	DD	00H
	DD	00H
	DD	00H
	DD	00H
	DD	00H
	DD	00H
	DD	00H
	DD	00H
	DD	00H
	DD	00H
	DD	00H
	DD	00H
	DD	00H
	DD	00H
	DD	00H
	DD	00H
	DD	00H
	DD	00H
	DD	00H
	DD	00H
	DD	00H
	DD	00H
	DD	00H
	DD	00H
	DD	00H
	DD	00H
	DD	00H
	DD	00H
	DD	00H
	DD	00H
	DD	00H
	DD	00H
	DD	00H
	DD	00H
	DD	00H
	DD	00H
	DD	00H
	DD	00H
	DD	00H
	DD	00H
	DD	00H
	DD	00H
	DD	00H
	DD	00H
	DD	00H
	DD	00H
	DD	00H
	DD	00H
	DD	00H
	DD	00H
	DD	00H
	DD	00H
	DD	00H
	DD	00H
	DD	00H
	DD	00H
	DD	00H
	DD	00H
	DD	00H
	DD	00H
	DD	00H
	DD	00H
	DD	00H
	DD	00H
	DD	00H
	DD	00H
	DD	00H
	DD	00H
	DD	00H
	DD	00H
	DD	00H
	DD	00H
	DD	00H
	DD	00H
	DD	00H
	DD	00H
	DD	00H
	DD	00H
	DD	00H
	DD	00H
	DD	00H
	DD	00H
	DD	00H
	DD	00H
	DD	00H
	DD	00H
	DD	00H
	DD	00H
	DD	00H
	DD	00H
	DD	00H
	DD	00H
	DD	00H
	DD	00H
	DD	00H
	DD	00H
	DD	00H
	DD	00H
	DD	00H
	DD	00H
	DD	00H
	DD	00H
	DD	00H
	DD	00H
	DD	00H
	DD	00H
	DD	00H
	DD	00H
	DD	00H
	DD	00H
	DD	00H
	DD	00H
	DD	00H
	DD	00H
	DD	00H
	DD	00H
	DD	00H
	DD	00H
	DD	00H
	DD	00H
	DD	00H
	DD	00H
	DD	00H
	DD	00H
	DD	00H
	DD	00H
	DD	00H
	DD	00H
	DD	00H
	DD	00H
	DD	00H
	DD	00H
	DD	00H
	DD	00H
	DD	00H
	DD	00H
	DD	00H
	DD	00H
	DD	00H
	DD	00H
	DD	00H
	DD	00H
	DD	00H
	DD	00H
	DD	00H
	DD	00H
	DD	00H
	DD	00H
	DD	00H
	DD	00H
	DD	00H
	DD	00H
	DD	00H
	DD	00H
	DD	00H
	DD	00H
	DD	00H
	DD	00H
	DD	00H
	DD	00H
	DD	00H
	DD	00H
	DD	00H
	DD	00H
	DD	00H
	DD	00H
	DD	00H
	DD	00H
	DD	00H
	DD	00H
	DD	00H
	DD	00H
	DD	00H
	DD	00H
	DD	00H
	DD	00H
	DD	00H
	DD	00H
	DD	00H
	DD	00H
	DD	00H
	DD	00H
	DD	00H
	DD	00H
	DD	00H
	DD	00H
	DD	00H
	DD	00H
	DD	00H
	DD	00H
	DD	00H
	DD	00H
	DD	00H
	DD	00H
	DD	00H
	DD	00H
	DD	00H
	DD	00H
	DD	00H
	DD	00H
	DD	00H
	DD	00H
	DD	00H
	DD	00H
	DD	00H
	DD	00H
	DD	00H
	DD	00H
	DD	00H
	DD	00H
	DD	00H
	DD	00H
	DD	00H
	DD	00H
	DD	00H
	DD	00H
	DD	00H
	DD	00H
	DD	00H
	DD	00H
	DD	00H
	DD	00H
	DD	00H
	DD	00H
	DD	00H
	DD	00H
	DD	00H
	DD	00H
	DD	00H
	DD	00H
	DD	00H
	DD	00H
	DD	00H
	DD	00H
	DD	00H
	DD	00H
	DD	00H
	DD	00H
	DD	00H
	DD	00H
	DD	00H
	DD	00H
	DD	00H
	DD	00H
	DD	00H
	DD	00H
	DD	00H
	DD	00H
	DD	00H
	DD	00H
	DD	00H
	DD	00H
	DD	00H
	DD	00H
	DD	00H
	DD	00H
	DD	00H
	DD	00H
	DD	00H
	DD	00H
	DD	00H
	DD	00H
	DD	00H
	DD	00H
	DD	00H
	DD	00H
	DD	00H
	DD	00H
	DD	00H
	DD	00H
	DD	00H
	DD	00H
	DD	00H
	DD	00H
	DD	00H
	DD	00H
	DD	00H
	DD	00H
	DD	00H
	DD	00H
	DD	00H
	DD	00H
	DD	00H
	DD	00H
	DD	00H
	DD	00H
	DD	00H
	DD	00H
	DD	00H
	DD	00H
	DD	00H
	DD	00H
	DD	00H
	DD	00H
	DD	00H
	DD	00H
	DD	00H
	DD	00H
	DD	00H
	DD	00H
	DD	00H
	DD	00H
	DD	00H
	DD	00H
	DD	00H
	DD	00H
	DD	00H
	DD	00H
	DD	00H
	DD	00H
	DD	00H
	DD	00H
	DD	00H
	DD	00H
	DD	00H
	DD	00H
	DD	00H
	DD	00H
	DD	00H
	DD	00H
	DD	00H
	DD	00H
	DD	00H
	DD	00H
	DD	00H
	DD	00H
	DD	00H
	DD	00H
	DD	00H
	DD	00H
	DD	00H
	DD	00H
	DD	00H
	DD	00H
	DD	00H
	DD	00H
	DD	00H
	DD	00H
	DD	00H
	DD	00H
	DD	00H
	DD	00H
	DD	00H
	DD	00H
	DD	00H
	DD	00H
	DD	00H
	DD	00H
	DD	00H
	DD	00H
	DD	00H
	DD	00H
	DD	00H
	DD	00H
	DD	00H
	DD	00H
	DD	00H
	DD	00H
	DD	00H
	DD	00H
	DD	00H
	DD	00H
	DD	00H
	DD	00H
	DD	00H
	DD	00H
	DD	00H
	DD	00H
	DD	00H
	DD	00H
	DD	00H
	DD	00H
	DD	00H
	DD	00H
	DD	00H
	DD	00H
	DD	00H
	DD	00H
	DD	00H
	DD	00H
	DD	00H
	DD	00H
	DD	00H
	DD	00H
	DD	00H
	DD	00H
	DD	00H
	DD	00H
	DD	00H
	DD	00H
	DD	00H
	DD	00H
	DD	00H
	DD	00H
	DD	00H
	DD	00H
	DD	00H
	DD	00H
	DD	00H
	DD	00H
	DD	00H
	DD	00H
	DD	00H
	DD	00H
	DD	00H
	DD	00H
	DD	00H
	DD	00H
	DD	00H
	DD	00H
	DD	00H
	DD	00H
	DD	00H
	DD	00H
	DD	00H
	DD	00H
	DD	00H
	DD	00H
	DD	00H
	DD	00H
	DD	00H
	DD	00H
	DD	00H
	DD	00H
	DD	00H
	DD	00H
	DD	00H
	DD	00H
	DD	00H
	DD	00H
	DD	00H
	DD	00H
	DD	00H
	DD	00H
	DD	00H
	DD	00H
	DD	00H
	DD	00H
	DD	00H
	DD	00H
	DD	00H
	DD	00H
	DD	00H
	DD	00H
	DD	00H
	DD	00H
	DD	00H
	DD	00H
	DD	00H
	DD	00H
	DD	00H
	DD	00H
	DD	00H
	DD	00H
	DD	00H
	DD	00H
	DD	00H
	DD	00H
	DD	00H
	DD	00H
	DD	00H
	DD	00H
	DD	00H
	DD	00H
	DD	00H
	DD	00H
	DD	00H
	DD	00H
	DD	00H
	DD	00H
	DD	00H
	DD	00H
	DD	00H
	DD	00H
	DD	00H
	DD	00H
	DD	00H
	DD	00H
	DD	00H
	DD	00H
	DD	00H
	DD	00H
	DD	00H
	DD	00H
	DD	00H
	DD	00H
	DD	00H
	DD	00H
	DD	00H
	DD	00H
	DD	00H
	DD	00H
	DD	00H
	DD	00H
	DD	00H
	DD	00H
	DD	00H
	DD	00H
	DD	00H
	DD	00H
	DD	00H
	DD	00H
	DD	00H
	DD	00H
	DD	00H
	DD	00H
	DD	00H
	DD	00H
	DD	00H
	DD	00H
	DD	00H
	DD	00H
	DD	00H
	DD	00H
	DD	00H
	DD	00H
	DD	00H
	DD	00H
	DD	00H
	DD	00H
	DD	00H
	DD	00H
	DD	00H
	DD	00H
	DD	00H
	DD	00H
	DD	00H
	DD	00H
	DD	00H
	DD	00H
	DD	00H
	DD	00H
	DD	00H
	DD	00H
	DD	00H
	DD	00H
	DD	00H
	DD	00H
	DD	00H
	DD	00H
	DD	00H
	DD	00H
	DD	00H
	DD	00H
	DD	00H
	DD	00H
	DD	00H
	DD	00H
	DD	00H
	DD	00H
	DD	00H
	DD	00H
	DD	00H
	DD	00H
	DD	00H
	DD	00H
	DD	00H
	DD	00H
	DD	00H
	DD	00H
	DD	00H
	DD	00H
	DD	00H
	DD	00H
	DD	00H
	DD	00H
	DD	00H
	DD	00H
	DD	00H
	DD	00H
	DD	00H
	DD	00H
	DD	00H
	DD	00H
	DD	00H
	DD	00H
	DD	00H
	DD	00H
	DD	00H
	DD	00H
	DD	00H
	DD	00H
	DD	00H
	DD	00H
	DD	00H
	DD	00H
	DD	00H
	DD	00H
	DD	00H
	DD	00H
	DD	00H
	DD	00H
	DD	00H
	DD	00H
	DD	00H
	DD	00H
	DD	00H
	DD	00H
	DD	00H
	DD	00H
	DD	00H
	DD	00H
	DD	00H
	DD	00H
	DD	00H
	DD	00H
	DD	00H
	DD	00H
	DD	00H
	DD	00H
	DD	00H
	DD	00H
	DD	00H
	DD	00H
	DD	00H
	DD	00H
	DD	00H
	DD	00H
	DD	00H
	DD	00H
	DD	00H
	DD	00H
	DD	00H
	DD	00H
	DD	00H
	DD	00H
	DD	00H
	DD	00H
	DD	00H
	DD	00H
	DD	00H
	DD	00H
	DD	00H
	DD	00H
	DD	00H
	DD	00H
	DD	00H
	DD	00H
	DD	00H
	DD	00H
	DD	00H
	DD	00H
	DD	00H
	DD	00H
	DD	00H
	DD	00H
	DD	00H
	DD	00H
	DD	00H
	DD	00H
	DD	00H
	DD	00H
	DD	00H
	DD	00H
	DD	00H
	DD	00H
	DD	00H
	DD	00H
	DD	00H
	DD	00H
	DD	00H
	DD	00H
	DD	00H
	DD	00H
	DD	00H
	DD	00H
	DD	00H
	DD	00H
	DD	00H
	DD	00H
	DD	00H
	DD	00H
	DD	00H
	DD	00H
	DD	00H
	DD	00H
	DD	00H
	DD	00H
	DD	00H
	DD	00H
	DD	00H
	DD	00H
	DD	00H
	DD	00H
	DD	00H
	DD	00H
	DD	00H
	DD	00H
	DD	00H
	DD	00H
	DD	00H
	DD	00H
	DD	00H
	DD	00H
	DD	00H
	DD	00H
	DD	00H
	DD	00H
	DD	00H
	DD	00H
	DD	00H
	DD	00H
	DD	00H
	DD	00H
	DD	00H
	DD	00H
	DD	00H
	DD	00H
	DD	00H
	DD	00H
	DD	00H
	DD	00H
	DD	00H
	DD	00H
	DD	00H
	DD	00H
	DD	00H
	DD	00H
	DD	00H
	DD	00H
	DD	00H
	DD	00H
	DD	00H
	DD	00H
	DD	00H
	DD	00H
	DD	00H
	DD	00H
	DD	00H
	DD	00H
	DD	00H
	DD	00H
	DD	00H
	DD	00H
	DD	00H
	DD	00H
	DD	00H
	DD	00H
	DD	00H
	DD	00H
	DD	00H
	DD	00H
	DD	00H
	DD	00H
	DD	00H
	DD	00H
	DD	00H
	DD	00H
	DD	00H
	DD	00H
	DD	00H
	DD	00H
	DD	00H
	DD	00H
	DD	00H
	DD	00H
	DD	00H
	DD	00H
	DD	00H
	DD	00H
	DD	00H
	DD	00H
	DD	00H
	DD	00H
	DD	00H
	DD	00H
	DD	00H
	DD	00H
	DD	00H
	DD	00H
	DD	00H
	DD	00H
	DD	00H
	DD	00H
	DD	00H
	DD	00H
	DD	00H
	DD	00H
	DD	00H
	DD	00H
	DD	00H
	DD	00H
	DD	00H
	DD	00H
	DD	00H
	DD	00H
	DD	00H
	DD	00H
	DD	00H
	DD	00H
	DD	00H
	DD	00H
	DD	00H
	DD	00H
	DD	00H
	DD	00H
	DD	00H
	DD	00H
	DD	00H
	DD	00H
	DD	00H
	DD	00H
	DD	00H
	DD	00H
	DD	00H
	DD	00H
	DD	00H
	DD	00H
	DD	00H
	DD	00H
	DD	00H
	DD	00H
	DD	00H
	DD	00H
	DD	00H
	DD	00H
	DD	00H
	DD	00H
	DD	00H
	DD	00H
	DD	00H
	DD	00H
	DD	00H
	DD	00H
	DD	00H
	DD	00H
	DD	00H
	DD	00H
	DD	00H
	DD	00H
	DD	00H
	DD	00H
	DD	00H
	DD	00H
	DD	00H
	DD	00H
	DD	00H
	DD	00H
	DD	00H
	DD	00H
	DD	00H
	DD	00H
	DD	00H
	DD	00H
	DD	00H
	DD	00H
	DD	00H
	DD	00H
	DD	00H
	DD	00H
	DD	00H
	DD	00H
	DD	00H
	DD	00H
	DD	00H
	DD	00H
	DD	00H
	DD	00H
	DD	00H
	DD	00H
	DD	00H
	DD	00H
	DD	00H
	DD	00H
	DD	00H
	DD	00H
	DD	00H
	DD	00H
	DD	00H
	DD	00H
	DD	00H
	DD	00H
	DD	00H
	DD	00H
	DD	00H
	DD	00H
	DD	00H
	DD	00H
	DD	00H
	DD	00H
	DD	00H
	DD	00H
	DD	00H
	DD	00H
	DD	00H
	DD	00H
	DD	00H
	DD	00H
	DD	00H
	DD	00H
	DD	00H
	DD	00H
	DD	00H
	DD	00H
	DD	00H
	DD	00H
	DD	00H
	DD	00H
	DD	00H
	DD	00H
	DD	00H
	DD	00H
	DD	00H
	DD	00H
	DD	00H
	DD	00H
	DD	00H
	DD	00H
	DD	00H
	DD	00H
	DD	00H
	DD	00H
	DD	00H
	DD	00H
	DD	00H
	DD	00H
	DD	00H
	DD	00H
	DD	00H
	DD	00H
	DD	00H
	DD	00H
	DD	00H
	DD	00H
	DD	00H
	DD	00H
	DD	00H
	DD	00H
	DD	00H
	DD	00H
	DD	00H
	DD	00H
	DD	00H
	DD	00H
	DD	00H
	DD	00H
	DD	00H
	DD	00H
	DD	00H
	DD	00H
	DD	00H
	DD	00H
	DD	00H
	DD	00H
	DD	00H
	DD	00H
	DD	00H
	DD	00H
	DD	00H
	DD	00H
	DD	00H
	DD	00H
	DD	00H
	DD	00H
	DD	00H
	DD	00H
	DD	00H
	DD	00H
	DD	00H
	DD	00H
	DD	00H
	DD	00H
	DD	00H
	DD	00H
	DD	00H
	DD	00H
	DD	00H
	DD	00H
	DD	00H
	DD	00H
	DD	00H
	DD	00H
	DD	00H
	DD	00H
	DD	00H
	DD	00H
	DD	00H
	DD	00H
	DD	00H
	DD	00H
	DD	00H
	DD	00H
	DD	00H
	DD	00H
	DD	00H
	DD	00H
	DD	00H
	DD	00H
	DD	00H
	DD	00H
	DD	00H
	DD	00H
	DD	00H
	DD	00H
	DD	00H
	DD	00H
	DD	00H
	DD	00H
	DD	00H
	DD	00H
	DD	00H
	DD	00H
	DD	00H
	DD	00H
	DD	00H
	DD	00H
	DD	00H
	DD	00H
	DD	00H
	DD	00H
	DD	00H
	DD	00H
	DD	00H
	DD	00H
	DD	00H
	DD	00H
	DD	00H
	DD	00H
	DD	00H
	DD	00H
	DD	00H
	DD	00H
	DD	00H
	DD	00H
	DD	00H
	DD	00H
	DD	00H
	DD	00H
	DD	00H
	DD	00H
	DD	00H
	DD	00H
	DD	00H
	DD	00H
	DD	00H
	DD	00H
	DD	00H
	DD	00H
	DD	00H
	DD	00H
	DD	00H
	DD	00H
	DD	00H
	DD	00H
	DD	00H
	DD	00H
	DD	00H
	DD	00H
	DD	00H
	DD	00H
	DD	00H
	DD	00H
	DD	00H
	DD	00H
	DD	00H
	DD	00H
	DD	00H
	DD	00H
	DD	00H
	DD	00H
	DD	00H
	DD	00H
	DD	00H
	DD	00H
	DD	00H
	DD	00H
	DD	00H
	DD	00H
	DD	00H
	DD	00H
	DD	00H
	DD	00H
	DD	00H
	DD	00H
	DD	00H
	DD	00H
	DD	00H
	DD	00H
	DD	00H
	DD	00H
	DD	00H
	DD	00H
	DD	00H
	DD	00H
	DD	00H
	DD	00H
	DD	00H
	DD	00H
	DD	00H
	DD	00H
	DD	00H
	DD	00H
	DD	00H
	DD	00H
	DD	00H
	DD	00H
	DD	00H
	DD	00H
	DD	00H
	DD	00H
	DD	00H
	DD	00H
	DD	00H
	DD	00H
	DD	00H
	DD	00H
	DD	00H
	DD	00H
	DD	00H
	DD	00H
	DD	00H
	DD	00H
	DD	00H
	DD	00H
	DD	00H
	DD	00H
	DD	00H
	DD	00H
	DD	00H
	DD	00H
	DD	00H
	DD	00H
	DD	00H
	DD	00H
	DD	00H
	DD	00H
	DD	00H
	DD	00H
	DD	00H
	DD	00H
	DD	00H
	DD	00H
	DD	00H
	DD	00H
	DD	00H
	DD	00H
	DD	00H
	DD	00H
	DD	00H
	DD	00H
	DD	00H
	DD	00H
	DD	00H
	DD	00H
	DD	00H
	DD	00H
	DD	00H
	DD	00H
	DD	00H
	DD	00H
	DD	00H
	DD	00H
	DD	00H
	DD	00H
	DD	00H
	DD	00H
	DD	00H
	DD	00H
	DD	00H
	DD	00H
	DD	00H
	DD	00H
	DD	00H
	DD	00H
	DD	00H
	DD	00H
	DD	00H
	DD	00H
	DD	00H
	DD	00H
	DD	00H
	DD	00H
	DD	00H
	DD	00H
	DD	00H
	DD	00H
	DD	00H
	DD	00H
	DD	00H
	DD	00H
	DD	00H
	DD	00H
	DD	00H
	DD	00H
	DD	00H
	DD	00H
	DD	00H
	DD	00H
	DD	00H
	DD	00H
	DD	00H
	DD	00H
	DD	00H
	DD	00H
	DD	00H
	DD	00H
	DD	00H
	DD	00H
	DD	00H
	DD	00H
	DD	00H
	DD	00H
	DD	00H
	DD	00H
	DD	00H
	DD	00H
	DD	00H
	DD	00H
	DD	00H
	DD	00H
	DD	00H
	DD	00H
	DD	00H
	DD	00H
	DD	00H
	DD	00H
	DD	00H
	DD	00H
	DD	00H
	DD	00H
	DD	00H
	DD	00H
	DD	00H
	DD	00H
	DD	00H
	DD	00H
	DD	00H
	DD	00H
	DD	00H
	DD	00H
	DD	00H
	DD	00H
	DD	00H
	DD	00H
	DD	00H
	DD	00H
	DD	00H
	DD	00H
	DD	00H
	DD	00H
	DD	00H
	DD	00H
	DD	00H
	DD	00H
	DD	00H
	DD	00H
	DD	00H
	DD	00H
	DD	00H
	DD	00H
	DD	00H
	DD	00H
	DD	00H
	DD	00H
	DD	00H
	DD	00H
	DD	00H
	DD	00H
	DD	00H
	DD	00H
	DD	00H
	DD	00H
	DD	00H
	DD	00H
	DD	00H
	DD	00H
	DD	00H
	DD	00H
	DD	00H
	DD	00H
	DD	00H
	DD	00H
	DD	00H
	DD	00H
	DD	00H
	DD	00H
	DD	00H
	DD	00H
	DD	00H
	DD	00H
	DD	00H
	DD	00H
	DD	00H
	DD	00H
	DD	00H
	DD	00H
	DD	00H
	DD	00H
	DD	00H
	DD	00H
	DD	00H
	DD	00H
	DD	00H
	DD	00H
	DD	00H
	DD	00H
	DD	00H
	DD	00H
	DD	00H
	DD	00H
	DD	00H
	DD	00H
	DD	00H
	DD	00H
	DD	00H
	DD	00H
	DD	00H
	DD	00H
	DD	00H
	DD	00H
	DD	00H
	DD	00H
	DD	00H
	DD	00H
	DD	00H
	DD	00H
	DD	00H
	DD	00H
	DD	00H
	DD	00H
	DD	00H
	DD	00H
	DD	00H
	DD	00H
	DD	00H
	DD	00H
	DD	00H
	DD	00H
	DD	00H
	DD	00H
	DD	00H
	DD	00H
	DD	00H
	DD	00H
	DD	00H
	DD	00H
	DD	00H
	DD	00H
	DD	00H
	DD	00H
	DD	00H
	DD	00H
	DD	00H
	DD	00H
	DD	00H
	DD	01H
	DD	01H
	DD	01H
	DD	01H
	DD	01H
	DD	01H
	DD	01H
	DD	01H
	DD	01H
	DD	01H
	DD	01H
	DD	01H
	DD	01H
	DD	01H
	DD	01H
	DD	01H
	DD	01H
	DD	01H
	DD	01H
	DD	01H
	DD	01H
	DD	01H
	DD	01H
	DD	01H
	DD	01H
	DD	01H
	DD	01H
	DD	00H
	DD	00H
	DD	00H
	DD	00H
	DD	00H
	DD	00H
	DD	00H
	DD	00H
	DD	00H
	DD	00H
	DD	00H
	DD	00H
	DD	00H
	DD	00H
	DD	00H
	DD	00H
	DD	00H
	DD	00H
	DD	00H
	DD	00H
	DD	00H
	DD	00H
	DD	00H
	DD	00H
	DD	00H
	DD	00H
	DD	00H
	DD	00H
	DD	00H
	DD	00H
	DD	00H
	DD	00H
	DD	00H
	DD	00H
	DD	00H
	DD	00H
	DD	00H
	DD	00H
	DD	00H
	DD	00H
	DD	00H
	DD	00H
	DD	00H
	DD	00H
	DD	00H
	DD	00H
	DD	00H
	DD	00H
	DD	00H
	DD	00H
	DD	00H
	DD	00H
	DD	00H
	DD	02H
	DD	03H
	DD	00H
	DD	00H
	DD	00H
	DD	00H
	DD	00H
	DD	00H
	DD	00H
	DD	00H
	DD	00H
	DD	00H
	DD	00H
	DD	00H
	DD	00H
	DD	00H
	DD	00H
	DD	05H
	DD	00H
	DD	00H
	DD	00H
	DD	00H
	DD	00H
	DD	00H
	DD	00H
	DD	00H
	DD	01H
	DD	00H
	DD	00H
	DD	00H
	DD	00H
	DD	00H
	DD	00H
	DD	00H
	DD	00H
	DD	00H
	DD	00H
	DD	00H
	DD	00H
	DD	00H
	DD	00H
	DD	00H
	DD	00H
	DD	00H
	DD	00H
	DD	00H
	DD	00H
	DD	00H
	DD	00H
	DD	00H
	DD	00H
	DD	00H
	DD	00H
	DD	00H
	DD	00H
	DD	00H
	DD	00H
	DD	00H
	DD	00H
	DD	00H
	DD	00H
	DD	00H
	DD	00H
	DD	00H
	DD	00H
	DD	00H
	DD	00H
	DD	00H
	DD	00H
	DD	00H
	DD	00H
	DD	00H
	DD	00H
	DD	00H
	DD	00H
	DD	00H
	DD	00H
	DD	00H
	DD	00H
	DD	00H
	DD	02H
	DD	01H
	DD	00H
	DD	00H
	DD	00H
	DD	00H
	DD	00H
	DD	00H
	DD	00H
	DD	00H
	DD	00H
	DD	00H
	DD	00H
	DD	01H
	DD	00H
	DD	00H
	DD	00H
	DD	05H
	DD	00H
	DD	00H
	DD	00H
	DD	01H
	DD	00H
	DD	05H
	DD	00H
	DD	00H
	DD	01H
	DD	00H
	DD	00H
	DD	00H
	DD	00H
	DD	00H
	DD	00H
	DD	00H
	DD	00H
	DD	00H
	DD	00H
	DD	00H
	DD	00H
	DD	00H
	DD	00H
	DD	00H
	DD	00H
	DD	00H
	DD	00H
	DD	00H
	DD	00H
	DD	00H
	DD	00H
	DD	00H
	DD	00H
	DD	00H
	DD	00H
	DD	00H
	DD	00H
	DD	00H
	DD	00H
	DD	00H
	DD	00H
	DD	00H
	DD	00H
	DD	00H
	DD	00H
	DD	00H
	DD	00H
	DD	00H
	DD	00H
	DD	00H
	DD	00H
	DD	00H
	DD	00H
	DD	00H
	DD	00H
	DD	00H
	DD	00H
	DD	00H
	DD	00H
	DD	00H
	DD	00H
	DD	00H
	DD	02H
	DD	01H
	DD	06H
	DD	00H
	DD	06H
	DD	00H
	DD	06H
	DD	00H
	DD	06H
	DD	05H
	DD	06H
	DD	05H
	DD	06H
	DD	01H
	DD	00H
	DD	05H
	DD	00H
	DD	00H
	DD	00H
	DD	05H
	DD	07H
	DD	01H
	DD	00H
	DD	01H
	DD	00H
	DD	05H
	DD	01H
	DD	00H
	DD	00H
	DD	00H
	DD	00H
	DD	00H
	DD	00H
	DD	00H
	DD	00H
	DD	00H
	DD	00H
	DD	00H
	DD	00H
	DD	00H
	DD	00H
	DD	00H
	DD	00H
	DD	00H
	DD	00H
	DD	00H
	DD	00H
	DD	00H
	DD	00H
	DD	00H
	DD	00H
	DD	00H
	DD	00H
	DD	00H
	DD	00H
	DD	00H
	DD	00H
	DD	00H
	DD	00H
	DD	00H
	DD	00H
	DD	00H
	DD	00H
	DD	00H
	DD	00H
	DD	00H
	DD	00H
	DD	00H
	DD	00H
	DD	00H
	DD	00H
	DD	00H
	DD	00H
	DD	00H
	DD	00H
	DD	00H
	DD	00H
	DD	00H
	DD	00H
	DD	00H
	DD	02H
	DD	01H
	DD	05H
	DD	05H
	DD	05H
	DD	05H
	DD	05H
	DD	05H
	DD	08H
	DD	08H
	DD	08H
	DD	08H
	DD	08H
	DD	01H
	DD	01H
	DD	01H
	DD	01H
	DD	01H
	DD	01H
	DD	01H
	DD	01H
	DD	01H
	DD	00H
	DD	01H
	DD	00H
	DD	00H
	DD	01H
	DD	00H
	DD	00H
	DD	00H
	DD	00H
	DD	00H
	DD	00H
	DD	00H
	DD	00H
	DD	00H
	DD	00H
	DD	00H
	DD	00H
	DD	00H
	DD	00H
	DD	00H
	DD	00H
	DD	00H
	DD	00H
	DD	00H
	DD	00H
	DD	00H
	DD	00H
	DD	00H
	DD	00H
	DD	00H
	DD	00H
	DD	00H
	DD	00H
	DD	00H
	DD	00H
	DD	00H
	DD	00H
	DD	00H
	DD	00H
	DD	00H
	DD	00H
	DD	00H
	DD	00H
	DD	00H
	DD	00H
	DD	00H
	DD	00H
	DD	00H
	DD	00H
	DD	00H
	DD	00H
	DD	00H
	DD	00H
	DD	00H
	DD	00H
	DD	00H
	DD	00H
	DD	00H
	DD	02H
	DD	02H
	DD	02H
	DD	02H
	DD	02H
	DD	02H
	DD	02H
	DD	00H
	DD	00H
	DD	00H
	DD	00H
	DD	00H
	DD	00H
	DD	00H
	DD	00H
	DD	00H
	DD	00H
	DD	00H
	DD	05H
	DD	00H
	DD	00H
	DD	01H
	DD	00H
	DD	01H
	DD	00H
	DD	00H
	DD	01H
	DD	00H
	DD	00H
	DD	00H
	DD	00H
	DD	00H
	DD	00H
	DD	00H
	DD	00H
	DD	00H
	DD	00H
	DD	00H
	DD	00H
	DD	00H
	DD	00H
	DD	00H
	DD	00H
	DD	00H
	DD	00H
	DD	00H
	DD	00H
	DD	00H
	DD	00H
	DD	00H
	DD	00H
	DD	00H
	DD	00H
	DD	00H
	DD	00H
	DD	00H
	DD	00H
	DD	00H
	DD	00H
	DD	00H
	DD	00H
	DD	00H
	DD	00H
	DD	00H
	DD	00H
	DD	00H
	DD	00H
	DD	00H
	DD	00H
	DD	00H
	DD	00H
	DD	00H
	DD	00H
	DD	00H
	DD	00H
	DD	00H
	DD	00H
	DD	00H
	DD	00H
	DD	00H
	DD	01H
	DD	01H
	DD	01H
	DD	01H
	DD	01H
	DD	01H
	DD	01H
	DD	01H
	DD	07H
	DD	07H
	DD	07H
	DD	07H
	DD	07H
	DD	01H
	DD	00H
	DD	00H
	DD	01H
	DD	00H
	DD	00H
	DD	01H
	DD	00H
	DD	01H
	DD	00H
	DD	01H
	DD	00H
	DD	00H
	DD	01H
	DD	00H
	DD	00H
	DD	00H
	DD	00H
	DD	00H
	DD	00H
	DD	00H
	DD	00H
	DD	00H
	DD	00H
	DD	00H
	DD	00H
	DD	00H
	DD	00H
	DD	00H
	DD	00H
	DD	00H
	DD	00H
	DD	00H
	DD	00H
	DD	00H
	DD	00H
	DD	00H
	DD	00H
	DD	00H
	DD	00H
	DD	00H
	DD	00H
	DD	00H
	DD	00H
	DD	00H
	DD	00H
	DD	00H
	DD	00H
	DD	00H
	DD	00H
	DD	00H
	DD	00H
	DD	00H
	DD	00H
	DD	00H
	DD	00H
	DD	00H
	DD	00H
	DD	00H
	DD	00H
	DD	00H
	DD	00H
	DD	00H
	DD	00H
	DD	00H
	DD	00H
	DD	00H
	DD	01H
	DD	01H
	DD	01H
	DD	05H
	DD	00H
	DD	00H
	DD	05H
	DD	01H
	DD	01H
	DD	01H
	DD	01H
	DD	01H
	DD	01H
	DD	01H
	DD	01H
	DD	00H
	DD	00H
	DD	00H
	DD	00H
	DD	00H
	DD	00H
	DD	01H
	DD	00H
	DD	01H
	DD	05H
	DD	00H
	DD	01H
	DD	00H
	DD	00H
	DD	00H
	DD	00H
	DD	00H
	DD	00H
	DD	00H
	DD	00H
	DD	00H
	DD	00H
	DD	00H
	DD	00H
	DD	00H
	DD	00H
	DD	00H
	DD	00H
	DD	00H
	DD	00H
	DD	00H
	DD	00H
	DD	00H
	DD	00H
	DD	00H
	DD	00H
	DD	00H
	DD	00H
	DD	00H
	DD	00H
	DD	00H
	DD	00H
	DD	00H
	DD	00H
	DD	00H
	DD	00H
	DD	00H
	DD	00H
	DD	00H
	DD	00H
	DD	00H
	DD	00H
	DD	00H
	DD	00H
	DD	00H
	DD	00H
	DD	00H
	DD	00H
	DD	00H
	DD	00H
	DD	00H
	DD	00H
	DD	00H
	DD	00H
	DD	00H
	DD	01H
	DD	05H
	DD	05H
	DD	00H
	DD	00H
	DD	00H
	DD	00H
	DD	05H
	DD	05H
	DD	00H
	DD	00H
	DD	00H
	DD	05H
	DD	01H
	DD	05H
	DD	00H
	DD	00H
	DD	01H
	DD	00H
	DD	00H
	DD	05H
	DD	01H
	DD	00H
	DD	01H
	DD	00H
	DD	00H
	DD	01H
	DD	00H
	DD	00H
	DD	00H
	DD	00H
	DD	00H
	DD	00H
	DD	00H
	DD	00H
	DD	00H
	DD	00H
	DD	00H
	DD	00H
	DD	00H
	DD	00H
	DD	00H
	DD	00H
	DD	00H
	DD	00H
	DD	00H
	DD	00H
	DD	00H
	DD	00H
	DD	00H
	DD	00H
	DD	00H
	DD	00H
	DD	00H
	DD	00H
	DD	00H
	DD	00H
	DD	00H
	DD	00H
	DD	00H
	DD	00H
	DD	00H
	DD	00H
	DD	00H
	DD	00H
	DD	00H
	DD	00H
	DD	00H
	DD	00H
	DD	00H
	DD	00H
	DD	00H
	DD	00H
	DD	00H
	DD	00H
	DD	00H
	DD	00H
	DD	00H
	DD	00H
	DD	00H
	DD	01H
	DD	00H
	DD	00H
	DD	00H
	DD	00H
	DD	00H
	DD	00H
	DD	00H
	DD	00H
	DD	00H
	DD	00H
	DD	00H
	DD	00H
	DD	01H
	DD	00H
	DD	00H
	DD	00H
	DD	05H
	DD	00H
	DD	01H
	DD	05H
	DD	01H
	DD	06H
	DD	01H
	DD	00H
	DD	00H
	DD	01H
	DD	00H
	DD	00H
	DD	00H
	DD	00H
	DD	00H
	DD	00H
	DD	00H
	DD	00H
	DD	00H
	DD	00H
	DD	00H
	DD	00H
	DD	00H
	DD	00H
	DD	00H
	DD	00H
	DD	00H
	DD	00H
	DD	00H
	DD	00H
	DD	00H
	DD	00H
	DD	00H
	DD	00H
	DD	00H
	DD	00H
	DD	00H
	DD	00H
	DD	00H
	DD	00H
	DD	00H
	DD	00H
	DD	00H
	DD	00H
	DD	00H
	DD	00H
	DD	00H
	DD	00H
	DD	00H
	DD	00H
	DD	00H
	DD	00H
	DD	00H
	DD	00H
	DD	00H
	DD	00H
	DD	00H
	DD	00H
	DD	00H
	DD	00H
	DD	00H
	DD	00H
	DD	00H
	DD	01H
	DD	00H
	DD	00H
	DD	01H
	DD	05H
	DD	05H
	DD	00H
	DD	00H
	DD	00H
	DD	00H
	DD	05H
	DD	00H
	DD	00H
	DD	01H
	DD	00H
	DD	01H
	DD	00H
	DD	00H
	DD	00H
	DD	00H
	DD	00H
	DD	01H
	DD	05H
	DD	01H
	DD	00H
	DD	01H
	DD	01H
	DD	00H
	DD	00H
	DD	00H
	DD	00H
	DD	00H
	DD	00H
	DD	00H
	DD	00H
	DD	00H
	DD	00H
	DD	00H
	DD	00H
	DD	00H
	DD	00H
	DD	00H
	DD	00H
	DD	00H
	DD	00H
	DD	00H
	DD	00H
	DD	00H
	DD	00H
	DD	00H
	DD	00H
	DD	00H
	DD	00H
	DD	00H
	DD	00H
	DD	00H
	DD	00H
	DD	00H
	DD	00H
	DD	00H
	DD	00H
	DD	00H
	DD	00H
	DD	00H
	DD	00H
	DD	00H
	DD	00H
	DD	00H
	DD	00H
	DD	00H
	DD	00H
	DD	00H
	DD	00H
	DD	00H
	DD	00H
	DD	00H
	DD	00H
	DD	00H
	DD	00H
	DD	00H
	DD	01H
	DD	03H
	DD	01H
	DD	01H
	DD	01H
	DD	01H
	DD	01H
	DD	01H
	DD	01H
	DD	01H
	DD	05H
	DD	05H
	DD	00H
	DD	01H
	DD	05H
	DD	00H
	DD	00H
	DD	00H
	DD	01H
	DD	00H
	DD	00H
	DD	00H
	DD	00H
	DD	05H
	DD	00H
	DD	00H
	DD	01H
	DD	00H
	DD	00H
	DD	00H
	DD	00H
	DD	00H
	DD	00H
	DD	00H
	DD	00H
	DD	00H
	DD	00H
	DD	00H
	DD	00H
	DD	00H
	DD	00H
	DD	00H
	DD	00H
	DD	00H
	DD	00H
	DD	00H
	DD	00H
	DD	00H
	DD	00H
	DD	00H
	DD	00H
	DD	00H
	DD	00H
	DD	00H
	DD	00H
	DD	00H
	DD	00H
	DD	00H
	DD	00H
	DD	00H
	DD	00H
	DD	00H
	DD	00H
	DD	00H
	DD	00H
	DD	00H
	DD	00H
	DD	00H
	DD	00H
	DD	00H
	DD	00H
	DD	00H
	DD	00H
	DD	00H
	DD	00H
	DD	00H
	DD	00H
	DD	00H
	DD	00H
	DD	00H
	DD	01H
	DD	02H
	DD	02H
	DD	02H
	DD	02H
	DD	02H
	DD	02H
	DD	00H
	DD	00H
	DD	01H
	DD	00H
	DD	00H
	DD	00H
	DD	01H
	DD	01H
	DD	01H
	DD	01H
	DD	01H
	DD	01H
	DD	01H
	DD	01H
	DD	01H
	DD	00H
	DD	01H
	DD	00H
	DD	00H
	DD	01H
	DD	00H
	DD	00H
	DD	00H
	DD	00H
	DD	00H
	DD	00H
	DD	00H
	DD	00H
	DD	00H
	DD	00H
	DD	00H
	DD	00H
	DD	00H
	DD	00H
	DD	00H
	DD	00H
	DD	00H
	DD	00H
	DD	00H
	DD	00H
	DD	00H
	DD	00H
	DD	00H
	DD	00H
	DD	00H
	DD	00H
	DD	00H
	DD	00H
	DD	00H
	DD	00H
	DD	00H
	DD	00H
	DD	00H
	DD	00H
	DD	00H
	DD	00H
	DD	00H
	DD	00H
	DD	00H
	DD	00H
	DD	00H
	DD	00H
	DD	00H
	DD	00H
	DD	00H
	DD	00H
	DD	00H
	DD	00H
	DD	00H
	DD	00H
	DD	00H
	DD	00H
	DD	00H
	DD	01H
	DD	01H
	DD	01H
	DD	01H
	DD	01H
	DD	01H
	DD	01H
	DD	01H
	DD	00H
	DD	01H
	DD	00H
	DD	01H
	DD	01H
	DD	01H
	DD	00H
	DD	01H
	DD	00H
	DD	01H
	DD	05H
	DD	01H
	DD	05H
	DD	01H
	DD	00H
	DD	05H
	DD	05H
	DD	00H
	DD	01H
	DD	00H
	DD	00H
	DD	00H
	DD	00H
	DD	00H
	DD	00H
	DD	00H
	DD	00H
	DD	00H
	DD	00H
	DD	00H
	DD	00H
	DD	00H
	DD	00H
	DD	00H
	DD	00H
	DD	00H
	DD	00H
	DD	00H
	DD	00H
	DD	00H
	DD	00H
	DD	00H
	DD	00H
	DD	00H
	DD	00H
	DD	00H
	DD	00H
	DD	00H
	DD	00H
	DD	00H
	DD	00H
	DD	00H
	DD	00H
	DD	00H
	DD	00H
	DD	00H
	DD	00H
	DD	00H
	DD	00H
	DD	00H
	DD	00H
	DD	00H
	DD	00H
	DD	00H
	DD	00H
	DD	00H
	DD	00H
	DD	00H
	DD	00H
	DD	00H
	DD	00H
	DD	00H
	DD	01H
	DD	00H
	DD	00H
	DD	00H
	DD	00H
	DD	00H
	DD	00H
	DD	00H
	DD	00H
	DD	01H
	DD	00H
	DD	00H
	DD	00H
	DD	00H
	DD	00H
	DD	00H
	DD	00H
	DD	00H
	DD	00H
	DD	01H
	DD	00H
	DD	00H
	DD	00H
	DD	01H
	DD	05H
	DD	00H
	DD	01H
	DD	00H
	DD	00H
	DD	00H
	DD	09H
	DD	00H
	DD	00H
	DD	01H
	DD	00H
	DD	00H
	DD	00H
	DD	00H
	DD	00H
	DD	00H
	DD	00H
	DD	00H
	DD	00H
	DD	00H
	DD	00H
	DD	00H
	DD	00H
	DD	00H
	DD	00H
	DD	00H
	DD	00H
	DD	00H
	DD	00H
	DD	00H
	DD	00H
	DD	00H
	DD	00H
	DD	00H
	DD	00H
	DD	00H
	DD	00H
	DD	00H
	DD	00H
	DD	00H
	DD	00H
	DD	00H
	DD	00H
	DD	00H
	DD	00H
	DD	00H
	DD	00H
	DD	00H
	DD	00H
	DD	00H
	DD	00H
	DD	00H
	DD	00H
	DD	00H
	DD	00H
	DD	00H
	DD	01H
	DD	00H
	DD	00H
	DD	00H
	DD	01H
	DD	00H
	DD	00H
	DD	01H
	DD	00H
	DD	01H
	DD	00H
	DD	00H
	DD	00H
	DD	01H
	DD	00H
	DD	00H
	DD	00H
	DD	01H
	DD	00H
	DD	00H
	DD	00H
	DD	01H
	DD	00H
	DD	05H
	DD	05H
	DD	00H
	DD	01H
	DD	00H
	DD	00H
	DD	00H
	DD	00H
	DD	00H
	DD	00H
	DD	00H
	DD	00H
	DD	0bH
	DD	00H
	DD	00H
	DD	01H
	DD	00H
	DD	00H
	DD	00H
	DD	00H
	DD	00H
	DD	00H
	DD	00H
	DD	00H
	DD	00H
	DD	00H
	DD	00H
	DD	00H
	DD	00H
	DD	00H
	DD	00H
	DD	00H
	DD	00H
	DD	00H
	DD	00H
	DD	00H
	DD	00H
	DD	00H
	DD	00H
	DD	00H
	DD	00H
	DD	00H
	DD	00H
	DD	00H
	DD	00H
	DD	00H
	DD	00H
	DD	00H
	DD	00H
	DD	00H
	DD	00H
	DD	00H
	DD	00H
	DD	00H
	DD	00H
	DD	00H
	DD	00H
	DD	01H
	DD	04H
	DD	00H
	DD	01H
	DD	01H
	DD	00H
	DD	05H
	DD	01H
	DD	05H
	DD	01H
	DD	05H
	DD	01H
	DD	05H
	DD	01H
	DD	05H
	DD	00H
	DD	05H
	DD	01H
	DD	05H
	DD	01H
	DD	00H
	DD	01H
	DD	06H
	DD	01H
	DD	05H
	DD	00H
	DD	00H
	DD	00H
	DD	01H
	DD	00H
	DD	0aH
	DD	00H
	DD	00H
	DD	01H
	DD	00H
	DD	00H
	DD	00H
	DD	00H
	DD	00H
	DD	00H
	DD	00H
	DD	00H
	DD	00H
	DD	00H
	DD	00H
	DD	00H
	DD	00H
	DD	00H
	DD	00H
	DD	00H
	DD	00H
	DD	00H
	DD	00H
	DD	00H
	DD	00H
	DD	00H
	DD	00H
	DD	00H
	DD	00H
	DD	00H
	DD	00H
	DD	00H
	DD	00H
	DD	00H
	DD	00H
	DD	00H
	DD	00H
	DD	00H
	DD	00H
	DD	00H
	DD	00H
	DD	00H
	DD	00H
	DD	00H
	DD	00H
	DD	00H
	DD	00H
	DD	00H
	DD	00H
	DD	00H
	DD	01H
	DD	01H
	DD	01H
	DD	01H
	DD	01H
	DD	01H
	DD	01H
	DD	01H
	DD	01H
	DD	01H
	DD	01H
	DD	01H
	DD	01H
	DD	01H
	DD	01H
	DD	01H
	DD	01H
	DD	01H
	DD	01H
	DD	01H
	DD	05H
	DD	01H
	DD	01H
	DD	01H
	DD	01H
	DD	01H
	DD	01H
	DD	01H
	DD	01H
	DD	01H
	DD	01H
	DD	01H
	DD	01H
	DD	01H
	DD	01H
	DD	01H
	DD	01H
	DD	01H
	DD	01H
	DD	01H
	DD	01H
	DD	01H
	DD	01H
	DD	01H
	DD	01H
	DD	01H
	DD	01H
	DD	01H
	DD	01H
	DD	01H
	DD	01H
	DD	01H
	DD	01H
	DD	01H
	DD	01H
	DD	01H
	DD	01H
	DD	01H
	DD	01H
	DD	01H
	DD	01H
	DD	01H
	DD	01H
	DD	01H
	DD	01H
	DD	01H
	DD	01H
	DD	01H
	DD	01H
	DD	01H
	DD	01H
	DD	01H
	DD	01H
	DD	01H
	DD	01H
	DD	01H
	DD	01H
	DD	01H
	DD	01H
	DD	01H
_DATA	ENDS
PUBLIC	?__empty_global_delete@@YAXPAX@Z		; __empty_global_delete
PUBLIC	?__empty_global_delete@@YAXPAXI@Z		; __empty_global_delete
PUBLIC	??2@YAPAXIPAX@Z					; operator new
PUBLIC	??0_Container_proxy@std@@QAE@XZ			; std::_Container_proxy::_Container_proxy
PUBLIC	??0_Container_base12@std@@QAE@XZ		; std::_Container_base12::_Container_base12
PUBLIC	??1_Container_base12@std@@QAE@XZ		; std::_Container_base12::~_Container_base12
PUBLIC	?_Getpfirst@_Container_base12@std@@QBEPAPAU_Iterator_base12@2@XZ ; std::_Container_base12::_Getpfirst
PUBLIC	?_Orphan_all@_Container_base12@std@@QAEXXZ	; std::_Container_base12::_Orphan_all
PUBLIC	??0_Iterator_base12@std@@QAE@XZ			; std::_Iterator_base12::_Iterator_base12
PUBLIC	??1_Iterator_base12@std@@QAE@XZ			; std::_Iterator_base12::~_Iterator_base12
PUBLIC	?_Adopt@_Iterator_base12@std@@QAEXPBU_Container_base12@2@@Z ; std::_Iterator_base12::_Adopt
PUBLIC	?_Clrcont@_Iterator_base12@std@@QAEXXZ		; std::_Iterator_base12::_Clrcont
PUBLIC	?_Getcont@_Iterator_base12@std@@QBEPBU_Container_base12@2@XZ ; std::_Iterator_base12::_Getcont
PUBLIC	?_Getpnext@_Iterator_base12@std@@QAEPAPAU12@XZ	; std::_Iterator_base12::_Getpnext
PUBLIC	?_Orphan_me@_Iterator_base12@std@@QAEXXZ	; std::_Iterator_base12::_Orphan_me
PUBLIC	?_Allocate@std@@YAPAXII_N@Z			; std::_Allocate
PUBLIC	?_Deallocate@std@@YAXPAXII@Z			; std::_Deallocate
PUBLIC	?top@Tile@@QAENXZ				; Tile::top
PUBLIC	?bottom@Tile@@QAENXZ				; Tile::bottom
PUBLIC	?left@Tile@@QAENXZ				; Tile::left
PUBLIC	?right@Tile@@QAENXZ				; Tile::right
PUBLIC	??0Tile@@QAE@XZ					; Tile::Tile
PUBLIC	??0MovingTile@@QAE@XZ				; MovingTile::MovingTile
PUBLIC	??0SpawnTile@@QAE@XZ				; SpawnTile::SpawnTile
PUBLIC	??0PushTile@@QAE@XZ				; PushTile::PushTile
PUBLIC	??0?$allocator@UPushTile@@@std@@QAE@XZ		; std::allocator<PushTile>::allocator<PushTile>
PUBLIC	?deallocate@?$allocator@UPushTile@@@std@@QAEXPAUPushTile@@I@Z ; std::allocator<PushTile>::deallocate
PUBLIC	?allocate@?$allocator@UPushTile@@@std@@QAEPAUPushTile@@I@Z ; std::allocator<PushTile>::allocate
PUBLIC	?max_size@?$allocator@UPushTile@@@std@@QBEIXZ	; std::allocator<PushTile>::max_size
PUBLIC	?max_size@?$allocator_traits@V?$allocator@UPushTile@@@std@@@std@@SAIABV?$allocator@UPushTile@@@2@@Z ; std::allocator_traits<std::allocator<PushTile> >::max_size
PUBLIC	??0?$_Wrap_alloc@V?$allocator@UPushTile@@@std@@@std@@QAE@XZ ; std::_Wrap_alloc<std::allocator<PushTile> >::_Wrap_alloc<std::allocator<PushTile> >
PUBLIC	?allocate@?$_Wrap_alloc@V?$allocator@UPushTile@@@std@@@std@@QAEPAUPushTile@@I@Z ; std::_Wrap_alloc<std::allocator<PushTile> >::allocate
PUBLIC	?deallocate@?$_Wrap_alloc@V?$allocator@UPushTile@@@std@@@std@@QAEXPAUPushTile@@I@Z ; std::_Wrap_alloc<std::allocator<PushTile> >::deallocate
PUBLIC	?max_size@?$_Wrap_alloc@V?$allocator@UPushTile@@@std@@@std@@QBEIU_Nil@2@@Z ; std::_Wrap_alloc<std::allocator<PushTile> >::max_size
PUBLIC	??0?$_Vector_alloc@U?$_Vec_base_types@UPushTile@@V?$allocator@UPushTile@@@std@@@std@@@std@@QAE@XZ ; std::_Vector_alloc<std::_Vec_base_types<PushTile,std::allocator<PushTile> > >::_Vector_alloc<std::_Vec_base_types<PushTile,std::allocator<PushTile> > >
PUBLIC	??1?$_Vector_alloc@U?$_Vec_base_types@UPushTile@@V?$allocator@UPushTile@@@std@@@std@@@std@@QAE@XZ ; std::_Vector_alloc<std::_Vec_base_types<PushTile,std::allocator<PushTile> > >::~_Vector_alloc<std::_Vec_base_types<PushTile,std::allocator<PushTile> > >
PUBLIC	?_Alloc_proxy@?$_Vector_alloc@U?$_Vec_base_types@UPushTile@@V?$allocator@UPushTile@@@std@@@std@@@std@@QAEXXZ ; std::_Vector_alloc<std::_Vec_base_types<PushTile,std::allocator<PushTile> > >::_Alloc_proxy
PUBLIC	?_Free_proxy@?$_Vector_alloc@U?$_Vec_base_types@UPushTile@@V?$allocator@UPushTile@@@std@@@std@@@std@@QAEXXZ ; std::_Vector_alloc<std::_Vec_base_types<PushTile,std::allocator<PushTile> > >::_Free_proxy
PUBLIC	?_Getpfirst@?$_Vector_alloc@U?$_Vec_base_types@UPushTile@@V?$allocator@UPushTile@@@std@@@std@@@std@@QBEPAPAU_Iterator_base12@2@XZ ; std::_Vector_alloc<std::_Vec_base_types<PushTile,std::allocator<PushTile> > >::_Getpfirst
PUBLIC	?_Myproxy@?$_Vector_alloc@U?$_Vec_base_types@UPushTile@@V?$allocator@UPushTile@@@std@@@std@@@std@@QAEAAPAU_Container_proxy@2@XZ ; std::_Vector_alloc<std::_Vec_base_types<PushTile,std::allocator<PushTile> > >::_Myproxy
PUBLIC	?_Orphan_all@?$_Vector_alloc@U?$_Vec_base_types@UPushTile@@V?$allocator@UPushTile@@@std@@@std@@@std@@QAEXXZ ; std::_Vector_alloc<std::_Vec_base_types<PushTile,std::allocator<PushTile> > >::_Orphan_all
PUBLIC	?_Getal@?$_Vector_alloc@U?$_Vec_base_types@UPushTile@@V?$allocator@UPushTile@@@std@@@std@@@std@@QAEAAU?$_Wrap_alloc@V?$allocator@UPushTile@@@std@@@2@XZ ; std::_Vector_alloc<std::_Vec_base_types<PushTile,std::allocator<PushTile> > >::_Getal
PUBLIC	?_Getal@?$_Vector_alloc@U?$_Vec_base_types@UPushTile@@V?$allocator@UPushTile@@@std@@@std@@@std@@QBEABU?$_Wrap_alloc@V?$allocator@UPushTile@@@std@@@2@XZ ; std::_Vector_alloc<std::_Vec_base_types<PushTile,std::allocator<PushTile> > >::_Getal
PUBLIC	?_Get_data@?$_Vector_alloc@U?$_Vec_base_types@UPushTile@@V?$allocator@UPushTile@@@std@@@std@@@std@@QAEAAV?$_Vector_val@U?$_Simple_types@UPushTile@@@std@@@2@XZ ; std::_Vector_alloc<std::_Vec_base_types<PushTile,std::allocator<PushTile> > >::_Get_data
PUBLIC	?_Get_data@?$_Vector_alloc@U?$_Vec_base_types@UPushTile@@V?$allocator@UPushTile@@@std@@@std@@@std@@QBEABV?$_Vector_val@U?$_Simple_types@UPushTile@@@std@@@2@XZ ; std::_Vector_alloc<std::_Vec_base_types<PushTile,std::allocator<PushTile> > >::_Get_data
PUBLIC	?_Myfirst@?$_Vector_alloc@U?$_Vec_base_types@UPushTile@@V?$allocator@UPushTile@@@std@@@std@@@std@@QAEAAPAUPushTile@@XZ ; std::_Vector_alloc<std::_Vec_base_types<PushTile,std::allocator<PushTile> > >::_Myfirst
PUBLIC	?_Myfirst@?$_Vector_alloc@U?$_Vec_base_types@UPushTile@@V?$allocator@UPushTile@@@std@@@std@@@std@@QBEABQAUPushTile@@XZ ; std::_Vector_alloc<std::_Vec_base_types<PushTile,std::allocator<PushTile> > >::_Myfirst
PUBLIC	?_Mylast@?$_Vector_alloc@U?$_Vec_base_types@UPushTile@@V?$allocator@UPushTile@@@std@@@std@@@std@@QAEAAPAUPushTile@@XZ ; std::_Vector_alloc<std::_Vec_base_types<PushTile,std::allocator<PushTile> > >::_Mylast
PUBLIC	?_Mylast@?$_Vector_alloc@U?$_Vec_base_types@UPushTile@@V?$allocator@UPushTile@@@std@@@std@@@std@@QBEABQAUPushTile@@XZ ; std::_Vector_alloc<std::_Vec_base_types<PushTile,std::allocator<PushTile> > >::_Mylast
PUBLIC	?_Myend@?$_Vector_alloc@U?$_Vec_base_types@UPushTile@@V?$allocator@UPushTile@@@std@@@std@@@std@@QAEAAPAUPushTile@@XZ ; std::_Vector_alloc<std::_Vec_base_types<PushTile,std::allocator<PushTile> > >::_Myend
PUBLIC	?_Myend@?$_Vector_alloc@U?$_Vec_base_types@UPushTile@@V?$allocator@UPushTile@@@std@@@std@@@std@@QBEABQAUPushTile@@XZ ; std::_Vector_alloc<std::_Vec_base_types<PushTile,std::allocator<PushTile> > >::_Myend
PUBLIC	??0?$_Vector_val@U?$_Simple_types@UPushTile@@@std@@@std@@QAE@XZ ; std::_Vector_val<std::_Simple_types<PushTile> >::_Vector_val<std::_Simple_types<PushTile> >
PUBLIC	??1?$_Vector_val@U?$_Simple_types@UPushTile@@@std@@@std@@QAE@XZ ; std::_Vector_val<std::_Simple_types<PushTile> >::~_Vector_val<std::_Simple_types<PushTile> >
PUBLIC	?_Get_first@?$_Compressed_pair@U?$_Wrap_alloc@V?$allocator@UPushTile@@@std@@@std@@V?$_Vector_val@U?$_Simple_types@UPushTile@@@std@@@2@$00@std@@QAEAAU?$_Wrap_alloc@V?$allocator@UPushTile@@@std@@@2@XZ ; std::_Compressed_pair<std::_Wrap_alloc<std::allocator<PushTile> >,std::_Vector_val<std::_Simple_types<PushTile> >,1>::_Get_first
PUBLIC	?_Get_first@?$_Compressed_pair@U?$_Wrap_alloc@V?$allocator@UPushTile@@@std@@@std@@V?$_Vector_val@U?$_Simple_types@UPushTile@@@std@@@2@$00@std@@QBEABU?$_Wrap_alloc@V?$allocator@UPushTile@@@std@@@2@XZ ; std::_Compressed_pair<std::_Wrap_alloc<std::allocator<PushTile> >,std::_Vector_val<std::_Simple_types<PushTile> >,1>::_Get_first
PUBLIC	?_Get_second@?$_Compressed_pair@U?$_Wrap_alloc@V?$allocator@UPushTile@@@std@@@std@@V?$_Vector_val@U?$_Simple_types@UPushTile@@@std@@@2@$00@std@@QAEAAV?$_Vector_val@U?$_Simple_types@UPushTile@@@std@@@2@XZ ; std::_Compressed_pair<std::_Wrap_alloc<std::allocator<PushTile> >,std::_Vector_val<std::_Simple_types<PushTile> >,1>::_Get_second
PUBLIC	?_Get_second@?$_Compressed_pair@U?$_Wrap_alloc@V?$allocator@UPushTile@@@std@@@std@@V?$_Vector_val@U?$_Simple_types@UPushTile@@@std@@@2@$00@std@@QBEABV?$_Vector_val@U?$_Simple_types@UPushTile@@@std@@@2@XZ ; std::_Compressed_pair<std::_Wrap_alloc<std::allocator<PushTile> >,std::_Vector_val<std::_Simple_types<PushTile> >,1>::_Get_second
PUBLIC	??1?$_Compressed_pair@U?$_Wrap_alloc@V?$allocator@UPushTile@@@std@@@std@@V?$_Vector_val@U?$_Simple_types@UPushTile@@@std@@@2@$00@std@@QAE@XZ ; std::_Compressed_pair<std::_Wrap_alloc<std::allocator<PushTile> >,std::_Vector_val<std::_Simple_types<PushTile> >,1>::~_Compressed_pair<std::_Wrap_alloc<std::allocator<PushTile> >,std::_Vector_val<std::_Simple_types<PushTile> >,1>
PUBLIC	??0?$vector@UPushTile@@V?$allocator@UPushTile@@@std@@@std@@QAE@XZ ; std::vector<PushTile,std::allocator<PushTile> >::vector<PushTile,std::allocator<PushTile> >
PUBLIC	??1?$vector@UPushTile@@V?$allocator@UPushTile@@@std@@@std@@QAE@XZ ; std::vector<PushTile,std::allocator<PushTile> >::~vector<PushTile,std::allocator<PushTile> >
PUBLIC	?capacity@?$vector@UPushTile@@V?$allocator@UPushTile@@@std@@@std@@QBEIXZ ; std::vector<PushTile,std::allocator<PushTile> >::capacity
PUBLIC	?_Unused_capacity@?$vector@UPushTile@@V?$allocator@UPushTile@@@std@@@std@@QBEIXZ ; std::vector<PushTile,std::allocator<PushTile> >::_Unused_capacity
PUBLIC	?size@?$vector@UPushTile@@V?$allocator@UPushTile@@@std@@@std@@QBEIXZ ; std::vector<PushTile,std::allocator<PushTile> >::size
PUBLIC	?max_size@?$vector@UPushTile@@V?$allocator@UPushTile@@@std@@@std@@QBEIXZ ; std::vector<PushTile,std::allocator<PushTile> >::max_size
PUBLIC	?push_back@?$vector@UPushTile@@V?$allocator@UPushTile@@@std@@@std@@QAEXABUPushTile@@@Z ; std::vector<PushTile,std::allocator<PushTile> >::push_back
PUBLIC	?_Destroy@?$vector@UPushTile@@V?$allocator@UPushTile@@@std@@@std@@IAEXPAUPushTile@@0@Z ; std::vector<PushTile,std::allocator<PushTile> >::_Destroy
PUBLIC	?_Grow_to@?$vector@UPushTile@@V?$allocator@UPushTile@@@std@@@std@@IBEII@Z ; std::vector<PushTile,std::allocator<PushTile> >::_Grow_to
PUBLIC	?_Inside@?$vector@UPushTile@@V?$allocator@UPushTile@@@std@@@std@@IBE_NPBUPushTile@@@Z ; std::vector<PushTile,std::allocator<PushTile> >::_Inside
PUBLIC	?_Reallocate@?$vector@UPushTile@@V?$allocator@UPushTile@@@std@@@std@@IAEXI@Z ; std::vector<PushTile,std::allocator<PushTile> >::_Reallocate
PUBLIC	?_Reserve@?$vector@UPushTile@@V?$allocator@UPushTile@@@std@@@std@@IAEXI@Z ; std::vector<PushTile,std::allocator<PushTile> >::_Reserve
PUBLIC	?_Tidy@?$vector@UPushTile@@V?$allocator@UPushTile@@@std@@@std@@IAEXXZ ; std::vector<PushTile,std::allocator<PushTile> >::_Tidy
PUBLIC	?_Xlen@?$vector@UPushTile@@V?$allocator@UPushTile@@@std@@@std@@IBEXXZ ; std::vector<PushTile,std::allocator<PushTile> >::_Xlen
PUBLIC	?_Orphan_range@?$vector@UPushTile@@V?$allocator@UPushTile@@@std@@@std@@IBEXPAUPushTile@@0@Z ; std::vector<PushTile,std::allocator<PushTile> >::_Orphan_range
PUBLIC	?__autoclassinit2@?$vector@UPushTile@@V?$allocator@UPushTile@@@std@@@std@@QAEXI@Z ; std::vector<PushTile,std::allocator<PushTile> >::__autoclassinit2
PUBLIC	?GenerateTileMap@@YAXXZ				; GenerateTileMap
PUBLIC	?UpdateTile@@YAXH@Z				; UpdateTile
PUBLIC	?DrawMap@@YAXXZ					; DrawMap
PUBLIC	??0?$allocator@UTile@@@std@@QAE@XZ		; std::allocator<Tile>::allocator<Tile>
PUBLIC	?deallocate@?$allocator@UTile@@@std@@QAEXPAUTile@@I@Z ; std::allocator<Tile>::deallocate
PUBLIC	?allocate@?$allocator@UTile@@@std@@QAEPAUTile@@I@Z ; std::allocator<Tile>::allocate
PUBLIC	?max_size@?$allocator@UTile@@@std@@QBEIXZ	; std::allocator<Tile>::max_size
PUBLIC	?max_size@?$allocator_traits@V?$allocator@UTile@@@std@@@std@@SAIABV?$allocator@UTile@@@2@@Z ; std::allocator_traits<std::allocator<Tile> >::max_size
PUBLIC	??0?$_Wrap_alloc@V?$allocator@UTile@@@std@@@std@@QAE@XZ ; std::_Wrap_alloc<std::allocator<Tile> >::_Wrap_alloc<std::allocator<Tile> >
PUBLIC	?allocate@?$_Wrap_alloc@V?$allocator@UTile@@@std@@@std@@QAEPAUTile@@I@Z ; std::_Wrap_alloc<std::allocator<Tile> >::allocate
PUBLIC	?deallocate@?$_Wrap_alloc@V?$allocator@UTile@@@std@@@std@@QAEXPAUTile@@I@Z ; std::_Wrap_alloc<std::allocator<Tile> >::deallocate
PUBLIC	?max_size@?$_Wrap_alloc@V?$allocator@UTile@@@std@@@std@@QBEIU_Nil@2@@Z ; std::_Wrap_alloc<std::allocator<Tile> >::max_size
PUBLIC	??0?$_Vector_alloc@U?$_Vec_base_types@UTile@@V?$allocator@UTile@@@std@@@std@@@std@@QAE@XZ ; std::_Vector_alloc<std::_Vec_base_types<Tile,std::allocator<Tile> > >::_Vector_alloc<std::_Vec_base_types<Tile,std::allocator<Tile> > >
PUBLIC	??1?$_Vector_alloc@U?$_Vec_base_types@UTile@@V?$allocator@UTile@@@std@@@std@@@std@@QAE@XZ ; std::_Vector_alloc<std::_Vec_base_types<Tile,std::allocator<Tile> > >::~_Vector_alloc<std::_Vec_base_types<Tile,std::allocator<Tile> > >
PUBLIC	?_Alloc_proxy@?$_Vector_alloc@U?$_Vec_base_types@UTile@@V?$allocator@UTile@@@std@@@std@@@std@@QAEXXZ ; std::_Vector_alloc<std::_Vec_base_types<Tile,std::allocator<Tile> > >::_Alloc_proxy
PUBLIC	?_Free_proxy@?$_Vector_alloc@U?$_Vec_base_types@UTile@@V?$allocator@UTile@@@std@@@std@@@std@@QAEXXZ ; std::_Vector_alloc<std::_Vec_base_types<Tile,std::allocator<Tile> > >::_Free_proxy
PUBLIC	?_Getpfirst@?$_Vector_alloc@U?$_Vec_base_types@UTile@@V?$allocator@UTile@@@std@@@std@@@std@@QBEPAPAU_Iterator_base12@2@XZ ; std::_Vector_alloc<std::_Vec_base_types<Tile,std::allocator<Tile> > >::_Getpfirst
PUBLIC	?_Myproxy@?$_Vector_alloc@U?$_Vec_base_types@UTile@@V?$allocator@UTile@@@std@@@std@@@std@@QAEAAPAU_Container_proxy@2@XZ ; std::_Vector_alloc<std::_Vec_base_types<Tile,std::allocator<Tile> > >::_Myproxy
PUBLIC	?_Orphan_all@?$_Vector_alloc@U?$_Vec_base_types@UTile@@V?$allocator@UTile@@@std@@@std@@@std@@QAEXXZ ; std::_Vector_alloc<std::_Vec_base_types<Tile,std::allocator<Tile> > >::_Orphan_all
PUBLIC	?_Getal@?$_Vector_alloc@U?$_Vec_base_types@UTile@@V?$allocator@UTile@@@std@@@std@@@std@@QAEAAU?$_Wrap_alloc@V?$allocator@UTile@@@std@@@2@XZ ; std::_Vector_alloc<std::_Vec_base_types<Tile,std::allocator<Tile> > >::_Getal
PUBLIC	?_Getal@?$_Vector_alloc@U?$_Vec_base_types@UTile@@V?$allocator@UTile@@@std@@@std@@@std@@QBEABU?$_Wrap_alloc@V?$allocator@UTile@@@std@@@2@XZ ; std::_Vector_alloc<std::_Vec_base_types<Tile,std::allocator<Tile> > >::_Getal
PUBLIC	?_Get_data@?$_Vector_alloc@U?$_Vec_base_types@UTile@@V?$allocator@UTile@@@std@@@std@@@std@@QAEAAV?$_Vector_val@U?$_Simple_types@UTile@@@std@@@2@XZ ; std::_Vector_alloc<std::_Vec_base_types<Tile,std::allocator<Tile> > >::_Get_data
PUBLIC	?_Get_data@?$_Vector_alloc@U?$_Vec_base_types@UTile@@V?$allocator@UTile@@@std@@@std@@@std@@QBEABV?$_Vector_val@U?$_Simple_types@UTile@@@std@@@2@XZ ; std::_Vector_alloc<std::_Vec_base_types<Tile,std::allocator<Tile> > >::_Get_data
PUBLIC	?_Myfirst@?$_Vector_alloc@U?$_Vec_base_types@UTile@@V?$allocator@UTile@@@std@@@std@@@std@@QAEAAPAUTile@@XZ ; std::_Vector_alloc<std::_Vec_base_types<Tile,std::allocator<Tile> > >::_Myfirst
PUBLIC	?_Myfirst@?$_Vector_alloc@U?$_Vec_base_types@UTile@@V?$allocator@UTile@@@std@@@std@@@std@@QBEABQAUTile@@XZ ; std::_Vector_alloc<std::_Vec_base_types<Tile,std::allocator<Tile> > >::_Myfirst
PUBLIC	?_Mylast@?$_Vector_alloc@U?$_Vec_base_types@UTile@@V?$allocator@UTile@@@std@@@std@@@std@@QAEAAPAUTile@@XZ ; std::_Vector_alloc<std::_Vec_base_types<Tile,std::allocator<Tile> > >::_Mylast
PUBLIC	?_Mylast@?$_Vector_alloc@U?$_Vec_base_types@UTile@@V?$allocator@UTile@@@std@@@std@@@std@@QBEABQAUTile@@XZ ; std::_Vector_alloc<std::_Vec_base_types<Tile,std::allocator<Tile> > >::_Mylast
PUBLIC	?_Myend@?$_Vector_alloc@U?$_Vec_base_types@UTile@@V?$allocator@UTile@@@std@@@std@@@std@@QAEAAPAUTile@@XZ ; std::_Vector_alloc<std::_Vec_base_types<Tile,std::allocator<Tile> > >::_Myend
PUBLIC	?_Myend@?$_Vector_alloc@U?$_Vec_base_types@UTile@@V?$allocator@UTile@@@std@@@std@@@std@@QBEABQAUTile@@XZ ; std::_Vector_alloc<std::_Vec_base_types<Tile,std::allocator<Tile> > >::_Myend
PUBLIC	??0?$_Vector_val@U?$_Simple_types@UTile@@@std@@@std@@QAE@XZ ; std::_Vector_val<std::_Simple_types<Tile> >::_Vector_val<std::_Simple_types<Tile> >
PUBLIC	??1?$_Vector_val@U?$_Simple_types@UTile@@@std@@@std@@QAE@XZ ; std::_Vector_val<std::_Simple_types<Tile> >::~_Vector_val<std::_Simple_types<Tile> >
PUBLIC	?_Get_first@?$_Compressed_pair@U?$_Wrap_alloc@V?$allocator@UTile@@@std@@@std@@V?$_Vector_val@U?$_Simple_types@UTile@@@std@@@2@$00@std@@QAEAAU?$_Wrap_alloc@V?$allocator@UTile@@@std@@@2@XZ ; std::_Compressed_pair<std::_Wrap_alloc<std::allocator<Tile> >,std::_Vector_val<std::_Simple_types<Tile> >,1>::_Get_first
PUBLIC	?_Get_first@?$_Compressed_pair@U?$_Wrap_alloc@V?$allocator@UTile@@@std@@@std@@V?$_Vector_val@U?$_Simple_types@UTile@@@std@@@2@$00@std@@QBEABU?$_Wrap_alloc@V?$allocator@UTile@@@std@@@2@XZ ; std::_Compressed_pair<std::_Wrap_alloc<std::allocator<Tile> >,std::_Vector_val<std::_Simple_types<Tile> >,1>::_Get_first
PUBLIC	?_Get_second@?$_Compressed_pair@U?$_Wrap_alloc@V?$allocator@UTile@@@std@@@std@@V?$_Vector_val@U?$_Simple_types@UTile@@@std@@@2@$00@std@@QAEAAV?$_Vector_val@U?$_Simple_types@UTile@@@std@@@2@XZ ; std::_Compressed_pair<std::_Wrap_alloc<std::allocator<Tile> >,std::_Vector_val<std::_Simple_types<Tile> >,1>::_Get_second
PUBLIC	?_Get_second@?$_Compressed_pair@U?$_Wrap_alloc@V?$allocator@UTile@@@std@@@std@@V?$_Vector_val@U?$_Simple_types@UTile@@@std@@@2@$00@std@@QBEABV?$_Vector_val@U?$_Simple_types@UTile@@@std@@@2@XZ ; std::_Compressed_pair<std::_Wrap_alloc<std::allocator<Tile> >,std::_Vector_val<std::_Simple_types<Tile> >,1>::_Get_second
PUBLIC	??1?$_Compressed_pair@U?$_Wrap_alloc@V?$allocator@UTile@@@std@@@std@@V?$_Vector_val@U?$_Simple_types@UTile@@@std@@@2@$00@std@@QAE@XZ ; std::_Compressed_pair<std::_Wrap_alloc<std::allocator<Tile> >,std::_Vector_val<std::_Simple_types<Tile> >,1>::~_Compressed_pair<std::_Wrap_alloc<std::allocator<Tile> >,std::_Vector_val<std::_Simple_types<Tile> >,1>
PUBLIC	??0?$vector@UTile@@V?$allocator@UTile@@@std@@@std@@QAE@XZ ; std::vector<Tile,std::allocator<Tile> >::vector<Tile,std::allocator<Tile> >
PUBLIC	??1?$vector@UTile@@V?$allocator@UTile@@@std@@@std@@QAE@XZ ; std::vector<Tile,std::allocator<Tile> >::~vector<Tile,std::allocator<Tile> >
PUBLIC	?capacity@?$vector@UTile@@V?$allocator@UTile@@@std@@@std@@QBEIXZ ; std::vector<Tile,std::allocator<Tile> >::capacity
PUBLIC	?_Unused_capacity@?$vector@UTile@@V?$allocator@UTile@@@std@@@std@@QBEIXZ ; std::vector<Tile,std::allocator<Tile> >::_Unused_capacity
PUBLIC	?begin@?$vector@UTile@@V?$allocator@UTile@@@std@@@std@@QAE?AV?$_Vector_iterator@V?$_Vector_val@U?$_Simple_types@UTile@@@std@@@std@@@2@XZ ; std::vector<Tile,std::allocator<Tile> >::begin
PUBLIC	?end@?$vector@UTile@@V?$allocator@UTile@@@std@@@std@@QAE?AV?$_Vector_iterator@V?$_Vector_val@U?$_Simple_types@UTile@@@std@@@std@@@2@XZ ; std::vector<Tile,std::allocator<Tile> >::end
PUBLIC	?size@?$vector@UTile@@V?$allocator@UTile@@@std@@@std@@QBEIXZ ; std::vector<Tile,std::allocator<Tile> >::size
PUBLIC	?max_size@?$vector@UTile@@V?$allocator@UTile@@@std@@@std@@QBEIXZ ; std::vector<Tile,std::allocator<Tile> >::max_size
PUBLIC	?push_back@?$vector@UTile@@V?$allocator@UTile@@@std@@@std@@QAEXABUTile@@@Z ; std::vector<Tile,std::allocator<Tile> >::push_back
PUBLIC	?_Destroy@?$vector@UTile@@V?$allocator@UTile@@@std@@@std@@IAEXPAUTile@@0@Z ; std::vector<Tile,std::allocator<Tile> >::_Destroy
PUBLIC	?_Grow_to@?$vector@UTile@@V?$allocator@UTile@@@std@@@std@@IBEII@Z ; std::vector<Tile,std::allocator<Tile> >::_Grow_to
PUBLIC	?_Inside@?$vector@UTile@@V?$allocator@UTile@@@std@@@std@@IBE_NPBUTile@@@Z ; std::vector<Tile,std::allocator<Tile> >::_Inside
PUBLIC	?_Reallocate@?$vector@UTile@@V?$allocator@UTile@@@std@@@std@@IAEXI@Z ; std::vector<Tile,std::allocator<Tile> >::_Reallocate
PUBLIC	?_Reserve@?$vector@UTile@@V?$allocator@UTile@@@std@@@std@@IAEXI@Z ; std::vector<Tile,std::allocator<Tile> >::_Reserve
PUBLIC	?_Tidy@?$vector@UTile@@V?$allocator@UTile@@@std@@@std@@IAEXXZ ; std::vector<Tile,std::allocator<Tile> >::_Tidy
PUBLIC	?_Xlen@?$vector@UTile@@V?$allocator@UTile@@@std@@@std@@IBEXXZ ; std::vector<Tile,std::allocator<Tile> >::_Xlen
PUBLIC	?_Orphan_range@?$vector@UTile@@V?$allocator@UTile@@@std@@@std@@IBEXPAUTile@@0@Z ; std::vector<Tile,std::allocator<Tile> >::_Orphan_range
PUBLIC	?__autoclassinit2@?$vector@UTile@@V?$allocator@UTile@@@std@@@std@@QAEXI@Z ; std::vector<Tile,std::allocator<Tile> >::__autoclassinit2
PUBLIC	??0?$allocator@UMovingTile@@@std@@QAE@XZ	; std::allocator<MovingTile>::allocator<MovingTile>
PUBLIC	?deallocate@?$allocator@UMovingTile@@@std@@QAEXPAUMovingTile@@I@Z ; std::allocator<MovingTile>::deallocate
PUBLIC	?allocate@?$allocator@UMovingTile@@@std@@QAEPAUMovingTile@@I@Z ; std::allocator<MovingTile>::allocate
PUBLIC	?max_size@?$allocator@UMovingTile@@@std@@QBEIXZ	; std::allocator<MovingTile>::max_size
PUBLIC	?max_size@?$allocator_traits@V?$allocator@UMovingTile@@@std@@@std@@SAIABV?$allocator@UMovingTile@@@2@@Z ; std::allocator_traits<std::allocator<MovingTile> >::max_size
PUBLIC	??0?$_Wrap_alloc@V?$allocator@UMovingTile@@@std@@@std@@QAE@XZ ; std::_Wrap_alloc<std::allocator<MovingTile> >::_Wrap_alloc<std::allocator<MovingTile> >
PUBLIC	?allocate@?$_Wrap_alloc@V?$allocator@UMovingTile@@@std@@@std@@QAEPAUMovingTile@@I@Z ; std::_Wrap_alloc<std::allocator<MovingTile> >::allocate
PUBLIC	?deallocate@?$_Wrap_alloc@V?$allocator@UMovingTile@@@std@@@std@@QAEXPAUMovingTile@@I@Z ; std::_Wrap_alloc<std::allocator<MovingTile> >::deallocate
PUBLIC	?max_size@?$_Wrap_alloc@V?$allocator@UMovingTile@@@std@@@std@@QBEIU_Nil@2@@Z ; std::_Wrap_alloc<std::allocator<MovingTile> >::max_size
PUBLIC	??0?$_Vector_alloc@U?$_Vec_base_types@UMovingTile@@V?$allocator@UMovingTile@@@std@@@std@@@std@@QAE@XZ ; std::_Vector_alloc<std::_Vec_base_types<MovingTile,std::allocator<MovingTile> > >::_Vector_alloc<std::_Vec_base_types<MovingTile,std::allocator<MovingTile> > >
PUBLIC	??1?$_Vector_alloc@U?$_Vec_base_types@UMovingTile@@V?$allocator@UMovingTile@@@std@@@std@@@std@@QAE@XZ ; std::_Vector_alloc<std::_Vec_base_types<MovingTile,std::allocator<MovingTile> > >::~_Vector_alloc<std::_Vec_base_types<MovingTile,std::allocator<MovingTile> > >
PUBLIC	?_Alloc_proxy@?$_Vector_alloc@U?$_Vec_base_types@UMovingTile@@V?$allocator@UMovingTile@@@std@@@std@@@std@@QAEXXZ ; std::_Vector_alloc<std::_Vec_base_types<MovingTile,std::allocator<MovingTile> > >::_Alloc_proxy
PUBLIC	?_Free_proxy@?$_Vector_alloc@U?$_Vec_base_types@UMovingTile@@V?$allocator@UMovingTile@@@std@@@std@@@std@@QAEXXZ ; std::_Vector_alloc<std::_Vec_base_types<MovingTile,std::allocator<MovingTile> > >::_Free_proxy
PUBLIC	?_Getpfirst@?$_Vector_alloc@U?$_Vec_base_types@UMovingTile@@V?$allocator@UMovingTile@@@std@@@std@@@std@@QBEPAPAU_Iterator_base12@2@XZ ; std::_Vector_alloc<std::_Vec_base_types<MovingTile,std::allocator<MovingTile> > >::_Getpfirst
PUBLIC	?_Myproxy@?$_Vector_alloc@U?$_Vec_base_types@UMovingTile@@V?$allocator@UMovingTile@@@std@@@std@@@std@@QAEAAPAU_Container_proxy@2@XZ ; std::_Vector_alloc<std::_Vec_base_types<MovingTile,std::allocator<MovingTile> > >::_Myproxy
PUBLIC	?_Orphan_all@?$_Vector_alloc@U?$_Vec_base_types@UMovingTile@@V?$allocator@UMovingTile@@@std@@@std@@@std@@QAEXXZ ; std::_Vector_alloc<std::_Vec_base_types<MovingTile,std::allocator<MovingTile> > >::_Orphan_all
PUBLIC	?_Getal@?$_Vector_alloc@U?$_Vec_base_types@UMovingTile@@V?$allocator@UMovingTile@@@std@@@std@@@std@@QAEAAU?$_Wrap_alloc@V?$allocator@UMovingTile@@@std@@@2@XZ ; std::_Vector_alloc<std::_Vec_base_types<MovingTile,std::allocator<MovingTile> > >::_Getal
PUBLIC	?_Getal@?$_Vector_alloc@U?$_Vec_base_types@UMovingTile@@V?$allocator@UMovingTile@@@std@@@std@@@std@@QBEABU?$_Wrap_alloc@V?$allocator@UMovingTile@@@std@@@2@XZ ; std::_Vector_alloc<std::_Vec_base_types<MovingTile,std::allocator<MovingTile> > >::_Getal
PUBLIC	?_Get_data@?$_Vector_alloc@U?$_Vec_base_types@UMovingTile@@V?$allocator@UMovingTile@@@std@@@std@@@std@@QAEAAV?$_Vector_val@U?$_Simple_types@UMovingTile@@@std@@@2@XZ ; std::_Vector_alloc<std::_Vec_base_types<MovingTile,std::allocator<MovingTile> > >::_Get_data
PUBLIC	?_Get_data@?$_Vector_alloc@U?$_Vec_base_types@UMovingTile@@V?$allocator@UMovingTile@@@std@@@std@@@std@@QBEABV?$_Vector_val@U?$_Simple_types@UMovingTile@@@std@@@2@XZ ; std::_Vector_alloc<std::_Vec_base_types<MovingTile,std::allocator<MovingTile> > >::_Get_data
PUBLIC	?_Myfirst@?$_Vector_alloc@U?$_Vec_base_types@UMovingTile@@V?$allocator@UMovingTile@@@std@@@std@@@std@@QAEAAPAUMovingTile@@XZ ; std::_Vector_alloc<std::_Vec_base_types<MovingTile,std::allocator<MovingTile> > >::_Myfirst
PUBLIC	?_Myfirst@?$_Vector_alloc@U?$_Vec_base_types@UMovingTile@@V?$allocator@UMovingTile@@@std@@@std@@@std@@QBEABQAUMovingTile@@XZ ; std::_Vector_alloc<std::_Vec_base_types<MovingTile,std::allocator<MovingTile> > >::_Myfirst
PUBLIC	?_Mylast@?$_Vector_alloc@U?$_Vec_base_types@UMovingTile@@V?$allocator@UMovingTile@@@std@@@std@@@std@@QAEAAPAUMovingTile@@XZ ; std::_Vector_alloc<std::_Vec_base_types<MovingTile,std::allocator<MovingTile> > >::_Mylast
PUBLIC	?_Mylast@?$_Vector_alloc@U?$_Vec_base_types@UMovingTile@@V?$allocator@UMovingTile@@@std@@@std@@@std@@QBEABQAUMovingTile@@XZ ; std::_Vector_alloc<std::_Vec_base_types<MovingTile,std::allocator<MovingTile> > >::_Mylast
PUBLIC	?_Myend@?$_Vector_alloc@U?$_Vec_base_types@UMovingTile@@V?$allocator@UMovingTile@@@std@@@std@@@std@@QAEAAPAUMovingTile@@XZ ; std::_Vector_alloc<std::_Vec_base_types<MovingTile,std::allocator<MovingTile> > >::_Myend
PUBLIC	?_Myend@?$_Vector_alloc@U?$_Vec_base_types@UMovingTile@@V?$allocator@UMovingTile@@@std@@@std@@@std@@QBEABQAUMovingTile@@XZ ; std::_Vector_alloc<std::_Vec_base_types<MovingTile,std::allocator<MovingTile> > >::_Myend
PUBLIC	??0?$_Vector_val@U?$_Simple_types@UMovingTile@@@std@@@std@@QAE@XZ ; std::_Vector_val<std::_Simple_types<MovingTile> >::_Vector_val<std::_Simple_types<MovingTile> >
PUBLIC	??1?$_Vector_val@U?$_Simple_types@UMovingTile@@@std@@@std@@QAE@XZ ; std::_Vector_val<std::_Simple_types<MovingTile> >::~_Vector_val<std::_Simple_types<MovingTile> >
PUBLIC	?_Get_first@?$_Compressed_pair@U?$_Wrap_alloc@V?$allocator@UMovingTile@@@std@@@std@@V?$_Vector_val@U?$_Simple_types@UMovingTile@@@std@@@2@$00@std@@QAEAAU?$_Wrap_alloc@V?$allocator@UMovingTile@@@std@@@2@XZ ; std::_Compressed_pair<std::_Wrap_alloc<std::allocator<MovingTile> >,std::_Vector_val<std::_Simple_types<MovingTile> >,1>::_Get_first
PUBLIC	?_Get_first@?$_Compressed_pair@U?$_Wrap_alloc@V?$allocator@UMovingTile@@@std@@@std@@V?$_Vector_val@U?$_Simple_types@UMovingTile@@@std@@@2@$00@std@@QBEABU?$_Wrap_alloc@V?$allocator@UMovingTile@@@std@@@2@XZ ; std::_Compressed_pair<std::_Wrap_alloc<std::allocator<MovingTile> >,std::_Vector_val<std::_Simple_types<MovingTile> >,1>::_Get_first
PUBLIC	?_Get_second@?$_Compressed_pair@U?$_Wrap_alloc@V?$allocator@UMovingTile@@@std@@@std@@V?$_Vector_val@U?$_Simple_types@UMovingTile@@@std@@@2@$00@std@@QAEAAV?$_Vector_val@U?$_Simple_types@UMovingTile@@@std@@@2@XZ ; std::_Compressed_pair<std::_Wrap_alloc<std::allocator<MovingTile> >,std::_Vector_val<std::_Simple_types<MovingTile> >,1>::_Get_second
PUBLIC	?_Get_second@?$_Compressed_pair@U?$_Wrap_alloc@V?$allocator@UMovingTile@@@std@@@std@@V?$_Vector_val@U?$_Simple_types@UMovingTile@@@std@@@2@$00@std@@QBEABV?$_Vector_val@U?$_Simple_types@UMovingTile@@@std@@@2@XZ ; std::_Compressed_pair<std::_Wrap_alloc<std::allocator<MovingTile> >,std::_Vector_val<std::_Simple_types<MovingTile> >,1>::_Get_second
PUBLIC	??1?$_Compressed_pair@U?$_Wrap_alloc@V?$allocator@UMovingTile@@@std@@@std@@V?$_Vector_val@U?$_Simple_types@UMovingTile@@@std@@@2@$00@std@@QAE@XZ ; std::_Compressed_pair<std::_Wrap_alloc<std::allocator<MovingTile> >,std::_Vector_val<std::_Simple_types<MovingTile> >,1>::~_Compressed_pair<std::_Wrap_alloc<std::allocator<MovingTile> >,std::_Vector_val<std::_Simple_types<MovingTile> >,1>
PUBLIC	??0?$vector@UMovingTile@@V?$allocator@UMovingTile@@@std@@@std@@QAE@XZ ; std::vector<MovingTile,std::allocator<MovingTile> >::vector<MovingTile,std::allocator<MovingTile> >
PUBLIC	??1?$vector@UMovingTile@@V?$allocator@UMovingTile@@@std@@@std@@QAE@XZ ; std::vector<MovingTile,std::allocator<MovingTile> >::~vector<MovingTile,std::allocator<MovingTile> >
PUBLIC	?capacity@?$vector@UMovingTile@@V?$allocator@UMovingTile@@@std@@@std@@QBEIXZ ; std::vector<MovingTile,std::allocator<MovingTile> >::capacity
PUBLIC	?_Unused_capacity@?$vector@UMovingTile@@V?$allocator@UMovingTile@@@std@@@std@@QBEIXZ ; std::vector<MovingTile,std::allocator<MovingTile> >::_Unused_capacity
PUBLIC	?begin@?$vector@UMovingTile@@V?$allocator@UMovingTile@@@std@@@std@@QAE?AV?$_Vector_iterator@V?$_Vector_val@U?$_Simple_types@UMovingTile@@@std@@@std@@@2@XZ ; std::vector<MovingTile,std::allocator<MovingTile> >::begin
PUBLIC	?end@?$vector@UMovingTile@@V?$allocator@UMovingTile@@@std@@@std@@QAE?AV?$_Vector_iterator@V?$_Vector_val@U?$_Simple_types@UMovingTile@@@std@@@std@@@2@XZ ; std::vector<MovingTile,std::allocator<MovingTile> >::end
PUBLIC	?size@?$vector@UMovingTile@@V?$allocator@UMovingTile@@@std@@@std@@QBEIXZ ; std::vector<MovingTile,std::allocator<MovingTile> >::size
PUBLIC	?max_size@?$vector@UMovingTile@@V?$allocator@UMovingTile@@@std@@@std@@QBEIXZ ; std::vector<MovingTile,std::allocator<MovingTile> >::max_size
PUBLIC	?push_back@?$vector@UMovingTile@@V?$allocator@UMovingTile@@@std@@@std@@QAEXABUMovingTile@@@Z ; std::vector<MovingTile,std::allocator<MovingTile> >::push_back
PUBLIC	?_Destroy@?$vector@UMovingTile@@V?$allocator@UMovingTile@@@std@@@std@@IAEXPAUMovingTile@@0@Z ; std::vector<MovingTile,std::allocator<MovingTile> >::_Destroy
PUBLIC	?_Grow_to@?$vector@UMovingTile@@V?$allocator@UMovingTile@@@std@@@std@@IBEII@Z ; std::vector<MovingTile,std::allocator<MovingTile> >::_Grow_to
PUBLIC	?_Inside@?$vector@UMovingTile@@V?$allocator@UMovingTile@@@std@@@std@@IBE_NPBUMovingTile@@@Z ; std::vector<MovingTile,std::allocator<MovingTile> >::_Inside
PUBLIC	?_Reallocate@?$vector@UMovingTile@@V?$allocator@UMovingTile@@@std@@@std@@IAEXI@Z ; std::vector<MovingTile,std::allocator<MovingTile> >::_Reallocate
PUBLIC	?_Reserve@?$vector@UMovingTile@@V?$allocator@UMovingTile@@@std@@@std@@IAEXI@Z ; std::vector<MovingTile,std::allocator<MovingTile> >::_Reserve
PUBLIC	?_Tidy@?$vector@UMovingTile@@V?$allocator@UMovingTile@@@std@@@std@@IAEXXZ ; std::vector<MovingTile,std::allocator<MovingTile> >::_Tidy
PUBLIC	?_Xlen@?$vector@UMovingTile@@V?$allocator@UMovingTile@@@std@@@std@@IBEXXZ ; std::vector<MovingTile,std::allocator<MovingTile> >::_Xlen
PUBLIC	?_Orphan_range@?$vector@UMovingTile@@V?$allocator@UMovingTile@@@std@@@std@@IBEXPAUMovingTile@@0@Z ; std::vector<MovingTile,std::allocator<MovingTile> >::_Orphan_range
PUBLIC	?__autoclassinit2@?$vector@UMovingTile@@V?$allocator@UMovingTile@@@std@@@std@@QAEXI@Z ; std::vector<MovingTile,std::allocator<MovingTile> >::__autoclassinit2
PUBLIC	?CheckCollision@@YA_NUTile@@0@Z			; CheckCollision
PUBLIC	??0?$_Iterator012@Urandom_access_iterator_tag@std@@UMovingTile@@HPBU3@ABU3@U_Iterator_base12@2@@std@@QAE@XZ ; std::_Iterator012<std::random_access_iterator_tag,MovingTile,int,MovingTile const *,MovingTile const &,std::_Iterator_base12>::_Iterator012<std::random_access_iterator_tag,MovingTile,int,MovingTile const *,MovingTile const &,std::_Iterator_base12>
PUBLIC	??1?$_Iterator012@Urandom_access_iterator_tag@std@@UMovingTile@@HPBU3@ABU3@U_Iterator_base12@2@@std@@QAE@XZ ; std::_Iterator012<std::random_access_iterator_tag,MovingTile,int,MovingTile const *,MovingTile const &,std::_Iterator_base12>::~_Iterator012<std::random_access_iterator_tag,MovingTile,int,MovingTile const *,MovingTile const &,std::_Iterator_base12>
PUBLIC	??0?$_Vector_const_iterator@V?$_Vector_val@U?$_Simple_types@UMovingTile@@@std@@@std@@@std@@QAE@PAUMovingTile@@PBU_Container_base12@1@@Z ; std::_Vector_const_iterator<std::_Vector_val<std::_Simple_types<MovingTile> > >::_Vector_const_iterator<std::_Vector_val<std::_Simple_types<MovingTile> > >
PUBLIC	??D?$_Vector_const_iterator@V?$_Vector_val@U?$_Simple_types@UMovingTile@@@std@@@std@@@std@@QBEABUMovingTile@@XZ ; std::_Vector_const_iterator<std::_Vector_val<std::_Simple_types<MovingTile> > >::operator*
PUBLIC	??E?$_Vector_const_iterator@V?$_Vector_val@U?$_Simple_types@UMovingTile@@@std@@@std@@@std@@QAEAAV01@XZ ; std::_Vector_const_iterator<std::_Vector_val<std::_Simple_types<MovingTile> > >::operator++
PUBLIC	??8?$_Vector_const_iterator@V?$_Vector_val@U?$_Simple_types@UMovingTile@@@std@@@std@@@std@@QBE_NABV01@@Z ; std::_Vector_const_iterator<std::_Vector_val<std::_Simple_types<MovingTile> > >::operator==
PUBLIC	??9?$_Vector_const_iterator@V?$_Vector_val@U?$_Simple_types@UMovingTile@@@std@@@std@@@std@@QBE_NABV01@@Z ; std::_Vector_const_iterator<std::_Vector_val<std::_Simple_types<MovingTile> > >::operator!=
PUBLIC	?_Compat@?$_Vector_const_iterator@V?$_Vector_val@U?$_Simple_types@UMovingTile@@@std@@@std@@@std@@QBEXABV12@@Z ; std::_Vector_const_iterator<std::_Vector_val<std::_Simple_types<MovingTile> > >::_Compat
PUBLIC	??1?$_Vector_const_iterator@V?$_Vector_val@U?$_Simple_types@UMovingTile@@@std@@@std@@@std@@QAE@XZ ; std::_Vector_const_iterator<std::_Vector_val<std::_Simple_types<MovingTile> > >::~_Vector_const_iterator<std::_Vector_val<std::_Simple_types<MovingTile> > >
PUBLIC	??0?$_Vector_iterator@V?$_Vector_val@U?$_Simple_types@UMovingTile@@@std@@@std@@@std@@QAE@PAUMovingTile@@PBU_Container_base12@1@@Z ; std::_Vector_iterator<std::_Vector_val<std::_Simple_types<MovingTile> > >::_Vector_iterator<std::_Vector_val<std::_Simple_types<MovingTile> > >
PUBLIC	??D?$_Vector_iterator@V?$_Vector_val@U?$_Simple_types@UMovingTile@@@std@@@std@@@std@@QBEAAUMovingTile@@XZ ; std::_Vector_iterator<std::_Vector_val<std::_Simple_types<MovingTile> > >::operator*
PUBLIC	??E?$_Vector_iterator@V?$_Vector_val@U?$_Simple_types@UMovingTile@@@std@@@std@@@std@@QAEAAV01@XZ ; std::_Vector_iterator<std::_Vector_val<std::_Simple_types<MovingTile> > >::operator++
PUBLIC	??1?$_Vector_iterator@V?$_Vector_val@U?$_Simple_types@UMovingTile@@@std@@@std@@@std@@QAE@XZ ; std::_Vector_iterator<std::_Vector_val<std::_Simple_types<MovingTile> > >::~_Vector_iterator<std::_Vector_val<std::_Simple_types<MovingTile> > >
PUBLIC	?__autoclassinit2@?$_Vector_iterator@V?$_Vector_val@U?$_Simple_types@UMovingTile@@@std@@@std@@@std@@QAEXI@Z ; std::_Vector_iterator<std::_Vector_val<std::_Simple_types<MovingTile> > >::__autoclassinit2
PUBLIC	??0?$_Iterator012@Urandom_access_iterator_tag@std@@UTile@@HPBU3@ABU3@U_Iterator_base12@2@@std@@QAE@XZ ; std::_Iterator012<std::random_access_iterator_tag,Tile,int,Tile const *,Tile const &,std::_Iterator_base12>::_Iterator012<std::random_access_iterator_tag,Tile,int,Tile const *,Tile const &,std::_Iterator_base12>
PUBLIC	??1?$_Iterator012@Urandom_access_iterator_tag@std@@UTile@@HPBU3@ABU3@U_Iterator_base12@2@@std@@QAE@XZ ; std::_Iterator012<std::random_access_iterator_tag,Tile,int,Tile const *,Tile const &,std::_Iterator_base12>::~_Iterator012<std::random_access_iterator_tag,Tile,int,Tile const *,Tile const &,std::_Iterator_base12>
PUBLIC	??0?$_Vector_const_iterator@V?$_Vector_val@U?$_Simple_types@UTile@@@std@@@std@@@std@@QAE@PAUTile@@PBU_Container_base12@1@@Z ; std::_Vector_const_iterator<std::_Vector_val<std::_Simple_types<Tile> > >::_Vector_const_iterator<std::_Vector_val<std::_Simple_types<Tile> > >
PUBLIC	??D?$_Vector_const_iterator@V?$_Vector_val@U?$_Simple_types@UTile@@@std@@@std@@@std@@QBEABUTile@@XZ ; std::_Vector_const_iterator<std::_Vector_val<std::_Simple_types<Tile> > >::operator*
PUBLIC	??E?$_Vector_const_iterator@V?$_Vector_val@U?$_Simple_types@UTile@@@std@@@std@@@std@@QAEAAV01@XZ ; std::_Vector_const_iterator<std::_Vector_val<std::_Simple_types<Tile> > >::operator++
PUBLIC	??8?$_Vector_const_iterator@V?$_Vector_val@U?$_Simple_types@UTile@@@std@@@std@@@std@@QBE_NABV01@@Z ; std::_Vector_const_iterator<std::_Vector_val<std::_Simple_types<Tile> > >::operator==
PUBLIC	??9?$_Vector_const_iterator@V?$_Vector_val@U?$_Simple_types@UTile@@@std@@@std@@@std@@QBE_NABV01@@Z ; std::_Vector_const_iterator<std::_Vector_val<std::_Simple_types<Tile> > >::operator!=
PUBLIC	?_Compat@?$_Vector_const_iterator@V?$_Vector_val@U?$_Simple_types@UTile@@@std@@@std@@@std@@QBEXABV12@@Z ; std::_Vector_const_iterator<std::_Vector_val<std::_Simple_types<Tile> > >::_Compat
PUBLIC	??1?$_Vector_const_iterator@V?$_Vector_val@U?$_Simple_types@UTile@@@std@@@std@@@std@@QAE@XZ ; std::_Vector_const_iterator<std::_Vector_val<std::_Simple_types<Tile> > >::~_Vector_const_iterator<std::_Vector_val<std::_Simple_types<Tile> > >
PUBLIC	??0?$_Vector_iterator@V?$_Vector_val@U?$_Simple_types@UTile@@@std@@@std@@@std@@QAE@PAUTile@@PBU_Container_base12@1@@Z ; std::_Vector_iterator<std::_Vector_val<std::_Simple_types<Tile> > >::_Vector_iterator<std::_Vector_val<std::_Simple_types<Tile> > >
PUBLIC	??D?$_Vector_iterator@V?$_Vector_val@U?$_Simple_types@UTile@@@std@@@std@@@std@@QBEAAUTile@@XZ ; std::_Vector_iterator<std::_Vector_val<std::_Simple_types<Tile> > >::operator*
PUBLIC	??E?$_Vector_iterator@V?$_Vector_val@U?$_Simple_types@UTile@@@std@@@std@@@std@@QAEAAV01@XZ ; std::_Vector_iterator<std::_Vector_val<std::_Simple_types<Tile> > >::operator++
PUBLIC	??1?$_Vector_iterator@V?$_Vector_val@U?$_Simple_types@UTile@@@std@@@std@@@std@@QAE@XZ ; std::_Vector_iterator<std::_Vector_val<std::_Simple_types<Tile> > >::~_Vector_iterator<std::_Vector_val<std::_Simple_types<Tile> > >
PUBLIC	?__autoclassinit2@?$_Vector_iterator@V?$_Vector_val@U?$_Simple_types@UTile@@@std@@@std@@@std@@QAEXI@Z ; std::_Vector_iterator<std::_Vector_val<std::_Simple_types<Tile> > >::__autoclassinit2
PUBLIC	?DrawTile@@YAXUTile@@QAH@Z			; DrawTile
PUBLIC	??$addressof@$$CBUMovingTile@@@std@@YAPBUMovingTile@@ABU1@@Z ; std::addressof<MovingTile const >
PUBLIC	??$construct@UMovingTile@@AAU1@@?$_Wrap_alloc@V?$allocator@UMovingTile@@@std@@@std@@QAEXPAUMovingTile@@AAU2@@Z ; std::_Wrap_alloc<std::allocator<MovingTile> >::construct<MovingTile,MovingTile &>
PUBLIC	??$construct@UMovingTile@@ABU1@@?$_Wrap_alloc@V?$allocator@UMovingTile@@@std@@@std@@QAEXPAUMovingTile@@ABU2@@Z ; std::_Wrap_alloc<std::allocator<MovingTile> >::construct<MovingTile,MovingTile const &>
PUBLIC	??$addressof@$$CBUTile@@@std@@YAPBUTile@@ABU1@@Z ; std::addressof<Tile const >
PUBLIC	??$construct@UTile@@AAU1@@?$_Wrap_alloc@V?$allocator@UTile@@@std@@@std@@QAEXPAUTile@@AAU2@@Z ; std::_Wrap_alloc<std::allocator<Tile> >::construct<Tile,Tile &>
PUBLIC	??$construct@UTile@@ABU1@@?$_Wrap_alloc@V?$allocator@UTile@@@std@@@std@@QAEXPAUTile@@ABU2@@Z ; std::_Wrap_alloc<std::allocator<Tile> >::construct<Tile,Tile const &>
PUBLIC	??$addressof@$$CBUPushTile@@@std@@YAPBUPushTile@@ABU1@@Z ; std::addressof<PushTile const >
PUBLIC	??$construct@UPushTile@@AAU1@@?$_Wrap_alloc@V?$allocator@UPushTile@@@std@@@std@@QAEXPAUPushTile@@AAU2@@Z ; std::_Wrap_alloc<std::allocator<PushTile> >::construct<PushTile,PushTile &>
PUBLIC	??$construct@UPushTile@@ABU1@@?$_Wrap_alloc@V?$allocator@UPushTile@@@std@@@std@@QAEXPAUPushTile@@ABU2@@Z ; std::_Wrap_alloc<std::allocator<PushTile> >::construct<PushTile,PushTile const &>
PUBLIC	??$?0$$V@?$_Compressed_pair@U?$_Wrap_alloc@V?$allocator@UMovingTile@@@std@@@std@@V?$_Vector_val@U?$_Simple_types@UMovingTile@@@std@@@2@$00@std@@QAE@U_Zero_then_variadic_args_t@1@@Z ; std::_Compressed_pair<std::_Wrap_alloc<std::allocator<MovingTile> >,std::_Vector_val<std::_Simple_types<MovingTile> >,1>::_Compressed_pair<std::_Wrap_alloc<std::allocator<MovingTile> >,std::_Vector_val<std::_Simple_types<MovingTile> >,1><>
PUBLIC	??$?0$$V@?$_Compressed_pair@U?$_Wrap_alloc@V?$allocator@UTile@@@std@@@std@@V?$_Vector_val@U?$_Simple_types@UTile@@@std@@@2@$00@std@@QAE@U_Zero_then_variadic_args_t@1@@Z ; std::_Compressed_pair<std::_Wrap_alloc<std::allocator<Tile> >,std::_Vector_val<std::_Simple_types<Tile> >,1>::_Compressed_pair<std::_Wrap_alloc<std::allocator<Tile> >,std::_Vector_val<std::_Simple_types<Tile> >,1><>
PUBLIC	??$?0$$V@?$_Compressed_pair@U?$_Wrap_alloc@V?$allocator@UPushTile@@@std@@@std@@V?$_Vector_val@U?$_Simple_types@UPushTile@@@std@@@2@$00@std@@QAE@U_Zero_then_variadic_args_t@1@@Z ; std::_Compressed_pair<std::_Wrap_alloc<std::allocator<PushTile> >,std::_Vector_val<std::_Simple_types<PushTile> >,1>::_Compressed_pair<std::_Wrap_alloc<std::allocator<PushTile> >,std::_Vector_val<std::_Simple_types<PushTile> >,1><>
PUBLIC	?deallocate@?$allocator@U_Container_proxy@std@@@std@@QAEXPAU_Container_proxy@2@I@Z ; std::allocator<std::_Container_proxy>::deallocate
PUBLIC	?allocate@?$allocator@U_Container_proxy@std@@@std@@QAEPAU_Container_proxy@2@I@Z ; std::allocator<std::_Container_proxy>::allocate
PUBLIC	?allocate@?$_Wrap_alloc@V?$allocator@U_Container_proxy@std@@@std@@@std@@QAEPAU_Container_proxy@2@I@Z ; std::_Wrap_alloc<std::allocator<std::_Container_proxy> >::allocate
PUBLIC	?deallocate@?$_Wrap_alloc@V?$allocator@U_Container_proxy@std@@@std@@@std@@QAEXPAU_Container_proxy@2@I@Z ; std::_Wrap_alloc<std::allocator<std::_Container_proxy> >::deallocate
PUBLIC	??$?0AAU?$_Wrap_alloc@V?$allocator@UMovingTile@@@std@@@std@@@?$_Wrap_alloc@V?$allocator@U_Container_proxy@std@@@std@@@std@@QAE@AAU?$_Wrap_alloc@V?$allocator@UMovingTile@@@std@@@1@@Z ; std::_Wrap_alloc<std::allocator<std::_Container_proxy> >::_Wrap_alloc<std::allocator<std::_Container_proxy> ><std::_Wrap_alloc<std::allocator<MovingTile> > &>
PUBLIC	??$destroy@U_Container_proxy@std@@@?$_Wrap_alloc@V?$allocator@U_Container_proxy@std@@@std@@@std@@QAEXPAU_Container_proxy@1@@Z ; std::_Wrap_alloc<std::allocator<std::_Container_proxy> >::destroy<std::_Container_proxy>
PUBLIC	??$construct@U_Container_proxy@std@@U12@@?$_Wrap_alloc@V?$allocator@U_Container_proxy@std@@@std@@@std@@QAEXPAU_Container_proxy@1@$$QAU21@@Z ; std::_Wrap_alloc<std::allocator<std::_Container_proxy> >::construct<std::_Container_proxy,std::_Container_proxy>
PUBLIC	??$?0AAU?$_Wrap_alloc@V?$allocator@UTile@@@std@@@std@@@?$_Wrap_alloc@V?$allocator@U_Container_proxy@std@@@std@@@std@@QAE@AAU?$_Wrap_alloc@V?$allocator@UTile@@@std@@@1@@Z ; std::_Wrap_alloc<std::allocator<std::_Container_proxy> >::_Wrap_alloc<std::allocator<std::_Container_proxy> ><std::_Wrap_alloc<std::allocator<Tile> > &>
PUBLIC	??$_Umove@PAUMovingTile@@@?$vector@UMovingTile@@V?$allocator@UMovingTile@@@std@@@std@@IAEPAUMovingTile@@PAU2@00@Z ; std::vector<MovingTile,std::allocator<MovingTile> >::_Umove<MovingTile *>
PUBLIC	??$_Destroy_range@U?$_Wrap_alloc@V?$allocator@UMovingTile@@@std@@@std@@@std@@YAXPAUMovingTile@@0AAU?$_Wrap_alloc@V?$allocator@UMovingTile@@@std@@@0@@Z ; std::_Destroy_range<std::_Wrap_alloc<std::allocator<MovingTile> > >
PUBLIC	??$_Umove@PAUTile@@@?$vector@UTile@@V?$allocator@UTile@@@std@@@std@@IAEPAUTile@@PAU2@00@Z ; std::vector<Tile,std::allocator<Tile> >::_Umove<Tile *>
PUBLIC	??$_Destroy_range@U?$_Wrap_alloc@V?$allocator@UTile@@@std@@@std@@@std@@YAXPAUTile@@0AAU?$_Wrap_alloc@V?$allocator@UTile@@@std@@@0@@Z ; std::_Destroy_range<std::_Wrap_alloc<std::allocator<Tile> > >
PUBLIC	??$?0AAU?$_Wrap_alloc@V?$allocator@UPushTile@@@std@@@std@@@?$_Wrap_alloc@V?$allocator@U_Container_proxy@std@@@std@@@std@@QAE@AAU?$_Wrap_alloc@V?$allocator@UPushTile@@@std@@@1@@Z ; std::_Wrap_alloc<std::allocator<std::_Container_proxy> >::_Wrap_alloc<std::allocator<std::_Container_proxy> ><std::_Wrap_alloc<std::allocator<PushTile> > &>
PUBLIC	??$_Umove@PAUPushTile@@@?$vector@UPushTile@@V?$allocator@UPushTile@@@std@@@std@@IAEPAUPushTile@@PAU2@00@Z ; std::vector<PushTile,std::allocator<PushTile> >::_Umove<PushTile *>
PUBLIC	??$_Destroy_range@U?$_Wrap_alloc@V?$allocator@UPushTile@@@std@@@std@@@std@@YAXPAUPushTile@@0AAU?$_Wrap_alloc@V?$allocator@UPushTile@@@std@@@0@@Z ; std::_Destroy_range<std::_Wrap_alloc<std::allocator<PushTile> > >
PUBLIC	??$_Addressof@$$CBUMovingTile@@@std@@YAPBUMovingTile@@ABU1@U?$integral_constant@_N$0A@@0@@Z ; std::_Addressof<MovingTile const >
PUBLIC	??$forward@AAUMovingTile@@@std@@YAAAUMovingTile@@AAU1@@Z ; std::forward<MovingTile &>
PUBLIC	??$construct@UMovingTile@@AAU1@@?$allocator_traits@V?$allocator@UMovingTile@@@std@@@std@@SAXAAV?$allocator@UMovingTile@@@1@PAUMovingTile@@AAU3@@Z ; std::allocator_traits<std::allocator<MovingTile> >::construct<MovingTile,MovingTile &>
PUBLIC	??$forward@ABUMovingTile@@@std@@YAABUMovingTile@@ABU1@@Z ; std::forward<MovingTile const &>
PUBLIC	??$construct@UMovingTile@@ABU1@@?$allocator_traits@V?$allocator@UMovingTile@@@std@@@std@@SAXAAV?$allocator@UMovingTile@@@1@PAUMovingTile@@ABU3@@Z ; std::allocator_traits<std::allocator<MovingTile> >::construct<MovingTile,MovingTile const &>
PUBLIC	??$_Addressof@$$CBUTile@@@std@@YAPBUTile@@ABU1@U?$integral_constant@_N$0A@@0@@Z ; std::_Addressof<Tile const >
PUBLIC	??$forward@AAUTile@@@std@@YAAAUTile@@AAU1@@Z	; std::forward<Tile &>
PUBLIC	??$construct@UTile@@AAU1@@?$allocator_traits@V?$allocator@UTile@@@std@@@std@@SAXAAV?$allocator@UTile@@@1@PAUTile@@AAU3@@Z ; std::allocator_traits<std::allocator<Tile> >::construct<Tile,Tile &>
PUBLIC	??$forward@ABUTile@@@std@@YAABUTile@@ABU1@@Z	; std::forward<Tile const &>
PUBLIC	??$construct@UTile@@ABU1@@?$allocator_traits@V?$allocator@UTile@@@std@@@std@@SAXAAV?$allocator@UTile@@@1@PAUTile@@ABU3@@Z ; std::allocator_traits<std::allocator<Tile> >::construct<Tile,Tile const &>
PUBLIC	??$_Addressof@$$CBUPushTile@@@std@@YAPBUPushTile@@ABU1@U?$integral_constant@_N$0A@@0@@Z ; std::_Addressof<PushTile const >
PUBLIC	??$forward@AAUPushTile@@@std@@YAAAUPushTile@@AAU1@@Z ; std::forward<PushTile &>
PUBLIC	??$construct@UPushTile@@AAU1@@?$allocator_traits@V?$allocator@UPushTile@@@std@@@std@@SAXAAV?$allocator@UPushTile@@@1@PAUPushTile@@AAU3@@Z ; std::allocator_traits<std::allocator<PushTile> >::construct<PushTile,PushTile &>
PUBLIC	??$forward@ABUPushTile@@@std@@YAABUPushTile@@ABU1@@Z ; std::forward<PushTile const &>
PUBLIC	??$construct@UPushTile@@ABU1@@?$allocator_traits@V?$allocator@UPushTile@@@std@@@std@@SAXAAV?$allocator@UPushTile@@@1@PAUPushTile@@ABU3@@Z ; std::allocator_traits<std::allocator<PushTile> >::construct<PushTile,PushTile const &>
PUBLIC	??$forward@AAU?$_Wrap_alloc@V?$allocator@UMovingTile@@@std@@@std@@@std@@YAAAU?$_Wrap_alloc@V?$allocator@UMovingTile@@@std@@@0@AAU10@@Z ; std::forward<std::_Wrap_alloc<std::allocator<MovingTile> > &>
PUBLIC	??$?0UMovingTile@@@?$allocator@U_Container_proxy@std@@@std@@QAE@ABV?$allocator@UMovingTile@@@1@@Z ; std::allocator<std::_Container_proxy>::allocator<std::_Container_proxy><MovingTile>
PUBLIC	??$destroy@U_Container_proxy@std@@@?$allocator_traits@V?$allocator@U_Container_proxy@std@@@std@@@std@@SAXAAV?$allocator@U_Container_proxy@std@@@1@PAU_Container_proxy@1@@Z ; std::allocator_traits<std::allocator<std::_Container_proxy> >::destroy<std::_Container_proxy>
PUBLIC	??$forward@U_Container_proxy@std@@@std@@YA$$QAU_Container_proxy@0@AAU10@@Z ; std::forward<std::_Container_proxy>
PUBLIC	??$construct@U_Container_proxy@std@@U12@@?$allocator_traits@V?$allocator@U_Container_proxy@std@@@std@@@std@@SAXAAV?$allocator@U_Container_proxy@std@@@1@PAU_Container_proxy@1@$$QAU31@@Z ; std::allocator_traits<std::allocator<std::_Container_proxy> >::construct<std::_Container_proxy,std::_Container_proxy>
PUBLIC	??$forward@AAU?$_Wrap_alloc@V?$allocator@UTile@@@std@@@std@@@std@@YAAAU?$_Wrap_alloc@V?$allocator@UTile@@@std@@@0@AAU10@@Z ; std::forward<std::_Wrap_alloc<std::allocator<Tile> > &>
PUBLIC	??$?0UTile@@@?$allocator@U_Container_proxy@std@@@std@@QAE@ABV?$allocator@UTile@@@1@@Z ; std::allocator<std::_Container_proxy>::allocator<std::_Container_proxy><Tile>
PUBLIC	??$_Uninitialized_move@PAUMovingTile@@PAU1@U?$_Wrap_alloc@V?$allocator@UMovingTile@@@std@@@std@@@std@@YAPAUMovingTile@@PAU1@00AAU?$_Wrap_alloc@V?$allocator@UMovingTile@@@std@@@0@@Z ; std::_Uninitialized_move<MovingTile *,MovingTile *,std::_Wrap_alloc<std::allocator<MovingTile> > >
PUBLIC	??$addressof@UMovingTile@@@std@@YAPAUMovingTile@@AAU1@@Z ; std::addressof<MovingTile>
PUBLIC	??$destroy@UMovingTile@@@?$_Wrap_alloc@V?$allocator@UMovingTile@@@std@@@std@@QAEXPAUMovingTile@@@Z ; std::_Wrap_alloc<std::allocator<MovingTile> >::destroy<MovingTile>
PUBLIC	??$_Uninitialized_move@PAUTile@@PAU1@U?$_Wrap_alloc@V?$allocator@UTile@@@std@@@std@@@std@@YAPAUTile@@PAU1@00AAU?$_Wrap_alloc@V?$allocator@UTile@@@std@@@0@@Z ; std::_Uninitialized_move<Tile *,Tile *,std::_Wrap_alloc<std::allocator<Tile> > >
PUBLIC	??$addressof@UTile@@@std@@YAPAUTile@@AAU1@@Z	; std::addressof<Tile>
PUBLIC	??$destroy@UTile@@@?$_Wrap_alloc@V?$allocator@UTile@@@std@@@std@@QAEXPAUTile@@@Z ; std::_Wrap_alloc<std::allocator<Tile> >::destroy<Tile>
PUBLIC	??$forward@AAU?$_Wrap_alloc@V?$allocator@UPushTile@@@std@@@std@@@std@@YAAAU?$_Wrap_alloc@V?$allocator@UPushTile@@@std@@@0@AAU10@@Z ; std::forward<std::_Wrap_alloc<std::allocator<PushTile> > &>
PUBLIC	??$?0UPushTile@@@?$allocator@U_Container_proxy@std@@@std@@QAE@ABV?$allocator@UPushTile@@@1@@Z ; std::allocator<std::_Container_proxy>::allocator<std::_Container_proxy><PushTile>
PUBLIC	??$_Uninitialized_move@PAUPushTile@@PAU1@U?$_Wrap_alloc@V?$allocator@UPushTile@@@std@@@std@@@std@@YAPAUPushTile@@PAU1@00AAU?$_Wrap_alloc@V?$allocator@UPushTile@@@std@@@0@@Z ; std::_Uninitialized_move<PushTile *,PushTile *,std::_Wrap_alloc<std::allocator<PushTile> > >
PUBLIC	??$addressof@UPushTile@@@std@@YAPAUPushTile@@AAU1@@Z ; std::addressof<PushTile>
PUBLIC	??$destroy@UPushTile@@@?$_Wrap_alloc@V?$allocator@UPushTile@@@std@@@std@@QAEXPAUPushTile@@@Z ; std::_Wrap_alloc<std::allocator<PushTile> >::destroy<PushTile>
PUBLIC	??$construct@UMovingTile@@AAU1@@?$allocator@UMovingTile@@@std@@QAEXPAUMovingTile@@AAU2@@Z ; std::allocator<MovingTile>::construct<MovingTile,MovingTile &>
PUBLIC	??$construct@UMovingTile@@ABU1@@?$allocator@UMovingTile@@@std@@QAEXPAUMovingTile@@ABU2@@Z ; std::allocator<MovingTile>::construct<MovingTile,MovingTile const &>
PUBLIC	??$construct@UTile@@AAU1@@?$allocator@UTile@@@std@@QAEXPAUTile@@AAU2@@Z ; std::allocator<Tile>::construct<Tile,Tile &>
PUBLIC	??$construct@UTile@@ABU1@@?$allocator@UTile@@@std@@QAEXPAUTile@@ABU2@@Z ; std::allocator<Tile>::construct<Tile,Tile const &>
PUBLIC	??$construct@UPushTile@@AAU1@@?$allocator@UPushTile@@@std@@QAEXPAUPushTile@@AAU2@@Z ; std::allocator<PushTile>::construct<PushTile,PushTile &>
PUBLIC	??$construct@UPushTile@@ABU1@@?$allocator@UPushTile@@@std@@QAEXPAUPushTile@@ABU2@@Z ; std::allocator<PushTile>::construct<PushTile,PushTile const &>
PUBLIC	??$destroy@U_Container_proxy@std@@@?$allocator@U_Container_proxy@std@@@std@@QAEXPAU_Container_proxy@1@@Z ; std::allocator<std::_Container_proxy>::destroy<std::_Container_proxy>
PUBLIC	??$construct@U_Container_proxy@std@@U12@@?$allocator@U_Container_proxy@std@@@std@@QAEXPAU_Container_proxy@1@$$QAU21@@Z ; std::allocator<std::_Container_proxy>::construct<std::_Container_proxy,std::_Container_proxy>
PUBLIC	??$_Unchecked@PAUMovingTile@@@std@@YAPAUMovingTile@@PAU1@@Z ; std::_Unchecked<MovingTile *>
PUBLIC	??$_Uninitialized_move_al_unchecked@PAUMovingTile@@PAU1@U?$_Wrap_alloc@V?$allocator@UMovingTile@@@std@@@std@@@std@@YAPAUMovingTile@@PAU1@00AAU?$_Wrap_alloc@V?$allocator@UMovingTile@@@std@@@0@@Z ; std::_Uninitialized_move_al_unchecked<MovingTile *,MovingTile *,std::_Wrap_alloc<std::allocator<MovingTile> > >
PUBLIC	??$_Rechecked@PAUMovingTile@@PAU1@@std@@YAAAPAUMovingTile@@AAPAU1@PAU1@@Z ; std::_Rechecked<MovingTile *,MovingTile *>
PUBLIC	??$_Addressof@UMovingTile@@@std@@YAPAUMovingTile@@AAU1@U?$integral_constant@_N$0A@@0@@Z ; std::_Addressof<MovingTile>
PUBLIC	??$destroy@UMovingTile@@@?$allocator_traits@V?$allocator@UMovingTile@@@std@@@std@@SAXAAV?$allocator@UMovingTile@@@1@PAUMovingTile@@@Z ; std::allocator_traits<std::allocator<MovingTile> >::destroy<MovingTile>
PUBLIC	??$_Unchecked@PAUTile@@@std@@YAPAUTile@@PAU1@@Z	; std::_Unchecked<Tile *>
PUBLIC	??$_Uninitialized_move_al_unchecked@PAUTile@@PAU1@U?$_Wrap_alloc@V?$allocator@UTile@@@std@@@std@@@std@@YAPAUTile@@PAU1@00AAU?$_Wrap_alloc@V?$allocator@UTile@@@std@@@0@@Z ; std::_Uninitialized_move_al_unchecked<Tile *,Tile *,std::_Wrap_alloc<std::allocator<Tile> > >
PUBLIC	??$_Rechecked@PAUTile@@PAU1@@std@@YAAAPAUTile@@AAPAU1@PAU1@@Z ; std::_Rechecked<Tile *,Tile *>
PUBLIC	??$_Addressof@UTile@@@std@@YAPAUTile@@AAU1@U?$integral_constant@_N$0A@@0@@Z ; std::_Addressof<Tile>
PUBLIC	??$destroy@UTile@@@?$allocator_traits@V?$allocator@UTile@@@std@@@std@@SAXAAV?$allocator@UTile@@@1@PAUTile@@@Z ; std::allocator_traits<std::allocator<Tile> >::destroy<Tile>
PUBLIC	??$_Unchecked@PAUPushTile@@@std@@YAPAUPushTile@@PAU1@@Z ; std::_Unchecked<PushTile *>
PUBLIC	??$_Uninitialized_move_al_unchecked@PAUPushTile@@PAU1@U?$_Wrap_alloc@V?$allocator@UPushTile@@@std@@@std@@@std@@YAPAUPushTile@@PAU1@00AAU?$_Wrap_alloc@V?$allocator@UPushTile@@@std@@@0@@Z ; std::_Uninitialized_move_al_unchecked<PushTile *,PushTile *,std::_Wrap_alloc<std::allocator<PushTile> > >
PUBLIC	??$_Rechecked@PAUPushTile@@PAU1@@std@@YAAAPAUPushTile@@AAPAU1@PAU1@@Z ; std::_Rechecked<PushTile *,PushTile *>
PUBLIC	??$_Addressof@UPushTile@@@std@@YAPAUPushTile@@AAU1@U?$integral_constant@_N$0A@@0@@Z ; std::_Addressof<PushTile>
PUBLIC	??$destroy@UPushTile@@@?$allocator_traits@V?$allocator@UPushTile@@@std@@@std@@SAXAAV?$allocator@UPushTile@@@1@PAUPushTile@@@Z ; std::allocator_traits<std::allocator<PushTile> >::destroy<PushTile>
PUBLIC	??$_Ptr_move_cat@UMovingTile@@U1@@std@@YA?AU_Trivially_copyable_ptr_iterator_tag@0@ABQAUMovingTile@@0@Z ; std::_Ptr_move_cat<MovingTile,MovingTile>
PUBLIC	??$_Uninitialized_move_al_unchecked1@PAUMovingTile@@PAU1@V?$allocator@UMovingTile@@@std@@@std@@YAPAUMovingTile@@PAU1@00AAU?$_Wrap_alloc@V?$allocator@UMovingTile@@@std@@@0@U_General_ptr_iterator_tag@0@@Z ; std::_Uninitialized_move_al_unchecked1<MovingTile *,MovingTile *,std::allocator<MovingTile> >
PUBLIC	??$destroy@UMovingTile@@@?$allocator@UMovingTile@@@std@@QAEXPAUMovingTile@@@Z ; std::allocator<MovingTile>::destroy<MovingTile>
PUBLIC	??$_Ptr_move_cat@UTile@@U1@@std@@YA?AU_Trivially_copyable_ptr_iterator_tag@0@ABQAUTile@@0@Z ; std::_Ptr_move_cat<Tile,Tile>
PUBLIC	??$_Uninitialized_move_al_unchecked1@PAUTile@@PAU1@V?$allocator@UTile@@@std@@@std@@YAPAUTile@@PAU1@00AAU?$_Wrap_alloc@V?$allocator@UTile@@@std@@@0@U_General_ptr_iterator_tag@0@@Z ; std::_Uninitialized_move_al_unchecked1<Tile *,Tile *,std::allocator<Tile> >
PUBLIC	??$destroy@UTile@@@?$allocator@UTile@@@std@@QAEXPAUTile@@@Z ; std::allocator<Tile>::destroy<Tile>
PUBLIC	??$_Ptr_move_cat@UPushTile@@U1@@std@@YA?AU_Trivially_copyable_ptr_iterator_tag@0@ABQAUPushTile@@0@Z ; std::_Ptr_move_cat<PushTile,PushTile>
PUBLIC	??$_Uninitialized_move_al_unchecked1@PAUPushTile@@PAU1@V?$allocator@UPushTile@@@std@@@std@@YAPAUPushTile@@PAU1@00AAU?$_Wrap_alloc@V?$allocator@UPushTile@@@std@@@0@U_General_ptr_iterator_tag@0@@Z ; std::_Uninitialized_move_al_unchecked1<PushTile *,PushTile *,std::allocator<PushTile> >
PUBLIC	??$destroy@UPushTile@@@?$allocator@UPushTile@@@std@@QAEXPAUPushTile@@@Z ; std::allocator<PushTile>::destroy<PushTile>
PUBLIC	??$move@AAUMovingTile@@@std@@YA$$QAUMovingTile@@AAU1@@Z ; std::move<MovingTile &>
PUBLIC	??$construct@UMovingTile@@U1@@?$_Wrap_alloc@V?$allocator@UMovingTile@@@std@@@std@@QAEXPAUMovingTile@@$$QAU2@@Z ; std::_Wrap_alloc<std::allocator<MovingTile> >::construct<MovingTile,MovingTile>
PUBLIC	??$move@AAUTile@@@std@@YA$$QAUTile@@AAU1@@Z	; std::move<Tile &>
PUBLIC	??$construct@UTile@@U1@@?$_Wrap_alloc@V?$allocator@UTile@@@std@@@std@@QAEXPAUTile@@$$QAU2@@Z ; std::_Wrap_alloc<std::allocator<Tile> >::construct<Tile,Tile>
PUBLIC	??$move@AAUPushTile@@@std@@YA$$QAUPushTile@@AAU1@@Z ; std::move<PushTile &>
PUBLIC	??$construct@UPushTile@@U1@@?$_Wrap_alloc@V?$allocator@UPushTile@@@std@@@std@@QAEXPAUPushTile@@$$QAU2@@Z ; std::_Wrap_alloc<std::allocator<PushTile> >::construct<PushTile,PushTile>
PUBLIC	??$forward@UMovingTile@@@std@@YA$$QAUMovingTile@@AAU1@@Z ; std::forward<MovingTile>
PUBLIC	??$construct@UMovingTile@@U1@@?$allocator_traits@V?$allocator@UMovingTile@@@std@@@std@@SAXAAV?$allocator@UMovingTile@@@1@PAUMovingTile@@$$QAU3@@Z ; std::allocator_traits<std::allocator<MovingTile> >::construct<MovingTile,MovingTile>
PUBLIC	??$forward@UTile@@@std@@YA$$QAUTile@@AAU1@@Z	; std::forward<Tile>
PUBLIC	??$construct@UTile@@U1@@?$allocator_traits@V?$allocator@UTile@@@std@@@std@@SAXAAV?$allocator@UTile@@@1@PAUTile@@$$QAU3@@Z ; std::allocator_traits<std::allocator<Tile> >::construct<Tile,Tile>
PUBLIC	??$forward@UPushTile@@@std@@YA$$QAUPushTile@@AAU1@@Z ; std::forward<PushTile>
PUBLIC	??$construct@UPushTile@@U1@@?$allocator_traits@V?$allocator@UPushTile@@@std@@@std@@SAXAAV?$allocator@UPushTile@@@1@PAUPushTile@@$$QAU3@@Z ; std::allocator_traits<std::allocator<PushTile> >::construct<PushTile,PushTile>
PUBLIC	??$construct@UMovingTile@@U1@@?$allocator@UMovingTile@@@std@@QAEXPAUMovingTile@@$$QAU2@@Z ; std::allocator<MovingTile>::construct<MovingTile,MovingTile>
PUBLIC	??$construct@UTile@@U1@@?$allocator@UTile@@@std@@QAEXPAUTile@@$$QAU2@@Z ; std::allocator<Tile>::construct<Tile,Tile>
PUBLIC	??$construct@UPushTile@@U1@@?$allocator@UPushTile@@@std@@QAEXPAUPushTile@@$$QAU2@@Z ; std::allocator<PushTile>::construct<PushTile,PushTile>
PUBLIC	??_C@_1JA@MHADJNIL@?$AAc?$AA?3?$AA?2?$AAp?$AAr?$AAo?$AAg?$AAr?$AAa?$AAm?$AA?5?$AAf?$AAi?$AAl?$AAe?$AAs?$AA?5?$AA?$CI?$AAx?$AA8?$AA6?$AA?$CJ?$AA?2?$AAm?$AAi?$AAc?$AAr?$AAo?$AAs?$AAo?$AAf?$AAt@ ; `string'
PUBLIC	??_C@_1DC@POOIKBAO@?$AAI?$AAT?$AAE?$AAR?$AAA?$AAT?$AAO?$AAR?$AA?5?$AAL?$AAI?$AAS?$AAT?$AA?5?$AAC?$AAO?$AAR?$AAR?$AAU?$AAP?$AAT?$AAE?$AAD?$AA?$CB?$AA?$AA@ ; `string'
PUBLIC	?__LINE__Var@?0??_Allocate@std@@YAPAXII_N@Z@4JA	; `std::_Allocate'::`1'::__LINE__Var
PUBLIC	??_C@_0BE@LMNLACIC@_Ptr_container?5?$CB?$DN?50?$AA@ ; `string'
PUBLIC	??_C@_1DG@HGDKEBPG@?$AA?$CC?$AA_?$AAP?$AAt?$AAr?$AA_?$AAc?$AAo?$AAn?$AAt?$AAa?$AAi?$AAn?$AAe?$AAr?$AA?5?$AA?$CB?$AA?$DN?$AA?5?$AA0?$AA?$CC?$AA?5?$AA?$CG?$AA?$CG?$AA?5?$AA0?$AA?$AA@ ; `string'
PUBLIC	??_C@_17CNPHIMPH@?$AA?$CF?$AAl?$AAs?$AA?$AA@	; `string'
PUBLIC	??_C@_1JA@DKOIEICI@?$AAc?$AA?3?$AA?2?$AAp?$AAr?$AAo?$AAg?$AAr?$AAa?$AAm?$AA?5?$AAf?$AAi?$AAl?$AAe?$AAs?$AA?5?$AA?$CI?$AAx?$AA8?$AA6?$AA?$CJ?$AA?2?$AAm?$AAi?$AAc?$AAr?$AAo?$AAs?$AAo?$AAf?$AAt@ ; `string'
PUBLIC	??_C@_1BO@NKFMJPA@?$AAs?$AAt?$AAd?$AA?3?$AA?3?$AA_?$AAA?$AAl?$AAl?$AAo?$AAc?$AAa?$AAt?$AAe?$AA?$AA@ ; `string'
PUBLIC	??_C@_1CG@JNLFBNGN@?$AA?$CC?$AAi?$AAn?$AAv?$AAa?$AAl?$AAi?$AAd?$AA?5?$AAa?$AAr?$AAg?$AAu?$AAm?$AAe?$AAn?$AAt?$AA?$CC?$AA?$AA@ ; `string'
PUBLIC	??_C@_09GLJCAGLP@_Ptr?5?$CB?$DN?50?$AA@		; `string'
PUBLIC	??_C@_1CC@GKJLLHIM@?$AA?$CC?$AA_?$AAP?$AAt?$AAr?$AA?5?$AA?$CB?$AA?$DN?$AA?5?$AA0?$AA?$CC?$AA?5?$AA?$CG?$AA?$CG?$AA?5?$AA0?$AA?$AA@ ; `string'
PUBLIC	?__LINE__Var@?0??_Deallocate@std@@YAXPAXII@Z@4JA ; `std::_Deallocate'::`1'::__LINE__Var
PUBLIC	??_C@_0BN@HMCJOMKN@_Count?5?$DM?$DN?5?$CIsize_t?$CJ?$CI?91?$CJ?5?1?5_Sz?$AA@ ; `string'
PUBLIC	??_C@_1EI@MLOBABC@?$AA?$CC?$AA_?$AAC?$AAo?$AAu?$AAn?$AAt?$AA?5?$AA?$DM?$AA?$DN?$AA?5?$AA?$CI?$AAs?$AAi?$AAz?$AAe?$AA_?$AAt?$AA?$CJ?$AA?$CI?$AA?9?$AA1?$AA?$CJ?$AA?5?$AA?1?$AA?5?$AA_?$AAS?$AAz?$AA?$CC?$AA?5?$AA?$CG@ ; `string'
PUBLIC	??_C@_1CC@LOFJFFDB@?$AAs?$AAt?$AAd?$AA?3?$AA?3?$AA_?$AAD?$AAe?$AAa?$AAl?$AAl?$AAo?$AAc?$AAa?$AAt?$AAe?$AA?$AA@ ; `string'
PUBLIC	??_C@_0DD@GBGGGKGG@?$CI_Ptr_user?5?$CG?5?$CI_BIG_ALLOCATION_AL@ ; `string'
PUBLIC	??_C@_1HE@CDMBFOKC@?$AA?$CC?$AA?$CI?$AA_?$AAP?$AAt?$AAr?$AA_?$AAu?$AAs?$AAe?$AAr?$AA?5?$AA?$CG?$AA?5?$AA?$CI?$AA_?$AAB?$AAI?$AAG?$AA_?$AAA?$AAL?$AAL?$AAO?$AAC?$AAA?$AAT?$AAI?$AAO?$AAN?$AA_?$AAA@ ; `string'
PUBLIC	??_C@_0EI@NOJHEJCJ@reinterpret_cast?$DMuintptr_t?5?$CK?$DO?$CI_P@ ; `string'
PUBLIC	??_C@_1JO@EKLKIEHP@?$AA?$CC?$AAr?$AAe?$AAi?$AAn?$AAt?$AAe?$AAr?$AAp?$AAr?$AAe?$AAt?$AA_?$AAc?$AAa?$AAs?$AAt?$AA?$DM?$AAu?$AAi?$AAn?$AAt?$AAp?$AAt?$AAr?$AA_?$AAt?$AA?5?$AA?$CK?$AA?$DO?$AA?$CI?$AA_@ ; `string'
PUBLIC	??_C@_0BL@OCKMEJON@_Ptr_container?5?$DM?5_Ptr_user?$AA@ ; `string'
PUBLIC	??_C@_1EE@PDHAHDDC@?$AA?$CC?$AA_?$AAP?$AAt?$AAr?$AA_?$AAc?$AAo?$AAn?$AAt?$AAa?$AAi?$AAn?$AAe?$AAr?$AA?5?$AA?$DM?$AA?5?$AA_?$AAP?$AAt?$AAr?$AA_?$AAu?$AAs?$AAe?$AAr?$AA?$CC?$AA?5?$AA?$CG?$AA?$CG?$AA?5@ ; `string'
PUBLIC	??_C@_0DB@GLFJLNCE@2?5?$CK?5sizeof?$CIvoid?5?$CK?$CJ?5?$DM?$DN?5_Ptr_user?5@ ; `string'
PUBLIC	??_C@_1HA@NAPGMHAO@?$AA?$CC?$AA2?$AA?5?$AA?$CK?$AA?5?$AAs?$AAi?$AAz?$AAe?$AAo?$AAf?$AA?$CI?$AAv?$AAo?$AAi?$AAd?$AA?5?$AA?$CK?$AA?$CJ?$AA?5?$AA?$DM?$AA?$DN?$AA?5?$AA_?$AAP?$AAt?$AAr?$AA_?$AAu?$AAs?$AAe?$AAr@ ; `string'
PUBLIC	??_C@_0CN@BLHJCAL@_Ptr_user?5?9?5_Ptr_container?5?$DM?$DN?5_N@ ; `string'
PUBLIC	??_C@_1GI@DHJGPFNI@?$AA?$CC?$AA_?$AAP?$AAt?$AAr?$AA_?$AAu?$AAs?$AAe?$AAr?$AA?5?$AA?9?$AA?5?$AA_?$AAP?$AAt?$AAr?$AA_?$AAc?$AAo?$AAn?$AAt?$AAa?$AAi?$AAn?$AAe?$AAr?$AA?5?$AA?$DM?$AA?$DN?$AA?5?$AA_@ ; `string'
PUBLIC	?spawnTile@@3USpawnTile@@A			; spawnTile
PUBLIC	?tileMap@@3V?$vector@UTile@@V?$allocator@UTile@@@std@@@std@@A ; tileMap
PUBLIC	?pushTileMap@@3V?$vector@UPushTile@@V?$allocator@UPushTile@@@std@@@std@@A ; pushTileMap
PUBLIC	?movingTileMap@@3V?$vector@UMovingTile@@V?$allocator@UMovingTile@@@std@@@std@@A ; movingTileMap
PUBLIC	??_C@_1IM@NCODKBJH@?$AAc?$AA?3?$AA?2?$AAp?$AAr?$AAo?$AAg?$AAr?$AAa?$AAm?$AA?5?$AAf?$AAi?$AAl?$AAe?$AAs?$AA?5?$AA?$CI?$AAx?$AA8?$AA6?$AA?$CJ?$AA?2?$AAm?$AAi?$AAc?$AAr?$AAo?$AAs?$AAo?$AAf?$AAt@ ; `string'
PUBLIC	??_C@_1EE@EJDKCLKB@?$AAv?$AAe?$AAc?$AAt?$AAo?$AAr?$AA?5?$AAi?$AAt?$AAe?$AAr?$AAa?$AAt?$AAo?$AAr?$AA?5?$AAn?$AAo?$AAt?$AA?5?$AAi?$AAn?$AAc?$AAr?$AAe?$AAm?$AAe?$AAn?$AAt?$AAa?$AAb?$AAl@ ; `string'
PUBLIC	??_C@_0CE@OFMIGAMM@Standard?5C?$CL?$CL?5Libraries?5Out?5of?5Ra@ ; `string'
PUBLIC	??_C@_1FG@IBPIFFN@?$AA?$CC?$AAS?$AAt?$AAa?$AAn?$AAd?$AAa?$AAr?$AAd?$AA?5?$AAC?$AA?$CL?$AA?$CL?$AA?5?$AAL?$AAi?$AAb?$AAr?$AAa?$AAr?$AAi?$AAe?$AAs?$AA?5?$AAO?$AAu?$AAt?$AA?5?$AAo?$AAf?$AA?5?$AAR@ ; `string'
PUBLIC	??_C@_1OC@EGHAOCGO@?$AAs?$AAt?$AAd?$AA?3?$AA?3?$AA_?$AAV?$AAe?$AAc?$AAt?$AAo?$AAr?$AA_?$AAc?$AAo?$AAn?$AAs?$AAt?$AA_?$AAi?$AAt?$AAe?$AAr?$AAa?$AAt?$AAo?$AAr?$AA?$DM?$AAc?$AAl?$AAa?$AAs@ ; `string'
PUBLIC	??_C@_1BO@MEPPHOO@?$AA?$CC?$AAo?$AAu?$AAt?$AA?5?$AAo?$AAf?$AA?5?$AAr?$AAa?$AAn?$AAg?$AAe?$AA?$CC?$AA?$AA@ ; `string'
PUBLIC	??_C@_1EG@FOHJJHAC@?$AAv?$AAe?$AAc?$AAt?$AAo?$AAr?$AA?5?$AAi?$AAt?$AAe?$AAr?$AAa?$AAt?$AAo?$AAr?$AA?5?$AAn?$AAo?$AAt?$AA?5?$AAd?$AAe?$AAr?$AAe?$AAf?$AAe?$AAr?$AAe?$AAn?$AAc?$AAa?$AAb@ ; `string'
PUBLIC	??_C@_1OA@POONEEJK@?$AAs?$AAt?$AAd?$AA?3?$AA?3?$AA_?$AAV?$AAe?$AAc?$AAt?$AAo?$AAr?$AA_?$AAc?$AAo?$AAn?$AAs?$AAt?$AA_?$AAi?$AAt?$AAe?$AAr?$AAa?$AAt?$AAo?$AAr?$AA?$DM?$AAc?$AAl?$AAa?$AAs@ ; `string'
PUBLIC	??_C@_1NG@NCMKFBLG@?$AAs?$AAt?$AAd?$AA?3?$AA?3?$AA_?$AAV?$AAe?$AAc?$AAt?$AAo?$AAr?$AA_?$AAc?$AAo?$AAn?$AAs?$AAt?$AA_?$AAi?$AAt?$AAe?$AAr?$AAa?$AAt?$AAo?$AAr?$AA?$DM?$AAc?$AAl?$AAa?$AAs@ ; `string'
PUBLIC	??_C@_1NE@MNCPAIHH@?$AAs?$AAt?$AAd?$AA?3?$AA?3?$AA_?$AAV?$AAe?$AAc?$AAt?$AAo?$AAr?$AA_?$AAc?$AAo?$AAn?$AAs?$AAt?$AA_?$AAi?$AAt?$AAe?$AAr?$AAa?$AAt?$AAo?$AAr?$AA?$DM?$AAc?$AAl?$AAa?$AAs@ ; `string'
PUBLIC	??_C@_1DM@HINDPMBP@?$AAv?$AAe?$AAc?$AAt?$AAo?$AAr?$AA?5?$AAi?$AAt?$AAe?$AAr?$AAa?$AAt?$AAo?$AAr?$AAs?$AA?5?$AAi?$AAn?$AAc?$AAo?$AAm?$AAp?$AAa?$AAt?$AAi?$AAb?$AAl?$AAe?$AA?$AA@ ; `string'
PUBLIC	??_C@_0CI@FNPHFCCM@Standard?5C?$CL?$CL?5Libraries?5Invalid?5A@ ; `string'
PUBLIC	??_C@_1FO@GJIHNDLM@?$AA?$CC?$AAS?$AAt?$AAa?$AAn?$AAd?$AAa?$AAr?$AAd?$AA?5?$AAC?$AA?$CL?$AA?$CL?$AA?5?$AAL?$AAi?$AAb?$AAr?$AAa?$AAr?$AAi?$AAe?$AAs?$AA?5?$AAI?$AAn?$AAv?$AAa?$AAl?$AAi?$AAd?$AA?5@ ; `string'
PUBLIC	??_C@_1NK@NBKKOKHK@?$AAs?$AAt?$AAd?$AA?3?$AA?3?$AA_?$AAV?$AAe?$AAc?$AAt?$AAo?$AAr?$AA_?$AAc?$AAo?$AAn?$AAs?$AAt?$AA_?$AAi?$AAt?$AAe?$AAr?$AAa?$AAt?$AAo?$AAr?$AA?$DM?$AAc?$AAl?$AAa?$AAs@ ; `string'
PUBLIC	??_C@_1MO@FIOFHBNA@?$AAs?$AAt?$AAd?$AA?3?$AA?3?$AA_?$AAV?$AAe?$AAc?$AAt?$AAo?$AAr?$AA_?$AAc?$AAo?$AAn?$AAs?$AAt?$AA_?$AAi?$AAt?$AAe?$AAr?$AAa?$AAt?$AAo?$AAr?$AA?$DM?$AAc?$AAl?$AAa?$AAs@ ; `string'
PUBLIC	??_C@_0BD@OLBABOEK@vector?$DMT?$DO?5too?5long?$AA@ ; `string'
PUBLIC	__real@4039000000000000
PUBLIC	__real@4059000000000000
PUBLIC	__real@447a0000
EXTRN	??2@YAPAXI@Z:PROC				; operator new
EXTRN	??3@YAXPAX@Z:PROC				; operator delete
EXTRN	_atexit:PROC
EXTRN	__imp___invalid_parameter:PROC
EXTRN	__imp_??0_Lockit@std@@QAE@H@Z:PROC
EXTRN	__imp_??1_Lockit@std@@QAE@XZ:PROC
EXTRN	__imp___CrtDbgReportW:PROC
EXTRN	__imp_?_Debug_message@std@@YAXPB_W0I@Z:PROC
EXTRN	__imp_?_Xbad_alloc@std@@YAXXZ:PROC
EXTRN	__imp_?_Xlength_error@std@@YAXPBD@Z:PROC
EXTRN	??0Vector2@@QAE@XZ:PROC				; Vector2::Vector2
EXTRN	??0Vector2@@QAE@NN@Z:PROC			; Vector2::Vector2
EXTRN	?DrawRect@@YAXVVector2@@HHQAH@Z:PROC		; DrawRect
EXTRN	@_RTC_CheckStackVars@8:PROC
EXTRN	@__security_check_cookie@4:PROC
EXTRN	__CxxThrowException@8:PROC
EXTRN	__RTC_CheckEsp:PROC
EXTRN	__RTC_InitBase:PROC
EXTRN	__RTC_Shutdown:PROC
EXTRN	___CxxFrameHandler3:PROC
EXTRN	_memset:PROC
EXTRN	___security_cookie:DWORD
EXTRN	__fltused:DWORD
_BSS	SEGMENT
?spawnTile@@3USpawnTile@@A DB 020H DUP (?)		; spawnTile
?tileMap@@3V?$vector@UTile@@V?$allocator@UTile@@@std@@@std@@A DB 010H DUP (?) ; tileMap
?pushTileMap@@3V?$vector@UPushTile@@V?$allocator@UPushTile@@@std@@@std@@A DB 010H DUP (?) ; pushTileMap
?movingTileMap@@3V?$vector@UMovingTile@@V?$allocator@UMovingTile@@@std@@@std@@A DB 010H DUP (?) ; movingTileMap
_BSS	ENDS
CRT$XCU	SEGMENT
?spawnTile$initializer$@@3P6AXXZA DD FLAT:??__EspawnTile@@YAXXZ ; spawnTile$initializer$
CRT$XCU	ENDS
;	COMDAT __real@447a0000
CONST	SEGMENT
__real@447a0000 DD 0447a0000r			; 1000
CONST	ENDS
;	COMDAT __real@4059000000000000
CONST	SEGMENT
__real@4059000000000000 DQ 04059000000000000r	; 100
CONST	ENDS
;	COMDAT __real@4039000000000000
CONST	SEGMENT
__real@4039000000000000 DQ 04039000000000000r	; 25
CONST	ENDS
;	COMDAT rtc$TMZ
rtc$TMZ	SEGMENT
__RTC_Shutdown.rtc$TMZ DD FLAT:__RTC_Shutdown
rtc$TMZ	ENDS
;	COMDAT rtc$IMZ
rtc$IMZ	SEGMENT
__RTC_InitBase.rtc$IMZ DD FLAT:__RTC_InitBase
rtc$IMZ	ENDS
;	COMDAT ??_C@_0BD@OLBABOEK@vector?$DMT?$DO?5too?5long?$AA@
CONST	SEGMENT
??_C@_0BD@OLBABOEK@vector?$DMT?$DO?5too?5long?$AA@ DB 'vector<T> too long'
	DB	00H						; `string'
CONST	ENDS
;	COMDAT ??_C@_1MO@FIOFHBNA@?$AAs?$AAt?$AAd?$AA?3?$AA?3?$AA_?$AAV?$AAe?$AAc?$AAt?$AAo?$AAr?$AA_?$AAc?$AAo?$AAn?$AAs?$AAt?$AA_?$AAi?$AAt?$AAe?$AAr?$AAa?$AAt?$AAo?$AAr?$AA?$DM?$AAc?$AAl?$AAa?$AAs@
CONST	SEGMENT
??_C@_1MO@FIOFHBNA@?$AAs?$AAt?$AAd?$AA?3?$AA?3?$AA_?$AAV?$AAe?$AAc?$AAt?$AAo?$AAr?$AA_?$AAc?$AAo?$AAn?$AAs?$AAt?$AA_?$AAi?$AAt?$AAe?$AAr?$AAa?$AAt?$AAo?$AAr?$AA?$DM?$AAc?$AAl?$AAa?$AAs@ DB 's'
	DB	00H, 't', 00H, 'd', 00H, ':', 00H, ':', 00H, '_', 00H, 'V', 00H
	DB	'e', 00H, 'c', 00H, 't', 00H, 'o', 00H, 'r', 00H, '_', 00H, 'c'
	DB	00H, 'o', 00H, 'n', 00H, 's', 00H, 't', 00H, '_', 00H, 'i', 00H
	DB	't', 00H, 'e', 00H, 'r', 00H, 'a', 00H, 't', 00H, 'o', 00H, 'r'
	DB	00H, '<', 00H, 'c', 00H, 'l', 00H, 'a', 00H, 's', 00H, 's', 00H
	DB	' ', 00H, 's', 00H, 't', 00H, 'd', 00H, ':', 00H, ':', 00H, '_'
	DB	00H, 'V', 00H, 'e', 00H, 'c', 00H, 't', 00H, 'o', 00H, 'r', 00H
	DB	'_', 00H, 'v', 00H, 'a', 00H, 'l', 00H, '<', 00H, 's', 00H, 't'
	DB	00H, 'r', 00H, 'u', 00H, 'c', 00H, 't', 00H, ' ', 00H, 's', 00H
	DB	't', 00H, 'd', 00H, ':', 00H, ':', 00H, '_', 00H, 'S', 00H, 'i'
	DB	00H, 'm', 00H, 'p', 00H, 'l', 00H, 'e', 00H, '_', 00H, 't', 00H
	DB	'y', 00H, 'p', 00H, 'e', 00H, 's', 00H, '<', 00H, 's', 00H, 't'
	DB	00H, 'r', 00H, 'u', 00H, 'c', 00H, 't', 00H, ' ', 00H, 'T', 00H
	DB	'i', 00H, 'l', 00H, 'e', 00H, '>', 00H, ' ', 00H, '>', 00H, ' '
	DB	00H, '>', 00H, ':', 00H, ':', 00H, '_', 00H, 'C', 00H, 'o', 00H
	DB	'm', 00H, 'p', 00H, 'a', 00H, 't', 00H, 00H, 00H ; `string'
CONST	ENDS
;	COMDAT ??_C@_1NK@NBKKOKHK@?$AAs?$AAt?$AAd?$AA?3?$AA?3?$AA_?$AAV?$AAe?$AAc?$AAt?$AAo?$AAr?$AA_?$AAc?$AAo?$AAn?$AAs?$AAt?$AA_?$AAi?$AAt?$AAe?$AAr?$AAa?$AAt?$AAo?$AAr?$AA?$DM?$AAc?$AAl?$AAa?$AAs@
CONST	SEGMENT
??_C@_1NK@NBKKOKHK@?$AAs?$AAt?$AAd?$AA?3?$AA?3?$AA_?$AAV?$AAe?$AAc?$AAt?$AAo?$AAr?$AA_?$AAc?$AAo?$AAn?$AAs?$AAt?$AA_?$AAi?$AAt?$AAe?$AAr?$AAa?$AAt?$AAo?$AAr?$AA?$DM?$AAc?$AAl?$AAa?$AAs@ DB 's'
	DB	00H, 't', 00H, 'd', 00H, ':', 00H, ':', 00H, '_', 00H, 'V', 00H
	DB	'e', 00H, 'c', 00H, 't', 00H, 'o', 00H, 'r', 00H, '_', 00H, 'c'
	DB	00H, 'o', 00H, 'n', 00H, 's', 00H, 't', 00H, '_', 00H, 'i', 00H
	DB	't', 00H, 'e', 00H, 'r', 00H, 'a', 00H, 't', 00H, 'o', 00H, 'r'
	DB	00H, '<', 00H, 'c', 00H, 'l', 00H, 'a', 00H, 's', 00H, 's', 00H
	DB	' ', 00H, 's', 00H, 't', 00H, 'd', 00H, ':', 00H, ':', 00H, '_'
	DB	00H, 'V', 00H, 'e', 00H, 'c', 00H, 't', 00H, 'o', 00H, 'r', 00H
	DB	'_', 00H, 'v', 00H, 'a', 00H, 'l', 00H, '<', 00H, 's', 00H, 't'
	DB	00H, 'r', 00H, 'u', 00H, 'c', 00H, 't', 00H, ' ', 00H, 's', 00H
	DB	't', 00H, 'd', 00H, ':', 00H, ':', 00H, '_', 00H, 'S', 00H, 'i'
	DB	00H, 'm', 00H, 'p', 00H, 'l', 00H, 'e', 00H, '_', 00H, 't', 00H
	DB	'y', 00H, 'p', 00H, 'e', 00H, 's', 00H, '<', 00H, 's', 00H, 't'
	DB	00H, 'r', 00H, 'u', 00H, 'c', 00H, 't', 00H, ' ', 00H, 'M', 00H
	DB	'o', 00H, 'v', 00H, 'i', 00H, 'n', 00H, 'g', 00H, 'T', 00H, 'i'
	DB	00H, 'l', 00H, 'e', 00H, '>', 00H, ' ', 00H, '>', 00H, ' ', 00H
	DB	'>', 00H, ':', 00H, ':', 00H, '_', 00H, 'C', 00H, 'o', 00H, 'm'
	DB	00H, 'p', 00H, 'a', 00H, 't', 00H, 00H, 00H	; `string'
CONST	ENDS
;	COMDAT ??_C@_1FO@GJIHNDLM@?$AA?$CC?$AAS?$AAt?$AAa?$AAn?$AAd?$AAa?$AAr?$AAd?$AA?5?$AAC?$AA?$CL?$AA?$CL?$AA?5?$AAL?$AAi?$AAb?$AAr?$AAa?$AAr?$AAi?$AAe?$AAs?$AA?5?$AAI?$AAn?$AAv?$AAa?$AAl?$AAi?$AAd?$AA?5@
CONST	SEGMENT
??_C@_1FO@GJIHNDLM@?$AA?$CC?$AAS?$AAt?$AAa?$AAn?$AAd?$AAa?$AAr?$AAd?$AA?5?$AAC?$AA?$CL?$AA?$CL?$AA?5?$AAL?$AAi?$AAb?$AAr?$AAa?$AAr?$AAi?$AAe?$AAs?$AA?5?$AAI?$AAn?$AAv?$AAa?$AAl?$AAi?$AAd?$AA?5@ DB '"'
	DB	00H, 'S', 00H, 't', 00H, 'a', 00H, 'n', 00H, 'd', 00H, 'a', 00H
	DB	'r', 00H, 'd', 00H, ' ', 00H, 'C', 00H, '+', 00H, '+', 00H, ' '
	DB	00H, 'L', 00H, 'i', 00H, 'b', 00H, 'r', 00H, 'a', 00H, 'r', 00H
	DB	'i', 00H, 'e', 00H, 's', 00H, ' ', 00H, 'I', 00H, 'n', 00H, 'v'
	DB	00H, 'a', 00H, 'l', 00H, 'i', 00H, 'd', 00H, ' ', 00H, 'A', 00H
	DB	'r', 00H, 'g', 00H, 'u', 00H, 'm', 00H, 'e', 00H, 'n', 00H, 't'
	DB	00H, '"', 00H, ' ', 00H, '&', 00H, '&', 00H, ' ', 00H, '0', 00H
	DB	00H, 00H					; `string'
CONST	ENDS
;	COMDAT ??_C@_0CI@FNPHFCCM@Standard?5C?$CL?$CL?5Libraries?5Invalid?5A@
CONST	SEGMENT
??_C@_0CI@FNPHFCCM@Standard?5C?$CL?$CL?5Libraries?5Invalid?5A@ DB 'Standa'
	DB	'rd C++ Libraries Invalid Argument', 00H	; `string'
CONST	ENDS
;	COMDAT ??_C@_1DM@HINDPMBP@?$AAv?$AAe?$AAc?$AAt?$AAo?$AAr?$AA?5?$AAi?$AAt?$AAe?$AAr?$AAa?$AAt?$AAo?$AAr?$AAs?$AA?5?$AAi?$AAn?$AAc?$AAo?$AAm?$AAp?$AAa?$AAt?$AAi?$AAb?$AAl?$AAe?$AA?$AA@
CONST	SEGMENT
??_C@_1DM@HINDPMBP@?$AAv?$AAe?$AAc?$AAt?$AAo?$AAr?$AA?5?$AAi?$AAt?$AAe?$AAr?$AAa?$AAt?$AAo?$AAr?$AAs?$AA?5?$AAi?$AAn?$AAc?$AAo?$AAm?$AAp?$AAa?$AAt?$AAi?$AAb?$AAl?$AAe?$AA?$AA@ DB 'v'
	DB	00H, 'e', 00H, 'c', 00H, 't', 00H, 'o', 00H, 'r', 00H, ' ', 00H
	DB	'i', 00H, 't', 00H, 'e', 00H, 'r', 00H, 'a', 00H, 't', 00H, 'o'
	DB	00H, 'r', 00H, 's', 00H, ' ', 00H, 'i', 00H, 'n', 00H, 'c', 00H
	DB	'o', 00H, 'm', 00H, 'p', 00H, 'a', 00H, 't', 00H, 'i', 00H, 'b'
	DB	00H, 'l', 00H, 'e', 00H, 00H, 00H		; `string'
CONST	ENDS
;	COMDAT ??_C@_1NE@MNCPAIHH@?$AAs?$AAt?$AAd?$AA?3?$AA?3?$AA_?$AAV?$AAe?$AAc?$AAt?$AAo?$AAr?$AA_?$AAc?$AAo?$AAn?$AAs?$AAt?$AA_?$AAi?$AAt?$AAe?$AAr?$AAa?$AAt?$AAo?$AAr?$AA?$DM?$AAc?$AAl?$AAa?$AAs@
CONST	SEGMENT
??_C@_1NE@MNCPAIHH@?$AAs?$AAt?$AAd?$AA?3?$AA?3?$AA_?$AAV?$AAe?$AAc?$AAt?$AAo?$AAr?$AA_?$AAc?$AAo?$AAn?$AAs?$AAt?$AA_?$AAi?$AAt?$AAe?$AAr?$AAa?$AAt?$AAo?$AAr?$AA?$DM?$AAc?$AAl?$AAa?$AAs@ DB 's'
	DB	00H, 't', 00H, 'd', 00H, ':', 00H, ':', 00H, '_', 00H, 'V', 00H
	DB	'e', 00H, 'c', 00H, 't', 00H, 'o', 00H, 'r', 00H, '_', 00H, 'c'
	DB	00H, 'o', 00H, 'n', 00H, 's', 00H, 't', 00H, '_', 00H, 'i', 00H
	DB	't', 00H, 'e', 00H, 'r', 00H, 'a', 00H, 't', 00H, 'o', 00H, 'r'
	DB	00H, '<', 00H, 'c', 00H, 'l', 00H, 'a', 00H, 's', 00H, 's', 00H
	DB	' ', 00H, 's', 00H, 't', 00H, 'd', 00H, ':', 00H, ':', 00H, '_'
	DB	00H, 'V', 00H, 'e', 00H, 'c', 00H, 't', 00H, 'o', 00H, 'r', 00H
	DB	'_', 00H, 'v', 00H, 'a', 00H, 'l', 00H, '<', 00H, 's', 00H, 't'
	DB	00H, 'r', 00H, 'u', 00H, 'c', 00H, 't', 00H, ' ', 00H, 's', 00H
	DB	't', 00H, 'd', 00H, ':', 00H, ':', 00H, '_', 00H, 'S', 00H, 'i'
	DB	00H, 'm', 00H, 'p', 00H, 'l', 00H, 'e', 00H, '_', 00H, 't', 00H
	DB	'y', 00H, 'p', 00H, 'e', 00H, 's', 00H, '<', 00H, 's', 00H, 't'
	DB	00H, 'r', 00H, 'u', 00H, 'c', 00H, 't', 00H, ' ', 00H, 'T', 00H
	DB	'i', 00H, 'l', 00H, 'e', 00H, '>', 00H, ' ', 00H, '>', 00H, ' '
	DB	00H, '>', 00H, ':', 00H, ':', 00H, 'o', 00H, 'p', 00H, 'e', 00H
	DB	'r', 00H, 'a', 00H, 't', 00H, 'o', 00H, 'r', 00H, ' ', 00H, '*'
	DB	00H, 00H, 00H				; `string'
CONST	ENDS
;	COMDAT ??_C@_1NG@NCMKFBLG@?$AAs?$AAt?$AAd?$AA?3?$AA?3?$AA_?$AAV?$AAe?$AAc?$AAt?$AAo?$AAr?$AA_?$AAc?$AAo?$AAn?$AAs?$AAt?$AA_?$AAi?$AAt?$AAe?$AAr?$AAa?$AAt?$AAo?$AAr?$AA?$DM?$AAc?$AAl?$AAa?$AAs@
CONST	SEGMENT
??_C@_1NG@NCMKFBLG@?$AAs?$AAt?$AAd?$AA?3?$AA?3?$AA_?$AAV?$AAe?$AAc?$AAt?$AAo?$AAr?$AA_?$AAc?$AAo?$AAn?$AAs?$AAt?$AA_?$AAi?$AAt?$AAe?$AAr?$AAa?$AAt?$AAo?$AAr?$AA?$DM?$AAc?$AAl?$AAa?$AAs@ DB 's'
	DB	00H, 't', 00H, 'd', 00H, ':', 00H, ':', 00H, '_', 00H, 'V', 00H
	DB	'e', 00H, 'c', 00H, 't', 00H, 'o', 00H, 'r', 00H, '_', 00H, 'c'
	DB	00H, 'o', 00H, 'n', 00H, 's', 00H, 't', 00H, '_', 00H, 'i', 00H
	DB	't', 00H, 'e', 00H, 'r', 00H, 'a', 00H, 't', 00H, 'o', 00H, 'r'
	DB	00H, '<', 00H, 'c', 00H, 'l', 00H, 'a', 00H, 's', 00H, 's', 00H
	DB	' ', 00H, 's', 00H, 't', 00H, 'd', 00H, ':', 00H, ':', 00H, '_'
	DB	00H, 'V', 00H, 'e', 00H, 'c', 00H, 't', 00H, 'o', 00H, 'r', 00H
	DB	'_', 00H, 'v', 00H, 'a', 00H, 'l', 00H, '<', 00H, 's', 00H, 't'
	DB	00H, 'r', 00H, 'u', 00H, 'c', 00H, 't', 00H, ' ', 00H, 's', 00H
	DB	't', 00H, 'd', 00H, ':', 00H, ':', 00H, '_', 00H, 'S', 00H, 'i'
	DB	00H, 'm', 00H, 'p', 00H, 'l', 00H, 'e', 00H, '_', 00H, 't', 00H
	DB	'y', 00H, 'p', 00H, 'e', 00H, 's', 00H, '<', 00H, 's', 00H, 't'
	DB	00H, 'r', 00H, 'u', 00H, 'c', 00H, 't', 00H, ' ', 00H, 'T', 00H
	DB	'i', 00H, 'l', 00H, 'e', 00H, '>', 00H, ' ', 00H, '>', 00H, ' '
	DB	00H, '>', 00H, ':', 00H, ':', 00H, 'o', 00H, 'p', 00H, 'e', 00H
	DB	'r', 00H, 'a', 00H, 't', 00H, 'o', 00H, 'r', 00H, ' ', 00H, '+'
	DB	00H, '+', 00H, 00H, 00H			; `string'
CONST	ENDS
;	COMDAT ??_C@_1OA@POONEEJK@?$AAs?$AAt?$AAd?$AA?3?$AA?3?$AA_?$AAV?$AAe?$AAc?$AAt?$AAo?$AAr?$AA_?$AAc?$AAo?$AAn?$AAs?$AAt?$AA_?$AAi?$AAt?$AAe?$AAr?$AAa?$AAt?$AAo?$AAr?$AA?$DM?$AAc?$AAl?$AAa?$AAs@
CONST	SEGMENT
??_C@_1OA@POONEEJK@?$AAs?$AAt?$AAd?$AA?3?$AA?3?$AA_?$AAV?$AAe?$AAc?$AAt?$AAo?$AAr?$AA_?$AAc?$AAo?$AAn?$AAs?$AAt?$AA_?$AAi?$AAt?$AAe?$AAr?$AAa?$AAt?$AAo?$AAr?$AA?$DM?$AAc?$AAl?$AAa?$AAs@ DB 's'
	DB	00H, 't', 00H, 'd', 00H, ':', 00H, ':', 00H, '_', 00H, 'V', 00H
	DB	'e', 00H, 'c', 00H, 't', 00H, 'o', 00H, 'r', 00H, '_', 00H, 'c'
	DB	00H, 'o', 00H, 'n', 00H, 's', 00H, 't', 00H, '_', 00H, 'i', 00H
	DB	't', 00H, 'e', 00H, 'r', 00H, 'a', 00H, 't', 00H, 'o', 00H, 'r'
	DB	00H, '<', 00H, 'c', 00H, 'l', 00H, 'a', 00H, 's', 00H, 's', 00H
	DB	' ', 00H, 's', 00H, 't', 00H, 'd', 00H, ':', 00H, ':', 00H, '_'
	DB	00H, 'V', 00H, 'e', 00H, 'c', 00H, 't', 00H, 'o', 00H, 'r', 00H
	DB	'_', 00H, 'v', 00H, 'a', 00H, 'l', 00H, '<', 00H, 's', 00H, 't'
	DB	00H, 'r', 00H, 'u', 00H, 'c', 00H, 't', 00H, ' ', 00H, 's', 00H
	DB	't', 00H, 'd', 00H, ':', 00H, ':', 00H, '_', 00H, 'S', 00H, 'i'
	DB	00H, 'm', 00H, 'p', 00H, 'l', 00H, 'e', 00H, '_', 00H, 't', 00H
	DB	'y', 00H, 'p', 00H, 'e', 00H, 's', 00H, '<', 00H, 's', 00H, 't'
	DB	00H, 'r', 00H, 'u', 00H, 'c', 00H, 't', 00H, ' ', 00H, 'M', 00H
	DB	'o', 00H, 'v', 00H, 'i', 00H, 'n', 00H, 'g', 00H, 'T', 00H, 'i'
	DB	00H, 'l', 00H, 'e', 00H, '>', 00H, ' ', 00H, '>', 00H, ' ', 00H
	DB	'>', 00H, ':', 00H, ':', 00H, 'o', 00H, 'p', 00H, 'e', 00H, 'r'
	DB	00H, 'a', 00H, 't', 00H, 'o', 00H, 'r', 00H, ' ', 00H, '*', 00H
	DB	00H, 00H					; `string'
CONST	ENDS
;	COMDAT ??_C@_1EG@FOHJJHAC@?$AAv?$AAe?$AAc?$AAt?$AAo?$AAr?$AA?5?$AAi?$AAt?$AAe?$AAr?$AAa?$AAt?$AAo?$AAr?$AA?5?$AAn?$AAo?$AAt?$AA?5?$AAd?$AAe?$AAr?$AAe?$AAf?$AAe?$AAr?$AAe?$AAn?$AAc?$AAa?$AAb@
CONST	SEGMENT
??_C@_1EG@FOHJJHAC@?$AAv?$AAe?$AAc?$AAt?$AAo?$AAr?$AA?5?$AAi?$AAt?$AAe?$AAr?$AAa?$AAt?$AAo?$AAr?$AA?5?$AAn?$AAo?$AAt?$AA?5?$AAd?$AAe?$AAr?$AAe?$AAf?$AAe?$AAr?$AAe?$AAn?$AAc?$AAa?$AAb@ DB 'v'
	DB	00H, 'e', 00H, 'c', 00H, 't', 00H, 'o', 00H, 'r', 00H, ' ', 00H
	DB	'i', 00H, 't', 00H, 'e', 00H, 'r', 00H, 'a', 00H, 't', 00H, 'o'
	DB	00H, 'r', 00H, ' ', 00H, 'n', 00H, 'o', 00H, 't', 00H, ' ', 00H
	DB	'd', 00H, 'e', 00H, 'r', 00H, 'e', 00H, 'f', 00H, 'e', 00H, 'r'
	DB	00H, 'e', 00H, 'n', 00H, 'c', 00H, 'a', 00H, 'b', 00H, 'l', 00H
	DB	'e', 00H, 00H, 00H				; `string'
CONST	ENDS
;	COMDAT ??_C@_1BO@MEPPHOO@?$AA?$CC?$AAo?$AAu?$AAt?$AA?5?$AAo?$AAf?$AA?5?$AAr?$AAa?$AAn?$AAg?$AAe?$AA?$CC?$AA?$AA@
CONST	SEGMENT
??_C@_1BO@MEPPHOO@?$AA?$CC?$AAo?$AAu?$AAt?$AA?5?$AAo?$AAf?$AA?5?$AAr?$AAa?$AAn?$AAg?$AAe?$AA?$CC?$AA?$AA@ DB '"'
	DB	00H, 'o', 00H, 'u', 00H, 't', 00H, ' ', 00H, 'o', 00H, 'f', 00H
	DB	' ', 00H, 'r', 00H, 'a', 00H, 'n', 00H, 'g', 00H, 'e', 00H, '"'
	DB	00H, 00H, 00H				; `string'
CONST	ENDS
;	COMDAT ??_C@_1OC@EGHAOCGO@?$AAs?$AAt?$AAd?$AA?3?$AA?3?$AA_?$AAV?$AAe?$AAc?$AAt?$AAo?$AAr?$AA_?$AAc?$AAo?$AAn?$AAs?$AAt?$AA_?$AAi?$AAt?$AAe?$AAr?$AAa?$AAt?$AAo?$AAr?$AA?$DM?$AAc?$AAl?$AAa?$AAs@
CONST	SEGMENT
??_C@_1OC@EGHAOCGO@?$AAs?$AAt?$AAd?$AA?3?$AA?3?$AA_?$AAV?$AAe?$AAc?$AAt?$AAo?$AAr?$AA_?$AAc?$AAo?$AAn?$AAs?$AAt?$AA_?$AAi?$AAt?$AAe?$AAr?$AAa?$AAt?$AAo?$AAr?$AA?$DM?$AAc?$AAl?$AAa?$AAs@ DB 's'
	DB	00H, 't', 00H, 'd', 00H, ':', 00H, ':', 00H, '_', 00H, 'V', 00H
	DB	'e', 00H, 'c', 00H, 't', 00H, 'o', 00H, 'r', 00H, '_', 00H, 'c'
	DB	00H, 'o', 00H, 'n', 00H, 's', 00H, 't', 00H, '_', 00H, 'i', 00H
	DB	't', 00H, 'e', 00H, 'r', 00H, 'a', 00H, 't', 00H, 'o', 00H, 'r'
	DB	00H, '<', 00H, 'c', 00H, 'l', 00H, 'a', 00H, 's', 00H, 's', 00H
	DB	' ', 00H, 's', 00H, 't', 00H, 'd', 00H, ':', 00H, ':', 00H, '_'
	DB	00H, 'V', 00H, 'e', 00H, 'c', 00H, 't', 00H, 'o', 00H, 'r', 00H
	DB	'_', 00H, 'v', 00H, 'a', 00H, 'l', 00H, '<', 00H, 's', 00H, 't'
	DB	00H, 'r', 00H, 'u', 00H, 'c', 00H, 't', 00H, ' ', 00H, 's', 00H
	DB	't', 00H, 'd', 00H, ':', 00H, ':', 00H, '_', 00H, 'S', 00H, 'i'
	DB	00H, 'm', 00H, 'p', 00H, 'l', 00H, 'e', 00H, '_', 00H, 't', 00H
	DB	'y', 00H, 'p', 00H, 'e', 00H, 's', 00H, '<', 00H, 's', 00H, 't'
	DB	00H, 'r', 00H, 'u', 00H, 'c', 00H, 't', 00H, ' ', 00H, 'M', 00H
	DB	'o', 00H, 'v', 00H, 'i', 00H, 'n', 00H, 'g', 00H, 'T', 00H, 'i'
	DB	00H, 'l', 00H, 'e', 00H, '>', 00H, ' ', 00H, '>', 00H, ' ', 00H
	DB	'>', 00H, ':', 00H, ':', 00H, 'o', 00H, 'p', 00H, 'e', 00H, 'r'
	DB	00H, 'a', 00H, 't', 00H, 'o', 00H, 'r', 00H, ' ', 00H, '+', 00H
	DB	'+', 00H, 00H, 00H				; `string'
CONST	ENDS
;	COMDAT ??_C@_1FG@IBPIFFN@?$AA?$CC?$AAS?$AAt?$AAa?$AAn?$AAd?$AAa?$AAr?$AAd?$AA?5?$AAC?$AA?$CL?$AA?$CL?$AA?5?$AAL?$AAi?$AAb?$AAr?$AAa?$AAr?$AAi?$AAe?$AAs?$AA?5?$AAO?$AAu?$AAt?$AA?5?$AAo?$AAf?$AA?5?$AAR@
CONST	SEGMENT
??_C@_1FG@IBPIFFN@?$AA?$CC?$AAS?$AAt?$AAa?$AAn?$AAd?$AAa?$AAr?$AAd?$AA?5?$AAC?$AA?$CL?$AA?$CL?$AA?5?$AAL?$AAi?$AAb?$AAr?$AAa?$AAr?$AAi?$AAe?$AAs?$AA?5?$AAO?$AAu?$AAt?$AA?5?$AAo?$AAf?$AA?5?$AAR@ DB '"'
	DB	00H, 'S', 00H, 't', 00H, 'a', 00H, 'n', 00H, 'd', 00H, 'a', 00H
	DB	'r', 00H, 'd', 00H, ' ', 00H, 'C', 00H, '+', 00H, '+', 00H, ' '
	DB	00H, 'L', 00H, 'i', 00H, 'b', 00H, 'r', 00H, 'a', 00H, 'r', 00H
	DB	'i', 00H, 'e', 00H, 's', 00H, ' ', 00H, 'O', 00H, 'u', 00H, 't'
	DB	00H, ' ', 00H, 'o', 00H, 'f', 00H, ' ', 00H, 'R', 00H, 'a', 00H
	DB	'n', 00H, 'g', 00H, 'e', 00H, '"', 00H, ' ', 00H, '&', 00H, '&'
	DB	00H, ' ', 00H, '0', 00H, 00H, 00H		; `string'
CONST	ENDS
;	COMDAT ??_C@_0CE@OFMIGAMM@Standard?5C?$CL?$CL?5Libraries?5Out?5of?5Ra@
CONST	SEGMENT
??_C@_0CE@OFMIGAMM@Standard?5C?$CL?$CL?5Libraries?5Out?5of?5Ra@ DB 'Stand'
	DB	'ard C++ Libraries Out of Range', 00H	; `string'
CONST	ENDS
;	COMDAT ??_C@_1EE@EJDKCLKB@?$AAv?$AAe?$AAc?$AAt?$AAo?$AAr?$AA?5?$AAi?$AAt?$AAe?$AAr?$AAa?$AAt?$AAo?$AAr?$AA?5?$AAn?$AAo?$AAt?$AA?5?$AAi?$AAn?$AAc?$AAr?$AAe?$AAm?$AAe?$AAn?$AAt?$AAa?$AAb?$AAl@
CONST	SEGMENT
??_C@_1EE@EJDKCLKB@?$AAv?$AAe?$AAc?$AAt?$AAo?$AAr?$AA?5?$AAi?$AAt?$AAe?$AAr?$AAa?$AAt?$AAo?$AAr?$AA?5?$AAn?$AAo?$AAt?$AA?5?$AAi?$AAn?$AAc?$AAr?$AAe?$AAm?$AAe?$AAn?$AAt?$AAa?$AAb?$AAl@ DB 'v'
	DB	00H, 'e', 00H, 'c', 00H, 't', 00H, 'o', 00H, 'r', 00H, ' ', 00H
	DB	'i', 00H, 't', 00H, 'e', 00H, 'r', 00H, 'a', 00H, 't', 00H, 'o'
	DB	00H, 'r', 00H, ' ', 00H, 'n', 00H, 'o', 00H, 't', 00H, ' ', 00H
	DB	'i', 00H, 'n', 00H, 'c', 00H, 'r', 00H, 'e', 00H, 'm', 00H, 'e'
	DB	00H, 'n', 00H, 't', 00H, 'a', 00H, 'b', 00H, 'l', 00H, 'e', 00H
	DB	00H, 00H					; `string'
CONST	ENDS
;	COMDAT ??_C@_1IM@NCODKBJH@?$AAc?$AA?3?$AA?2?$AAp?$AAr?$AAo?$AAg?$AAr?$AAa?$AAm?$AA?5?$AAf?$AAi?$AAl?$AAe?$AAs?$AA?5?$AA?$CI?$AAx?$AA8?$AA6?$AA?$CJ?$AA?2?$AAm?$AAi?$AAc?$AAr?$AAo?$AAs?$AAo?$AAf?$AAt@
CONST	SEGMENT
??_C@_1IM@NCODKBJH@?$AAc?$AA?3?$AA?2?$AAp?$AAr?$AAo?$AAg?$AAr?$AAa?$AAm?$AA?5?$AAf?$AAi?$AAl?$AAe?$AAs?$AA?5?$AA?$CI?$AAx?$AA8?$AA6?$AA?$CJ?$AA?2?$AAm?$AAi?$AAc?$AAr?$AAo?$AAs?$AAo?$AAf?$AAt@ DB 'c'
	DB	00H, ':', 00H, '\', 00H, 'p', 00H, 'r', 00H, 'o', 00H, 'g', 00H
	DB	'r', 00H, 'a', 00H, 'm', 00H, ' ', 00H, 'f', 00H, 'i', 00H, 'l'
	DB	00H, 'e', 00H, 's', 00H, ' ', 00H, '(', 00H, 'x', 00H, '8', 00H
	DB	'6', 00H, ')', 00H, '\', 00H, 'm', 00H, 'i', 00H, 'c', 00H, 'r'
	DB	00H, 'o', 00H, 's', 00H, 'o', 00H, 'f', 00H, 't', 00H, ' ', 00H
	DB	'v', 00H, 'i', 00H, 's', 00H, 'u', 00H, 'a', 00H, 'l', 00H, ' '
	DB	00H, 's', 00H, 't', 00H, 'u', 00H, 'd', 00H, 'i', 00H, 'o', 00H
	DB	' ', 00H, '1', 00H, '4', 00H, '.', 00H, '0', 00H, '\', 00H, 'v'
	DB	00H, 'c', 00H, '\', 00H, 'i', 00H, 'n', 00H, 'c', 00H, 'l', 00H
	DB	'u', 00H, 'd', 00H, 'e', 00H, '\', 00H, 'v', 00H, 'e', 00H, 'c'
	DB	00H, 't', 00H, 'o', 00H, 'r', 00H, 00H, 00H	; `string'
CONST	ENDS
;	COMDAT ??_C@_1GI@DHJGPFNI@?$AA?$CC?$AA_?$AAP?$AAt?$AAr?$AA_?$AAu?$AAs?$AAe?$AAr?$AA?5?$AA?9?$AA?5?$AA_?$AAP?$AAt?$AAr?$AA_?$AAc?$AAo?$AAn?$AAt?$AAa?$AAi?$AAn?$AAe?$AAr?$AA?5?$AA?$DM?$AA?$DN?$AA?5?$AA_@
CONST	SEGMENT
??_C@_1GI@DHJGPFNI@?$AA?$CC?$AA_?$AAP?$AAt?$AAr?$AA_?$AAu?$AAs?$AAe?$AAr?$AA?5?$AA?9?$AA?5?$AA_?$AAP?$AAt?$AAr?$AA_?$AAc?$AAo?$AAn?$AAt?$AAa?$AAi?$AAn?$AAe?$AAr?$AA?5?$AA?$DM?$AA?$DN?$AA?5?$AA_@ DB '"'
	DB	00H, '_', 00H, 'P', 00H, 't', 00H, 'r', 00H, '_', 00H, 'u', 00H
	DB	's', 00H, 'e', 00H, 'r', 00H, ' ', 00H, '-', 00H, ' ', 00H, '_'
	DB	00H, 'P', 00H, 't', 00H, 'r', 00H, '_', 00H, 'c', 00H, 'o', 00H
	DB	'n', 00H, 't', 00H, 'a', 00H, 'i', 00H, 'n', 00H, 'e', 00H, 'r'
	DB	00H, ' ', 00H, '<', 00H, '=', 00H, ' ', 00H, '_', 00H, 'N', 00H
	DB	'O', 00H, 'N', 00H, '_', 00H, 'U', 00H, 'S', 00H, 'E', 00H, 'R'
	DB	00H, '_', 00H, 'S', 00H, 'I', 00H, 'Z', 00H, 'E', 00H, '"', 00H
	DB	' ', 00H, '&', 00H, '&', 00H, ' ', 00H, '0', 00H, 00H, 00H ; `string'
CONST	ENDS
;	COMDAT ??_C@_0CN@BLHJCAL@_Ptr_user?5?9?5_Ptr_container?5?$DM?$DN?5_N@
CONST	SEGMENT
??_C@_0CN@BLHJCAL@_Ptr_user?5?9?5_Ptr_container?5?$DM?$DN?5_N@ DB '_Ptr_u'
	DB	'ser - _Ptr_container <= _NON_USER_SIZE', 00H ; `string'
CONST	ENDS
;	COMDAT ??_C@_1HA@NAPGMHAO@?$AA?$CC?$AA2?$AA?5?$AA?$CK?$AA?5?$AAs?$AAi?$AAz?$AAe?$AAo?$AAf?$AA?$CI?$AAv?$AAo?$AAi?$AAd?$AA?5?$AA?$CK?$AA?$CJ?$AA?5?$AA?$DM?$AA?$DN?$AA?5?$AA_?$AAP?$AAt?$AAr?$AA_?$AAu?$AAs?$AAe?$AAr@
CONST	SEGMENT
??_C@_1HA@NAPGMHAO@?$AA?$CC?$AA2?$AA?5?$AA?$CK?$AA?5?$AAs?$AAi?$AAz?$AAe?$AAo?$AAf?$AA?$CI?$AAv?$AAo?$AAi?$AAd?$AA?5?$AA?$CK?$AA?$CJ?$AA?5?$AA?$DM?$AA?$DN?$AA?5?$AA_?$AAP?$AAt?$AAr?$AA_?$AAu?$AAs?$AAe?$AAr@ DB '"'
	DB	00H, '2', 00H, ' ', 00H, '*', 00H, ' ', 00H, 's', 00H, 'i', 00H
	DB	'z', 00H, 'e', 00H, 'o', 00H, 'f', 00H, '(', 00H, 'v', 00H, 'o'
	DB	00H, 'i', 00H, 'd', 00H, ' ', 00H, '*', 00H, ')', 00H, ' ', 00H
	DB	'<', 00H, '=', 00H, ' ', 00H, '_', 00H, 'P', 00H, 't', 00H, 'r'
	DB	00H, '_', 00H, 'u', 00H, 's', 00H, 'e', 00H, 'r', 00H, ' ', 00H
	DB	'-', 00H, ' ', 00H, '_', 00H, 'P', 00H, 't', 00H, 'r', 00H, '_'
	DB	00H, 'c', 00H, 'o', 00H, 'n', 00H, 't', 00H, 'a', 00H, 'i', 00H
	DB	'n', 00H, 'e', 00H, 'r', 00H, '"', 00H, ' ', 00H, '&', 00H, '&'
	DB	00H, ' ', 00H, '0', 00H, 00H, 00H		; `string'
CONST	ENDS
;	COMDAT ??_C@_0DB@GLFJLNCE@2?5?$CK?5sizeof?$CIvoid?5?$CK?$CJ?5?$DM?$DN?5_Ptr_user?5@
CONST	SEGMENT
??_C@_0DB@GLFJLNCE@2?5?$CK?5sizeof?$CIvoid?5?$CK?$CJ?5?$DM?$DN?5_Ptr_user?5@ DB '2'
	DB	' * sizeof(void *) <= _Ptr_user - _Ptr_container', 00H ; `string'
CONST	ENDS
;	COMDAT ??_C@_1EE@PDHAHDDC@?$AA?$CC?$AA_?$AAP?$AAt?$AAr?$AA_?$AAc?$AAo?$AAn?$AAt?$AAa?$AAi?$AAn?$AAe?$AAr?$AA?5?$AA?$DM?$AA?5?$AA_?$AAP?$AAt?$AAr?$AA_?$AAu?$AAs?$AAe?$AAr?$AA?$CC?$AA?5?$AA?$CG?$AA?$CG?$AA?5@
CONST	SEGMENT
??_C@_1EE@PDHAHDDC@?$AA?$CC?$AA_?$AAP?$AAt?$AAr?$AA_?$AAc?$AAo?$AAn?$AAt?$AAa?$AAi?$AAn?$AAe?$AAr?$AA?5?$AA?$DM?$AA?5?$AA_?$AAP?$AAt?$AAr?$AA_?$AAu?$AAs?$AAe?$AAr?$AA?$CC?$AA?5?$AA?$CG?$AA?$CG?$AA?5@ DB '"'
	DB	00H, '_', 00H, 'P', 00H, 't', 00H, 'r', 00H, '_', 00H, 'c', 00H
	DB	'o', 00H, 'n', 00H, 't', 00H, 'a', 00H, 'i', 00H, 'n', 00H, 'e'
	DB	00H, 'r', 00H, ' ', 00H, '<', 00H, ' ', 00H, '_', 00H, 'P', 00H
	DB	't', 00H, 'r', 00H, '_', 00H, 'u', 00H, 's', 00H, 'e', 00H, 'r'
	DB	00H, '"', 00H, ' ', 00H, '&', 00H, '&', 00H, ' ', 00H, '0', 00H
	DB	00H, 00H					; `string'
CONST	ENDS
;	COMDAT ??_C@_0BL@OCKMEJON@_Ptr_container?5?$DM?5_Ptr_user?$AA@
CONST	SEGMENT
??_C@_0BL@OCKMEJON@_Ptr_container?5?$DM?5_Ptr_user?$AA@ DB '_Ptr_containe'
	DB	'r < _Ptr_user', 00H				; `string'
CONST	ENDS
;	COMDAT ??_C@_1JO@EKLKIEHP@?$AA?$CC?$AAr?$AAe?$AAi?$AAn?$AAt?$AAe?$AAr?$AAp?$AAr?$AAe?$AAt?$AA_?$AAc?$AAa?$AAs?$AAt?$AA?$DM?$AAu?$AAi?$AAn?$AAt?$AAp?$AAt?$AAr?$AA_?$AAt?$AA?5?$AA?$CK?$AA?$DO?$AA?$CI?$AA_@
CONST	SEGMENT
??_C@_1JO@EKLKIEHP@?$AA?$CC?$AAr?$AAe?$AAi?$AAn?$AAt?$AAe?$AAr?$AAp?$AAr?$AAe?$AAt?$AA_?$AAc?$AAa?$AAs?$AAt?$AA?$DM?$AAu?$AAi?$AAn?$AAt?$AAp?$AAt?$AAr?$AA_?$AAt?$AA?5?$AA?$CK?$AA?$DO?$AA?$CI?$AA_@ DB '"'
	DB	00H, 'r', 00H, 'e', 00H, 'i', 00H, 'n', 00H, 't', 00H, 'e', 00H
	DB	'r', 00H, 'p', 00H, 'r', 00H, 'e', 00H, 't', 00H, '_', 00H, 'c'
	DB	00H, 'a', 00H, 's', 00H, 't', 00H, '<', 00H, 'u', 00H, 'i', 00H
	DB	'n', 00H, 't', 00H, 'p', 00H, 't', 00H, 'r', 00H, '_', 00H, 't'
	DB	00H, ' ', 00H, '*', 00H, '>', 00H, '(', 00H, '_', 00H, 'P', 00H
	DB	't', 00H, 'r', 00H, '_', 00H, 'p', 00H, 't', 00H, 'r', 00H, ')'
	DB	00H, '[', 00H, '-', 00H, '1', 00H, ']', 00H, ' ', 00H, '=', 00H
	DB	'=', 00H, ' ', 00H, '_', 00H, 'B', 00H, 'I', 00H, 'G', 00H, '_'
	DB	00H, 'A', 00H, 'L', 00H, 'L', 00H, 'O', 00H, 'C', 00H, 'A', 00H
	DB	'T', 00H, 'I', 00H, 'O', 00H, 'N', 00H, '_', 00H, 'S', 00H, 'E'
	DB	00H, 'N', 00H, 'T', 00H, 'I', 00H, 'N', 00H, 'E', 00H, 'L', 00H
	DB	'"', 00H, ' ', 00H, '&', 00H, '&', 00H, ' ', 00H, '0', 00H, 00H
	DB	00H						; `string'
CONST	ENDS
;	COMDAT ??_C@_0EI@NOJHEJCJ@reinterpret_cast?$DMuintptr_t?5?$CK?$DO?$CI_P@
CONST	SEGMENT
??_C@_0EI@NOJHEJCJ@reinterpret_cast?$DMuintptr_t?5?$CK?$DO?$CI_P@ DB 'rei'
	DB	'nterpret_cast<uintptr_t *>(_Ptr_ptr)[-1] == _BIG_ALLOCATION_S'
	DB	'ENTINEL', 00H				; `string'
CONST	ENDS
;	COMDAT ??_C@_1HE@CDMBFOKC@?$AA?$CC?$AA?$CI?$AA_?$AAP?$AAt?$AAr?$AA_?$AAu?$AAs?$AAe?$AAr?$AA?5?$AA?$CG?$AA?5?$AA?$CI?$AA_?$AAB?$AAI?$AAG?$AA_?$AAA?$AAL?$AAL?$AAO?$AAC?$AAA?$AAT?$AAI?$AAO?$AAN?$AA_?$AAA@
CONST	SEGMENT
??_C@_1HE@CDMBFOKC@?$AA?$CC?$AA?$CI?$AA_?$AAP?$AAt?$AAr?$AA_?$AAu?$AAs?$AAe?$AAr?$AA?5?$AA?$CG?$AA?5?$AA?$CI?$AA_?$AAB?$AAI?$AAG?$AA_?$AAA?$AAL?$AAL?$AAO?$AAC?$AAA?$AAT?$AAI?$AAO?$AAN?$AA_?$AAA@ DB '"'
	DB	00H, '(', 00H, '_', 00H, 'P', 00H, 't', 00H, 'r', 00H, '_', 00H
	DB	'u', 00H, 's', 00H, 'e', 00H, 'r', 00H, ' ', 00H, '&', 00H, ' '
	DB	00H, '(', 00H, '_', 00H, 'B', 00H, 'I', 00H, 'G', 00H, '_', 00H
	DB	'A', 00H, 'L', 00H, 'L', 00H, 'O', 00H, 'C', 00H, 'A', 00H, 'T'
	DB	00H, 'I', 00H, 'O', 00H, 'N', 00H, '_', 00H, 'A', 00H, 'L', 00H
	DB	'I', 00H, 'G', 00H, 'N', 00H, 'M', 00H, 'E', 00H, 'N', 00H, 'T'
	DB	00H, ' ', 00H, '-', 00H, ' ', 00H, '1', 00H, ')', 00H, ')', 00H
	DB	' ', 00H, '=', 00H, '=', 00H, ' ', 00H, '0', 00H, '"', 00H, ' '
	DB	00H, '&', 00H, '&', 00H, ' ', 00H, '0', 00H, 00H, 00H ; `string'
CONST	ENDS
;	COMDAT ??_C@_0DD@GBGGGKGG@?$CI_Ptr_user?5?$CG?5?$CI_BIG_ALLOCATION_AL@
CONST	SEGMENT
??_C@_0DD@GBGGGKGG@?$CI_Ptr_user?5?$CG?5?$CI_BIG_ALLOCATION_AL@ DB '(_Ptr'
	DB	'_user & (_BIG_ALLOCATION_ALIGNMENT - 1)) == 0', 00H ; `string'
CONST	ENDS
;	COMDAT ??_C@_1CC@LOFJFFDB@?$AAs?$AAt?$AAd?$AA?3?$AA?3?$AA_?$AAD?$AAe?$AAa?$AAl?$AAl?$AAo?$AAc?$AAa?$AAt?$AAe?$AA?$AA@
CONST	SEGMENT
??_C@_1CC@LOFJFFDB@?$AAs?$AAt?$AAd?$AA?3?$AA?3?$AA_?$AAD?$AAe?$AAa?$AAl?$AAl?$AAo?$AAc?$AAa?$AAt?$AAe?$AA?$AA@ DB 's'
	DB	00H, 't', 00H, 'd', 00H, ':', 00H, ':', 00H, '_', 00H, 'D', 00H
	DB	'e', 00H, 'a', 00H, 'l', 00H, 'l', 00H, 'o', 00H, 'c', 00H, 'a'
	DB	00H, 't', 00H, 'e', 00H, 00H, 00H		; `string'
CONST	ENDS
;	COMDAT ??_C@_1EI@MLOBABC@?$AA?$CC?$AA_?$AAC?$AAo?$AAu?$AAn?$AAt?$AA?5?$AA?$DM?$AA?$DN?$AA?5?$AA?$CI?$AAs?$AAi?$AAz?$AAe?$AA_?$AAt?$AA?$CJ?$AA?$CI?$AA?9?$AA1?$AA?$CJ?$AA?5?$AA?1?$AA?5?$AA_?$AAS?$AAz?$AA?$CC?$AA?5?$AA?$CG@
CONST	SEGMENT
??_C@_1EI@MLOBABC@?$AA?$CC?$AA_?$AAC?$AAo?$AAu?$AAn?$AAt?$AA?5?$AA?$DM?$AA?$DN?$AA?5?$AA?$CI?$AAs?$AAi?$AAz?$AAe?$AA_?$AAt?$AA?$CJ?$AA?$CI?$AA?9?$AA1?$AA?$CJ?$AA?5?$AA?1?$AA?5?$AA_?$AAS?$AAz?$AA?$CC?$AA?5?$AA?$CG@ DB '"'
	DB	00H, '_', 00H, 'C', 00H, 'o', 00H, 'u', 00H, 'n', 00H, 't', 00H
	DB	' ', 00H, '<', 00H, '=', 00H, ' ', 00H, '(', 00H, 's', 00H, 'i'
	DB	00H, 'z', 00H, 'e', 00H, '_', 00H, 't', 00H, ')', 00H, '(', 00H
	DB	'-', 00H, '1', 00H, ')', 00H, ' ', 00H, '/', 00H, ' ', 00H, '_'
	DB	00H, 'S', 00H, 'z', 00H, '"', 00H, ' ', 00H, '&', 00H, '&', 00H
	DB	' ', 00H, '0', 00H, 00H, 00H			; `string'
CONST	ENDS
;	COMDAT ??_C@_0BN@HMCJOMKN@_Count?5?$DM?$DN?5?$CIsize_t?$CJ?$CI?91?$CJ?5?1?5_Sz?$AA@
CONST	SEGMENT
??_C@_0BN@HMCJOMKN@_Count?5?$DM?$DN?5?$CIsize_t?$CJ?$CI?91?$CJ?5?1?5_Sz?$AA@ DB '_'
	DB	'Count <= (size_t)(-1) / _Sz', 00H		; `string'
CONST	ENDS
;	COMDAT ?__LINE__Var@?0??_Deallocate@std@@YAXPAXII@Z@4JA
_DATA	SEGMENT
?__LINE__Var@?0??_Deallocate@std@@YAXPAXII@Z@4JA DD 05cH ; `std::_Deallocate'::`1'::__LINE__Var
_DATA	ENDS
;	COMDAT ??_C@_1CC@GKJLLHIM@?$AA?$CC?$AA_?$AAP?$AAt?$AAr?$AA?5?$AA?$CB?$AA?$DN?$AA?5?$AA0?$AA?$CC?$AA?5?$AA?$CG?$AA?$CG?$AA?5?$AA0?$AA?$AA@
CONST	SEGMENT
??_C@_1CC@GKJLLHIM@?$AA?$CC?$AA_?$AAP?$AAt?$AAr?$AA?5?$AA?$CB?$AA?$DN?$AA?5?$AA0?$AA?$CC?$AA?5?$AA?$CG?$AA?$CG?$AA?5?$AA0?$AA?$AA@ DB '"'
	DB	00H, '_', 00H, 'P', 00H, 't', 00H, 'r', 00H, ' ', 00H, '!', 00H
	DB	'=', 00H, ' ', 00H, '0', 00H, '"', 00H, ' ', 00H, '&', 00H, '&'
	DB	00H, ' ', 00H, '0', 00H, 00H, 00H		; `string'
CONST	ENDS
;	COMDAT ??_C@_09GLJCAGLP@_Ptr?5?$CB?$DN?50?$AA@
CONST	SEGMENT
??_C@_09GLJCAGLP@_Ptr?5?$CB?$DN?50?$AA@ DB '_Ptr != 0', 00H ; `string'
CONST	ENDS
;	COMDAT ??_C@_1CG@JNLFBNGN@?$AA?$CC?$AAi?$AAn?$AAv?$AAa?$AAl?$AAi?$AAd?$AA?5?$AAa?$AAr?$AAg?$AAu?$AAm?$AAe?$AAn?$AAt?$AA?$CC?$AA?$AA@
CONST	SEGMENT
??_C@_1CG@JNLFBNGN@?$AA?$CC?$AAi?$AAn?$AAv?$AAa?$AAl?$AAi?$AAd?$AA?5?$AAa?$AAr?$AAg?$AAu?$AAm?$AAe?$AAn?$AAt?$AA?$CC?$AA?$AA@ DB '"'
	DB	00H, 'i', 00H, 'n', 00H, 'v', 00H, 'a', 00H, 'l', 00H, 'i', 00H
	DB	'd', 00H, ' ', 00H, 'a', 00H, 'r', 00H, 'g', 00H, 'u', 00H, 'm'
	DB	00H, 'e', 00H, 'n', 00H, 't', 00H, '"', 00H, 00H, 00H ; `string'
CONST	ENDS
;	COMDAT ??_C@_1BO@NKFMJPA@?$AAs?$AAt?$AAd?$AA?3?$AA?3?$AA_?$AAA?$AAl?$AAl?$AAo?$AAc?$AAa?$AAt?$AAe?$AA?$AA@
CONST	SEGMENT
??_C@_1BO@NKFMJPA@?$AAs?$AAt?$AAd?$AA?3?$AA?3?$AA_?$AAA?$AAl?$AAl?$AAo?$AAc?$AAa?$AAt?$AAe?$AA?$AA@ DB 's'
	DB	00H, 't', 00H, 'd', 00H, ':', 00H, ':', 00H, '_', 00H, 'A', 00H
	DB	'l', 00H, 'l', 00H, 'o', 00H, 'c', 00H, 'a', 00H, 't', 00H, 'e'
	DB	00H, 00H, 00H				; `string'
CONST	ENDS
;	COMDAT ??_C@_1JA@DKOIEICI@?$AAc?$AA?3?$AA?2?$AAp?$AAr?$AAo?$AAg?$AAr?$AAa?$AAm?$AA?5?$AAf?$AAi?$AAl?$AAe?$AAs?$AA?5?$AA?$CI?$AAx?$AA8?$AA6?$AA?$CJ?$AA?2?$AAm?$AAi?$AAc?$AAr?$AAo?$AAs?$AAo?$AAf?$AAt@
CONST	SEGMENT
??_C@_1JA@DKOIEICI@?$AAc?$AA?3?$AA?2?$AAp?$AAr?$AAo?$AAg?$AAr?$AAa?$AAm?$AA?5?$AAf?$AAi?$AAl?$AAe?$AAs?$AA?5?$AA?$CI?$AAx?$AA8?$AA6?$AA?$CJ?$AA?2?$AAm?$AAi?$AAc?$AAr?$AAo?$AAs?$AAo?$AAf?$AAt@ DB 'c'
	DB	00H, ':', 00H, '\', 00H, 'p', 00H, 'r', 00H, 'o', 00H, 'g', 00H
	DB	'r', 00H, 'a', 00H, 'm', 00H, ' ', 00H, 'f', 00H, 'i', 00H, 'l'
	DB	00H, 'e', 00H, 's', 00H, ' ', 00H, '(', 00H, 'x', 00H, '8', 00H
	DB	'6', 00H, ')', 00H, '\', 00H, 'm', 00H, 'i', 00H, 'c', 00H, 'r'
	DB	00H, 'o', 00H, 's', 00H, 'o', 00H, 'f', 00H, 't', 00H, ' ', 00H
	DB	'v', 00H, 'i', 00H, 's', 00H, 'u', 00H, 'a', 00H, 'l', 00H, ' '
	DB	00H, 's', 00H, 't', 00H, 'u', 00H, 'd', 00H, 'i', 00H, 'o', 00H
	DB	' ', 00H, '1', 00H, '4', 00H, '.', 00H, '0', 00H, '\', 00H, 'v'
	DB	00H, 'c', 00H, '\', 00H, 'i', 00H, 'n', 00H, 'c', 00H, 'l', 00H
	DB	'u', 00H, 'd', 00H, 'e', 00H, '\', 00H, 'x', 00H, 'm', 00H, 'e'
	DB	00H, 'm', 00H, 'o', 00H, 'r', 00H, 'y', 00H, '0', 00H, 00H, 00H ; `string'
CONST	ENDS
;	COMDAT ??_C@_17CNPHIMPH@?$AA?$CF?$AAl?$AAs?$AA?$AA@
CONST	SEGMENT
??_C@_17CNPHIMPH@?$AA?$CF?$AAl?$AAs?$AA?$AA@ DB '%', 00H, 'l', 00H, 's', 00H
	DB	00H, 00H					; `string'
CONST	ENDS
;	COMDAT ??_C@_1DG@HGDKEBPG@?$AA?$CC?$AA_?$AAP?$AAt?$AAr?$AA_?$AAc?$AAo?$AAn?$AAt?$AAa?$AAi?$AAn?$AAe?$AAr?$AA?5?$AA?$CB?$AA?$DN?$AA?5?$AA0?$AA?$CC?$AA?5?$AA?$CG?$AA?$CG?$AA?5?$AA0?$AA?$AA@
CONST	SEGMENT
??_C@_1DG@HGDKEBPG@?$AA?$CC?$AA_?$AAP?$AAt?$AAr?$AA_?$AAc?$AAo?$AAn?$AAt?$AAa?$AAi?$AAn?$AAe?$AAr?$AA?5?$AA?$CB?$AA?$DN?$AA?5?$AA0?$AA?$CC?$AA?5?$AA?$CG?$AA?$CG?$AA?5?$AA0?$AA?$AA@ DB '"'
	DB	00H, '_', 00H, 'P', 00H, 't', 00H, 'r', 00H, '_', 00H, 'c', 00H
	DB	'o', 00H, 'n', 00H, 't', 00H, 'a', 00H, 'i', 00H, 'n', 00H, 'e'
	DB	00H, 'r', 00H, ' ', 00H, '!', 00H, '=', 00H, ' ', 00H, '0', 00H
	DB	'"', 00H, ' ', 00H, '&', 00H, '&', 00H, ' ', 00H, '0', 00H, 00H
	DB	00H						; `string'
CONST	ENDS
;	COMDAT ??_C@_0BE@LMNLACIC@_Ptr_container?5?$CB?$DN?50?$AA@
CONST	SEGMENT
??_C@_0BE@LMNLACIC@_Ptr_container?5?$CB?$DN?50?$AA@ DB '_Ptr_container !='
	DB	' 0', 00H					; `string'
CONST	ENDS
;	COMDAT ?__LINE__Var@?0??_Allocate@std@@YAPAXII_N@Z@4JA
_DATA	SEGMENT
?__LINE__Var@?0??_Allocate@std@@YAPAXII_N@Z@4JA DD 030H	; `std::_Allocate'::`1'::__LINE__Var
_DATA	ENDS
;	COMDAT ??_C@_1DC@POOIKBAO@?$AAI?$AAT?$AAE?$AAR?$AAA?$AAT?$AAO?$AAR?$AA?5?$AAL?$AAI?$AAS?$AAT?$AA?5?$AAC?$AAO?$AAR?$AAR?$AAU?$AAP?$AAT?$AAE?$AAD?$AA?$CB?$AA?$AA@
CONST	SEGMENT
??_C@_1DC@POOIKBAO@?$AAI?$AAT?$AAE?$AAR?$AAA?$AAT?$AAO?$AAR?$AA?5?$AAL?$AAI?$AAS?$AAT?$AA?5?$AAC?$AAO?$AAR?$AAR?$AAU?$AAP?$AAT?$AAE?$AAD?$AA?$CB?$AA?$AA@ DB 'I'
	DB	00H, 'T', 00H, 'E', 00H, 'R', 00H, 'A', 00H, 'T', 00H, 'O', 00H
	DB	'R', 00H, ' ', 00H, 'L', 00H, 'I', 00H, 'S', 00H, 'T', 00H, ' '
	DB	00H, 'C', 00H, 'O', 00H, 'R', 00H, 'R', 00H, 'U', 00H, 'P', 00H
	DB	'T', 00H, 'E', 00H, 'D', 00H, '!', 00H, 00H, 00H ; `string'
CONST	ENDS
;	COMDAT ??_C@_1JA@MHADJNIL@?$AAc?$AA?3?$AA?2?$AAp?$AAr?$AAo?$AAg?$AAr?$AAa?$AAm?$AA?5?$AAf?$AAi?$AAl?$AAe?$AAs?$AA?5?$AA?$CI?$AAx?$AA8?$AA6?$AA?$CJ?$AA?2?$AAm?$AAi?$AAc?$AAr?$AAo?$AAs?$AAo?$AAf?$AAt@
CONST	SEGMENT
??_C@_1JA@MHADJNIL@?$AAc?$AA?3?$AA?2?$AAp?$AAr?$AAo?$AAg?$AAr?$AAa?$AAm?$AA?5?$AAf?$AAi?$AAl?$AAe?$AAs?$AA?5?$AA?$CI?$AAx?$AA8?$AA6?$AA?$CJ?$AA?2?$AAm?$AAi?$AAc?$AAr?$AAo?$AAs?$AAo?$AAf?$AAt@ DB 'c'
	DB	00H, ':', 00H, '\', 00H, 'p', 00H, 'r', 00H, 'o', 00H, 'g', 00H
	DB	'r', 00H, 'a', 00H, 'm', 00H, ' ', 00H, 'f', 00H, 'i', 00H, 'l'
	DB	00H, 'e', 00H, 's', 00H, ' ', 00H, '(', 00H, 'x', 00H, '8', 00H
	DB	'6', 00H, ')', 00H, '\', 00H, 'm', 00H, 'i', 00H, 'c', 00H, 'r'
	DB	00H, 'o', 00H, 's', 00H, 'o', 00H, 'f', 00H, 't', 00H, ' ', 00H
	DB	'v', 00H, 'i', 00H, 's', 00H, 'u', 00H, 'a', 00H, 'l', 00H, ' '
	DB	00H, 's', 00H, 't', 00H, 'u', 00H, 'd', 00H, 'i', 00H, 'o', 00H
	DB	' ', 00H, '1', 00H, '4', 00H, '.', 00H, '0', 00H, '\', 00H, 'v'
	DB	00H, 'c', 00H, '\', 00H, 'i', 00H, 'n', 00H, 'c', 00H, 'l', 00H
	DB	'u', 00H, 'd', 00H, 'e', 00H, '\', 00H, 'x', 00H, 'u', 00H, 't'
	DB	00H, 'i', 00H, 'l', 00H, 'i', 00H, 't', 00H, 'y', 00H, 00H, 00H ; `string'
CONST	ENDS
;	COMDAT xdata$x
xdata$x	SEGMENT
__catchsym$??$_Uninitialized_move_al_unchecked1@PAUPushTile@@PAU1@V?$allocator@UPushTile@@@std@@@std@@YAPAUPushTile@@PAU1@00AAU?$_Wrap_alloc@V?$allocator@UPushTile@@@std@@@0@U_General_ptr_iterator_tag@0@@Z$2 DD 040H
	DD	00H
	DD	00H
	DD	FLAT:__catch$??$_Uninitialized_move_al_unchecked1@PAUPushTile@@PAU1@V?$allocator@UPushTile@@@std@@@std@@YAPAUPushTile@@PAU1@00AAU?$_Wrap_alloc@V?$allocator@UPushTile@@@std@@@0@U_General_ptr_iterator_tag@0@@Z$0
__unwindtable$??$_Uninitialized_move_al_unchecked1@PAUPushTile@@PAU1@V?$allocator@UPushTile@@@std@@@std@@YAPAUPushTile@@PAU1@00AAU?$_Wrap_alloc@V?$allocator@UPushTile@@@std@@@0@U_General_ptr_iterator_tag@0@@Z DD 0ffffffffH
	DD	00H
	DD	0ffffffffH
	DD	00H
__tryblocktable$??$_Uninitialized_move_al_unchecked1@PAUPushTile@@PAU1@V?$allocator@UPushTile@@@std@@@std@@YAPAUPushTile@@PAU1@00AAU?$_Wrap_alloc@V?$allocator@UPushTile@@@std@@@0@U_General_ptr_iterator_tag@0@@Z DD 00H
	DD	00H
	DD	01H
	DD	01H
	DD	FLAT:__catchsym$??$_Uninitialized_move_al_unchecked1@PAUPushTile@@PAU1@V?$allocator@UPushTile@@@std@@@std@@YAPAUPushTile@@PAU1@00AAU?$_Wrap_alloc@V?$allocator@UPushTile@@@std@@@0@U_General_ptr_iterator_tag@0@@Z$2
__ehfuncinfo$??$_Uninitialized_move_al_unchecked1@PAUPushTile@@PAU1@V?$allocator@UPushTile@@@std@@@std@@YAPAUPushTile@@PAU1@00AAU?$_Wrap_alloc@V?$allocator@UPushTile@@@std@@@0@U_General_ptr_iterator_tag@0@@Z DD 019930522H
	DD	02H
	DD	FLAT:__unwindtable$??$_Uninitialized_move_al_unchecked1@PAUPushTile@@PAU1@V?$allocator@UPushTile@@@std@@@std@@YAPAUPushTile@@PAU1@00AAU?$_Wrap_alloc@V?$allocator@UPushTile@@@std@@@0@U_General_ptr_iterator_tag@0@@Z
	DD	01H
	DD	FLAT:__tryblocktable$??$_Uninitialized_move_al_unchecked1@PAUPushTile@@PAU1@V?$allocator@UPushTile@@@std@@@std@@YAPAUPushTile@@PAU1@00AAU?$_Wrap_alloc@V?$allocator@UPushTile@@@std@@@0@U_General_ptr_iterator_tag@0@@Z
	DD	2 DUP(00H)
	DD	00H
	DD	01H
xdata$x	ENDS
;	COMDAT xdata$x
xdata$x	SEGMENT
__catchsym$??$_Uninitialized_move_al_unchecked1@PAUTile@@PAU1@V?$allocator@UTile@@@std@@@std@@YAPAUTile@@PAU1@00AAU?$_Wrap_alloc@V?$allocator@UTile@@@std@@@0@U_General_ptr_iterator_tag@0@@Z$2 DD 040H
	DD	00H
	DD	00H
	DD	FLAT:__catch$??$_Uninitialized_move_al_unchecked1@PAUTile@@PAU1@V?$allocator@UTile@@@std@@@std@@YAPAUTile@@PAU1@00AAU?$_Wrap_alloc@V?$allocator@UTile@@@std@@@0@U_General_ptr_iterator_tag@0@@Z$0
__unwindtable$??$_Uninitialized_move_al_unchecked1@PAUTile@@PAU1@V?$allocator@UTile@@@std@@@std@@YAPAUTile@@PAU1@00AAU?$_Wrap_alloc@V?$allocator@UTile@@@std@@@0@U_General_ptr_iterator_tag@0@@Z DD 0ffffffffH
	DD	00H
	DD	0ffffffffH
	DD	00H
__tryblocktable$??$_Uninitialized_move_al_unchecked1@PAUTile@@PAU1@V?$allocator@UTile@@@std@@@std@@YAPAUTile@@PAU1@00AAU?$_Wrap_alloc@V?$allocator@UTile@@@std@@@0@U_General_ptr_iterator_tag@0@@Z DD 00H
	DD	00H
	DD	01H
	DD	01H
	DD	FLAT:__catchsym$??$_Uninitialized_move_al_unchecked1@PAUTile@@PAU1@V?$allocator@UTile@@@std@@@std@@YAPAUTile@@PAU1@00AAU?$_Wrap_alloc@V?$allocator@UTile@@@std@@@0@U_General_ptr_iterator_tag@0@@Z$2
__ehfuncinfo$??$_Uninitialized_move_al_unchecked1@PAUTile@@PAU1@V?$allocator@UTile@@@std@@@std@@YAPAUTile@@PAU1@00AAU?$_Wrap_alloc@V?$allocator@UTile@@@std@@@0@U_General_ptr_iterator_tag@0@@Z DD 019930522H
	DD	02H
	DD	FLAT:__unwindtable$??$_Uninitialized_move_al_unchecked1@PAUTile@@PAU1@V?$allocator@UTile@@@std@@@std@@YAPAUTile@@PAU1@00AAU?$_Wrap_alloc@V?$allocator@UTile@@@std@@@0@U_General_ptr_iterator_tag@0@@Z
	DD	01H
	DD	FLAT:__tryblocktable$??$_Uninitialized_move_al_unchecked1@PAUTile@@PAU1@V?$allocator@UTile@@@std@@@std@@YAPAUTile@@PAU1@00AAU?$_Wrap_alloc@V?$allocator@UTile@@@std@@@0@U_General_ptr_iterator_tag@0@@Z
	DD	2 DUP(00H)
	DD	00H
	DD	01H
xdata$x	ENDS
;	COMDAT xdata$x
xdata$x	SEGMENT
__catchsym$??$_Uninitialized_move_al_unchecked1@PAUMovingTile@@PAU1@V?$allocator@UMovingTile@@@std@@@std@@YAPAUMovingTile@@PAU1@00AAU?$_Wrap_alloc@V?$allocator@UMovingTile@@@std@@@0@U_General_ptr_iterator_tag@0@@Z$2 DD 040H
	DD	00H
	DD	00H
	DD	FLAT:__catch$??$_Uninitialized_move_al_unchecked1@PAUMovingTile@@PAU1@V?$allocator@UMovingTile@@@std@@@std@@YAPAUMovingTile@@PAU1@00AAU?$_Wrap_alloc@V?$allocator@UMovingTile@@@std@@@0@U_General_ptr_iterator_tag@0@@Z$0
__unwindtable$??$_Uninitialized_move_al_unchecked1@PAUMovingTile@@PAU1@V?$allocator@UMovingTile@@@std@@@std@@YAPAUMovingTile@@PAU1@00AAU?$_Wrap_alloc@V?$allocator@UMovingTile@@@std@@@0@U_General_ptr_iterator_tag@0@@Z DD 0ffffffffH
	DD	00H
	DD	0ffffffffH
	DD	00H
__tryblocktable$??$_Uninitialized_move_al_unchecked1@PAUMovingTile@@PAU1@V?$allocator@UMovingTile@@@std@@@std@@YAPAUMovingTile@@PAU1@00AAU?$_Wrap_alloc@V?$allocator@UMovingTile@@@std@@@0@U_General_ptr_iterator_tag@0@@Z DD 00H
	DD	00H
	DD	01H
	DD	01H
	DD	FLAT:__catchsym$??$_Uninitialized_move_al_unchecked1@PAUMovingTile@@PAU1@V?$allocator@UMovingTile@@@std@@@std@@YAPAUMovingTile@@PAU1@00AAU?$_Wrap_alloc@V?$allocator@UMovingTile@@@std@@@0@U_General_ptr_iterator_tag@0@@Z$2
__ehfuncinfo$??$_Uninitialized_move_al_unchecked1@PAUMovingTile@@PAU1@V?$allocator@UMovingTile@@@std@@@std@@YAPAUMovingTile@@PAU1@00AAU?$_Wrap_alloc@V?$allocator@UMovingTile@@@std@@@0@U_General_ptr_iterator_tag@0@@Z DD 019930522H
	DD	02H
	DD	FLAT:__unwindtable$??$_Uninitialized_move_al_unchecked1@PAUMovingTile@@PAU1@V?$allocator@UMovingTile@@@std@@@std@@YAPAUMovingTile@@PAU1@00AAU?$_Wrap_alloc@V?$allocator@UMovingTile@@@std@@@0@U_General_ptr_iterator_tag@0@@Z
	DD	01H
	DD	FLAT:__tryblocktable$??$_Uninitialized_move_al_unchecked1@PAUMovingTile@@PAU1@V?$allocator@UMovingTile@@@std@@@std@@YAPAUMovingTile@@PAU1@00AAU?$_Wrap_alloc@V?$allocator@UMovingTile@@@std@@@0@U_General_ptr_iterator_tag@0@@Z
	DD	2 DUP(00H)
	DD	00H
	DD	01H
xdata$x	ENDS
;	COMDAT xdata$x
xdata$x	SEGMENT
__unwindtable$??0?$_Vector_const_iterator@V?$_Vector_val@U?$_Simple_types@UTile@@@std@@@std@@@std@@QAE@PAUTile@@PBU_Container_base12@1@@Z DD 0ffffffffH
	DD	FLAT:__unwindfunclet$??0?$_Vector_const_iterator@V?$_Vector_val@U?$_Simple_types@UTile@@@std@@@std@@@std@@QAE@PAUTile@@PBU_Container_base12@1@@Z$0
__ehfuncinfo$??0?$_Vector_const_iterator@V?$_Vector_val@U?$_Simple_types@UTile@@@std@@@std@@@std@@QAE@PAUTile@@PBU_Container_base12@1@@Z DD 019930522H
	DD	01H
	DD	FLAT:__unwindtable$??0?$_Vector_const_iterator@V?$_Vector_val@U?$_Simple_types@UTile@@@std@@@std@@@std@@QAE@PAUTile@@PBU_Container_base12@1@@Z
	DD	2 DUP(00H)
	DD	2 DUP(00H)
	DD	00H
	DD	01H
xdata$x	ENDS
;	COMDAT xdata$x
xdata$x	SEGMENT
__unwindtable$??0?$_Vector_const_iterator@V?$_Vector_val@U?$_Simple_types@UMovingTile@@@std@@@std@@@std@@QAE@PAUMovingTile@@PBU_Container_base12@1@@Z DD 0ffffffffH
	DD	FLAT:__unwindfunclet$??0?$_Vector_const_iterator@V?$_Vector_val@U?$_Simple_types@UMovingTile@@@std@@@std@@@std@@QAE@PAUMovingTile@@PBU_Container_base12@1@@Z$0
__ehfuncinfo$??0?$_Vector_const_iterator@V?$_Vector_val@U?$_Simple_types@UMovingTile@@@std@@@std@@@std@@QAE@PAUMovingTile@@PBU_Container_base12@1@@Z DD 019930522H
	DD	01H
	DD	FLAT:__unwindtable$??0?$_Vector_const_iterator@V?$_Vector_val@U?$_Simple_types@UMovingTile@@@std@@@std@@@std@@QAE@PAUMovingTile@@PBU_Container_base12@1@@Z
	DD	2 DUP(00H)
	DD	2 DUP(00H)
	DD	00H
	DD	01H
xdata$x	ENDS
;	COMDAT xdata$x
xdata$x	SEGMENT
__unwindtable$?_Orphan_range@?$vector@UMovingTile@@V?$allocator@UMovingTile@@@std@@@std@@IBEXPAUMovingTile@@0@Z DD 0ffffffffH
	DD	FLAT:__unwindfunclet$?_Orphan_range@?$vector@UMovingTile@@V?$allocator@UMovingTile@@@std@@@std@@IBEXPAUMovingTile@@0@Z$0
__ehfuncinfo$?_Orphan_range@?$vector@UMovingTile@@V?$allocator@UMovingTile@@@std@@@std@@IBEXPAUMovingTile@@0@Z DD 019930522H
	DD	01H
	DD	FLAT:__unwindtable$?_Orphan_range@?$vector@UMovingTile@@V?$allocator@UMovingTile@@@std@@@std@@IBEXPAUMovingTile@@0@Z
	DD	2 DUP(00H)
	DD	2 DUP(00H)
	DD	00H
	DD	01H
xdata$x	ENDS
;	COMDAT xdata$x
xdata$x	SEGMENT
__catchsym$?_Reallocate@?$vector@UMovingTile@@V?$allocator@UMovingTile@@@std@@@std@@IAEXI@Z$2 DD 040H
	DD	00H
	DD	00H
	DD	FLAT:__catch$?_Reallocate@?$vector@UMovingTile@@V?$allocator@UMovingTile@@@std@@@std@@IAEXI@Z$0
__unwindtable$?_Reallocate@?$vector@UMovingTile@@V?$allocator@UMovingTile@@@std@@@std@@IAEXI@Z DD 0ffffffffH
	DD	00H
	DD	0ffffffffH
	DD	00H
__tryblocktable$?_Reallocate@?$vector@UMovingTile@@V?$allocator@UMovingTile@@@std@@@std@@IAEXI@Z DD 00H
	DD	00H
	DD	01H
	DD	01H
	DD	FLAT:__catchsym$?_Reallocate@?$vector@UMovingTile@@V?$allocator@UMovingTile@@@std@@@std@@IAEXI@Z$2
__ehfuncinfo$?_Reallocate@?$vector@UMovingTile@@V?$allocator@UMovingTile@@@std@@@std@@IAEXI@Z DD 019930522H
	DD	02H
	DD	FLAT:__unwindtable$?_Reallocate@?$vector@UMovingTile@@V?$allocator@UMovingTile@@@std@@@std@@IAEXI@Z
	DD	01H
	DD	FLAT:__tryblocktable$?_Reallocate@?$vector@UMovingTile@@V?$allocator@UMovingTile@@@std@@@std@@IAEXI@Z
	DD	2 DUP(00H)
	DD	00H
	DD	01H
xdata$x	ENDS
;	COMDAT xdata$x
xdata$x	SEGMENT
__ehfuncinfo$?end@?$vector@UMovingTile@@V?$allocator@UMovingTile@@@std@@@std@@QAE?AV?$_Vector_iterator@V?$_Vector_val@U?$_Simple_types@UMovingTile@@@std@@@std@@@2@XZ DD 019930522H
	DD	00H
	DD	00H
	DD	2 DUP(00H)
	DD	2 DUP(00H)
	DD	00H
	DD	05H
xdata$x	ENDS
;	COMDAT xdata$x
xdata$x	SEGMENT
__ehfuncinfo$?begin@?$vector@UMovingTile@@V?$allocator@UMovingTile@@@std@@@std@@QAE?AV?$_Vector_iterator@V?$_Vector_val@U?$_Simple_types@UMovingTile@@@std@@@std@@@2@XZ DD 019930522H
	DD	00H
	DD	00H
	DD	2 DUP(00H)
	DD	2 DUP(00H)
	DD	00H
	DD	05H
xdata$x	ENDS
;	COMDAT xdata$x
xdata$x	SEGMENT
__ehfuncinfo$??1?$vector@UMovingTile@@V?$allocator@UMovingTile@@@std@@@std@@QAE@XZ DD 019930522H
	DD	00H
	DD	00H
	DD	2 DUP(00H)
	DD	2 DUP(00H)
	DD	00H
	DD	05H
xdata$x	ENDS
;	COMDAT xdata$x
xdata$x	SEGMENT
__ehfuncinfo$??0?$vector@UMovingTile@@V?$allocator@UMovingTile@@@std@@@std@@QAE@XZ DD 019930522H
	DD	00H
	DD	00H
	DD	2 DUP(00H)
	DD	2 DUP(00H)
	DD	00H
	DD	05H
xdata$x	ENDS
;	COMDAT xdata$x
xdata$x	SEGMENT
__ehfuncinfo$??1?$_Vector_alloc@U?$_Vec_base_types@UMovingTile@@V?$allocator@UMovingTile@@@std@@@std@@@std@@QAE@XZ DD 019930522H
	DD	00H
	DD	00H
	DD	2 DUP(00H)
	DD	2 DUP(00H)
	DD	00H
	DD	05H
xdata$x	ENDS
;	COMDAT xdata$x
xdata$x	SEGMENT
__unwindtable$??0?$_Vector_alloc@U?$_Vec_base_types@UMovingTile@@V?$allocator@UMovingTile@@@std@@@std@@@std@@QAE@XZ DD 0ffffffffH
	DD	FLAT:__unwindfunclet$??0?$_Vector_alloc@U?$_Vec_base_types@UMovingTile@@V?$allocator@UMovingTile@@@std@@@std@@@std@@QAE@XZ$0
__ehfuncinfo$??0?$_Vector_alloc@U?$_Vec_base_types@UMovingTile@@V?$allocator@UMovingTile@@@std@@@std@@@std@@QAE@XZ DD 019930522H
	DD	01H
	DD	FLAT:__unwindtable$??0?$_Vector_alloc@U?$_Vec_base_types@UMovingTile@@V?$allocator@UMovingTile@@@std@@@std@@@std@@QAE@XZ
	DD	2 DUP(00H)
	DD	2 DUP(00H)
	DD	00H
	DD	01H
xdata$x	ENDS
;	COMDAT xdata$x
xdata$x	SEGMENT
__unwindtable$?_Orphan_range@?$vector@UTile@@V?$allocator@UTile@@@std@@@std@@IBEXPAUTile@@0@Z DD 0ffffffffH
	DD	FLAT:__unwindfunclet$?_Orphan_range@?$vector@UTile@@V?$allocator@UTile@@@std@@@std@@IBEXPAUTile@@0@Z$0
__ehfuncinfo$?_Orphan_range@?$vector@UTile@@V?$allocator@UTile@@@std@@@std@@IBEXPAUTile@@0@Z DD 019930522H
	DD	01H
	DD	FLAT:__unwindtable$?_Orphan_range@?$vector@UTile@@V?$allocator@UTile@@@std@@@std@@IBEXPAUTile@@0@Z
	DD	2 DUP(00H)
	DD	2 DUP(00H)
	DD	00H
	DD	01H
xdata$x	ENDS
;	COMDAT xdata$x
xdata$x	SEGMENT
__catchsym$?_Reallocate@?$vector@UTile@@V?$allocator@UTile@@@std@@@std@@IAEXI@Z$2 DD 040H
	DD	00H
	DD	00H
	DD	FLAT:__catch$?_Reallocate@?$vector@UTile@@V?$allocator@UTile@@@std@@@std@@IAEXI@Z$0
__unwindtable$?_Reallocate@?$vector@UTile@@V?$allocator@UTile@@@std@@@std@@IAEXI@Z DD 0ffffffffH
	DD	00H
	DD	0ffffffffH
	DD	00H
__tryblocktable$?_Reallocate@?$vector@UTile@@V?$allocator@UTile@@@std@@@std@@IAEXI@Z DD 00H
	DD	00H
	DD	01H
	DD	01H
	DD	FLAT:__catchsym$?_Reallocate@?$vector@UTile@@V?$allocator@UTile@@@std@@@std@@IAEXI@Z$2
__ehfuncinfo$?_Reallocate@?$vector@UTile@@V?$allocator@UTile@@@std@@@std@@IAEXI@Z DD 019930522H
	DD	02H
	DD	FLAT:__unwindtable$?_Reallocate@?$vector@UTile@@V?$allocator@UTile@@@std@@@std@@IAEXI@Z
	DD	01H
	DD	FLAT:__tryblocktable$?_Reallocate@?$vector@UTile@@V?$allocator@UTile@@@std@@@std@@IAEXI@Z
	DD	2 DUP(00H)
	DD	00H
	DD	01H
xdata$x	ENDS
;	COMDAT xdata$x
xdata$x	SEGMENT
__ehfuncinfo$?end@?$vector@UTile@@V?$allocator@UTile@@@std@@@std@@QAE?AV?$_Vector_iterator@V?$_Vector_val@U?$_Simple_types@UTile@@@std@@@std@@@2@XZ DD 019930522H
	DD	00H
	DD	00H
	DD	2 DUP(00H)
	DD	2 DUP(00H)
	DD	00H
	DD	05H
xdata$x	ENDS
;	COMDAT xdata$x
xdata$x	SEGMENT
__ehfuncinfo$?begin@?$vector@UTile@@V?$allocator@UTile@@@std@@@std@@QAE?AV?$_Vector_iterator@V?$_Vector_val@U?$_Simple_types@UTile@@@std@@@std@@@2@XZ DD 019930522H
	DD	00H
	DD	00H
	DD	2 DUP(00H)
	DD	2 DUP(00H)
	DD	00H
	DD	05H
xdata$x	ENDS
;	COMDAT xdata$x
xdata$x	SEGMENT
__ehfuncinfo$??1?$vector@UTile@@V?$allocator@UTile@@@std@@@std@@QAE@XZ DD 019930522H
	DD	00H
	DD	00H
	DD	2 DUP(00H)
	DD	2 DUP(00H)
	DD	00H
	DD	05H
xdata$x	ENDS
;	COMDAT xdata$x
xdata$x	SEGMENT
__ehfuncinfo$??0?$vector@UTile@@V?$allocator@UTile@@@std@@@std@@QAE@XZ DD 019930522H
	DD	00H
	DD	00H
	DD	2 DUP(00H)
	DD	2 DUP(00H)
	DD	00H
	DD	05H
xdata$x	ENDS
;	COMDAT xdata$x
xdata$x	SEGMENT
__ehfuncinfo$??1?$_Vector_alloc@U?$_Vec_base_types@UTile@@V?$allocator@UTile@@@std@@@std@@@std@@QAE@XZ DD 019930522H
	DD	00H
	DD	00H
	DD	2 DUP(00H)
	DD	2 DUP(00H)
	DD	00H
	DD	05H
xdata$x	ENDS
;	COMDAT xdata$x
xdata$x	SEGMENT
__unwindtable$??0?$_Vector_alloc@U?$_Vec_base_types@UTile@@V?$allocator@UTile@@@std@@@std@@@std@@QAE@XZ DD 0ffffffffH
	DD	FLAT:__unwindfunclet$??0?$_Vector_alloc@U?$_Vec_base_types@UTile@@V?$allocator@UTile@@@std@@@std@@@std@@QAE@XZ$0
__ehfuncinfo$??0?$_Vector_alloc@U?$_Vec_base_types@UTile@@V?$allocator@UTile@@@std@@@std@@@std@@QAE@XZ DD 019930522H
	DD	01H
	DD	FLAT:__unwindtable$??0?$_Vector_alloc@U?$_Vec_base_types@UTile@@V?$allocator@UTile@@@std@@@std@@@std@@QAE@XZ
	DD	2 DUP(00H)
	DD	2 DUP(00H)
	DD	00H
	DD	01H
xdata$x	ENDS
;	COMDAT xdata$x
xdata$x	SEGMENT
__unwindtable$?DrawMap@@YAXXZ DD 0ffffffffH
	DD	FLAT:__unwindfunclet$?DrawMap@@YAXXZ$0
	DD	00H
	DD	FLAT:__unwindfunclet$?DrawMap@@YAXXZ$1
	DD	0ffffffffH
	DD	FLAT:__unwindfunclet$?DrawMap@@YAXXZ$2
	DD	02H
	DD	FLAT:__unwindfunclet$?DrawMap@@YAXXZ$3
__ehfuncinfo$?DrawMap@@YAXXZ DD 019930522H
	DD	04H
	DD	FLAT:__unwindtable$?DrawMap@@YAXXZ
	DD	2 DUP(00H)
	DD	2 DUP(00H)
	DD	00H
	DD	01H
xdata$x	ENDS
;	COMDAT xdata$x
xdata$x	SEGMENT
__unwindtable$?UpdateTile@@YAXH@Z DD 0ffffffffH
	DD	FLAT:__unwindfunclet$?UpdateTile@@YAXH@Z$0
	DD	00H
	DD	FLAT:__unwindfunclet$?UpdateTile@@YAXH@Z$1
	DD	01H
	DD	FLAT:__unwindfunclet$?UpdateTile@@YAXH@Z$2
	DD	02H
	DD	FLAT:__unwindfunclet$?UpdateTile@@YAXH@Z$3
__ehfuncinfo$?UpdateTile@@YAXH@Z DD 019930522H
	DD	04H
	DD	FLAT:__unwindtable$?UpdateTile@@YAXH@Z
	DD	2 DUP(00H)
	DD	2 DUP(00H)
	DD	00H
	DD	01H
xdata$x	ENDS
;	COMDAT xdata$x
xdata$x	SEGMENT
__unwindtable$?_Orphan_range@?$vector@UPushTile@@V?$allocator@UPushTile@@@std@@@std@@IBEXPAUPushTile@@0@Z DD 0ffffffffH
	DD	FLAT:__unwindfunclet$?_Orphan_range@?$vector@UPushTile@@V?$allocator@UPushTile@@@std@@@std@@IBEXPAUPushTile@@0@Z$0
__ehfuncinfo$?_Orphan_range@?$vector@UPushTile@@V?$allocator@UPushTile@@@std@@@std@@IBEXPAUPushTile@@0@Z DD 019930522H
	DD	01H
	DD	FLAT:__unwindtable$?_Orphan_range@?$vector@UPushTile@@V?$allocator@UPushTile@@@std@@@std@@IBEXPAUPushTile@@0@Z
	DD	2 DUP(00H)
	DD	2 DUP(00H)
	DD	00H
	DD	01H
xdata$x	ENDS
;	COMDAT xdata$x
xdata$x	SEGMENT
__catchsym$?_Reallocate@?$vector@UPushTile@@V?$allocator@UPushTile@@@std@@@std@@IAEXI@Z$2 DD 040H
	DD	00H
	DD	00H
	DD	FLAT:__catch$?_Reallocate@?$vector@UPushTile@@V?$allocator@UPushTile@@@std@@@std@@IAEXI@Z$0
__unwindtable$?_Reallocate@?$vector@UPushTile@@V?$allocator@UPushTile@@@std@@@std@@IAEXI@Z DD 0ffffffffH
	DD	00H
	DD	0ffffffffH
	DD	00H
__tryblocktable$?_Reallocate@?$vector@UPushTile@@V?$allocator@UPushTile@@@std@@@std@@IAEXI@Z DD 00H
	DD	00H
	DD	01H
	DD	01H
	DD	FLAT:__catchsym$?_Reallocate@?$vector@UPushTile@@V?$allocator@UPushTile@@@std@@@std@@IAEXI@Z$2
__ehfuncinfo$?_Reallocate@?$vector@UPushTile@@V?$allocator@UPushTile@@@std@@@std@@IAEXI@Z DD 019930522H
	DD	02H
	DD	FLAT:__unwindtable$?_Reallocate@?$vector@UPushTile@@V?$allocator@UPushTile@@@std@@@std@@IAEXI@Z
	DD	01H
	DD	FLAT:__tryblocktable$?_Reallocate@?$vector@UPushTile@@V?$allocator@UPushTile@@@std@@@std@@IAEXI@Z
	DD	2 DUP(00H)
	DD	00H
	DD	01H
xdata$x	ENDS
;	COMDAT xdata$x
xdata$x	SEGMENT
__ehfuncinfo$??1?$vector@UPushTile@@V?$allocator@UPushTile@@@std@@@std@@QAE@XZ DD 019930522H
	DD	00H
	DD	00H
	DD	2 DUP(00H)
	DD	2 DUP(00H)
	DD	00H
	DD	05H
xdata$x	ENDS
;	COMDAT xdata$x
xdata$x	SEGMENT
__ehfuncinfo$??0?$vector@UPushTile@@V?$allocator@UPushTile@@@std@@@std@@QAE@XZ DD 019930522H
	DD	00H
	DD	00H
	DD	2 DUP(00H)
	DD	2 DUP(00H)
	DD	00H
	DD	05H
xdata$x	ENDS
;	COMDAT xdata$x
xdata$x	SEGMENT
__ehfuncinfo$??1?$_Vector_alloc@U?$_Vec_base_types@UPushTile@@V?$allocator@UPushTile@@@std@@@std@@@std@@QAE@XZ DD 019930522H
	DD	00H
	DD	00H
	DD	2 DUP(00H)
	DD	2 DUP(00H)
	DD	00H
	DD	05H
xdata$x	ENDS
;	COMDAT xdata$x
xdata$x	SEGMENT
__unwindtable$??0?$_Vector_alloc@U?$_Vec_base_types@UPushTile@@V?$allocator@UPushTile@@@std@@@std@@@std@@QAE@XZ DD 0ffffffffH
	DD	FLAT:__unwindfunclet$??0?$_Vector_alloc@U?$_Vec_base_types@UPushTile@@V?$allocator@UPushTile@@@std@@@std@@@std@@QAE@XZ$0
__ehfuncinfo$??0?$_Vector_alloc@U?$_Vec_base_types@UPushTile@@V?$allocator@UPushTile@@@std@@@std@@@std@@QAE@XZ DD 019930522H
	DD	01H
	DD	FLAT:__unwindtable$??0?$_Vector_alloc@U?$_Vec_base_types@UPushTile@@V?$allocator@UPushTile@@@std@@@std@@@std@@QAE@XZ
	DD	2 DUP(00H)
	DD	2 DUP(00H)
	DD	00H
	DD	01H
xdata$x	ENDS
;	COMDAT xdata$x
xdata$x	SEGMENT
__unwindtable$?_Adopt@_Iterator_base12@std@@QAEXPBU_Container_base12@2@@Z DD 0ffffffffH
	DD	FLAT:__unwindfunclet$?_Adopt@_Iterator_base12@std@@QAEXPBU_Container_base12@2@@Z$0
	DD	0ffffffffH
	DD	FLAT:__unwindfunclet$?_Adopt@_Iterator_base12@std@@QAEXPBU_Container_base12@2@@Z$1
__ehfuncinfo$?_Adopt@_Iterator_base12@std@@QAEXPBU_Container_base12@2@@Z DD 019930522H
	DD	02H
	DD	FLAT:__unwindtable$?_Adopt@_Iterator_base12@std@@QAEXPBU_Container_base12@2@@Z
	DD	2 DUP(00H)
	DD	2 DUP(00H)
	DD	00H
	DD	01H
xdata$x	ENDS
;	COMDAT xdata$x
xdata$x	SEGMENT
__ehfuncinfo$??1_Iterator_base12@std@@QAE@XZ DD 019930522H
	DD	00H
	DD	00H
	DD	2 DUP(00H)
	DD	2 DUP(00H)
	DD	00H
	DD	05H
xdata$x	ENDS
;	COMDAT xdata$x
xdata$x	SEGMENT
__ehfuncinfo$??1_Container_base12@std@@QAE@XZ DD 019930522H
	DD	00H
	DD	00H
	DD	2 DUP(00H)
	DD	2 DUP(00H)
	DD	00H
	DD	05H
xdata$x	ENDS
CRT$XCU	SEGMENT
?tileMap$initializer$@@3P6AXXZA DD FLAT:??__EtileMap@@YAXXZ ; tileMap$initializer$
CRT$XCU	ENDS
CRT$XCU	SEGMENT
?pushTileMap$initializer$@@3P6AXXZA DD FLAT:??__EpushTileMap@@YAXXZ ; pushTileMap$initializer$
CRT$XCU	ENDS
CRT$XCU	SEGMENT
?movingTileMap$initializer$@@3P6AXXZA DD FLAT:??__EmovingTileMap@@YAXXZ ; movingTileMap$initializer$
CRT$XCU	ENDS
; Function compile flags: /Odtp /RTCsu /ZI
; File c:\program files (x86)\microsoft visual studio 14.0\vc\include\xmemory0
;	COMDAT ??$construct@UPushTile@@U1@@?$allocator@UPushTile@@@std@@QAEXPAUPushTile@@$$QAU2@@Z
_TEXT	SEGMENT
tv74 = -220						; size = 4
$T1 = -212						; size = 4
_this$ = -8						; size = 4
__Ptr$ = 8						; size = 4
_<_Args_0>$ = 12					; size = 4
??$construct@UPushTile@@U1@@?$allocator@UPushTile@@@std@@QAEXPAUPushTile@@$$QAU2@@Z PROC ; std::allocator<PushTile>::construct<PushTile,PushTile>, COMDAT
; _this$ = ecx

; 636  : 		{	// construct _Objty(_Types...) at _Ptr

	push	ebp
	mov	ebp, esp
	sub	esp, 220				; 000000dcH
	push	ebx
	push	esi
	push	edi
	push	ecx
	lea	edi, DWORD PTR [ebp-220]
	mov	ecx, 55					; 00000037H
	mov	eax, -858993460				; ccccccccH
	rep stosd
	pop	ecx
	mov	DWORD PTR _this$[ebp], ecx

; 637  : 		::new ((void *)_Ptr) _Objty(_STD forward<_Types>(_Args)...);

	mov	eax, DWORD PTR __Ptr$[ebp]
	push	eax
	push	48					; 00000030H
	call	??2@YAPAXIPAX@Z				; operator new
	add	esp, 8
	mov	DWORD PTR $T1[ebp], eax
	cmp	DWORD PTR $T1[ebp], 0
	je	SHORT $LN3@construct
	mov	ecx, DWORD PTR _<_Args_0>$[ebp]
	push	ecx
	call	??$forward@UPushTile@@@std@@YA$$QAUPushTile@@AAU1@@Z ; std::forward<PushTile>
	add	esp, 4
	mov	ecx, 12					; 0000000cH
	mov	esi, eax
	mov	edi, DWORD PTR $T1[ebp]
	rep movsd
	mov	edx, DWORD PTR $T1[ebp]
	mov	DWORD PTR tv74[ebp], edx
	jmp	SHORT $LN1@construct
$LN3@construct:
	mov	DWORD PTR tv74[ebp], 0
$LN1@construct:

; 638  : 		}

	pop	edi
	pop	esi
	pop	ebx
	add	esp, 220				; 000000dcH
	cmp	ebp, esp
	call	__RTC_CheckEsp
	mov	esp, ebp
	pop	ebp
	ret	8
??$construct@UPushTile@@U1@@?$allocator@UPushTile@@@std@@QAEXPAUPushTile@@$$QAU2@@Z ENDP ; std::allocator<PushTile>::construct<PushTile,PushTile>
_TEXT	ENDS
; Function compile flags: /Odtp /RTCsu /ZI
; File c:\program files (x86)\microsoft visual studio 14.0\vc\include\xmemory0
;	COMDAT ??$construct@UTile@@U1@@?$allocator@UTile@@@std@@QAEXPAUTile@@$$QAU2@@Z
_TEXT	SEGMENT
tv74 = -220						; size = 4
$T1 = -212						; size = 4
_this$ = -8						; size = 4
__Ptr$ = 8						; size = 4
_<_Args_0>$ = 12					; size = 4
??$construct@UTile@@U1@@?$allocator@UTile@@@std@@QAEXPAUTile@@$$QAU2@@Z PROC ; std::allocator<Tile>::construct<Tile,Tile>, COMDAT
; _this$ = ecx

; 636  : 		{	// construct _Objty(_Types...) at _Ptr

	push	ebp
	mov	ebp, esp
	sub	esp, 220				; 000000dcH
	push	ebx
	push	esi
	push	edi
	push	ecx
	lea	edi, DWORD PTR [ebp-220]
	mov	ecx, 55					; 00000037H
	mov	eax, -858993460				; ccccccccH
	rep stosd
	pop	ecx
	mov	DWORD PTR _this$[ebp], ecx

; 637  : 		::new ((void *)_Ptr) _Objty(_STD forward<_Types>(_Args)...);

	mov	eax, DWORD PTR __Ptr$[ebp]
	push	eax
	push	32					; 00000020H
	call	??2@YAPAXIPAX@Z				; operator new
	add	esp, 8
	mov	DWORD PTR $T1[ebp], eax
	cmp	DWORD PTR $T1[ebp], 0
	je	SHORT $LN3@construct
	mov	ecx, DWORD PTR _<_Args_0>$[ebp]
	push	ecx
	call	??$forward@UTile@@@std@@YA$$QAUTile@@AAU1@@Z ; std::forward<Tile>
	add	esp, 4
	mov	ecx, 8
	mov	esi, eax
	mov	edi, DWORD PTR $T1[ebp]
	rep movsd
	mov	edx, DWORD PTR $T1[ebp]
	mov	DWORD PTR tv74[ebp], edx
	jmp	SHORT $LN1@construct
$LN3@construct:
	mov	DWORD PTR tv74[ebp], 0
$LN1@construct:

; 638  : 		}

	pop	edi
	pop	esi
	pop	ebx
	add	esp, 220				; 000000dcH
	cmp	ebp, esp
	call	__RTC_CheckEsp
	mov	esp, ebp
	pop	ebp
	ret	8
??$construct@UTile@@U1@@?$allocator@UTile@@@std@@QAEXPAUTile@@$$QAU2@@Z ENDP ; std::allocator<Tile>::construct<Tile,Tile>
_TEXT	ENDS
; Function compile flags: /Odtp /RTCsu /ZI
; File c:\program files (x86)\microsoft visual studio 14.0\vc\include\xmemory0
;	COMDAT ??$construct@UMovingTile@@U1@@?$allocator@UMovingTile@@@std@@QAEXPAUMovingTile@@$$QAU2@@Z
_TEXT	SEGMENT
tv74 = -220						; size = 4
$T1 = -212						; size = 4
_this$ = -8						; size = 4
__Ptr$ = 8						; size = 4
_<_Args_0>$ = 12					; size = 4
??$construct@UMovingTile@@U1@@?$allocator@UMovingTile@@@std@@QAEXPAUMovingTile@@$$QAU2@@Z PROC ; std::allocator<MovingTile>::construct<MovingTile,MovingTile>, COMDAT
; _this$ = ecx

; 636  : 		{	// construct _Objty(_Types...) at _Ptr

	push	ebp
	mov	ebp, esp
	sub	esp, 220				; 000000dcH
	push	ebx
	push	esi
	push	edi
	push	ecx
	lea	edi, DWORD PTR [ebp-220]
	mov	ecx, 55					; 00000037H
	mov	eax, -858993460				; ccccccccH
	rep stosd
	pop	ecx
	mov	DWORD PTR _this$[ebp], ecx

; 637  : 		::new ((void *)_Ptr) _Objty(_STD forward<_Types>(_Args)...);

	mov	eax, DWORD PTR __Ptr$[ebp]
	push	eax
	push	48					; 00000030H
	call	??2@YAPAXIPAX@Z				; operator new
	add	esp, 8
	mov	DWORD PTR $T1[ebp], eax
	cmp	DWORD PTR $T1[ebp], 0
	je	SHORT $LN3@construct
	mov	ecx, DWORD PTR _<_Args_0>$[ebp]
	push	ecx
	call	??$forward@UMovingTile@@@std@@YA$$QAUMovingTile@@AAU1@@Z ; std::forward<MovingTile>
	add	esp, 4
	mov	ecx, 12					; 0000000cH
	mov	esi, eax
	mov	edi, DWORD PTR $T1[ebp]
	rep movsd
	mov	edx, DWORD PTR $T1[ebp]
	mov	DWORD PTR tv74[ebp], edx
	jmp	SHORT $LN1@construct
$LN3@construct:
	mov	DWORD PTR tv74[ebp], 0
$LN1@construct:

; 638  : 		}

	pop	edi
	pop	esi
	pop	ebx
	add	esp, 220				; 000000dcH
	cmp	ebp, esp
	call	__RTC_CheckEsp
	mov	esp, ebp
	pop	ebp
	ret	8
??$construct@UMovingTile@@U1@@?$allocator@UMovingTile@@@std@@QAEXPAUMovingTile@@$$QAU2@@Z ENDP ; std::allocator<MovingTile>::construct<MovingTile,MovingTile>
_TEXT	ENDS
; Function compile flags: /Odtp /RTCsu /ZI
; File c:\program files (x86)\microsoft visual studio 14.0\vc\include\xmemory0
;	COMDAT ??$construct@UPushTile@@U1@@?$allocator_traits@V?$allocator@UPushTile@@@std@@@std@@SAXAAV?$allocator@UPushTile@@@1@PAUPushTile@@$$QAU3@@Z
_TEXT	SEGMENT
__Al$ = 8						; size = 4
__Ptr$ = 12						; size = 4
_<_Args_0>$ = 16					; size = 4
??$construct@UPushTile@@U1@@?$allocator_traits@V?$allocator@UPushTile@@@std@@@std@@SAXAAV?$allocator@UPushTile@@@1@PAUPushTile@@$$QAU3@@Z PROC ; std::allocator_traits<std::allocator<PushTile> >::construct<PushTile,PushTile>, COMDAT

; 754  : 		{	// construct _Objty(_Types...) at _Ptr

	push	ebp
	mov	ebp, esp
	sub	esp, 192				; 000000c0H
	push	ebx
	push	esi
	push	edi
	lea	edi, DWORD PTR [ebp-192]
	mov	ecx, 48					; 00000030H
	mov	eax, -858993460				; ccccccccH
	rep stosd

; 755  : 		_Al.construct(_Ptr, _STD forward<_Types>(_Args)...);

	mov	eax, DWORD PTR _<_Args_0>$[ebp]
	push	eax
	call	??$forward@UPushTile@@@std@@YA$$QAUPushTile@@AAU1@@Z ; std::forward<PushTile>
	add	esp, 4
	push	eax
	mov	ecx, DWORD PTR __Ptr$[ebp]
	push	ecx
	mov	ecx, DWORD PTR __Al$[ebp]
	call	??$construct@UPushTile@@U1@@?$allocator@UPushTile@@@std@@QAEXPAUPushTile@@$$QAU2@@Z ; std::allocator<PushTile>::construct<PushTile,PushTile>

; 756  : 		}

	pop	edi
	pop	esi
	pop	ebx
	add	esp, 192				; 000000c0H
	cmp	ebp, esp
	call	__RTC_CheckEsp
	mov	esp, ebp
	pop	ebp
	ret	0
??$construct@UPushTile@@U1@@?$allocator_traits@V?$allocator@UPushTile@@@std@@@std@@SAXAAV?$allocator@UPushTile@@@1@PAUPushTile@@$$QAU3@@Z ENDP ; std::allocator_traits<std::allocator<PushTile> >::construct<PushTile,PushTile>
_TEXT	ENDS
; Function compile flags: /Odtp /RTCsu /ZI
; File c:\program files (x86)\microsoft visual studio 14.0\vc\include\type_traits
;	COMDAT ??$forward@UPushTile@@@std@@YA$$QAUPushTile@@AAU1@@Z
_TEXT	SEGMENT
__Arg$ = 8						; size = 4
??$forward@UPushTile@@@std@@YA$$QAUPushTile@@AAU1@@Z PROC ; std::forward<PushTile>, COMDAT

; 1298 : 	{	// forward an lvalue as either an lvalue or an rvalue

	push	ebp
	mov	ebp, esp
	sub	esp, 192				; 000000c0H
	push	ebx
	push	esi
	push	edi
	lea	edi, DWORD PTR [ebp-192]
	mov	ecx, 48					; 00000030H
	mov	eax, -858993460				; ccccccccH
	rep stosd

; 1299 : 	return (static_cast<_Ty&&>(_Arg));

	mov	eax, DWORD PTR __Arg$[ebp]

; 1300 : 	}

	pop	edi
	pop	esi
	pop	ebx
	mov	esp, ebp
	pop	ebp
	ret	0
??$forward@UPushTile@@@std@@YA$$QAUPushTile@@AAU1@@Z ENDP ; std::forward<PushTile>
_TEXT	ENDS
; Function compile flags: /Odtp /RTCsu /ZI
; File c:\program files (x86)\microsoft visual studio 14.0\vc\include\xmemory0
;	COMDAT ??$construct@UTile@@U1@@?$allocator_traits@V?$allocator@UTile@@@std@@@std@@SAXAAV?$allocator@UTile@@@1@PAUTile@@$$QAU3@@Z
_TEXT	SEGMENT
__Al$ = 8						; size = 4
__Ptr$ = 12						; size = 4
_<_Args_0>$ = 16					; size = 4
??$construct@UTile@@U1@@?$allocator_traits@V?$allocator@UTile@@@std@@@std@@SAXAAV?$allocator@UTile@@@1@PAUTile@@$$QAU3@@Z PROC ; std::allocator_traits<std::allocator<Tile> >::construct<Tile,Tile>, COMDAT

; 754  : 		{	// construct _Objty(_Types...) at _Ptr

	push	ebp
	mov	ebp, esp
	sub	esp, 192				; 000000c0H
	push	ebx
	push	esi
	push	edi
	lea	edi, DWORD PTR [ebp-192]
	mov	ecx, 48					; 00000030H
	mov	eax, -858993460				; ccccccccH
	rep stosd

; 755  : 		_Al.construct(_Ptr, _STD forward<_Types>(_Args)...);

	mov	eax, DWORD PTR _<_Args_0>$[ebp]
	push	eax
	call	??$forward@UTile@@@std@@YA$$QAUTile@@AAU1@@Z ; std::forward<Tile>
	add	esp, 4
	push	eax
	mov	ecx, DWORD PTR __Ptr$[ebp]
	push	ecx
	mov	ecx, DWORD PTR __Al$[ebp]
	call	??$construct@UTile@@U1@@?$allocator@UTile@@@std@@QAEXPAUTile@@$$QAU2@@Z ; std::allocator<Tile>::construct<Tile,Tile>

; 756  : 		}

	pop	edi
	pop	esi
	pop	ebx
	add	esp, 192				; 000000c0H
	cmp	ebp, esp
	call	__RTC_CheckEsp
	mov	esp, ebp
	pop	ebp
	ret	0
??$construct@UTile@@U1@@?$allocator_traits@V?$allocator@UTile@@@std@@@std@@SAXAAV?$allocator@UTile@@@1@PAUTile@@$$QAU3@@Z ENDP ; std::allocator_traits<std::allocator<Tile> >::construct<Tile,Tile>
_TEXT	ENDS
; Function compile flags: /Odtp /RTCsu /ZI
; File c:\program files (x86)\microsoft visual studio 14.0\vc\include\type_traits
;	COMDAT ??$forward@UTile@@@std@@YA$$QAUTile@@AAU1@@Z
_TEXT	SEGMENT
__Arg$ = 8						; size = 4
??$forward@UTile@@@std@@YA$$QAUTile@@AAU1@@Z PROC	; std::forward<Tile>, COMDAT

; 1298 : 	{	// forward an lvalue as either an lvalue or an rvalue

	push	ebp
	mov	ebp, esp
	sub	esp, 192				; 000000c0H
	push	ebx
	push	esi
	push	edi
	lea	edi, DWORD PTR [ebp-192]
	mov	ecx, 48					; 00000030H
	mov	eax, -858993460				; ccccccccH
	rep stosd

; 1299 : 	return (static_cast<_Ty&&>(_Arg));

	mov	eax, DWORD PTR __Arg$[ebp]

; 1300 : 	}

	pop	edi
	pop	esi
	pop	ebx
	mov	esp, ebp
	pop	ebp
	ret	0
??$forward@UTile@@@std@@YA$$QAUTile@@AAU1@@Z ENDP	; std::forward<Tile>
_TEXT	ENDS
; Function compile flags: /Odtp /RTCsu /ZI
; File c:\program files (x86)\microsoft visual studio 14.0\vc\include\xmemory0
;	COMDAT ??$construct@UMovingTile@@U1@@?$allocator_traits@V?$allocator@UMovingTile@@@std@@@std@@SAXAAV?$allocator@UMovingTile@@@1@PAUMovingTile@@$$QAU3@@Z
_TEXT	SEGMENT
__Al$ = 8						; size = 4
__Ptr$ = 12						; size = 4
_<_Args_0>$ = 16					; size = 4
??$construct@UMovingTile@@U1@@?$allocator_traits@V?$allocator@UMovingTile@@@std@@@std@@SAXAAV?$allocator@UMovingTile@@@1@PAUMovingTile@@$$QAU3@@Z PROC ; std::allocator_traits<std::allocator<MovingTile> >::construct<MovingTile,MovingTile>, COMDAT

; 754  : 		{	// construct _Objty(_Types...) at _Ptr

	push	ebp
	mov	ebp, esp
	sub	esp, 192				; 000000c0H
	push	ebx
	push	esi
	push	edi
	lea	edi, DWORD PTR [ebp-192]
	mov	ecx, 48					; 00000030H
	mov	eax, -858993460				; ccccccccH
	rep stosd

; 755  : 		_Al.construct(_Ptr, _STD forward<_Types>(_Args)...);

	mov	eax, DWORD PTR _<_Args_0>$[ebp]
	push	eax
	call	??$forward@UMovingTile@@@std@@YA$$QAUMovingTile@@AAU1@@Z ; std::forward<MovingTile>
	add	esp, 4
	push	eax
	mov	ecx, DWORD PTR __Ptr$[ebp]
	push	ecx
	mov	ecx, DWORD PTR __Al$[ebp]
	call	??$construct@UMovingTile@@U1@@?$allocator@UMovingTile@@@std@@QAEXPAUMovingTile@@$$QAU2@@Z ; std::allocator<MovingTile>::construct<MovingTile,MovingTile>

; 756  : 		}

	pop	edi
	pop	esi
	pop	ebx
	add	esp, 192				; 000000c0H
	cmp	ebp, esp
	call	__RTC_CheckEsp
	mov	esp, ebp
	pop	ebp
	ret	0
??$construct@UMovingTile@@U1@@?$allocator_traits@V?$allocator@UMovingTile@@@std@@@std@@SAXAAV?$allocator@UMovingTile@@@1@PAUMovingTile@@$$QAU3@@Z ENDP ; std::allocator_traits<std::allocator<MovingTile> >::construct<MovingTile,MovingTile>
_TEXT	ENDS
; Function compile flags: /Odtp /RTCsu /ZI
; File c:\program files (x86)\microsoft visual studio 14.0\vc\include\type_traits
;	COMDAT ??$forward@UMovingTile@@@std@@YA$$QAUMovingTile@@AAU1@@Z
_TEXT	SEGMENT
__Arg$ = 8						; size = 4
??$forward@UMovingTile@@@std@@YA$$QAUMovingTile@@AAU1@@Z PROC ; std::forward<MovingTile>, COMDAT

; 1298 : 	{	// forward an lvalue as either an lvalue or an rvalue

	push	ebp
	mov	ebp, esp
	sub	esp, 192				; 000000c0H
	push	ebx
	push	esi
	push	edi
	lea	edi, DWORD PTR [ebp-192]
	mov	ecx, 48					; 00000030H
	mov	eax, -858993460				; ccccccccH
	rep stosd

; 1299 : 	return (static_cast<_Ty&&>(_Arg));

	mov	eax, DWORD PTR __Arg$[ebp]

; 1300 : 	}

	pop	edi
	pop	esi
	pop	ebx
	mov	esp, ebp
	pop	ebp
	ret	0
??$forward@UMovingTile@@@std@@YA$$QAUMovingTile@@AAU1@@Z ENDP ; std::forward<MovingTile>
_TEXT	ENDS
; Function compile flags: /Odtp /RTCsu /ZI
; File c:\program files (x86)\microsoft visual studio 14.0\vc\include\xmemory0
;	COMDAT ??$construct@UPushTile@@U1@@?$_Wrap_alloc@V?$allocator@UPushTile@@@std@@@std@@QAEXPAUPushTile@@$$QAU2@@Z
_TEXT	SEGMENT
_this$ = -8						; size = 4
__Ptr$ = 8						; size = 4
_<_Args_0>$ = 12					; size = 4
??$construct@UPushTile@@U1@@?$_Wrap_alloc@V?$allocator@UPushTile@@@std@@@std@@QAEXPAUPushTile@@$$QAU2@@Z PROC ; std::_Wrap_alloc<std::allocator<PushTile> >::construct<PushTile,PushTile>, COMDAT
; _this$ = ecx

; 892  : 		{	// construct _Ty(_Types...) at _Ptr

	push	ebp
	mov	ebp, esp
	sub	esp, 204				; 000000ccH
	push	ebx
	push	esi
	push	edi
	push	ecx
	lea	edi, DWORD PTR [ebp-204]
	mov	ecx, 51					; 00000033H
	mov	eax, -858993460				; ccccccccH
	rep stosd
	pop	ecx
	mov	DWORD PTR _this$[ebp], ecx

; 893  : 		_Mytraits::construct(*this, _Ptr,

	mov	eax, DWORD PTR _<_Args_0>$[ebp]
	push	eax
	call	??$forward@UPushTile@@@std@@YA$$QAUPushTile@@AAU1@@Z ; std::forward<PushTile>
	add	esp, 4
	push	eax
	mov	ecx, DWORD PTR __Ptr$[ebp]
	push	ecx
	mov	edx, DWORD PTR _this$[ebp]
	push	edx
	call	??$construct@UPushTile@@U1@@?$allocator_traits@V?$allocator@UPushTile@@@std@@@std@@SAXAAV?$allocator@UPushTile@@@1@PAUPushTile@@$$QAU3@@Z ; std::allocator_traits<std::allocator<PushTile> >::construct<PushTile,PushTile>
	add	esp, 12					; 0000000cH

; 894  : 			_STD forward<_Types>(_Args)...);
; 895  : 		}

	pop	edi
	pop	esi
	pop	ebx
	add	esp, 204				; 000000ccH
	cmp	ebp, esp
	call	__RTC_CheckEsp
	mov	esp, ebp
	pop	ebp
	ret	8
??$construct@UPushTile@@U1@@?$_Wrap_alloc@V?$allocator@UPushTile@@@std@@@std@@QAEXPAUPushTile@@$$QAU2@@Z ENDP ; std::_Wrap_alloc<std::allocator<PushTile> >::construct<PushTile,PushTile>
_TEXT	ENDS
; Function compile flags: /Odtp /RTCsu /ZI
; File c:\program files (x86)\microsoft visual studio 14.0\vc\include\type_traits
;	COMDAT ??$move@AAUPushTile@@@std@@YA$$QAUPushTile@@AAU1@@Z
_TEXT	SEGMENT
__Arg$ = 8						; size = 4
??$move@AAUPushTile@@@std@@YA$$QAUPushTile@@AAU1@@Z PROC ; std::move<PushTile &>, COMDAT

; 1314 : 	{	// forward _Arg as movable

	push	ebp
	mov	ebp, esp
	sub	esp, 192				; 000000c0H
	push	ebx
	push	esi
	push	edi
	lea	edi, DWORD PTR [ebp-192]
	mov	ecx, 48					; 00000030H
	mov	eax, -858993460				; ccccccccH
	rep stosd

; 1315 : 	return (static_cast<typename remove_reference<_Ty>::type&&>(_Arg));

	mov	eax, DWORD PTR __Arg$[ebp]

; 1316 : 	}

	pop	edi
	pop	esi
	pop	ebx
	mov	esp, ebp
	pop	ebp
	ret	0
??$move@AAUPushTile@@@std@@YA$$QAUPushTile@@AAU1@@Z ENDP ; std::move<PushTile &>
_TEXT	ENDS
; Function compile flags: /Odtp /RTCsu /ZI
; File c:\program files (x86)\microsoft visual studio 14.0\vc\include\xmemory0
;	COMDAT ??$construct@UTile@@U1@@?$_Wrap_alloc@V?$allocator@UTile@@@std@@@std@@QAEXPAUTile@@$$QAU2@@Z
_TEXT	SEGMENT
_this$ = -8						; size = 4
__Ptr$ = 8						; size = 4
_<_Args_0>$ = 12					; size = 4
??$construct@UTile@@U1@@?$_Wrap_alloc@V?$allocator@UTile@@@std@@@std@@QAEXPAUTile@@$$QAU2@@Z PROC ; std::_Wrap_alloc<std::allocator<Tile> >::construct<Tile,Tile>, COMDAT
; _this$ = ecx

; 892  : 		{	// construct _Ty(_Types...) at _Ptr

	push	ebp
	mov	ebp, esp
	sub	esp, 204				; 000000ccH
	push	ebx
	push	esi
	push	edi
	push	ecx
	lea	edi, DWORD PTR [ebp-204]
	mov	ecx, 51					; 00000033H
	mov	eax, -858993460				; ccccccccH
	rep stosd
	pop	ecx
	mov	DWORD PTR _this$[ebp], ecx

; 893  : 		_Mytraits::construct(*this, _Ptr,

	mov	eax, DWORD PTR _<_Args_0>$[ebp]
	push	eax
	call	??$forward@UTile@@@std@@YA$$QAUTile@@AAU1@@Z ; std::forward<Tile>
	add	esp, 4
	push	eax
	mov	ecx, DWORD PTR __Ptr$[ebp]
	push	ecx
	mov	edx, DWORD PTR _this$[ebp]
	push	edx
	call	??$construct@UTile@@U1@@?$allocator_traits@V?$allocator@UTile@@@std@@@std@@SAXAAV?$allocator@UTile@@@1@PAUTile@@$$QAU3@@Z ; std::allocator_traits<std::allocator<Tile> >::construct<Tile,Tile>
	add	esp, 12					; 0000000cH

; 894  : 			_STD forward<_Types>(_Args)...);
; 895  : 		}

	pop	edi
	pop	esi
	pop	ebx
	add	esp, 204				; 000000ccH
	cmp	ebp, esp
	call	__RTC_CheckEsp
	mov	esp, ebp
	pop	ebp
	ret	8
??$construct@UTile@@U1@@?$_Wrap_alloc@V?$allocator@UTile@@@std@@@std@@QAEXPAUTile@@$$QAU2@@Z ENDP ; std::_Wrap_alloc<std::allocator<Tile> >::construct<Tile,Tile>
_TEXT	ENDS
; Function compile flags: /Odtp /RTCsu /ZI
; File c:\program files (x86)\microsoft visual studio 14.0\vc\include\type_traits
;	COMDAT ??$move@AAUTile@@@std@@YA$$QAUTile@@AAU1@@Z
_TEXT	SEGMENT
__Arg$ = 8						; size = 4
??$move@AAUTile@@@std@@YA$$QAUTile@@AAU1@@Z PROC	; std::move<Tile &>, COMDAT

; 1314 : 	{	// forward _Arg as movable

	push	ebp
	mov	ebp, esp
	sub	esp, 192				; 000000c0H
	push	ebx
	push	esi
	push	edi
	lea	edi, DWORD PTR [ebp-192]
	mov	ecx, 48					; 00000030H
	mov	eax, -858993460				; ccccccccH
	rep stosd

; 1315 : 	return (static_cast<typename remove_reference<_Ty>::type&&>(_Arg));

	mov	eax, DWORD PTR __Arg$[ebp]

; 1316 : 	}

	pop	edi
	pop	esi
	pop	ebx
	mov	esp, ebp
	pop	ebp
	ret	0
??$move@AAUTile@@@std@@YA$$QAUTile@@AAU1@@Z ENDP	; std::move<Tile &>
_TEXT	ENDS
; Function compile flags: /Odtp /RTCsu /ZI
; File c:\program files (x86)\microsoft visual studio 14.0\vc\include\xmemory0
;	COMDAT ??$construct@UMovingTile@@U1@@?$_Wrap_alloc@V?$allocator@UMovingTile@@@std@@@std@@QAEXPAUMovingTile@@$$QAU2@@Z
_TEXT	SEGMENT
_this$ = -8						; size = 4
__Ptr$ = 8						; size = 4
_<_Args_0>$ = 12					; size = 4
??$construct@UMovingTile@@U1@@?$_Wrap_alloc@V?$allocator@UMovingTile@@@std@@@std@@QAEXPAUMovingTile@@$$QAU2@@Z PROC ; std::_Wrap_alloc<std::allocator<MovingTile> >::construct<MovingTile,MovingTile>, COMDAT
; _this$ = ecx

; 892  : 		{	// construct _Ty(_Types...) at _Ptr

	push	ebp
	mov	ebp, esp
	sub	esp, 204				; 000000ccH
	push	ebx
	push	esi
	push	edi
	push	ecx
	lea	edi, DWORD PTR [ebp-204]
	mov	ecx, 51					; 00000033H
	mov	eax, -858993460				; ccccccccH
	rep stosd
	pop	ecx
	mov	DWORD PTR _this$[ebp], ecx

; 893  : 		_Mytraits::construct(*this, _Ptr,

	mov	eax, DWORD PTR _<_Args_0>$[ebp]
	push	eax
	call	??$forward@UMovingTile@@@std@@YA$$QAUMovingTile@@AAU1@@Z ; std::forward<MovingTile>
	add	esp, 4
	push	eax
	mov	ecx, DWORD PTR __Ptr$[ebp]
	push	ecx
	mov	edx, DWORD PTR _this$[ebp]
	push	edx
	call	??$construct@UMovingTile@@U1@@?$allocator_traits@V?$allocator@UMovingTile@@@std@@@std@@SAXAAV?$allocator@UMovingTile@@@1@PAUMovingTile@@$$QAU3@@Z ; std::allocator_traits<std::allocator<MovingTile> >::construct<MovingTile,MovingTile>
	add	esp, 12					; 0000000cH

; 894  : 			_STD forward<_Types>(_Args)...);
; 895  : 		}

	pop	edi
	pop	esi
	pop	ebx
	add	esp, 204				; 000000ccH
	cmp	ebp, esp
	call	__RTC_CheckEsp
	mov	esp, ebp
	pop	ebp
	ret	8
??$construct@UMovingTile@@U1@@?$_Wrap_alloc@V?$allocator@UMovingTile@@@std@@@std@@QAEXPAUMovingTile@@$$QAU2@@Z ENDP ; std::_Wrap_alloc<std::allocator<MovingTile> >::construct<MovingTile,MovingTile>
_TEXT	ENDS
; Function compile flags: /Odtp /RTCsu /ZI
; File c:\program files (x86)\microsoft visual studio 14.0\vc\include\type_traits
;	COMDAT ??$move@AAUMovingTile@@@std@@YA$$QAUMovingTile@@AAU1@@Z
_TEXT	SEGMENT
__Arg$ = 8						; size = 4
??$move@AAUMovingTile@@@std@@YA$$QAUMovingTile@@AAU1@@Z PROC ; std::move<MovingTile &>, COMDAT

; 1314 : 	{	// forward _Arg as movable

	push	ebp
	mov	ebp, esp
	sub	esp, 192				; 000000c0H
	push	ebx
	push	esi
	push	edi
	lea	edi, DWORD PTR [ebp-192]
	mov	ecx, 48					; 00000030H
	mov	eax, -858993460				; ccccccccH
	rep stosd

; 1315 : 	return (static_cast<typename remove_reference<_Ty>::type&&>(_Arg));

	mov	eax, DWORD PTR __Arg$[ebp]

; 1316 : 	}

	pop	edi
	pop	esi
	pop	ebx
	mov	esp, ebp
	pop	ebp
	ret	0
??$move@AAUMovingTile@@@std@@YA$$QAUMovingTile@@AAU1@@Z ENDP ; std::move<MovingTile &>
_TEXT	ENDS
; Function compile flags: /Odtp /RTCsu /ZI
; File c:\program files (x86)\microsoft visual studio 14.0\vc\include\xmemory0
;	COMDAT ??$destroy@UPushTile@@@?$allocator@UPushTile@@@std@@QAEXPAUPushTile@@@Z
_TEXT	SEGMENT
_this$ = -8						; size = 4
__Ptr$ = 8						; size = 4
??$destroy@UPushTile@@@?$allocator@UPushTile@@@std@@QAEXPAUPushTile@@@Z PROC ; std::allocator<PushTile>::destroy<PushTile>, COMDAT
; _this$ = ecx

; 643  : 		{	// destroy object at _Ptr

	push	ebp
	mov	ebp, esp
	sub	esp, 204				; 000000ccH
	push	ebx
	push	esi
	push	edi
	push	ecx
	lea	edi, DWORD PTR [ebp-204]
	mov	ecx, 51					; 00000033H
	mov	eax, -858993460				; ccccccccH
	rep stosd
	pop	ecx
	mov	DWORD PTR _this$[ebp], ecx

; 644  : 		_Ptr->~_Uty();
; 645  : 		}

	pop	edi
	pop	esi
	pop	ebx
	mov	esp, ebp
	pop	ebp
	ret	4
??$destroy@UPushTile@@@?$allocator@UPushTile@@@std@@QAEXPAUPushTile@@@Z ENDP ; std::allocator<PushTile>::destroy<PushTile>
_TEXT	ENDS
; Function compile flags: /Odtp /RTCsu /ZI
; File c:\program files (x86)\microsoft visual studio 14.0\vc\include\xmemory
;	COMDAT ??$_Uninitialized_move_al_unchecked1@PAUPushTile@@PAU1@V?$allocator@UPushTile@@@std@@@std@@YAPAUPushTile@@PAU1@00AAU?$_Wrap_alloc@V?$allocator@UPushTile@@@std@@@0@U_General_ptr_iterator_tag@0@@Z
_TEXT	SEGMENT
__Next$ = -24						; size = 4
__$EHRec$ = -16						; size = 16
__First$ = 8						; size = 4
__Last$ = 12						; size = 4
__Dest$ = 16						; size = 4
__Al$ = 20						; size = 4
___formal$ = 24						; size = 1
??$_Uninitialized_move_al_unchecked1@PAUPushTile@@PAU1@V?$allocator@UPushTile@@@std@@@std@@YAPAUPushTile@@PAU1@00AAU?$_Wrap_alloc@V?$allocator@UPushTile@@@std@@@0@U_General_ptr_iterator_tag@0@@Z PROC ; std::_Uninitialized_move_al_unchecked1<PushTile *,PushTile *,std::allocator<PushTile> >, COMDAT

; 317  : 	{	// move [_First, _Last) to raw _Dest, using _Al, no special optimization

	push	ebp
	mov	ebp, esp
	push	-1
	push	__ehhandler$??$_Uninitialized_move_al_unchecked1@PAUPushTile@@PAU1@V?$allocator@UPushTile@@@std@@@std@@YAPAUPushTile@@PAU1@00AAU?$_Wrap_alloc@V?$allocator@UPushTile@@@std@@@0@U_General_ptr_iterator_tag@0@@Z
	mov	eax, DWORD PTR fs:0
	push	eax
	push	ecx
	sub	esp, 204				; 000000ccH
	push	ebx
	push	esi
	push	edi
	lea	edi, DWORD PTR [ebp-220]
	mov	ecx, 51					; 00000033H
	mov	eax, -858993460				; ccccccccH
	rep stosd
	mov	eax, DWORD PTR ___security_cookie
	xor	eax, ebp
	push	eax
	lea	eax, DWORD PTR __$EHRec$[ebp+4]
	mov	DWORD PTR fs:0, eax
	mov	DWORD PTR __$EHRec$[ebp], esp

; 318  : 	_FwdIt _Next = _Dest;

	mov	eax, DWORD PTR __Dest$[ebp]
	mov	DWORD PTR __Next$[ebp], eax

; 319  : 
; 320  : 	_TRY_BEGIN

	mov	DWORD PTR __$EHRec$[ebp+12], 0

; 321  : 	for (; _First != _Last; ++_Dest, (void)++_First)

	jmp	SHORT $LN4@Uninitiali
$LN2@Uninitiali:
	mov	eax, DWORD PTR __Dest$[ebp]
	add	eax, 48					; 00000030H
	mov	DWORD PTR __Dest$[ebp], eax
	mov	ecx, DWORD PTR __First$[ebp]
	add	ecx, 48					; 00000030H
	mov	DWORD PTR __First$[ebp], ecx
$LN4@Uninitiali:
	mov	eax, DWORD PTR __First$[ebp]
	cmp	eax, DWORD PTR __Last$[ebp]
	je	SHORT $LN3@Uninitiali

; 322  : 		_Al.construct(_Dest, _STD move(*_First));

	mov	eax, DWORD PTR __First$[ebp]
	push	eax
	call	??$move@AAUPushTile@@@std@@YA$$QAUPushTile@@AAU1@@Z ; std::move<PushTile &>
	add	esp, 4
	push	eax
	mov	ecx, DWORD PTR __Dest$[ebp]
	push	ecx
	mov	ecx, DWORD PTR __Al$[ebp]
	call	??$construct@UPushTile@@U1@@?$_Wrap_alloc@V?$allocator@UPushTile@@@std@@@std@@QAEXPAUPushTile@@$$QAU2@@Z ; std::_Wrap_alloc<std::allocator<PushTile> >::construct<PushTile,PushTile>
	jmp	SHORT $LN2@Uninitiali
$LN3@Uninitiali:
	jmp	SHORT $LN10@Uninitiali
__catch$??$_Uninitialized_move_al_unchecked1@PAUPushTile@@PAU1@V?$allocator@UPushTile@@@std@@@std@@YAPAUPushTile@@PAU1@00AAU?$_Wrap_alloc@V?$allocator@UPushTile@@@std@@@0@U_General_ptr_iterator_tag@0@@Z$0:

; 323  : 	_CATCH_ALL
; 324  : 	for (; _Next != _Dest; ++_Next)

	jmp	SHORT $LN7@Uninitiali
$LN5@Uninitiali:
	mov	eax, DWORD PTR __Next$[ebp]
	add	eax, 48					; 00000030H
	mov	DWORD PTR __Next$[ebp], eax
$LN7@Uninitiali:
	mov	eax, DWORD PTR __Next$[ebp]
	cmp	eax, DWORD PTR __Dest$[ebp]
	je	SHORT $LN6@Uninitiali

; 325  : 		_Al.destroy(_Next);

	mov	eax, DWORD PTR __Next$[ebp]
	push	eax
	mov	ecx, DWORD PTR __Al$[ebp]
	call	??$destroy@UPushTile@@@?$_Wrap_alloc@V?$allocator@UPushTile@@@std@@@std@@QAEXPAUPushTile@@@Z ; std::_Wrap_alloc<std::allocator<PushTile> >::destroy<PushTile>
	jmp	SHORT $LN5@Uninitiali
$LN6@Uninitiali:

; 326  : 	_RERAISE;

	push	0
	push	0
	call	__CxxThrowException@8

; 327  : 	_CATCH_END

	mov	eax, $LN13@Uninitiali
	ret	0
$LN10@Uninitiali:
	mov	DWORD PTR __$EHRec$[ebp+12], -1
	jmp	SHORT __tryend$??$_Uninitialized_move_al_unchecked1@PAUPushTile@@PAU1@V?$allocator@UPushTile@@@std@@@std@@YAPAUPushTile@@PAU1@00AAU?$_Wrap_alloc@V?$allocator@UPushTile@@@std@@@0@U_General_ptr_iterator_tag@0@@Z$1
$LN13@Uninitiali:
	mov	DWORD PTR __$EHRec$[ebp+12], -1
__tryend$??$_Uninitialized_move_al_unchecked1@PAUPushTile@@PAU1@V?$allocator@UPushTile@@@std@@@std@@YAPAUPushTile@@PAU1@00AAU?$_Wrap_alloc@V?$allocator@UPushTile@@@std@@@0@U_General_ptr_iterator_tag@0@@Z$1:

; 328  : 
; 329  : 	return (_Dest);

	mov	eax, DWORD PTR __Dest$[ebp]
$LN9@Uninitiali:

; 330  : 	}

	mov	ecx, DWORD PTR __$EHRec$[ebp+4]
	mov	DWORD PTR fs:0, ecx
	pop	ecx
	pop	edi
	pop	esi
	pop	ebx
	add	esp, 220				; 000000dcH
	cmp	ebp, esp
	call	__RTC_CheckEsp
	mov	esp, ebp
	pop	ebp
	ret	0
_TEXT	ENDS
;	COMDAT text$x
text$x	SEGMENT
__ehhandler$??$_Uninitialized_move_al_unchecked1@PAUPushTile@@PAU1@V?$allocator@UPushTile@@@std@@@std@@YAPAUPushTile@@PAU1@00AAU?$_Wrap_alloc@V?$allocator@UPushTile@@@std@@@0@U_General_ptr_iterator_tag@0@@Z:
	mov	edx, DWORD PTR [esp+8]
	lea	eax, DWORD PTR [edx+12]
	mov	ecx, DWORD PTR [edx-224]
	xor	ecx, eax
	call	@__security_check_cookie@4
	mov	eax, OFFSET __ehfuncinfo$??$_Uninitialized_move_al_unchecked1@PAUPushTile@@PAU1@V?$allocator@UPushTile@@@std@@@std@@YAPAUPushTile@@PAU1@00AAU?$_Wrap_alloc@V?$allocator@UPushTile@@@std@@@0@U_General_ptr_iterator_tag@0@@Z
	jmp	___CxxFrameHandler3
text$x	ENDS
??$_Uninitialized_move_al_unchecked1@PAUPushTile@@PAU1@V?$allocator@UPushTile@@@std@@@std@@YAPAUPushTile@@PAU1@00AAU?$_Wrap_alloc@V?$allocator@UPushTile@@@std@@@0@U_General_ptr_iterator_tag@0@@Z ENDP ; std::_Uninitialized_move_al_unchecked1<PushTile *,PushTile *,std::allocator<PushTile> >
; Function compile flags: /Odtp /RTCsu /ZI
; File c:\program files (x86)\microsoft visual studio 14.0\vc\include\xutility
;	COMDAT ??$_Ptr_move_cat@UPushTile@@U1@@std@@YA?AU_Trivially_copyable_ptr_iterator_tag@0@ABQAUPushTile@@0@Z
_TEXT	SEGMENT
___$ReturnUdt$ = 8					; size = 4
___formal$ = 12						; size = 4
___formal$ = 16						; size = 4
??$_Ptr_move_cat@UPushTile@@U1@@std@@YA?AU_Trivially_copyable_ptr_iterator_tag@0@ABQAUPushTile@@0@Z PROC ; std::_Ptr_move_cat<PushTile,PushTile>, COMDAT

; 725  : 	{	// return pointer move optimization category for pointers

	push	ebp
	mov	ebp, esp
	sub	esp, 192				; 000000c0H
	push	ebx
	push	esi
	push	edi
	lea	edi, DWORD PTR [ebp-192]
	mov	ecx, 48					; 00000030H
	mov	eax, -858993460				; ccccccccH
	rep stosd

; 726  : 	return {};

	mov	eax, DWORD PTR ___$ReturnUdt$[ebp]

; 727  : 	}

	pop	edi
	pop	esi
	pop	ebx
	mov	esp, ebp
	pop	ebp
	ret	0
??$_Ptr_move_cat@UPushTile@@U1@@std@@YA?AU_Trivially_copyable_ptr_iterator_tag@0@ABQAUPushTile@@0@Z ENDP ; std::_Ptr_move_cat<PushTile,PushTile>
_TEXT	ENDS
; Function compile flags: /Odtp /RTCsu /ZI
; File c:\program files (x86)\microsoft visual studio 14.0\vc\include\xmemory0
;	COMDAT ??$destroy@UTile@@@?$allocator@UTile@@@std@@QAEXPAUTile@@@Z
_TEXT	SEGMENT
_this$ = -8						; size = 4
__Ptr$ = 8						; size = 4
??$destroy@UTile@@@?$allocator@UTile@@@std@@QAEXPAUTile@@@Z PROC ; std::allocator<Tile>::destroy<Tile>, COMDAT
; _this$ = ecx

; 643  : 		{	// destroy object at _Ptr

	push	ebp
	mov	ebp, esp
	sub	esp, 204				; 000000ccH
	push	ebx
	push	esi
	push	edi
	push	ecx
	lea	edi, DWORD PTR [ebp-204]
	mov	ecx, 51					; 00000033H
	mov	eax, -858993460				; ccccccccH
	rep stosd
	pop	ecx
	mov	DWORD PTR _this$[ebp], ecx

; 644  : 		_Ptr->~_Uty();
; 645  : 		}

	pop	edi
	pop	esi
	pop	ebx
	mov	esp, ebp
	pop	ebp
	ret	4
??$destroy@UTile@@@?$allocator@UTile@@@std@@QAEXPAUTile@@@Z ENDP ; std::allocator<Tile>::destroy<Tile>
_TEXT	ENDS
; Function compile flags: /Odtp /RTCsu /ZI
; File c:\program files (x86)\microsoft visual studio 14.0\vc\include\xmemory
;	COMDAT ??$_Uninitialized_move_al_unchecked1@PAUTile@@PAU1@V?$allocator@UTile@@@std@@@std@@YAPAUTile@@PAU1@00AAU?$_Wrap_alloc@V?$allocator@UTile@@@std@@@0@U_General_ptr_iterator_tag@0@@Z
_TEXT	SEGMENT
__Next$ = -24						; size = 4
__$EHRec$ = -16						; size = 16
__First$ = 8						; size = 4
__Last$ = 12						; size = 4
__Dest$ = 16						; size = 4
__Al$ = 20						; size = 4
___formal$ = 24						; size = 1
??$_Uninitialized_move_al_unchecked1@PAUTile@@PAU1@V?$allocator@UTile@@@std@@@std@@YAPAUTile@@PAU1@00AAU?$_Wrap_alloc@V?$allocator@UTile@@@std@@@0@U_General_ptr_iterator_tag@0@@Z PROC ; std::_Uninitialized_move_al_unchecked1<Tile *,Tile *,std::allocator<Tile> >, COMDAT

; 317  : 	{	// move [_First, _Last) to raw _Dest, using _Al, no special optimization

	push	ebp
	mov	ebp, esp
	push	-1
	push	__ehhandler$??$_Uninitialized_move_al_unchecked1@PAUTile@@PAU1@V?$allocator@UTile@@@std@@@std@@YAPAUTile@@PAU1@00AAU?$_Wrap_alloc@V?$allocator@UTile@@@std@@@0@U_General_ptr_iterator_tag@0@@Z
	mov	eax, DWORD PTR fs:0
	push	eax
	push	ecx
	sub	esp, 204				; 000000ccH
	push	ebx
	push	esi
	push	edi
	lea	edi, DWORD PTR [ebp-220]
	mov	ecx, 51					; 00000033H
	mov	eax, -858993460				; ccccccccH
	rep stosd
	mov	eax, DWORD PTR ___security_cookie
	xor	eax, ebp
	push	eax
	lea	eax, DWORD PTR __$EHRec$[ebp+4]
	mov	DWORD PTR fs:0, eax
	mov	DWORD PTR __$EHRec$[ebp], esp

; 318  : 	_FwdIt _Next = _Dest;

	mov	eax, DWORD PTR __Dest$[ebp]
	mov	DWORD PTR __Next$[ebp], eax

; 319  : 
; 320  : 	_TRY_BEGIN

	mov	DWORD PTR __$EHRec$[ebp+12], 0

; 321  : 	for (; _First != _Last; ++_Dest, (void)++_First)

	jmp	SHORT $LN4@Uninitiali
$LN2@Uninitiali:
	mov	eax, DWORD PTR __Dest$[ebp]
	add	eax, 32					; 00000020H
	mov	DWORD PTR __Dest$[ebp], eax
	mov	ecx, DWORD PTR __First$[ebp]
	add	ecx, 32					; 00000020H
	mov	DWORD PTR __First$[ebp], ecx
$LN4@Uninitiali:
	mov	eax, DWORD PTR __First$[ebp]
	cmp	eax, DWORD PTR __Last$[ebp]
	je	SHORT $LN3@Uninitiali

; 322  : 		_Al.construct(_Dest, _STD move(*_First));

	mov	eax, DWORD PTR __First$[ebp]
	push	eax
	call	??$move@AAUTile@@@std@@YA$$QAUTile@@AAU1@@Z ; std::move<Tile &>
	add	esp, 4
	push	eax
	mov	ecx, DWORD PTR __Dest$[ebp]
	push	ecx
	mov	ecx, DWORD PTR __Al$[ebp]
	call	??$construct@UTile@@U1@@?$_Wrap_alloc@V?$allocator@UTile@@@std@@@std@@QAEXPAUTile@@$$QAU2@@Z ; std::_Wrap_alloc<std::allocator<Tile> >::construct<Tile,Tile>
	jmp	SHORT $LN2@Uninitiali
$LN3@Uninitiali:
	jmp	SHORT $LN10@Uninitiali
__catch$??$_Uninitialized_move_al_unchecked1@PAUTile@@PAU1@V?$allocator@UTile@@@std@@@std@@YAPAUTile@@PAU1@00AAU?$_Wrap_alloc@V?$allocator@UTile@@@std@@@0@U_General_ptr_iterator_tag@0@@Z$0:

; 323  : 	_CATCH_ALL
; 324  : 	for (; _Next != _Dest; ++_Next)

	jmp	SHORT $LN7@Uninitiali
$LN5@Uninitiali:
	mov	eax, DWORD PTR __Next$[ebp]
	add	eax, 32					; 00000020H
	mov	DWORD PTR __Next$[ebp], eax
$LN7@Uninitiali:
	mov	eax, DWORD PTR __Next$[ebp]
	cmp	eax, DWORD PTR __Dest$[ebp]
	je	SHORT $LN6@Uninitiali

; 325  : 		_Al.destroy(_Next);

	mov	eax, DWORD PTR __Next$[ebp]
	push	eax
	mov	ecx, DWORD PTR __Al$[ebp]
	call	??$destroy@UTile@@@?$_Wrap_alloc@V?$allocator@UTile@@@std@@@std@@QAEXPAUTile@@@Z ; std::_Wrap_alloc<std::allocator<Tile> >::destroy<Tile>
	jmp	SHORT $LN5@Uninitiali
$LN6@Uninitiali:

; 326  : 	_RERAISE;

	push	0
	push	0
	call	__CxxThrowException@8

; 327  : 	_CATCH_END

	mov	eax, $LN13@Uninitiali
	ret	0
$LN10@Uninitiali:
	mov	DWORD PTR __$EHRec$[ebp+12], -1
	jmp	SHORT __tryend$??$_Uninitialized_move_al_unchecked1@PAUTile@@PAU1@V?$allocator@UTile@@@std@@@std@@YAPAUTile@@PAU1@00AAU?$_Wrap_alloc@V?$allocator@UTile@@@std@@@0@U_General_ptr_iterator_tag@0@@Z$1
$LN13@Uninitiali:
	mov	DWORD PTR __$EHRec$[ebp+12], -1
__tryend$??$_Uninitialized_move_al_unchecked1@PAUTile@@PAU1@V?$allocator@UTile@@@std@@@std@@YAPAUTile@@PAU1@00AAU?$_Wrap_alloc@V?$allocator@UTile@@@std@@@0@U_General_ptr_iterator_tag@0@@Z$1:

; 328  : 
; 329  : 	return (_Dest);

	mov	eax, DWORD PTR __Dest$[ebp]
$LN9@Uninitiali:

; 330  : 	}

	mov	ecx, DWORD PTR __$EHRec$[ebp+4]
	mov	DWORD PTR fs:0, ecx
	pop	ecx
	pop	edi
	pop	esi
	pop	ebx
	add	esp, 220				; 000000dcH
	cmp	ebp, esp
	call	__RTC_CheckEsp
	mov	esp, ebp
	pop	ebp
	ret	0
_TEXT	ENDS
;	COMDAT text$x
text$x	SEGMENT
__ehhandler$??$_Uninitialized_move_al_unchecked1@PAUTile@@PAU1@V?$allocator@UTile@@@std@@@std@@YAPAUTile@@PAU1@00AAU?$_Wrap_alloc@V?$allocator@UTile@@@std@@@0@U_General_ptr_iterator_tag@0@@Z:
	mov	edx, DWORD PTR [esp+8]
	lea	eax, DWORD PTR [edx+12]
	mov	ecx, DWORD PTR [edx-224]
	xor	ecx, eax
	call	@__security_check_cookie@4
	mov	eax, OFFSET __ehfuncinfo$??$_Uninitialized_move_al_unchecked1@PAUTile@@PAU1@V?$allocator@UTile@@@std@@@std@@YAPAUTile@@PAU1@00AAU?$_Wrap_alloc@V?$allocator@UTile@@@std@@@0@U_General_ptr_iterator_tag@0@@Z
	jmp	___CxxFrameHandler3
text$x	ENDS
??$_Uninitialized_move_al_unchecked1@PAUTile@@PAU1@V?$allocator@UTile@@@std@@@std@@YAPAUTile@@PAU1@00AAU?$_Wrap_alloc@V?$allocator@UTile@@@std@@@0@U_General_ptr_iterator_tag@0@@Z ENDP ; std::_Uninitialized_move_al_unchecked1<Tile *,Tile *,std::allocator<Tile> >
; Function compile flags: /Odtp /RTCsu /ZI
; File c:\program files (x86)\microsoft visual studio 14.0\vc\include\xutility
;	COMDAT ??$_Ptr_move_cat@UTile@@U1@@std@@YA?AU_Trivially_copyable_ptr_iterator_tag@0@ABQAUTile@@0@Z
_TEXT	SEGMENT
___$ReturnUdt$ = 8					; size = 4
___formal$ = 12						; size = 4
___formal$ = 16						; size = 4
??$_Ptr_move_cat@UTile@@U1@@std@@YA?AU_Trivially_copyable_ptr_iterator_tag@0@ABQAUTile@@0@Z PROC ; std::_Ptr_move_cat<Tile,Tile>, COMDAT

; 725  : 	{	// return pointer move optimization category for pointers

	push	ebp
	mov	ebp, esp
	sub	esp, 192				; 000000c0H
	push	ebx
	push	esi
	push	edi
	lea	edi, DWORD PTR [ebp-192]
	mov	ecx, 48					; 00000030H
	mov	eax, -858993460				; ccccccccH
	rep stosd

; 726  : 	return {};

	mov	eax, DWORD PTR ___$ReturnUdt$[ebp]

; 727  : 	}

	pop	edi
	pop	esi
	pop	ebx
	mov	esp, ebp
	pop	ebp
	ret	0
??$_Ptr_move_cat@UTile@@U1@@std@@YA?AU_Trivially_copyable_ptr_iterator_tag@0@ABQAUTile@@0@Z ENDP ; std::_Ptr_move_cat<Tile,Tile>
_TEXT	ENDS
; Function compile flags: /Odtp /RTCsu /ZI
; File c:\program files (x86)\microsoft visual studio 14.0\vc\include\xmemory0
;	COMDAT ??$destroy@UMovingTile@@@?$allocator@UMovingTile@@@std@@QAEXPAUMovingTile@@@Z
_TEXT	SEGMENT
_this$ = -8						; size = 4
__Ptr$ = 8						; size = 4
??$destroy@UMovingTile@@@?$allocator@UMovingTile@@@std@@QAEXPAUMovingTile@@@Z PROC ; std::allocator<MovingTile>::destroy<MovingTile>, COMDAT
; _this$ = ecx

; 643  : 		{	// destroy object at _Ptr

	push	ebp
	mov	ebp, esp
	sub	esp, 204				; 000000ccH
	push	ebx
	push	esi
	push	edi
	push	ecx
	lea	edi, DWORD PTR [ebp-204]
	mov	ecx, 51					; 00000033H
	mov	eax, -858993460				; ccccccccH
	rep stosd
	pop	ecx
	mov	DWORD PTR _this$[ebp], ecx

; 644  : 		_Ptr->~_Uty();
; 645  : 		}

	pop	edi
	pop	esi
	pop	ebx
	mov	esp, ebp
	pop	ebp
	ret	4
??$destroy@UMovingTile@@@?$allocator@UMovingTile@@@std@@QAEXPAUMovingTile@@@Z ENDP ; std::allocator<MovingTile>::destroy<MovingTile>
_TEXT	ENDS
; Function compile flags: /Odtp /RTCsu /ZI
; File c:\program files (x86)\microsoft visual studio 14.0\vc\include\xmemory
;	COMDAT ??$_Uninitialized_move_al_unchecked1@PAUMovingTile@@PAU1@V?$allocator@UMovingTile@@@std@@@std@@YAPAUMovingTile@@PAU1@00AAU?$_Wrap_alloc@V?$allocator@UMovingTile@@@std@@@0@U_General_ptr_iterator_tag@0@@Z
_TEXT	SEGMENT
__Next$ = -24						; size = 4
__$EHRec$ = -16						; size = 16
__First$ = 8						; size = 4
__Last$ = 12						; size = 4
__Dest$ = 16						; size = 4
__Al$ = 20						; size = 4
___formal$ = 24						; size = 1
??$_Uninitialized_move_al_unchecked1@PAUMovingTile@@PAU1@V?$allocator@UMovingTile@@@std@@@std@@YAPAUMovingTile@@PAU1@00AAU?$_Wrap_alloc@V?$allocator@UMovingTile@@@std@@@0@U_General_ptr_iterator_tag@0@@Z PROC ; std::_Uninitialized_move_al_unchecked1<MovingTile *,MovingTile *,std::allocator<MovingTile> >, COMDAT

; 317  : 	{	// move [_First, _Last) to raw _Dest, using _Al, no special optimization

	push	ebp
	mov	ebp, esp
	push	-1
	push	__ehhandler$??$_Uninitialized_move_al_unchecked1@PAUMovingTile@@PAU1@V?$allocator@UMovingTile@@@std@@@std@@YAPAUMovingTile@@PAU1@00AAU?$_Wrap_alloc@V?$allocator@UMovingTile@@@std@@@0@U_General_ptr_iterator_tag@0@@Z
	mov	eax, DWORD PTR fs:0
	push	eax
	push	ecx
	sub	esp, 204				; 000000ccH
	push	ebx
	push	esi
	push	edi
	lea	edi, DWORD PTR [ebp-220]
	mov	ecx, 51					; 00000033H
	mov	eax, -858993460				; ccccccccH
	rep stosd
	mov	eax, DWORD PTR ___security_cookie
	xor	eax, ebp
	push	eax
	lea	eax, DWORD PTR __$EHRec$[ebp+4]
	mov	DWORD PTR fs:0, eax
	mov	DWORD PTR __$EHRec$[ebp], esp

; 318  : 	_FwdIt _Next = _Dest;

	mov	eax, DWORD PTR __Dest$[ebp]
	mov	DWORD PTR __Next$[ebp], eax

; 319  : 
; 320  : 	_TRY_BEGIN

	mov	DWORD PTR __$EHRec$[ebp+12], 0

; 321  : 	for (; _First != _Last; ++_Dest, (void)++_First)

	jmp	SHORT $LN4@Uninitiali
$LN2@Uninitiali:
	mov	eax, DWORD PTR __Dest$[ebp]
	add	eax, 48					; 00000030H
	mov	DWORD PTR __Dest$[ebp], eax
	mov	ecx, DWORD PTR __First$[ebp]
	add	ecx, 48					; 00000030H
	mov	DWORD PTR __First$[ebp], ecx
$LN4@Uninitiali:
	mov	eax, DWORD PTR __First$[ebp]
	cmp	eax, DWORD PTR __Last$[ebp]
	je	SHORT $LN3@Uninitiali

; 322  : 		_Al.construct(_Dest, _STD move(*_First));

	mov	eax, DWORD PTR __First$[ebp]
	push	eax
	call	??$move@AAUMovingTile@@@std@@YA$$QAUMovingTile@@AAU1@@Z ; std::move<MovingTile &>
	add	esp, 4
	push	eax
	mov	ecx, DWORD PTR __Dest$[ebp]
	push	ecx
	mov	ecx, DWORD PTR __Al$[ebp]
	call	??$construct@UMovingTile@@U1@@?$_Wrap_alloc@V?$allocator@UMovingTile@@@std@@@std@@QAEXPAUMovingTile@@$$QAU2@@Z ; std::_Wrap_alloc<std::allocator<MovingTile> >::construct<MovingTile,MovingTile>
	jmp	SHORT $LN2@Uninitiali
$LN3@Uninitiali:
	jmp	SHORT $LN10@Uninitiali
__catch$??$_Uninitialized_move_al_unchecked1@PAUMovingTile@@PAU1@V?$allocator@UMovingTile@@@std@@@std@@YAPAUMovingTile@@PAU1@00AAU?$_Wrap_alloc@V?$allocator@UMovingTile@@@std@@@0@U_General_ptr_iterator_tag@0@@Z$0:

; 323  : 	_CATCH_ALL
; 324  : 	for (; _Next != _Dest; ++_Next)

	jmp	SHORT $LN7@Uninitiali
$LN5@Uninitiali:
	mov	eax, DWORD PTR __Next$[ebp]
	add	eax, 48					; 00000030H
	mov	DWORD PTR __Next$[ebp], eax
$LN7@Uninitiali:
	mov	eax, DWORD PTR __Next$[ebp]
	cmp	eax, DWORD PTR __Dest$[ebp]
	je	SHORT $LN6@Uninitiali

; 325  : 		_Al.destroy(_Next);

	mov	eax, DWORD PTR __Next$[ebp]
	push	eax
	mov	ecx, DWORD PTR __Al$[ebp]
	call	??$destroy@UMovingTile@@@?$_Wrap_alloc@V?$allocator@UMovingTile@@@std@@@std@@QAEXPAUMovingTile@@@Z ; std::_Wrap_alloc<std::allocator<MovingTile> >::destroy<MovingTile>
	jmp	SHORT $LN5@Uninitiali
$LN6@Uninitiali:

; 326  : 	_RERAISE;

	push	0
	push	0
	call	__CxxThrowException@8

; 327  : 	_CATCH_END

	mov	eax, $LN13@Uninitiali
	ret	0
$LN10@Uninitiali:
	mov	DWORD PTR __$EHRec$[ebp+12], -1
	jmp	SHORT __tryend$??$_Uninitialized_move_al_unchecked1@PAUMovingTile@@PAU1@V?$allocator@UMovingTile@@@std@@@std@@YAPAUMovingTile@@PAU1@00AAU?$_Wrap_alloc@V?$allocator@UMovingTile@@@std@@@0@U_General_ptr_iterator_tag@0@@Z$1
$LN13@Uninitiali:
	mov	DWORD PTR __$EHRec$[ebp+12], -1
__tryend$??$_Uninitialized_move_al_unchecked1@PAUMovingTile@@PAU1@V?$allocator@UMovingTile@@@std@@@std@@YAPAUMovingTile@@PAU1@00AAU?$_Wrap_alloc@V?$allocator@UMovingTile@@@std@@@0@U_General_ptr_iterator_tag@0@@Z$1:

; 328  : 
; 329  : 	return (_Dest);

	mov	eax, DWORD PTR __Dest$[ebp]
$LN9@Uninitiali:

; 330  : 	}

	mov	ecx, DWORD PTR __$EHRec$[ebp+4]
	mov	DWORD PTR fs:0, ecx
	pop	ecx
	pop	edi
	pop	esi
	pop	ebx
	add	esp, 220				; 000000dcH
	cmp	ebp, esp
	call	__RTC_CheckEsp
	mov	esp, ebp
	pop	ebp
	ret	0
_TEXT	ENDS
;	COMDAT text$x
text$x	SEGMENT
__ehhandler$??$_Uninitialized_move_al_unchecked1@PAUMovingTile@@PAU1@V?$allocator@UMovingTile@@@std@@@std@@YAPAUMovingTile@@PAU1@00AAU?$_Wrap_alloc@V?$allocator@UMovingTile@@@std@@@0@U_General_ptr_iterator_tag@0@@Z:
	mov	edx, DWORD PTR [esp+8]
	lea	eax, DWORD PTR [edx+12]
	mov	ecx, DWORD PTR [edx-224]
	xor	ecx, eax
	call	@__security_check_cookie@4
	mov	eax, OFFSET __ehfuncinfo$??$_Uninitialized_move_al_unchecked1@PAUMovingTile@@PAU1@V?$allocator@UMovingTile@@@std@@@std@@YAPAUMovingTile@@PAU1@00AAU?$_Wrap_alloc@V?$allocator@UMovingTile@@@std@@@0@U_General_ptr_iterator_tag@0@@Z
	jmp	___CxxFrameHandler3
text$x	ENDS
??$_Uninitialized_move_al_unchecked1@PAUMovingTile@@PAU1@V?$allocator@UMovingTile@@@std@@@std@@YAPAUMovingTile@@PAU1@00AAU?$_Wrap_alloc@V?$allocator@UMovingTile@@@std@@@0@U_General_ptr_iterator_tag@0@@Z ENDP ; std::_Uninitialized_move_al_unchecked1<MovingTile *,MovingTile *,std::allocator<MovingTile> >
; Function compile flags: /Odtp /RTCsu /ZI
; File c:\program files (x86)\microsoft visual studio 14.0\vc\include\xutility
;	COMDAT ??$_Ptr_move_cat@UMovingTile@@U1@@std@@YA?AU_Trivially_copyable_ptr_iterator_tag@0@ABQAUMovingTile@@0@Z
_TEXT	SEGMENT
___$ReturnUdt$ = 8					; size = 4
___formal$ = 12						; size = 4
___formal$ = 16						; size = 4
??$_Ptr_move_cat@UMovingTile@@U1@@std@@YA?AU_Trivially_copyable_ptr_iterator_tag@0@ABQAUMovingTile@@0@Z PROC ; std::_Ptr_move_cat<MovingTile,MovingTile>, COMDAT

; 725  : 	{	// return pointer move optimization category for pointers

	push	ebp
	mov	ebp, esp
	sub	esp, 192				; 000000c0H
	push	ebx
	push	esi
	push	edi
	lea	edi, DWORD PTR [ebp-192]
	mov	ecx, 48					; 00000030H
	mov	eax, -858993460				; ccccccccH
	rep stosd

; 726  : 	return {};

	mov	eax, DWORD PTR ___$ReturnUdt$[ebp]

; 727  : 	}

	pop	edi
	pop	esi
	pop	ebx
	mov	esp, ebp
	pop	ebp
	ret	0
??$_Ptr_move_cat@UMovingTile@@U1@@std@@YA?AU_Trivially_copyable_ptr_iterator_tag@0@ABQAUMovingTile@@0@Z ENDP ; std::_Ptr_move_cat<MovingTile,MovingTile>
_TEXT	ENDS
; Function compile flags: /Odtp /RTCsu /ZI
; File c:\program files (x86)\microsoft visual studio 14.0\vc\include\xmemory0
;	COMDAT ??$destroy@UPushTile@@@?$allocator_traits@V?$allocator@UPushTile@@@std@@@std@@SAXAAV?$allocator@UPushTile@@@1@PAUPushTile@@@Z
_TEXT	SEGMENT
__Al$ = 8						; size = 4
__Ptr$ = 12						; size = 4
??$destroy@UPushTile@@@?$allocator_traits@V?$allocator@UPushTile@@@std@@@std@@SAXAAV?$allocator@UPushTile@@@1@PAUPushTile@@@Z PROC ; std::allocator_traits<std::allocator<PushTile> >::destroy<PushTile>, COMDAT

; 761  : 		{	// destroy object at _Ptr

	push	ebp
	mov	ebp, esp
	sub	esp, 192				; 000000c0H
	push	ebx
	push	esi
	push	edi
	lea	edi, DWORD PTR [ebp-192]
	mov	ecx, 48					; 00000030H
	mov	eax, -858993460				; ccccccccH
	rep stosd

; 762  : 		_Al.destroy(_Ptr);

	mov	eax, DWORD PTR __Ptr$[ebp]
	push	eax
	mov	ecx, DWORD PTR __Al$[ebp]
	call	??$destroy@UPushTile@@@?$allocator@UPushTile@@@std@@QAEXPAUPushTile@@@Z ; std::allocator<PushTile>::destroy<PushTile>

; 763  : 		}

	pop	edi
	pop	esi
	pop	ebx
	add	esp, 192				; 000000c0H
	cmp	ebp, esp
	call	__RTC_CheckEsp
	mov	esp, ebp
	pop	ebp
	ret	0
??$destroy@UPushTile@@@?$allocator_traits@V?$allocator@UPushTile@@@std@@@std@@SAXAAV?$allocator@UPushTile@@@1@PAUPushTile@@@Z ENDP ; std::allocator_traits<std::allocator<PushTile> >::destroy<PushTile>
_TEXT	ENDS
; Function compile flags: /Odtp /RTCsu /ZI
; File c:\program files (x86)\microsoft visual studio 14.0\vc\include\xstddef
;	COMDAT ??$_Addressof@UPushTile@@@std@@YAPAUPushTile@@AAU1@U?$integral_constant@_N$0A@@0@@Z
_TEXT	SEGMENT
__Val$ = 8						; size = 4
___formal$ = 12						; size = 1
??$_Addressof@UPushTile@@@std@@YAPAUPushTile@@AAU1@U?$integral_constant@_N$0A@@0@@Z PROC ; std::_Addressof<PushTile>, COMDAT

; 707  : 	{	// return address of object _Val

	push	ebp
	mov	ebp, esp
	sub	esp, 192				; 000000c0H
	push	ebx
	push	esi
	push	edi
	lea	edi, DWORD PTR [ebp-192]
	mov	ecx, 48					; 00000030H
	mov	eax, -858993460				; ccccccccH
	rep stosd

; 708  : 	return (reinterpret_cast<_Ty *>(

	mov	eax, DWORD PTR __Val$[ebp]

; 709  : 		&const_cast<char&>(
; 710  : 		reinterpret_cast<const volatile char&>(_Val))));
; 711  : 	}

	pop	edi
	pop	esi
	pop	ebx
	mov	esp, ebp
	pop	ebp
	ret	0
??$_Addressof@UPushTile@@@std@@YAPAUPushTile@@AAU1@U?$integral_constant@_N$0A@@0@@Z ENDP ; std::_Addressof<PushTile>
_TEXT	ENDS
; Function compile flags: /Odtp /RTCsu /ZI
; File c:\program files (x86)\microsoft visual studio 14.0\vc\include\xutility
;	COMDAT ??$_Rechecked@PAUPushTile@@PAU1@@std@@YAAAPAUPushTile@@AAPAU1@PAU1@@Z
_TEXT	SEGMENT
__Dest$ = 8						; size = 4
__Src$ = 12						; size = 4
??$_Rechecked@PAUPushTile@@PAU1@@std@@YAAAPAUPushTile@@AAPAU1@PAU1@@Z PROC ; std::_Rechecked<PushTile *,PushTile *>, COMDAT

; 465  : 	{	// reset checked from unchecked, generic

	push	ebp
	mov	ebp, esp
	sub	esp, 192				; 000000c0H
	push	ebx
	push	esi
	push	edi
	lea	edi, DWORD PTR [ebp-192]
	mov	ecx, 48					; 00000030H
	mov	eax, -858993460				; ccccccccH
	rep stosd

; 466  : 	_Dest = _Src;

	mov	eax, DWORD PTR __Dest$[ebp]
	mov	ecx, DWORD PTR __Src$[ebp]
	mov	DWORD PTR [eax], ecx

; 467  : 	return (_Dest);

	mov	eax, DWORD PTR __Dest$[ebp]

; 468  : 	}

	pop	edi
	pop	esi
	pop	ebx
	mov	esp, ebp
	pop	ebp
	ret	0
??$_Rechecked@PAUPushTile@@PAU1@@std@@YAAAPAUPushTile@@AAPAU1@PAU1@@Z ENDP ; std::_Rechecked<PushTile *,PushTile *>
_TEXT	ENDS
; Function compile flags: /Odtp /RTCsu /ZI
; File c:\program files (x86)\microsoft visual studio 14.0\vc\include\xmemory
;	COMDAT ??$_Uninitialized_move_al_unchecked@PAUPushTile@@PAU1@U?$_Wrap_alloc@V?$allocator@UPushTile@@@std@@@std@@@std@@YAPAUPushTile@@PAU1@00AAU?$_Wrap_alloc@V?$allocator@UPushTile@@@std@@@0@@Z
_TEXT	SEGMENT
$T1 = -209						; size = 1
$T2 = -197						; size = 1
__First$ = 8						; size = 4
__Last$ = 12						; size = 4
__Dest$ = 16						; size = 4
__Al$ = 20						; size = 4
??$_Uninitialized_move_al_unchecked@PAUPushTile@@PAU1@U?$_Wrap_alloc@V?$allocator@UPushTile@@@std@@@std@@@std@@YAPAUPushTile@@PAU1@00AAU?$_Wrap_alloc@V?$allocator@UPushTile@@@std@@@0@@Z PROC ; std::_Uninitialized_move_al_unchecked<PushTile *,PushTile *,std::_Wrap_alloc<std::allocator<PushTile> > >, COMDAT

; 345  : 	{	// move [_First, _Last) to raw _Dest, using _Al, choose optimization

	push	ebp
	mov	ebp, esp
	sub	esp, 216				; 000000d8H
	push	ebx
	push	esi
	push	edi
	lea	edi, DWORD PTR [ebp-216]
	mov	ecx, 54					; 00000036H
	mov	eax, -858993460				; ccccccccH
	rep stosd

; 346  : 	return (_Uninitialized_move_al_unchecked1(_First, _Last, _Dest, _Al,

	lea	eax, DWORD PTR __Dest$[ebp]
	push	eax
	lea	ecx, DWORD PTR __First$[ebp]
	push	ecx
	lea	edx, DWORD PTR $T2[ebp]
	push	edx
	call	??$_Ptr_move_cat@UPushTile@@U1@@std@@YA?AU_Trivially_copyable_ptr_iterator_tag@0@ABQAUPushTile@@0@Z ; std::_Ptr_move_cat<PushTile,PushTile>
	add	esp, 12					; 0000000cH
	movzx	eax, BYTE PTR $T1[ebp]
	push	eax
	mov	ecx, DWORD PTR __Al$[ebp]
	push	ecx
	mov	edx, DWORD PTR __Dest$[ebp]
	push	edx
	mov	eax, DWORD PTR __Last$[ebp]
	push	eax
	mov	ecx, DWORD PTR __First$[ebp]
	push	ecx
	call	??$_Uninitialized_move_al_unchecked1@PAUPushTile@@PAU1@V?$allocator@UPushTile@@@std@@@std@@YAPAUPushTile@@PAU1@00AAU?$_Wrap_alloc@V?$allocator@UPushTile@@@std@@@0@U_General_ptr_iterator_tag@0@@Z ; std::_Uninitialized_move_al_unchecked1<PushTile *,PushTile *,std::allocator<PushTile> >
	add	esp, 20					; 00000014H

; 347  : 		_Ptr_move_cat(_First, _Dest)));
; 348  : 	}

	pop	edi
	pop	esi
	pop	ebx
	add	esp, 216				; 000000d8H
	cmp	ebp, esp
	call	__RTC_CheckEsp
	mov	esp, ebp
	pop	ebp
	ret	0
??$_Uninitialized_move_al_unchecked@PAUPushTile@@PAU1@U?$_Wrap_alloc@V?$allocator@UPushTile@@@std@@@std@@@std@@YAPAUPushTile@@PAU1@00AAU?$_Wrap_alloc@V?$allocator@UPushTile@@@std@@@0@@Z ENDP ; std::_Uninitialized_move_al_unchecked<PushTile *,PushTile *,std::_Wrap_alloc<std::allocator<PushTile> > >
_TEXT	ENDS
; Function compile flags: /Odtp /RTCsu /ZI
; File c:\program files (x86)\microsoft visual studio 14.0\vc\include\xutility
;	COMDAT ??$_Unchecked@PAUPushTile@@@std@@YAPAUPushTile@@PAU1@@Z
_TEXT	SEGMENT
__Src$ = 8						; size = 4
??$_Unchecked@PAUPushTile@@@std@@YAPAUPushTile@@PAU1@@Z PROC ; std::_Unchecked<PushTile *>, COMDAT

; 438  : 	{	// construct unchecked from checked, generic

	push	ebp
	mov	ebp, esp
	sub	esp, 192				; 000000c0H
	push	ebx
	push	esi
	push	edi
	lea	edi, DWORD PTR [ebp-192]
	mov	ecx, 48					; 00000030H
	mov	eax, -858993460				; ccccccccH
	rep stosd

; 439  : 	return (_Src);

	mov	eax, DWORD PTR __Src$[ebp]

; 440  : 	}

	pop	edi
	pop	esi
	pop	ebx
	mov	esp, ebp
	pop	ebp
	ret	0
??$_Unchecked@PAUPushTile@@@std@@YAPAUPushTile@@PAU1@@Z ENDP ; std::_Unchecked<PushTile *>
_TEXT	ENDS
; Function compile flags: /Odtp /RTCsu /ZI
; File c:\program files (x86)\microsoft visual studio 14.0\vc\include\xmemory0
;	COMDAT ??$destroy@UTile@@@?$allocator_traits@V?$allocator@UTile@@@std@@@std@@SAXAAV?$allocator@UTile@@@1@PAUTile@@@Z
_TEXT	SEGMENT
__Al$ = 8						; size = 4
__Ptr$ = 12						; size = 4
??$destroy@UTile@@@?$allocator_traits@V?$allocator@UTile@@@std@@@std@@SAXAAV?$allocator@UTile@@@1@PAUTile@@@Z PROC ; std::allocator_traits<std::allocator<Tile> >::destroy<Tile>, COMDAT

; 761  : 		{	// destroy object at _Ptr

	push	ebp
	mov	ebp, esp
	sub	esp, 192				; 000000c0H
	push	ebx
	push	esi
	push	edi
	lea	edi, DWORD PTR [ebp-192]
	mov	ecx, 48					; 00000030H
	mov	eax, -858993460				; ccccccccH
	rep stosd

; 762  : 		_Al.destroy(_Ptr);

	mov	eax, DWORD PTR __Ptr$[ebp]
	push	eax
	mov	ecx, DWORD PTR __Al$[ebp]
	call	??$destroy@UTile@@@?$allocator@UTile@@@std@@QAEXPAUTile@@@Z ; std::allocator<Tile>::destroy<Tile>

; 763  : 		}

	pop	edi
	pop	esi
	pop	ebx
	add	esp, 192				; 000000c0H
	cmp	ebp, esp
	call	__RTC_CheckEsp
	mov	esp, ebp
	pop	ebp
	ret	0
??$destroy@UTile@@@?$allocator_traits@V?$allocator@UTile@@@std@@@std@@SAXAAV?$allocator@UTile@@@1@PAUTile@@@Z ENDP ; std::allocator_traits<std::allocator<Tile> >::destroy<Tile>
_TEXT	ENDS
; Function compile flags: /Odtp /RTCsu /ZI
; File c:\program files (x86)\microsoft visual studio 14.0\vc\include\xstddef
;	COMDAT ??$_Addressof@UTile@@@std@@YAPAUTile@@AAU1@U?$integral_constant@_N$0A@@0@@Z
_TEXT	SEGMENT
__Val$ = 8						; size = 4
___formal$ = 12						; size = 1
??$_Addressof@UTile@@@std@@YAPAUTile@@AAU1@U?$integral_constant@_N$0A@@0@@Z PROC ; std::_Addressof<Tile>, COMDAT

; 707  : 	{	// return address of object _Val

	push	ebp
	mov	ebp, esp
	sub	esp, 192				; 000000c0H
	push	ebx
	push	esi
	push	edi
	lea	edi, DWORD PTR [ebp-192]
	mov	ecx, 48					; 00000030H
	mov	eax, -858993460				; ccccccccH
	rep stosd

; 708  : 	return (reinterpret_cast<_Ty *>(

	mov	eax, DWORD PTR __Val$[ebp]

; 709  : 		&const_cast<char&>(
; 710  : 		reinterpret_cast<const volatile char&>(_Val))));
; 711  : 	}

	pop	edi
	pop	esi
	pop	ebx
	mov	esp, ebp
	pop	ebp
	ret	0
??$_Addressof@UTile@@@std@@YAPAUTile@@AAU1@U?$integral_constant@_N$0A@@0@@Z ENDP ; std::_Addressof<Tile>
_TEXT	ENDS
; Function compile flags: /Odtp /RTCsu /ZI
; File c:\program files (x86)\microsoft visual studio 14.0\vc\include\xutility
;	COMDAT ??$_Rechecked@PAUTile@@PAU1@@std@@YAAAPAUTile@@AAPAU1@PAU1@@Z
_TEXT	SEGMENT
__Dest$ = 8						; size = 4
__Src$ = 12						; size = 4
??$_Rechecked@PAUTile@@PAU1@@std@@YAAAPAUTile@@AAPAU1@PAU1@@Z PROC ; std::_Rechecked<Tile *,Tile *>, COMDAT

; 465  : 	{	// reset checked from unchecked, generic

	push	ebp
	mov	ebp, esp
	sub	esp, 192				; 000000c0H
	push	ebx
	push	esi
	push	edi
	lea	edi, DWORD PTR [ebp-192]
	mov	ecx, 48					; 00000030H
	mov	eax, -858993460				; ccccccccH
	rep stosd

; 466  : 	_Dest = _Src;

	mov	eax, DWORD PTR __Dest$[ebp]
	mov	ecx, DWORD PTR __Src$[ebp]
	mov	DWORD PTR [eax], ecx

; 467  : 	return (_Dest);

	mov	eax, DWORD PTR __Dest$[ebp]

; 468  : 	}

	pop	edi
	pop	esi
	pop	ebx
	mov	esp, ebp
	pop	ebp
	ret	0
??$_Rechecked@PAUTile@@PAU1@@std@@YAAAPAUTile@@AAPAU1@PAU1@@Z ENDP ; std::_Rechecked<Tile *,Tile *>
_TEXT	ENDS
; Function compile flags: /Odtp /RTCsu /ZI
; File c:\program files (x86)\microsoft visual studio 14.0\vc\include\xmemory
;	COMDAT ??$_Uninitialized_move_al_unchecked@PAUTile@@PAU1@U?$_Wrap_alloc@V?$allocator@UTile@@@std@@@std@@@std@@YAPAUTile@@PAU1@00AAU?$_Wrap_alloc@V?$allocator@UTile@@@std@@@0@@Z
_TEXT	SEGMENT
$T1 = -209						; size = 1
$T2 = -197						; size = 1
__First$ = 8						; size = 4
__Last$ = 12						; size = 4
__Dest$ = 16						; size = 4
__Al$ = 20						; size = 4
??$_Uninitialized_move_al_unchecked@PAUTile@@PAU1@U?$_Wrap_alloc@V?$allocator@UTile@@@std@@@std@@@std@@YAPAUTile@@PAU1@00AAU?$_Wrap_alloc@V?$allocator@UTile@@@std@@@0@@Z PROC ; std::_Uninitialized_move_al_unchecked<Tile *,Tile *,std::_Wrap_alloc<std::allocator<Tile> > >, COMDAT

; 345  : 	{	// move [_First, _Last) to raw _Dest, using _Al, choose optimization

	push	ebp
	mov	ebp, esp
	sub	esp, 216				; 000000d8H
	push	ebx
	push	esi
	push	edi
	lea	edi, DWORD PTR [ebp-216]
	mov	ecx, 54					; 00000036H
	mov	eax, -858993460				; ccccccccH
	rep stosd

; 346  : 	return (_Uninitialized_move_al_unchecked1(_First, _Last, _Dest, _Al,

	lea	eax, DWORD PTR __Dest$[ebp]
	push	eax
	lea	ecx, DWORD PTR __First$[ebp]
	push	ecx
	lea	edx, DWORD PTR $T2[ebp]
	push	edx
	call	??$_Ptr_move_cat@UTile@@U1@@std@@YA?AU_Trivially_copyable_ptr_iterator_tag@0@ABQAUTile@@0@Z ; std::_Ptr_move_cat<Tile,Tile>
	add	esp, 12					; 0000000cH
	movzx	eax, BYTE PTR $T1[ebp]
	push	eax
	mov	ecx, DWORD PTR __Al$[ebp]
	push	ecx
	mov	edx, DWORD PTR __Dest$[ebp]
	push	edx
	mov	eax, DWORD PTR __Last$[ebp]
	push	eax
	mov	ecx, DWORD PTR __First$[ebp]
	push	ecx
	call	??$_Uninitialized_move_al_unchecked1@PAUTile@@PAU1@V?$allocator@UTile@@@std@@@std@@YAPAUTile@@PAU1@00AAU?$_Wrap_alloc@V?$allocator@UTile@@@std@@@0@U_General_ptr_iterator_tag@0@@Z ; std::_Uninitialized_move_al_unchecked1<Tile *,Tile *,std::allocator<Tile> >
	add	esp, 20					; 00000014H

; 347  : 		_Ptr_move_cat(_First, _Dest)));
; 348  : 	}

	pop	edi
	pop	esi
	pop	ebx
	add	esp, 216				; 000000d8H
	cmp	ebp, esp
	call	__RTC_CheckEsp
	mov	esp, ebp
	pop	ebp
	ret	0
??$_Uninitialized_move_al_unchecked@PAUTile@@PAU1@U?$_Wrap_alloc@V?$allocator@UTile@@@std@@@std@@@std@@YAPAUTile@@PAU1@00AAU?$_Wrap_alloc@V?$allocator@UTile@@@std@@@0@@Z ENDP ; std::_Uninitialized_move_al_unchecked<Tile *,Tile *,std::_Wrap_alloc<std::allocator<Tile> > >
_TEXT	ENDS
; Function compile flags: /Odtp /RTCsu /ZI
; File c:\program files (x86)\microsoft visual studio 14.0\vc\include\xutility
;	COMDAT ??$_Unchecked@PAUTile@@@std@@YAPAUTile@@PAU1@@Z
_TEXT	SEGMENT
__Src$ = 8						; size = 4
??$_Unchecked@PAUTile@@@std@@YAPAUTile@@PAU1@@Z PROC	; std::_Unchecked<Tile *>, COMDAT

; 438  : 	{	// construct unchecked from checked, generic

	push	ebp
	mov	ebp, esp
	sub	esp, 192				; 000000c0H
	push	ebx
	push	esi
	push	edi
	lea	edi, DWORD PTR [ebp-192]
	mov	ecx, 48					; 00000030H
	mov	eax, -858993460				; ccccccccH
	rep stosd

; 439  : 	return (_Src);

	mov	eax, DWORD PTR __Src$[ebp]

; 440  : 	}

	pop	edi
	pop	esi
	pop	ebx
	mov	esp, ebp
	pop	ebp
	ret	0
??$_Unchecked@PAUTile@@@std@@YAPAUTile@@PAU1@@Z ENDP	; std::_Unchecked<Tile *>
_TEXT	ENDS
; Function compile flags: /Odtp /RTCsu /ZI
; File c:\program files (x86)\microsoft visual studio 14.0\vc\include\xmemory0
;	COMDAT ??$destroy@UMovingTile@@@?$allocator_traits@V?$allocator@UMovingTile@@@std@@@std@@SAXAAV?$allocator@UMovingTile@@@1@PAUMovingTile@@@Z
_TEXT	SEGMENT
__Al$ = 8						; size = 4
__Ptr$ = 12						; size = 4
??$destroy@UMovingTile@@@?$allocator_traits@V?$allocator@UMovingTile@@@std@@@std@@SAXAAV?$allocator@UMovingTile@@@1@PAUMovingTile@@@Z PROC ; std::allocator_traits<std::allocator<MovingTile> >::destroy<MovingTile>, COMDAT

; 761  : 		{	// destroy object at _Ptr

	push	ebp
	mov	ebp, esp
	sub	esp, 192				; 000000c0H
	push	ebx
	push	esi
	push	edi
	lea	edi, DWORD PTR [ebp-192]
	mov	ecx, 48					; 00000030H
	mov	eax, -858993460				; ccccccccH
	rep stosd

; 762  : 		_Al.destroy(_Ptr);

	mov	eax, DWORD PTR __Ptr$[ebp]
	push	eax
	mov	ecx, DWORD PTR __Al$[ebp]
	call	??$destroy@UMovingTile@@@?$allocator@UMovingTile@@@std@@QAEXPAUMovingTile@@@Z ; std::allocator<MovingTile>::destroy<MovingTile>

; 763  : 		}

	pop	edi
	pop	esi
	pop	ebx
	add	esp, 192				; 000000c0H
	cmp	ebp, esp
	call	__RTC_CheckEsp
	mov	esp, ebp
	pop	ebp
	ret	0
??$destroy@UMovingTile@@@?$allocator_traits@V?$allocator@UMovingTile@@@std@@@std@@SAXAAV?$allocator@UMovingTile@@@1@PAUMovingTile@@@Z ENDP ; std::allocator_traits<std::allocator<MovingTile> >::destroy<MovingTile>
_TEXT	ENDS
; Function compile flags: /Odtp /RTCsu /ZI
; File c:\program files (x86)\microsoft visual studio 14.0\vc\include\xstddef
;	COMDAT ??$_Addressof@UMovingTile@@@std@@YAPAUMovingTile@@AAU1@U?$integral_constant@_N$0A@@0@@Z
_TEXT	SEGMENT
__Val$ = 8						; size = 4
___formal$ = 12						; size = 1
??$_Addressof@UMovingTile@@@std@@YAPAUMovingTile@@AAU1@U?$integral_constant@_N$0A@@0@@Z PROC ; std::_Addressof<MovingTile>, COMDAT

; 707  : 	{	// return address of object _Val

	push	ebp
	mov	ebp, esp
	sub	esp, 192				; 000000c0H
	push	ebx
	push	esi
	push	edi
	lea	edi, DWORD PTR [ebp-192]
	mov	ecx, 48					; 00000030H
	mov	eax, -858993460				; ccccccccH
	rep stosd

; 708  : 	return (reinterpret_cast<_Ty *>(

	mov	eax, DWORD PTR __Val$[ebp]

; 709  : 		&const_cast<char&>(
; 710  : 		reinterpret_cast<const volatile char&>(_Val))));
; 711  : 	}

	pop	edi
	pop	esi
	pop	ebx
	mov	esp, ebp
	pop	ebp
	ret	0
??$_Addressof@UMovingTile@@@std@@YAPAUMovingTile@@AAU1@U?$integral_constant@_N$0A@@0@@Z ENDP ; std::_Addressof<MovingTile>
_TEXT	ENDS
; Function compile flags: /Odtp /RTCsu /ZI
; File c:\program files (x86)\microsoft visual studio 14.0\vc\include\xutility
;	COMDAT ??$_Rechecked@PAUMovingTile@@PAU1@@std@@YAAAPAUMovingTile@@AAPAU1@PAU1@@Z
_TEXT	SEGMENT
__Dest$ = 8						; size = 4
__Src$ = 12						; size = 4
??$_Rechecked@PAUMovingTile@@PAU1@@std@@YAAAPAUMovingTile@@AAPAU1@PAU1@@Z PROC ; std::_Rechecked<MovingTile *,MovingTile *>, COMDAT

; 465  : 	{	// reset checked from unchecked, generic

	push	ebp
	mov	ebp, esp
	sub	esp, 192				; 000000c0H
	push	ebx
	push	esi
	push	edi
	lea	edi, DWORD PTR [ebp-192]
	mov	ecx, 48					; 00000030H
	mov	eax, -858993460				; ccccccccH
	rep stosd

; 466  : 	_Dest = _Src;

	mov	eax, DWORD PTR __Dest$[ebp]
	mov	ecx, DWORD PTR __Src$[ebp]
	mov	DWORD PTR [eax], ecx

; 467  : 	return (_Dest);

	mov	eax, DWORD PTR __Dest$[ebp]

; 468  : 	}

	pop	edi
	pop	esi
	pop	ebx
	mov	esp, ebp
	pop	ebp
	ret	0
??$_Rechecked@PAUMovingTile@@PAU1@@std@@YAAAPAUMovingTile@@AAPAU1@PAU1@@Z ENDP ; std::_Rechecked<MovingTile *,MovingTile *>
_TEXT	ENDS
; Function compile flags: /Odtp /RTCsu /ZI
; File c:\program files (x86)\microsoft visual studio 14.0\vc\include\xmemory
;	COMDAT ??$_Uninitialized_move_al_unchecked@PAUMovingTile@@PAU1@U?$_Wrap_alloc@V?$allocator@UMovingTile@@@std@@@std@@@std@@YAPAUMovingTile@@PAU1@00AAU?$_Wrap_alloc@V?$allocator@UMovingTile@@@std@@@0@@Z
_TEXT	SEGMENT
$T1 = -209						; size = 1
$T2 = -197						; size = 1
__First$ = 8						; size = 4
__Last$ = 12						; size = 4
__Dest$ = 16						; size = 4
__Al$ = 20						; size = 4
??$_Uninitialized_move_al_unchecked@PAUMovingTile@@PAU1@U?$_Wrap_alloc@V?$allocator@UMovingTile@@@std@@@std@@@std@@YAPAUMovingTile@@PAU1@00AAU?$_Wrap_alloc@V?$allocator@UMovingTile@@@std@@@0@@Z PROC ; std::_Uninitialized_move_al_unchecked<MovingTile *,MovingTile *,std::_Wrap_alloc<std::allocator<MovingTile> > >, COMDAT

; 345  : 	{	// move [_First, _Last) to raw _Dest, using _Al, choose optimization

	push	ebp
	mov	ebp, esp
	sub	esp, 216				; 000000d8H
	push	ebx
	push	esi
	push	edi
	lea	edi, DWORD PTR [ebp-216]
	mov	ecx, 54					; 00000036H
	mov	eax, -858993460				; ccccccccH
	rep stosd

; 346  : 	return (_Uninitialized_move_al_unchecked1(_First, _Last, _Dest, _Al,

	lea	eax, DWORD PTR __Dest$[ebp]
	push	eax
	lea	ecx, DWORD PTR __First$[ebp]
	push	ecx
	lea	edx, DWORD PTR $T2[ebp]
	push	edx
	call	??$_Ptr_move_cat@UMovingTile@@U1@@std@@YA?AU_Trivially_copyable_ptr_iterator_tag@0@ABQAUMovingTile@@0@Z ; std::_Ptr_move_cat<MovingTile,MovingTile>
	add	esp, 12					; 0000000cH
	movzx	eax, BYTE PTR $T1[ebp]
	push	eax
	mov	ecx, DWORD PTR __Al$[ebp]
	push	ecx
	mov	edx, DWORD PTR __Dest$[ebp]
	push	edx
	mov	eax, DWORD PTR __Last$[ebp]
	push	eax
	mov	ecx, DWORD PTR __First$[ebp]
	push	ecx
	call	??$_Uninitialized_move_al_unchecked1@PAUMovingTile@@PAU1@V?$allocator@UMovingTile@@@std@@@std@@YAPAUMovingTile@@PAU1@00AAU?$_Wrap_alloc@V?$allocator@UMovingTile@@@std@@@0@U_General_ptr_iterator_tag@0@@Z ; std::_Uninitialized_move_al_unchecked1<MovingTile *,MovingTile *,std::allocator<MovingTile> >
	add	esp, 20					; 00000014H

; 347  : 		_Ptr_move_cat(_First, _Dest)));
; 348  : 	}

	pop	edi
	pop	esi
	pop	ebx
	add	esp, 216				; 000000d8H
	cmp	ebp, esp
	call	__RTC_CheckEsp
	mov	esp, ebp
	pop	ebp
	ret	0
??$_Uninitialized_move_al_unchecked@PAUMovingTile@@PAU1@U?$_Wrap_alloc@V?$allocator@UMovingTile@@@std@@@std@@@std@@YAPAUMovingTile@@PAU1@00AAU?$_Wrap_alloc@V?$allocator@UMovingTile@@@std@@@0@@Z ENDP ; std::_Uninitialized_move_al_unchecked<MovingTile *,MovingTile *,std::_Wrap_alloc<std::allocator<MovingTile> > >
_TEXT	ENDS
; Function compile flags: /Odtp /RTCsu /ZI
; File c:\program files (x86)\microsoft visual studio 14.0\vc\include\xutility
;	COMDAT ??$_Unchecked@PAUMovingTile@@@std@@YAPAUMovingTile@@PAU1@@Z
_TEXT	SEGMENT
__Src$ = 8						; size = 4
??$_Unchecked@PAUMovingTile@@@std@@YAPAUMovingTile@@PAU1@@Z PROC ; std::_Unchecked<MovingTile *>, COMDAT

; 438  : 	{	// construct unchecked from checked, generic

	push	ebp
	mov	ebp, esp
	sub	esp, 192				; 000000c0H
	push	ebx
	push	esi
	push	edi
	lea	edi, DWORD PTR [ebp-192]
	mov	ecx, 48					; 00000030H
	mov	eax, -858993460				; ccccccccH
	rep stosd

; 439  : 	return (_Src);

	mov	eax, DWORD PTR __Src$[ebp]

; 440  : 	}

	pop	edi
	pop	esi
	pop	ebx
	mov	esp, ebp
	pop	ebp
	ret	0
??$_Unchecked@PAUMovingTile@@@std@@YAPAUMovingTile@@PAU1@@Z ENDP ; std::_Unchecked<MovingTile *>
_TEXT	ENDS
; Function compile flags: /Odtp /RTCsu /ZI
; File c:\program files (x86)\microsoft visual studio 14.0\vc\include\xmemory0
;	COMDAT ??$construct@U_Container_proxy@std@@U12@@?$allocator@U_Container_proxy@std@@@std@@QAEXPAU_Container_proxy@1@$$QAU21@@Z
_TEXT	SEGMENT
tv74 = -220						; size = 4
$T1 = -212						; size = 4
_this$ = -8						; size = 4
__Ptr$ = 8						; size = 4
_<_Args_0>$ = 12					; size = 4
??$construct@U_Container_proxy@std@@U12@@?$allocator@U_Container_proxy@std@@@std@@QAEXPAU_Container_proxy@1@$$QAU21@@Z PROC ; std::allocator<std::_Container_proxy>::construct<std::_Container_proxy,std::_Container_proxy>, COMDAT
; _this$ = ecx

; 636  : 		{	// construct _Objty(_Types...) at _Ptr

	push	ebp
	mov	ebp, esp
	sub	esp, 220				; 000000dcH
	push	ebx
	push	esi
	push	edi
	push	ecx
	lea	edi, DWORD PTR [ebp-220]
	mov	ecx, 55					; 00000037H
	mov	eax, -858993460				; ccccccccH
	rep stosd
	pop	ecx
	mov	DWORD PTR _this$[ebp], ecx

; 637  : 		::new ((void *)_Ptr) _Objty(_STD forward<_Types>(_Args)...);

	mov	eax, DWORD PTR __Ptr$[ebp]
	push	eax
	push	8
	call	??2@YAPAXIPAX@Z				; operator new
	add	esp, 8
	mov	DWORD PTR $T1[ebp], eax
	cmp	DWORD PTR $T1[ebp], 0
	je	SHORT $LN3@construct
	mov	ecx, DWORD PTR _<_Args_0>$[ebp]
	push	ecx
	call	??$forward@U_Container_proxy@std@@@std@@YA$$QAU_Container_proxy@0@AAU10@@Z ; std::forward<std::_Container_proxy>
	add	esp, 4
	mov	edx, DWORD PTR [eax]
	mov	eax, DWORD PTR [eax+4]
	mov	ecx, DWORD PTR $T1[ebp]
	mov	DWORD PTR [ecx], edx
	mov	DWORD PTR [ecx+4], eax
	mov	edx, DWORD PTR $T1[ebp]
	mov	DWORD PTR tv74[ebp], edx
	jmp	SHORT $LN1@construct
$LN3@construct:
	mov	DWORD PTR tv74[ebp], 0
$LN1@construct:

; 638  : 		}

	pop	edi
	pop	esi
	pop	ebx
	add	esp, 220				; 000000dcH
	cmp	ebp, esp
	call	__RTC_CheckEsp
	mov	esp, ebp
	pop	ebp
	ret	8
??$construct@U_Container_proxy@std@@U12@@?$allocator@U_Container_proxy@std@@@std@@QAEXPAU_Container_proxy@1@$$QAU21@@Z ENDP ; std::allocator<std::_Container_proxy>::construct<std::_Container_proxy,std::_Container_proxy>
_TEXT	ENDS
; Function compile flags: /Odtp /RTCsu /ZI
; File c:\program files (x86)\microsoft visual studio 14.0\vc\include\xmemory0
;	COMDAT ??$destroy@U_Container_proxy@std@@@?$allocator@U_Container_proxy@std@@@std@@QAEXPAU_Container_proxy@1@@Z
_TEXT	SEGMENT
_this$ = -8						; size = 4
__Ptr$ = 8						; size = 4
??$destroy@U_Container_proxy@std@@@?$allocator@U_Container_proxy@std@@@std@@QAEXPAU_Container_proxy@1@@Z PROC ; std::allocator<std::_Container_proxy>::destroy<std::_Container_proxy>, COMDAT
; _this$ = ecx

; 643  : 		{	// destroy object at _Ptr

	push	ebp
	mov	ebp, esp
	sub	esp, 204				; 000000ccH
	push	ebx
	push	esi
	push	edi
	push	ecx
	lea	edi, DWORD PTR [ebp-204]
	mov	ecx, 51					; 00000033H
	mov	eax, -858993460				; ccccccccH
	rep stosd
	pop	ecx
	mov	DWORD PTR _this$[ebp], ecx

; 644  : 		_Ptr->~_Uty();
; 645  : 		}

	pop	edi
	pop	esi
	pop	ebx
	mov	esp, ebp
	pop	ebp
	ret	4
??$destroy@U_Container_proxy@std@@@?$allocator@U_Container_proxy@std@@@std@@QAEXPAU_Container_proxy@1@@Z ENDP ; std::allocator<std::_Container_proxy>::destroy<std::_Container_proxy>
_TEXT	ENDS
; Function compile flags: /Odtp /RTCsu /ZI
; File c:\program files (x86)\microsoft visual studio 14.0\vc\include\xmemory0
;	COMDAT ??$construct@UPushTile@@ABU1@@?$allocator@UPushTile@@@std@@QAEXPAUPushTile@@ABU2@@Z
_TEXT	SEGMENT
tv74 = -220						; size = 4
$T1 = -212						; size = 4
_this$ = -8						; size = 4
__Ptr$ = 8						; size = 4
_<_Args_0>$ = 12					; size = 4
??$construct@UPushTile@@ABU1@@?$allocator@UPushTile@@@std@@QAEXPAUPushTile@@ABU2@@Z PROC ; std::allocator<PushTile>::construct<PushTile,PushTile const &>, COMDAT
; _this$ = ecx

; 636  : 		{	// construct _Objty(_Types...) at _Ptr

	push	ebp
	mov	ebp, esp
	sub	esp, 220				; 000000dcH
	push	ebx
	push	esi
	push	edi
	push	ecx
	lea	edi, DWORD PTR [ebp-220]
	mov	ecx, 55					; 00000037H
	mov	eax, -858993460				; ccccccccH
	rep stosd
	pop	ecx
	mov	DWORD PTR _this$[ebp], ecx

; 637  : 		::new ((void *)_Ptr) _Objty(_STD forward<_Types>(_Args)...);

	mov	eax, DWORD PTR __Ptr$[ebp]
	push	eax
	push	48					; 00000030H
	call	??2@YAPAXIPAX@Z				; operator new
	add	esp, 8
	mov	DWORD PTR $T1[ebp], eax
	cmp	DWORD PTR $T1[ebp], 0
	je	SHORT $LN3@construct
	mov	ecx, DWORD PTR _<_Args_0>$[ebp]
	push	ecx
	call	??$forward@ABUPushTile@@@std@@YAABUPushTile@@ABU1@@Z ; std::forward<PushTile const &>
	add	esp, 4
	mov	ecx, 12					; 0000000cH
	mov	esi, eax
	mov	edi, DWORD PTR $T1[ebp]
	rep movsd
	mov	edx, DWORD PTR $T1[ebp]
	mov	DWORD PTR tv74[ebp], edx
	jmp	SHORT $LN1@construct
$LN3@construct:
	mov	DWORD PTR tv74[ebp], 0
$LN1@construct:

; 638  : 		}

	pop	edi
	pop	esi
	pop	ebx
	add	esp, 220				; 000000dcH
	cmp	ebp, esp
	call	__RTC_CheckEsp
	mov	esp, ebp
	pop	ebp
	ret	8
??$construct@UPushTile@@ABU1@@?$allocator@UPushTile@@@std@@QAEXPAUPushTile@@ABU2@@Z ENDP ; std::allocator<PushTile>::construct<PushTile,PushTile const &>
_TEXT	ENDS
; Function compile flags: /Odtp /RTCsu /ZI
; File c:\program files (x86)\microsoft visual studio 14.0\vc\include\xmemory0
;	COMDAT ??$construct@UPushTile@@AAU1@@?$allocator@UPushTile@@@std@@QAEXPAUPushTile@@AAU2@@Z
_TEXT	SEGMENT
tv74 = -220						; size = 4
$T1 = -212						; size = 4
_this$ = -8						; size = 4
__Ptr$ = 8						; size = 4
_<_Args_0>$ = 12					; size = 4
??$construct@UPushTile@@AAU1@@?$allocator@UPushTile@@@std@@QAEXPAUPushTile@@AAU2@@Z PROC ; std::allocator<PushTile>::construct<PushTile,PushTile &>, COMDAT
; _this$ = ecx

; 636  : 		{	// construct _Objty(_Types...) at _Ptr

	push	ebp
	mov	ebp, esp
	sub	esp, 220				; 000000dcH
	push	ebx
	push	esi
	push	edi
	push	ecx
	lea	edi, DWORD PTR [ebp-220]
	mov	ecx, 55					; 00000037H
	mov	eax, -858993460				; ccccccccH
	rep stosd
	pop	ecx
	mov	DWORD PTR _this$[ebp], ecx

; 637  : 		::new ((void *)_Ptr) _Objty(_STD forward<_Types>(_Args)...);

	mov	eax, DWORD PTR __Ptr$[ebp]
	push	eax
	push	48					; 00000030H
	call	??2@YAPAXIPAX@Z				; operator new
	add	esp, 8
	mov	DWORD PTR $T1[ebp], eax
	cmp	DWORD PTR $T1[ebp], 0
	je	SHORT $LN3@construct
	mov	ecx, DWORD PTR _<_Args_0>$[ebp]
	push	ecx
	call	??$forward@AAUPushTile@@@std@@YAAAUPushTile@@AAU1@@Z ; std::forward<PushTile &>
	add	esp, 4
	mov	ecx, 12					; 0000000cH
	mov	esi, eax
	mov	edi, DWORD PTR $T1[ebp]
	rep movsd
	mov	edx, DWORD PTR $T1[ebp]
	mov	DWORD PTR tv74[ebp], edx
	jmp	SHORT $LN1@construct
$LN3@construct:
	mov	DWORD PTR tv74[ebp], 0
$LN1@construct:

; 638  : 		}

	pop	edi
	pop	esi
	pop	ebx
	add	esp, 220				; 000000dcH
	cmp	ebp, esp
	call	__RTC_CheckEsp
	mov	esp, ebp
	pop	ebp
	ret	8
??$construct@UPushTile@@AAU1@@?$allocator@UPushTile@@@std@@QAEXPAUPushTile@@AAU2@@Z ENDP ; std::allocator<PushTile>::construct<PushTile,PushTile &>
_TEXT	ENDS
; Function compile flags: /Odtp /RTCsu /ZI
; File c:\program files (x86)\microsoft visual studio 14.0\vc\include\xmemory0
;	COMDAT ??$construct@UTile@@ABU1@@?$allocator@UTile@@@std@@QAEXPAUTile@@ABU2@@Z
_TEXT	SEGMENT
tv74 = -220						; size = 4
$T1 = -212						; size = 4
_this$ = -8						; size = 4
__Ptr$ = 8						; size = 4
_<_Args_0>$ = 12					; size = 4
??$construct@UTile@@ABU1@@?$allocator@UTile@@@std@@QAEXPAUTile@@ABU2@@Z PROC ; std::allocator<Tile>::construct<Tile,Tile const &>, COMDAT
; _this$ = ecx

; 636  : 		{	// construct _Objty(_Types...) at _Ptr

	push	ebp
	mov	ebp, esp
	sub	esp, 220				; 000000dcH
	push	ebx
	push	esi
	push	edi
	push	ecx
	lea	edi, DWORD PTR [ebp-220]
	mov	ecx, 55					; 00000037H
	mov	eax, -858993460				; ccccccccH
	rep stosd
	pop	ecx
	mov	DWORD PTR _this$[ebp], ecx

; 637  : 		::new ((void *)_Ptr) _Objty(_STD forward<_Types>(_Args)...);

	mov	eax, DWORD PTR __Ptr$[ebp]
	push	eax
	push	32					; 00000020H
	call	??2@YAPAXIPAX@Z				; operator new
	add	esp, 8
	mov	DWORD PTR $T1[ebp], eax
	cmp	DWORD PTR $T1[ebp], 0
	je	SHORT $LN3@construct
	mov	ecx, DWORD PTR _<_Args_0>$[ebp]
	push	ecx
	call	??$forward@ABUTile@@@std@@YAABUTile@@ABU1@@Z ; std::forward<Tile const &>
	add	esp, 4
	mov	ecx, 8
	mov	esi, eax
	mov	edi, DWORD PTR $T1[ebp]
	rep movsd
	mov	edx, DWORD PTR $T1[ebp]
	mov	DWORD PTR tv74[ebp], edx
	jmp	SHORT $LN1@construct
$LN3@construct:
	mov	DWORD PTR tv74[ebp], 0
$LN1@construct:

; 638  : 		}

	pop	edi
	pop	esi
	pop	ebx
	add	esp, 220				; 000000dcH
	cmp	ebp, esp
	call	__RTC_CheckEsp
	mov	esp, ebp
	pop	ebp
	ret	8
??$construct@UTile@@ABU1@@?$allocator@UTile@@@std@@QAEXPAUTile@@ABU2@@Z ENDP ; std::allocator<Tile>::construct<Tile,Tile const &>
_TEXT	ENDS
; Function compile flags: /Odtp /RTCsu /ZI
; File c:\program files (x86)\microsoft visual studio 14.0\vc\include\xmemory0
;	COMDAT ??$construct@UTile@@AAU1@@?$allocator@UTile@@@std@@QAEXPAUTile@@AAU2@@Z
_TEXT	SEGMENT
tv74 = -220						; size = 4
$T1 = -212						; size = 4
_this$ = -8						; size = 4
__Ptr$ = 8						; size = 4
_<_Args_0>$ = 12					; size = 4
??$construct@UTile@@AAU1@@?$allocator@UTile@@@std@@QAEXPAUTile@@AAU2@@Z PROC ; std::allocator<Tile>::construct<Tile,Tile &>, COMDAT
; _this$ = ecx

; 636  : 		{	// construct _Objty(_Types...) at _Ptr

	push	ebp
	mov	ebp, esp
	sub	esp, 220				; 000000dcH
	push	ebx
	push	esi
	push	edi
	push	ecx
	lea	edi, DWORD PTR [ebp-220]
	mov	ecx, 55					; 00000037H
	mov	eax, -858993460				; ccccccccH
	rep stosd
	pop	ecx
	mov	DWORD PTR _this$[ebp], ecx

; 637  : 		::new ((void *)_Ptr) _Objty(_STD forward<_Types>(_Args)...);

	mov	eax, DWORD PTR __Ptr$[ebp]
	push	eax
	push	32					; 00000020H
	call	??2@YAPAXIPAX@Z				; operator new
	add	esp, 8
	mov	DWORD PTR $T1[ebp], eax
	cmp	DWORD PTR $T1[ebp], 0
	je	SHORT $LN3@construct
	mov	ecx, DWORD PTR _<_Args_0>$[ebp]
	push	ecx
	call	??$forward@AAUTile@@@std@@YAAAUTile@@AAU1@@Z ; std::forward<Tile &>
	add	esp, 4
	mov	ecx, 8
	mov	esi, eax
	mov	edi, DWORD PTR $T1[ebp]
	rep movsd
	mov	edx, DWORD PTR $T1[ebp]
	mov	DWORD PTR tv74[ebp], edx
	jmp	SHORT $LN1@construct
$LN3@construct:
	mov	DWORD PTR tv74[ebp], 0
$LN1@construct:

; 638  : 		}

	pop	edi
	pop	esi
	pop	ebx
	add	esp, 220				; 000000dcH
	cmp	ebp, esp
	call	__RTC_CheckEsp
	mov	esp, ebp
	pop	ebp
	ret	8
??$construct@UTile@@AAU1@@?$allocator@UTile@@@std@@QAEXPAUTile@@AAU2@@Z ENDP ; std::allocator<Tile>::construct<Tile,Tile &>
_TEXT	ENDS
; Function compile flags: /Odtp /RTCsu /ZI
; File c:\program files (x86)\microsoft visual studio 14.0\vc\include\xmemory0
;	COMDAT ??$construct@UMovingTile@@ABU1@@?$allocator@UMovingTile@@@std@@QAEXPAUMovingTile@@ABU2@@Z
_TEXT	SEGMENT
tv74 = -220						; size = 4
$T1 = -212						; size = 4
_this$ = -8						; size = 4
__Ptr$ = 8						; size = 4
_<_Args_0>$ = 12					; size = 4
??$construct@UMovingTile@@ABU1@@?$allocator@UMovingTile@@@std@@QAEXPAUMovingTile@@ABU2@@Z PROC ; std::allocator<MovingTile>::construct<MovingTile,MovingTile const &>, COMDAT
; _this$ = ecx

; 636  : 		{	// construct _Objty(_Types...) at _Ptr

	push	ebp
	mov	ebp, esp
	sub	esp, 220				; 000000dcH
	push	ebx
	push	esi
	push	edi
	push	ecx
	lea	edi, DWORD PTR [ebp-220]
	mov	ecx, 55					; 00000037H
	mov	eax, -858993460				; ccccccccH
	rep stosd
	pop	ecx
	mov	DWORD PTR _this$[ebp], ecx

; 637  : 		::new ((void *)_Ptr) _Objty(_STD forward<_Types>(_Args)...);

	mov	eax, DWORD PTR __Ptr$[ebp]
	push	eax
	push	48					; 00000030H
	call	??2@YAPAXIPAX@Z				; operator new
	add	esp, 8
	mov	DWORD PTR $T1[ebp], eax
	cmp	DWORD PTR $T1[ebp], 0
	je	SHORT $LN3@construct
	mov	ecx, DWORD PTR _<_Args_0>$[ebp]
	push	ecx
	call	??$forward@ABUMovingTile@@@std@@YAABUMovingTile@@ABU1@@Z ; std::forward<MovingTile const &>
	add	esp, 4
	mov	ecx, 12					; 0000000cH
	mov	esi, eax
	mov	edi, DWORD PTR $T1[ebp]
	rep movsd
	mov	edx, DWORD PTR $T1[ebp]
	mov	DWORD PTR tv74[ebp], edx
	jmp	SHORT $LN1@construct
$LN3@construct:
	mov	DWORD PTR tv74[ebp], 0
$LN1@construct:

; 638  : 		}

	pop	edi
	pop	esi
	pop	ebx
	add	esp, 220				; 000000dcH
	cmp	ebp, esp
	call	__RTC_CheckEsp
	mov	esp, ebp
	pop	ebp
	ret	8
??$construct@UMovingTile@@ABU1@@?$allocator@UMovingTile@@@std@@QAEXPAUMovingTile@@ABU2@@Z ENDP ; std::allocator<MovingTile>::construct<MovingTile,MovingTile const &>
_TEXT	ENDS
; Function compile flags: /Odtp /RTCsu /ZI
; File c:\program files (x86)\microsoft visual studio 14.0\vc\include\xmemory0
;	COMDAT ??$construct@UMovingTile@@AAU1@@?$allocator@UMovingTile@@@std@@QAEXPAUMovingTile@@AAU2@@Z
_TEXT	SEGMENT
tv74 = -220						; size = 4
$T1 = -212						; size = 4
_this$ = -8						; size = 4
__Ptr$ = 8						; size = 4
_<_Args_0>$ = 12					; size = 4
??$construct@UMovingTile@@AAU1@@?$allocator@UMovingTile@@@std@@QAEXPAUMovingTile@@AAU2@@Z PROC ; std::allocator<MovingTile>::construct<MovingTile,MovingTile &>, COMDAT
; _this$ = ecx

; 636  : 		{	// construct _Objty(_Types...) at _Ptr

	push	ebp
	mov	ebp, esp
	sub	esp, 220				; 000000dcH
	push	ebx
	push	esi
	push	edi
	push	ecx
	lea	edi, DWORD PTR [ebp-220]
	mov	ecx, 55					; 00000037H
	mov	eax, -858993460				; ccccccccH
	rep stosd
	pop	ecx
	mov	DWORD PTR _this$[ebp], ecx

; 637  : 		::new ((void *)_Ptr) _Objty(_STD forward<_Types>(_Args)...);

	mov	eax, DWORD PTR __Ptr$[ebp]
	push	eax
	push	48					; 00000030H
	call	??2@YAPAXIPAX@Z				; operator new
	add	esp, 8
	mov	DWORD PTR $T1[ebp], eax
	cmp	DWORD PTR $T1[ebp], 0
	je	SHORT $LN3@construct
	mov	ecx, DWORD PTR _<_Args_0>$[ebp]
	push	ecx
	call	??$forward@AAUMovingTile@@@std@@YAAAUMovingTile@@AAU1@@Z ; std::forward<MovingTile &>
	add	esp, 4
	mov	ecx, 12					; 0000000cH
	mov	esi, eax
	mov	edi, DWORD PTR $T1[ebp]
	rep movsd
	mov	edx, DWORD PTR $T1[ebp]
	mov	DWORD PTR tv74[ebp], edx
	jmp	SHORT $LN1@construct
$LN3@construct:
	mov	DWORD PTR tv74[ebp], 0
$LN1@construct:

; 638  : 		}

	pop	edi
	pop	esi
	pop	ebx
	add	esp, 220				; 000000dcH
	cmp	ebp, esp
	call	__RTC_CheckEsp
	mov	esp, ebp
	pop	ebp
	ret	8
??$construct@UMovingTile@@AAU1@@?$allocator@UMovingTile@@@std@@QAEXPAUMovingTile@@AAU2@@Z ENDP ; std::allocator<MovingTile>::construct<MovingTile,MovingTile &>
_TEXT	ENDS
; Function compile flags: /Odtp /RTCsu /ZI
; File c:\program files (x86)\microsoft visual studio 14.0\vc\include\xmemory0
;	COMDAT ??$destroy@UPushTile@@@?$_Wrap_alloc@V?$allocator@UPushTile@@@std@@@std@@QAEXPAUPushTile@@@Z
_TEXT	SEGMENT
_this$ = -8						; size = 4
__Ptr$ = 8						; size = 4
??$destroy@UPushTile@@@?$_Wrap_alloc@V?$allocator@UPushTile@@@std@@@std@@QAEXPAUPushTile@@@Z PROC ; std::_Wrap_alloc<std::allocator<PushTile> >::destroy<PushTile>, COMDAT
; _this$ = ecx

; 900  : 		{	// destroy object at _Ptr

	push	ebp
	mov	ebp, esp
	sub	esp, 204				; 000000ccH
	push	ebx
	push	esi
	push	edi
	push	ecx
	lea	edi, DWORD PTR [ebp-204]
	mov	ecx, 51					; 00000033H
	mov	eax, -858993460				; ccccccccH
	rep stosd
	pop	ecx
	mov	DWORD PTR _this$[ebp], ecx

; 901  : 		_Mytraits::destroy(*this, _Ptr);

	mov	eax, DWORD PTR __Ptr$[ebp]
	push	eax
	mov	ecx, DWORD PTR _this$[ebp]
	push	ecx
	call	??$destroy@UPushTile@@@?$allocator_traits@V?$allocator@UPushTile@@@std@@@std@@SAXAAV?$allocator@UPushTile@@@1@PAUPushTile@@@Z ; std::allocator_traits<std::allocator<PushTile> >::destroy<PushTile>
	add	esp, 8

; 902  : 		}

	pop	edi
	pop	esi
	pop	ebx
	add	esp, 204				; 000000ccH
	cmp	ebp, esp
	call	__RTC_CheckEsp
	mov	esp, ebp
	pop	ebp
	ret	4
??$destroy@UPushTile@@@?$_Wrap_alloc@V?$allocator@UPushTile@@@std@@@std@@QAEXPAUPushTile@@@Z ENDP ; std::_Wrap_alloc<std::allocator<PushTile> >::destroy<PushTile>
_TEXT	ENDS
; Function compile flags: /Odtp /RTCsu /ZI
; File c:\program files (x86)\microsoft visual studio 14.0\vc\include\xstddef
;	COMDAT ??$addressof@UPushTile@@@std@@YAPAUPushTile@@AAU1@@Z
_TEXT	SEGMENT
$T1 = -209						; size = 1
__Val$ = 8						; size = 4
??$addressof@UPushTile@@@std@@YAPAUPushTile@@AAU1@@Z PROC ; std::addressof<PushTile>, COMDAT

; 715  : 	{	// return address of _Val

	push	ebp
	mov	ebp, esp
	sub	esp, 216				; 000000d8H
	push	ebx
	push	esi
	push	edi
	lea	edi, DWORD PTR [ebp-216]
	mov	ecx, 54					; 00000036H
	mov	eax, -858993460				; ccccccccH
	rep stosd

; 716  : 	return (_Addressof(_Val, is_function<_Ty>()));

	movzx	eax, BYTE PTR $T1[ebp]
	push	eax
	mov	ecx, DWORD PTR __Val$[ebp]
	push	ecx
	call	??$_Addressof@UPushTile@@@std@@YAPAUPushTile@@AAU1@U?$integral_constant@_N$0A@@0@@Z ; std::_Addressof<PushTile>
	add	esp, 8

; 717  : 	}

	pop	edi
	pop	esi
	pop	ebx
	add	esp, 216				; 000000d8H
	cmp	ebp, esp
	call	__RTC_CheckEsp
	mov	esp, ebp
	pop	ebp
	ret	0
??$addressof@UPushTile@@@std@@YAPAUPushTile@@AAU1@@Z ENDP ; std::addressof<PushTile>
_TEXT	ENDS
; Function compile flags: /Odtp /RTCsu /ZI
; File c:\program files (x86)\microsoft visual studio 14.0\vc\include\xmemory
;	COMDAT ??$_Uninitialized_move@PAUPushTile@@PAU1@U?$_Wrap_alloc@V?$allocator@UPushTile@@@std@@@std@@@std@@YAPAUPushTile@@PAU1@00AAU?$_Wrap_alloc@V?$allocator@UPushTile@@@std@@@0@@Z
_TEXT	SEGMENT
__First$ = 8						; size = 4
__Last$ = 12						; size = 4
__Dest$ = 16						; size = 4
__Al$ = 20						; size = 4
??$_Uninitialized_move@PAUPushTile@@PAU1@U?$_Wrap_alloc@V?$allocator@UPushTile@@@std@@@std@@@std@@YAPAUPushTile@@PAU1@00AAU?$_Wrap_alloc@V?$allocator@UPushTile@@@std@@@0@@Z PROC ; std::_Uninitialized_move<PushTile *,PushTile *,std::_Wrap_alloc<std::allocator<PushTile> > >, COMDAT

; 355  : 	{	// move [_First, _Last) to raw _Dest, using _Al

	push	ebp
	mov	ebp, esp
	sub	esp, 192				; 000000c0H
	push	ebx
	push	esi
	push	edi
	lea	edi, DWORD PTR [ebp-192]
	mov	ecx, 48					; 00000030H
	mov	eax, -858993460				; ccccccccH
	rep stosd

; 356  : 		// note: only called internally from elsewhere in the STL, debug checks
; 357  : 		// and deprecation warnings omitted
; 358  : 	return (_Rechecked(_Dest,

	mov	eax, DWORD PTR __Al$[ebp]
	push	eax
	mov	ecx, DWORD PTR __Dest$[ebp]
	push	ecx
	call	??$_Unchecked@PAUPushTile@@@std@@YAPAUPushTile@@PAU1@@Z ; std::_Unchecked<PushTile *>
	add	esp, 4
	push	eax
	mov	edx, DWORD PTR __Last$[ebp]
	push	edx
	call	??$_Unchecked@PAUPushTile@@@std@@YAPAUPushTile@@PAU1@@Z ; std::_Unchecked<PushTile *>
	add	esp, 4
	push	eax
	mov	eax, DWORD PTR __First$[ebp]
	push	eax
	call	??$_Unchecked@PAUPushTile@@@std@@YAPAUPushTile@@PAU1@@Z ; std::_Unchecked<PushTile *>
	add	esp, 4
	push	eax
	call	??$_Uninitialized_move_al_unchecked@PAUPushTile@@PAU1@U?$_Wrap_alloc@V?$allocator@UPushTile@@@std@@@std@@@std@@YAPAUPushTile@@PAU1@00AAU?$_Wrap_alloc@V?$allocator@UPushTile@@@std@@@0@@Z ; std::_Uninitialized_move_al_unchecked<PushTile *,PushTile *,std::_Wrap_alloc<std::allocator<PushTile> > >
	add	esp, 16					; 00000010H
	push	eax
	lea	ecx, DWORD PTR __Dest$[ebp]
	push	ecx
	call	??$_Rechecked@PAUPushTile@@PAU1@@std@@YAAAPAUPushTile@@AAPAU1@PAU1@@Z ; std::_Rechecked<PushTile *,PushTile *>
	add	esp, 8
	mov	eax, DWORD PTR [eax]

; 359  : 		_Uninitialized_move_al_unchecked(_Unchecked(_First), _Unchecked(_Last),
; 360  : 			_Unchecked(_Dest), _Al)));
; 361  : 	}

	pop	edi
	pop	esi
	pop	ebx
	add	esp, 192				; 000000c0H
	cmp	ebp, esp
	call	__RTC_CheckEsp
	mov	esp, ebp
	pop	ebp
	ret	0
??$_Uninitialized_move@PAUPushTile@@PAU1@U?$_Wrap_alloc@V?$allocator@UPushTile@@@std@@@std@@@std@@YAPAUPushTile@@PAU1@00AAU?$_Wrap_alloc@V?$allocator@UPushTile@@@std@@@0@@Z ENDP ; std::_Uninitialized_move<PushTile *,PushTile *,std::_Wrap_alloc<std::allocator<PushTile> > >
_TEXT	ENDS
; Function compile flags: /Odtp /RTCsu /ZI
; File c:\program files (x86)\microsoft visual studio 14.0\vc\include\xmemory0
;	COMDAT ??$?0UPushTile@@@?$allocator@U_Container_proxy@std@@@std@@QAE@ABV?$allocator@UPushTile@@@1@@Z
_TEXT	SEGMENT
_this$ = -8						; size = 4
___formal$ = 8						; size = 4
??$?0UPushTile@@@?$allocator@U_Container_proxy@std@@@std@@QAE@ABV?$allocator@UPushTile@@@1@@Z PROC ; std::allocator<std::_Container_proxy>::allocator<std::_Container_proxy><PushTile>, COMDAT
; _this$ = ecx

; 609  : 		{	// construct from a related allocator (do nothing)

	push	ebp
	mov	ebp, esp
	sub	esp, 204				; 000000ccH
	push	ebx
	push	esi
	push	edi
	push	ecx
	lea	edi, DWORD PTR [ebp-204]
	mov	ecx, 51					; 00000033H
	mov	eax, -858993460				; ccccccccH
	rep stosd
	pop	ecx
	mov	DWORD PTR _this$[ebp], ecx

; 610  : 		}

	mov	eax, DWORD PTR _this$[ebp]
	pop	edi
	pop	esi
	pop	ebx
	mov	esp, ebp
	pop	ebp
	ret	4
??$?0UPushTile@@@?$allocator@U_Container_proxy@std@@@std@@QAE@ABV?$allocator@UPushTile@@@1@@Z ENDP ; std::allocator<std::_Container_proxy>::allocator<std::_Container_proxy><PushTile>
_TEXT	ENDS
; Function compile flags: /Odtp /RTCsu /ZI
; File c:\program files (x86)\microsoft visual studio 14.0\vc\include\type_traits
;	COMDAT ??$forward@AAU?$_Wrap_alloc@V?$allocator@UPushTile@@@std@@@std@@@std@@YAAAU?$_Wrap_alloc@V?$allocator@UPushTile@@@std@@@0@AAU10@@Z
_TEXT	SEGMENT
__Arg$ = 8						; size = 4
??$forward@AAU?$_Wrap_alloc@V?$allocator@UPushTile@@@std@@@std@@@std@@YAAAU?$_Wrap_alloc@V?$allocator@UPushTile@@@std@@@0@AAU10@@Z PROC ; std::forward<std::_Wrap_alloc<std::allocator<PushTile> > &>, COMDAT

; 1298 : 	{	// forward an lvalue as either an lvalue or an rvalue

	push	ebp
	mov	ebp, esp
	sub	esp, 192				; 000000c0H
	push	ebx
	push	esi
	push	edi
	lea	edi, DWORD PTR [ebp-192]
	mov	ecx, 48					; 00000030H
	mov	eax, -858993460				; ccccccccH
	rep stosd

; 1299 : 	return (static_cast<_Ty&&>(_Arg));

	mov	eax, DWORD PTR __Arg$[ebp]

; 1300 : 	}

	pop	edi
	pop	esi
	pop	ebx
	mov	esp, ebp
	pop	ebp
	ret	0
??$forward@AAU?$_Wrap_alloc@V?$allocator@UPushTile@@@std@@@std@@@std@@YAAAU?$_Wrap_alloc@V?$allocator@UPushTile@@@std@@@0@AAU10@@Z ENDP ; std::forward<std::_Wrap_alloc<std::allocator<PushTile> > &>
_TEXT	ENDS
; Function compile flags: /Odtp /RTCsu /ZI
; File c:\program files (x86)\microsoft visual studio 14.0\vc\include\xmemory0
;	COMDAT ??$destroy@UTile@@@?$_Wrap_alloc@V?$allocator@UTile@@@std@@@std@@QAEXPAUTile@@@Z
_TEXT	SEGMENT
_this$ = -8						; size = 4
__Ptr$ = 8						; size = 4
??$destroy@UTile@@@?$_Wrap_alloc@V?$allocator@UTile@@@std@@@std@@QAEXPAUTile@@@Z PROC ; std::_Wrap_alloc<std::allocator<Tile> >::destroy<Tile>, COMDAT
; _this$ = ecx

; 900  : 		{	// destroy object at _Ptr

	push	ebp
	mov	ebp, esp
	sub	esp, 204				; 000000ccH
	push	ebx
	push	esi
	push	edi
	push	ecx
	lea	edi, DWORD PTR [ebp-204]
	mov	ecx, 51					; 00000033H
	mov	eax, -858993460				; ccccccccH
	rep stosd
	pop	ecx
	mov	DWORD PTR _this$[ebp], ecx

; 901  : 		_Mytraits::destroy(*this, _Ptr);

	mov	eax, DWORD PTR __Ptr$[ebp]
	push	eax
	mov	ecx, DWORD PTR _this$[ebp]
	push	ecx
	call	??$destroy@UTile@@@?$allocator_traits@V?$allocator@UTile@@@std@@@std@@SAXAAV?$allocator@UTile@@@1@PAUTile@@@Z ; std::allocator_traits<std::allocator<Tile> >::destroy<Tile>
	add	esp, 8

; 902  : 		}

	pop	edi
	pop	esi
	pop	ebx
	add	esp, 204				; 000000ccH
	cmp	ebp, esp
	call	__RTC_CheckEsp
	mov	esp, ebp
	pop	ebp
	ret	4
??$destroy@UTile@@@?$_Wrap_alloc@V?$allocator@UTile@@@std@@@std@@QAEXPAUTile@@@Z ENDP ; std::_Wrap_alloc<std::allocator<Tile> >::destroy<Tile>
_TEXT	ENDS
; Function compile flags: /Odtp /RTCsu /ZI
; File c:\program files (x86)\microsoft visual studio 14.0\vc\include\xstddef
;	COMDAT ??$addressof@UTile@@@std@@YAPAUTile@@AAU1@@Z
_TEXT	SEGMENT
$T1 = -209						; size = 1
__Val$ = 8						; size = 4
??$addressof@UTile@@@std@@YAPAUTile@@AAU1@@Z PROC	; std::addressof<Tile>, COMDAT

; 715  : 	{	// return address of _Val

	push	ebp
	mov	ebp, esp
	sub	esp, 216				; 000000d8H
	push	ebx
	push	esi
	push	edi
	lea	edi, DWORD PTR [ebp-216]
	mov	ecx, 54					; 00000036H
	mov	eax, -858993460				; ccccccccH
	rep stosd

; 716  : 	return (_Addressof(_Val, is_function<_Ty>()));

	movzx	eax, BYTE PTR $T1[ebp]
	push	eax
	mov	ecx, DWORD PTR __Val$[ebp]
	push	ecx
	call	??$_Addressof@UTile@@@std@@YAPAUTile@@AAU1@U?$integral_constant@_N$0A@@0@@Z ; std::_Addressof<Tile>
	add	esp, 8

; 717  : 	}

	pop	edi
	pop	esi
	pop	ebx
	add	esp, 216				; 000000d8H
	cmp	ebp, esp
	call	__RTC_CheckEsp
	mov	esp, ebp
	pop	ebp
	ret	0
??$addressof@UTile@@@std@@YAPAUTile@@AAU1@@Z ENDP	; std::addressof<Tile>
_TEXT	ENDS
; Function compile flags: /Odtp /RTCsu /ZI
; File c:\program files (x86)\microsoft visual studio 14.0\vc\include\xmemory
;	COMDAT ??$_Uninitialized_move@PAUTile@@PAU1@U?$_Wrap_alloc@V?$allocator@UTile@@@std@@@std@@@std@@YAPAUTile@@PAU1@00AAU?$_Wrap_alloc@V?$allocator@UTile@@@std@@@0@@Z
_TEXT	SEGMENT
__First$ = 8						; size = 4
__Last$ = 12						; size = 4
__Dest$ = 16						; size = 4
__Al$ = 20						; size = 4
??$_Uninitialized_move@PAUTile@@PAU1@U?$_Wrap_alloc@V?$allocator@UTile@@@std@@@std@@@std@@YAPAUTile@@PAU1@00AAU?$_Wrap_alloc@V?$allocator@UTile@@@std@@@0@@Z PROC ; std::_Uninitialized_move<Tile *,Tile *,std::_Wrap_alloc<std::allocator<Tile> > >, COMDAT

; 355  : 	{	// move [_First, _Last) to raw _Dest, using _Al

	push	ebp
	mov	ebp, esp
	sub	esp, 192				; 000000c0H
	push	ebx
	push	esi
	push	edi
	lea	edi, DWORD PTR [ebp-192]
	mov	ecx, 48					; 00000030H
	mov	eax, -858993460				; ccccccccH
	rep stosd

; 356  : 		// note: only called internally from elsewhere in the STL, debug checks
; 357  : 		// and deprecation warnings omitted
; 358  : 	return (_Rechecked(_Dest,

	mov	eax, DWORD PTR __Al$[ebp]
	push	eax
	mov	ecx, DWORD PTR __Dest$[ebp]
	push	ecx
	call	??$_Unchecked@PAUTile@@@std@@YAPAUTile@@PAU1@@Z ; std::_Unchecked<Tile *>
	add	esp, 4
	push	eax
	mov	edx, DWORD PTR __Last$[ebp]
	push	edx
	call	??$_Unchecked@PAUTile@@@std@@YAPAUTile@@PAU1@@Z ; std::_Unchecked<Tile *>
	add	esp, 4
	push	eax
	mov	eax, DWORD PTR __First$[ebp]
	push	eax
	call	??$_Unchecked@PAUTile@@@std@@YAPAUTile@@PAU1@@Z ; std::_Unchecked<Tile *>
	add	esp, 4
	push	eax
	call	??$_Uninitialized_move_al_unchecked@PAUTile@@PAU1@U?$_Wrap_alloc@V?$allocator@UTile@@@std@@@std@@@std@@YAPAUTile@@PAU1@00AAU?$_Wrap_alloc@V?$allocator@UTile@@@std@@@0@@Z ; std::_Uninitialized_move_al_unchecked<Tile *,Tile *,std::_Wrap_alloc<std::allocator<Tile> > >
	add	esp, 16					; 00000010H
	push	eax
	lea	ecx, DWORD PTR __Dest$[ebp]
	push	ecx
	call	??$_Rechecked@PAUTile@@PAU1@@std@@YAAAPAUTile@@AAPAU1@PAU1@@Z ; std::_Rechecked<Tile *,Tile *>
	add	esp, 8
	mov	eax, DWORD PTR [eax]

; 359  : 		_Uninitialized_move_al_unchecked(_Unchecked(_First), _Unchecked(_Last),
; 360  : 			_Unchecked(_Dest), _Al)));
; 361  : 	}

	pop	edi
	pop	esi
	pop	ebx
	add	esp, 192				; 000000c0H
	cmp	ebp, esp
	call	__RTC_CheckEsp
	mov	esp, ebp
	pop	ebp
	ret	0
??$_Uninitialized_move@PAUTile@@PAU1@U?$_Wrap_alloc@V?$allocator@UTile@@@std@@@std@@@std@@YAPAUTile@@PAU1@00AAU?$_Wrap_alloc@V?$allocator@UTile@@@std@@@0@@Z ENDP ; std::_Uninitialized_move<Tile *,Tile *,std::_Wrap_alloc<std::allocator<Tile> > >
_TEXT	ENDS
; Function compile flags: /Odtp /RTCsu /ZI
; File c:\program files (x86)\microsoft visual studio 14.0\vc\include\xmemory0
;	COMDAT ??$destroy@UMovingTile@@@?$_Wrap_alloc@V?$allocator@UMovingTile@@@std@@@std@@QAEXPAUMovingTile@@@Z
_TEXT	SEGMENT
_this$ = -8						; size = 4
__Ptr$ = 8						; size = 4
??$destroy@UMovingTile@@@?$_Wrap_alloc@V?$allocator@UMovingTile@@@std@@@std@@QAEXPAUMovingTile@@@Z PROC ; std::_Wrap_alloc<std::allocator<MovingTile> >::destroy<MovingTile>, COMDAT
; _this$ = ecx

; 900  : 		{	// destroy object at _Ptr

	push	ebp
	mov	ebp, esp
	sub	esp, 204				; 000000ccH
	push	ebx
	push	esi
	push	edi
	push	ecx
	lea	edi, DWORD PTR [ebp-204]
	mov	ecx, 51					; 00000033H
	mov	eax, -858993460				; ccccccccH
	rep stosd
	pop	ecx
	mov	DWORD PTR _this$[ebp], ecx

; 901  : 		_Mytraits::destroy(*this, _Ptr);

	mov	eax, DWORD PTR __Ptr$[ebp]
	push	eax
	mov	ecx, DWORD PTR _this$[ebp]
	push	ecx
	call	??$destroy@UMovingTile@@@?$allocator_traits@V?$allocator@UMovingTile@@@std@@@std@@SAXAAV?$allocator@UMovingTile@@@1@PAUMovingTile@@@Z ; std::allocator_traits<std::allocator<MovingTile> >::destroy<MovingTile>
	add	esp, 8

; 902  : 		}

	pop	edi
	pop	esi
	pop	ebx
	add	esp, 204				; 000000ccH
	cmp	ebp, esp
	call	__RTC_CheckEsp
	mov	esp, ebp
	pop	ebp
	ret	4
??$destroy@UMovingTile@@@?$_Wrap_alloc@V?$allocator@UMovingTile@@@std@@@std@@QAEXPAUMovingTile@@@Z ENDP ; std::_Wrap_alloc<std::allocator<MovingTile> >::destroy<MovingTile>
_TEXT	ENDS
; Function compile flags: /Odtp /RTCsu /ZI
; File c:\program files (x86)\microsoft visual studio 14.0\vc\include\xstddef
;	COMDAT ??$addressof@UMovingTile@@@std@@YAPAUMovingTile@@AAU1@@Z
_TEXT	SEGMENT
$T1 = -209						; size = 1
__Val$ = 8						; size = 4
??$addressof@UMovingTile@@@std@@YAPAUMovingTile@@AAU1@@Z PROC ; std::addressof<MovingTile>, COMDAT

; 715  : 	{	// return address of _Val

	push	ebp
	mov	ebp, esp
	sub	esp, 216				; 000000d8H
	push	ebx
	push	esi
	push	edi
	lea	edi, DWORD PTR [ebp-216]
	mov	ecx, 54					; 00000036H
	mov	eax, -858993460				; ccccccccH
	rep stosd

; 716  : 	return (_Addressof(_Val, is_function<_Ty>()));

	movzx	eax, BYTE PTR $T1[ebp]
	push	eax
	mov	ecx, DWORD PTR __Val$[ebp]
	push	ecx
	call	??$_Addressof@UMovingTile@@@std@@YAPAUMovingTile@@AAU1@U?$integral_constant@_N$0A@@0@@Z ; std::_Addressof<MovingTile>
	add	esp, 8

; 717  : 	}

	pop	edi
	pop	esi
	pop	ebx
	add	esp, 216				; 000000d8H
	cmp	ebp, esp
	call	__RTC_CheckEsp
	mov	esp, ebp
	pop	ebp
	ret	0
??$addressof@UMovingTile@@@std@@YAPAUMovingTile@@AAU1@@Z ENDP ; std::addressof<MovingTile>
_TEXT	ENDS
; Function compile flags: /Odtp /RTCsu /ZI
; File c:\program files (x86)\microsoft visual studio 14.0\vc\include\xmemory
;	COMDAT ??$_Uninitialized_move@PAUMovingTile@@PAU1@U?$_Wrap_alloc@V?$allocator@UMovingTile@@@std@@@std@@@std@@YAPAUMovingTile@@PAU1@00AAU?$_Wrap_alloc@V?$allocator@UMovingTile@@@std@@@0@@Z
_TEXT	SEGMENT
__First$ = 8						; size = 4
__Last$ = 12						; size = 4
__Dest$ = 16						; size = 4
__Al$ = 20						; size = 4
??$_Uninitialized_move@PAUMovingTile@@PAU1@U?$_Wrap_alloc@V?$allocator@UMovingTile@@@std@@@std@@@std@@YAPAUMovingTile@@PAU1@00AAU?$_Wrap_alloc@V?$allocator@UMovingTile@@@std@@@0@@Z PROC ; std::_Uninitialized_move<MovingTile *,MovingTile *,std::_Wrap_alloc<std::allocator<MovingTile> > >, COMDAT

; 355  : 	{	// move [_First, _Last) to raw _Dest, using _Al

	push	ebp
	mov	ebp, esp
	sub	esp, 192				; 000000c0H
	push	ebx
	push	esi
	push	edi
	lea	edi, DWORD PTR [ebp-192]
	mov	ecx, 48					; 00000030H
	mov	eax, -858993460				; ccccccccH
	rep stosd

; 356  : 		// note: only called internally from elsewhere in the STL, debug checks
; 357  : 		// and deprecation warnings omitted
; 358  : 	return (_Rechecked(_Dest,

	mov	eax, DWORD PTR __Al$[ebp]
	push	eax
	mov	ecx, DWORD PTR __Dest$[ebp]
	push	ecx
	call	??$_Unchecked@PAUMovingTile@@@std@@YAPAUMovingTile@@PAU1@@Z ; std::_Unchecked<MovingTile *>
	add	esp, 4
	push	eax
	mov	edx, DWORD PTR __Last$[ebp]
	push	edx
	call	??$_Unchecked@PAUMovingTile@@@std@@YAPAUMovingTile@@PAU1@@Z ; std::_Unchecked<MovingTile *>
	add	esp, 4
	push	eax
	mov	eax, DWORD PTR __First$[ebp]
	push	eax
	call	??$_Unchecked@PAUMovingTile@@@std@@YAPAUMovingTile@@PAU1@@Z ; std::_Unchecked<MovingTile *>
	add	esp, 4
	push	eax
	call	??$_Uninitialized_move_al_unchecked@PAUMovingTile@@PAU1@U?$_Wrap_alloc@V?$allocator@UMovingTile@@@std@@@std@@@std@@YAPAUMovingTile@@PAU1@00AAU?$_Wrap_alloc@V?$allocator@UMovingTile@@@std@@@0@@Z ; std::_Uninitialized_move_al_unchecked<MovingTile *,MovingTile *,std::_Wrap_alloc<std::allocator<MovingTile> > >
	add	esp, 16					; 00000010H
	push	eax
	lea	ecx, DWORD PTR __Dest$[ebp]
	push	ecx
	call	??$_Rechecked@PAUMovingTile@@PAU1@@std@@YAAAPAUMovingTile@@AAPAU1@PAU1@@Z ; std::_Rechecked<MovingTile *,MovingTile *>
	add	esp, 8
	mov	eax, DWORD PTR [eax]

; 359  : 		_Uninitialized_move_al_unchecked(_Unchecked(_First), _Unchecked(_Last),
; 360  : 			_Unchecked(_Dest), _Al)));
; 361  : 	}

	pop	edi
	pop	esi
	pop	ebx
	add	esp, 192				; 000000c0H
	cmp	ebp, esp
	call	__RTC_CheckEsp
	mov	esp, ebp
	pop	ebp
	ret	0
??$_Uninitialized_move@PAUMovingTile@@PAU1@U?$_Wrap_alloc@V?$allocator@UMovingTile@@@std@@@std@@@std@@YAPAUMovingTile@@PAU1@00AAU?$_Wrap_alloc@V?$allocator@UMovingTile@@@std@@@0@@Z ENDP ; std::_Uninitialized_move<MovingTile *,MovingTile *,std::_Wrap_alloc<std::allocator<MovingTile> > >
_TEXT	ENDS
; Function compile flags: /Odtp /RTCsu /ZI
; File c:\program files (x86)\microsoft visual studio 14.0\vc\include\xmemory0
;	COMDAT ??$?0UTile@@@?$allocator@U_Container_proxy@std@@@std@@QAE@ABV?$allocator@UTile@@@1@@Z
_TEXT	SEGMENT
_this$ = -8						; size = 4
___formal$ = 8						; size = 4
??$?0UTile@@@?$allocator@U_Container_proxy@std@@@std@@QAE@ABV?$allocator@UTile@@@1@@Z PROC ; std::allocator<std::_Container_proxy>::allocator<std::_Container_proxy><Tile>, COMDAT
; _this$ = ecx

; 609  : 		{	// construct from a related allocator (do nothing)

	push	ebp
	mov	ebp, esp
	sub	esp, 204				; 000000ccH
	push	ebx
	push	esi
	push	edi
	push	ecx
	lea	edi, DWORD PTR [ebp-204]
	mov	ecx, 51					; 00000033H
	mov	eax, -858993460				; ccccccccH
	rep stosd
	pop	ecx
	mov	DWORD PTR _this$[ebp], ecx

; 610  : 		}

	mov	eax, DWORD PTR _this$[ebp]
	pop	edi
	pop	esi
	pop	ebx
	mov	esp, ebp
	pop	ebp
	ret	4
??$?0UTile@@@?$allocator@U_Container_proxy@std@@@std@@QAE@ABV?$allocator@UTile@@@1@@Z ENDP ; std::allocator<std::_Container_proxy>::allocator<std::_Container_proxy><Tile>
_TEXT	ENDS
; Function compile flags: /Odtp /RTCsu /ZI
; File c:\program files (x86)\microsoft visual studio 14.0\vc\include\type_traits
;	COMDAT ??$forward@AAU?$_Wrap_alloc@V?$allocator@UTile@@@std@@@std@@@std@@YAAAU?$_Wrap_alloc@V?$allocator@UTile@@@std@@@0@AAU10@@Z
_TEXT	SEGMENT
__Arg$ = 8						; size = 4
??$forward@AAU?$_Wrap_alloc@V?$allocator@UTile@@@std@@@std@@@std@@YAAAU?$_Wrap_alloc@V?$allocator@UTile@@@std@@@0@AAU10@@Z PROC ; std::forward<std::_Wrap_alloc<std::allocator<Tile> > &>, COMDAT

; 1298 : 	{	// forward an lvalue as either an lvalue or an rvalue

	push	ebp
	mov	ebp, esp
	sub	esp, 192				; 000000c0H
	push	ebx
	push	esi
	push	edi
	lea	edi, DWORD PTR [ebp-192]
	mov	ecx, 48					; 00000030H
	mov	eax, -858993460				; ccccccccH
	rep stosd

; 1299 : 	return (static_cast<_Ty&&>(_Arg));

	mov	eax, DWORD PTR __Arg$[ebp]

; 1300 : 	}

	pop	edi
	pop	esi
	pop	ebx
	mov	esp, ebp
	pop	ebp
	ret	0
??$forward@AAU?$_Wrap_alloc@V?$allocator@UTile@@@std@@@std@@@std@@YAAAU?$_Wrap_alloc@V?$allocator@UTile@@@std@@@0@AAU10@@Z ENDP ; std::forward<std::_Wrap_alloc<std::allocator<Tile> > &>
_TEXT	ENDS
; Function compile flags: /Odtp /RTCsu /ZI
; File c:\program files (x86)\microsoft visual studio 14.0\vc\include\xmemory0
;	COMDAT ??$construct@U_Container_proxy@std@@U12@@?$allocator_traits@V?$allocator@U_Container_proxy@std@@@std@@@std@@SAXAAV?$allocator@U_Container_proxy@std@@@1@PAU_Container_proxy@1@$$QAU31@@Z
_TEXT	SEGMENT
__Al$ = 8						; size = 4
__Ptr$ = 12						; size = 4
_<_Args_0>$ = 16					; size = 4
??$construct@U_Container_proxy@std@@U12@@?$allocator_traits@V?$allocator@U_Container_proxy@std@@@std@@@std@@SAXAAV?$allocator@U_Container_proxy@std@@@1@PAU_Container_proxy@1@$$QAU31@@Z PROC ; std::allocator_traits<std::allocator<std::_Container_proxy> >::construct<std::_Container_proxy,std::_Container_proxy>, COMDAT

; 754  : 		{	// construct _Objty(_Types...) at _Ptr

	push	ebp
	mov	ebp, esp
	sub	esp, 192				; 000000c0H
	push	ebx
	push	esi
	push	edi
	lea	edi, DWORD PTR [ebp-192]
	mov	ecx, 48					; 00000030H
	mov	eax, -858993460				; ccccccccH
	rep stosd

; 755  : 		_Al.construct(_Ptr, _STD forward<_Types>(_Args)...);

	mov	eax, DWORD PTR _<_Args_0>$[ebp]
	push	eax
	call	??$forward@U_Container_proxy@std@@@std@@YA$$QAU_Container_proxy@0@AAU10@@Z ; std::forward<std::_Container_proxy>
	add	esp, 4
	push	eax
	mov	ecx, DWORD PTR __Ptr$[ebp]
	push	ecx
	mov	ecx, DWORD PTR __Al$[ebp]
	call	??$construct@U_Container_proxy@std@@U12@@?$allocator@U_Container_proxy@std@@@std@@QAEXPAU_Container_proxy@1@$$QAU21@@Z ; std::allocator<std::_Container_proxy>::construct<std::_Container_proxy,std::_Container_proxy>

; 756  : 		}

	pop	edi
	pop	esi
	pop	ebx
	add	esp, 192				; 000000c0H
	cmp	ebp, esp
	call	__RTC_CheckEsp
	mov	esp, ebp
	pop	ebp
	ret	0
??$construct@U_Container_proxy@std@@U12@@?$allocator_traits@V?$allocator@U_Container_proxy@std@@@std@@@std@@SAXAAV?$allocator@U_Container_proxy@std@@@1@PAU_Container_proxy@1@$$QAU31@@Z ENDP ; std::allocator_traits<std::allocator<std::_Container_proxy> >::construct<std::_Container_proxy,std::_Container_proxy>
_TEXT	ENDS
; Function compile flags: /Odtp /RTCsu /ZI
; File c:\program files (x86)\microsoft visual studio 14.0\vc\include\type_traits
;	COMDAT ??$forward@U_Container_proxy@std@@@std@@YA$$QAU_Container_proxy@0@AAU10@@Z
_TEXT	SEGMENT
