; Listing generated by Microsoft (R) Optimizing Compiler Version 19.00.23918.0 

	TITLE	G:\Projects\Lotion\Lotion\environment.cpp
	.686P
	.XMM
	include listing.inc
	.model	flat

INCLUDELIB MSVCRTD
INCLUDELIB OLDNAMES

_DATA	SEGMENT
?tileMapGrid@@3PAY0FA@HA DD 00H				; tileMapGrid
	DD	00H
	DD	00H
	DD	00H
	DD	00H
	DD	00H
	DD	00H
	DD	00H
	DD	00H
	DD	00H
	DD	00H
	DD	00H
	DD	00H
	DD	00H
	DD	00H
	DD	00H
	DD	00H
	DD	00H
	DD	00H
	DD	00H
	DD	00H
	DD	00H
	DD	00H
	DD	00H
	DD	00H
	DD	00H
	DD	00H
	DD	00H
	DD	00H
	DD	00H
	DD	00H
	DD	00H
	DD	00H
	DD	00H
	DD	00H
	DD	00H
	DD	00H
	DD	00H
	DD	00H
	DD	00H
	DD	00H
	DD	00H
	DD	00H
	DD	00H
	DD	00H
	DD	00H
	DD	00H
	DD	00H
	DD	00H
	DD	00H
	DD	00H
	DD	00H
	DD	00H
	DD	00H
	DD	00H
	DD	00H
	DD	00H
	DD	00H
	DD	00H
	DD	00H
	DD	00H
	DD	00H
	DD	00H
	DD	00H
	DD	00H
	DD	00H
	DD	00H
	DD	00H
	DD	00H
	DD	00H
	DD	00H
	DD	00H
	DD	00H
	DD	00H
	DD	00H
	DD	00H
	DD	00H
	DD	00H
	DD	00H
	DD	00H
	DD	00H
	DD	00H
	DD	00H
	DD	00H
	DD	00H
	DD	00H
	DD	00H
	DD	00H
	DD	00H
	DD	00H
	DD	00H
	DD	00H
	DD	00H
	DD	00H
	DD	00H
	DD	00H
	DD	00H
	DD	00H
	DD	00H
	DD	00H
	DD	00H
	DD	00H
	DD	00H
	DD	00H
	DD	00H
	DD	00H
	DD	00H
	DD	00H
	DD	00H
	DD	00H
	DD	00H
	DD	00H
	DD	00H
	DD	00H
	DD	00H
	DD	00H
	DD	00H
	DD	00H
	DD	00H
	DD	00H
	DD	00H
	DD	00H
	DD	00H
	DD	00H
	DD	00H
	DD	00H
	DD	00H
	DD	00H
	DD	00H
	DD	00H
	DD	00H
	DD	00H
	DD	00H
	DD	00H
	DD	00H
	DD	00H
	DD	00H
	DD	00H
	DD	00H
	DD	00H
	DD	00H
	DD	00H
	DD	00H
	DD	00H
	DD	00H
	DD	00H
	DD	00H
	DD	00H
	DD	00H
	DD	00H
	DD	00H
	DD	00H
	DD	00H
	DD	00H
	DD	00H
	DD	00H
	DD	00H
	DD	00H
	DD	00H
	DD	00H
	DD	00H
	DD	00H
	DD	00H
	DD	00H
	DD	00H
	DD	00H
	DD	00H
	DD	00H
	DD	00H
	DD	00H
	DD	00H
	DD	00H
	DD	00H
	DD	00H
	DD	00H
	DD	00H
	DD	00H
	DD	00H
	DD	00H
	DD	00H
	DD	00H
	DD	00H
	DD	00H
	DD	00H
	DD	00H
	DD	00H
	DD	00H
	DD	00H
	DD	00H
	DD	00H
	DD	00H
	DD	00H
	DD	00H
	DD	00H
	DD	00H
	DD	00H
	DD	00H
	DD	00H
	DD	00H
	DD	00H
	DD	00H
	DD	00H
	DD	00H
	DD	00H
	DD	00H
	DD	00H
	DD	00H
	DD	00H
	DD	00H
	DD	00H
	DD	00H
	DD	00H
	DD	00H
	DD	00H
	DD	00H
	DD	00H
	DD	00H
	DD	00H
	DD	00H
	DD	00H
	DD	00H
	DD	00H
	DD	00H
	DD	00H
	DD	00H
	DD	00H
	DD	00H
	DD	00H
	DD	00H
	DD	00H
	DD	00H
	DD	00H
	DD	00H
	DD	00H
	DD	00H
	DD	00H
	DD	00H
	DD	00H
	DD	00H
	DD	00H
	DD	00H
	DD	00H
	DD	00H
	DD	00H
	DD	00H
	DD	00H
	DD	00H
	DD	00H
	DD	00H
	DD	00H
	DD	00H
	DD	00H
	DD	00H
	DD	00H
	DD	00H
	DD	00H
	DD	00H
	DD	00H
	DD	00H
	DD	00H
	DD	00H
	DD	00H
	DD	00H
	DD	00H
	DD	00H
	DD	00H
	DD	00H
	DD	00H
	DD	00H
	DD	00H
	DD	00H
	DD	00H
	DD	00H
	DD	00H
	DD	00H
	DD	00H
	DD	00H
	DD	00H
	DD	00H
	DD	00H
	DD	00H
	DD	00H
	DD	00H
	DD	00H
	DD	00H
	DD	00H
	DD	00H
	DD	00H
	DD	00H
	DD	00H
	DD	00H
	DD	00H
	DD	00H
	DD	00H
	DD	00H
	DD	00H
	DD	00H
	DD	00H
	DD	00H
	DD	00H
	DD	00H
	DD	00H
	DD	00H
	DD	00H
	DD	00H
	DD	00H
	DD	00H
	DD	00H
	DD	00H
	DD	00H
	DD	00H
	DD	00H
	DD	00H
	DD	00H
	DD	00H
	DD	00H
	DD	00H
	DD	00H
	DD	00H
	DD	00H
	DD	00H
	DD	00H
	DD	00H
	DD	00H
	DD	00H
	DD	00H
	DD	00H
	DD	00H
	DD	00H
	DD	00H
	DD	00H
	DD	00H
	DD	00H
	DD	00H
	DD	00H
	DD	00H
	DD	00H
	DD	00H
	DD	00H
	DD	00H
	DD	00H
	DD	00H
	DD	00H
	DD	00H
	DD	00H
	DD	00H
	DD	00H
	DD	00H
	DD	00H
	DD	00H
	DD	00H
	DD	00H
	DD	00H
	DD	00H
	DD	00H
	DD	00H
	DD	00H
	DD	00H
	DD	00H
	DD	00H
	DD	00H
	DD	00H
	DD	00H
	DD	00H
	DD	00H
	DD	00H
	DD	00H
	DD	00H
	DD	00H
	DD	00H
	DD	00H
	DD	00H
	DD	00H
	DD	00H
	DD	00H
	DD	00H
	DD	00H
	DD	00H
	DD	00H
	DD	00H
	DD	00H
	DD	00H
	DD	00H
	DD	00H
	DD	00H
	DD	00H
	DD	00H
	DD	00H
	DD	00H
	DD	00H
	DD	00H
	DD	00H
	DD	00H
	DD	00H
	DD	00H
	DD	00H
	DD	00H
	DD	00H
	DD	00H
	DD	00H
	DD	00H
	DD	00H
	DD	00H
	DD	00H
	DD	00H
	DD	00H
	DD	00H
	DD	00H
	DD	00H
	DD	00H
	DD	00H
	DD	00H
	DD	00H
	DD	00H
	DD	00H
	DD	00H
	DD	00H
	DD	00H
	DD	00H
	DD	00H
	DD	00H
	DD	00H
	DD	00H
	DD	00H
	DD	00H
	DD	00H
	DD	00H
	DD	00H
	DD	00H
	DD	00H
	DD	00H
	DD	00H
	DD	00H
	DD	00H
	DD	00H
	DD	00H
	DD	00H
	DD	00H
	DD	00H
	DD	00H
	DD	00H
	DD	00H
	DD	00H
	DD	00H
	DD	00H
	DD	00H
	DD	00H
	DD	00H
	DD	00H
	DD	00H
	DD	00H
	DD	00H
	DD	00H
	DD	00H
	DD	00H
	DD	00H
	DD	00H
	DD	00H
	DD	00H
	DD	00H
	DD	00H
	DD	00H
	DD	00H
	DD	00H
	DD	00H
	DD	00H
	DD	00H
	DD	00H
	DD	00H
	DD	00H
	DD	00H
	DD	00H
	DD	00H
	DD	00H
	DD	00H
	DD	00H
	DD	00H
	DD	00H
	DD	00H
	DD	00H
	DD	00H
	DD	00H
	DD	00H
	DD	00H
	DD	00H
	DD	00H
	DD	00H
	DD	00H
	DD	00H
	DD	00H
	DD	00H
	DD	00H
	DD	00H
	DD	00H
	DD	00H
	DD	00H
	DD	00H
	DD	00H
	DD	00H
	DD	00H
	DD	00H
	DD	00H
	DD	00H
	DD	00H
	DD	00H
	DD	00H
	DD	00H
	DD	00H
	DD	00H
	DD	00H
	DD	00H
	DD	00H
	DD	00H
	DD	00H
	DD	00H
	DD	00H
	DD	00H
	DD	00H
	DD	00H
	DD	00H
	DD	00H
	DD	00H
	DD	00H
	DD	00H
	DD	00H
	DD	00H
	DD	00H
	DD	00H
	DD	00H
	DD	00H
	DD	00H
	DD	00H
	DD	00H
	DD	00H
	DD	00H
	DD	00H
	DD	00H
	DD	00H
	DD	00H
	DD	00H
	DD	00H
	DD	00H
	DD	00H
	DD	00H
	DD	00H
	DD	00H
	DD	00H
	DD	00H
	DD	00H
	DD	00H
	DD	00H
	DD	00H
	DD	00H
	DD	00H
	DD	00H
	DD	00H
	DD	00H
	DD	00H
	DD	00H
	DD	00H
	DD	00H
	DD	00H
	DD	00H
	DD	00H
	DD	00H
	DD	00H
	DD	00H
	DD	00H
	DD	00H
	DD	00H
	DD	00H
	DD	00H
	DD	00H
	DD	00H
	DD	00H
	DD	00H
	DD	00H
	DD	00H
	DD	00H
	DD	00H
	DD	00H
	DD	00H
	DD	00H
	DD	00H
	DD	00H
	DD	00H
	DD	00H
	DD	00H
	DD	00H
	DD	00H
	DD	00H
	DD	00H
	DD	00H
	DD	00H
	DD	00H
	DD	00H
	DD	00H
	DD	00H
	DD	00H
	DD	00H
	DD	00H
	DD	00H
	DD	00H
	DD	00H
	DD	00H
	DD	00H
	DD	00H
	DD	00H
	DD	00H
	DD	00H
	DD	00H
	DD	00H
	DD	00H
	DD	00H
	DD	00H
	DD	00H
	DD	00H
	DD	00H
	DD	00H
	DD	00H
	DD	00H
	DD	00H
	DD	00H
	DD	00H
	DD	00H
	DD	00H
	DD	00H
	DD	00H
	DD	00H
	DD	00H
	DD	00H
	DD	00H
	DD	00H
	DD	00H
	DD	00H
	DD	00H
	DD	00H
	DD	00H
	DD	00H
	DD	00H
	DD	00H
	DD	00H
	DD	00H
	DD	00H
	DD	00H
	DD	00H
	DD	00H
	DD	00H
	DD	00H
	DD	00H
	DD	00H
	DD	00H
	DD	00H
	DD	00H
	DD	00H
	DD	00H
	DD	00H
	DD	00H
	DD	00H
	DD	00H
	DD	00H
	DD	00H
	DD	00H
	DD	00H
	DD	00H
	DD	00H
	DD	00H
	DD	00H
	DD	00H
	DD	00H
	DD	00H
	DD	00H
	DD	00H
	DD	00H
	DD	00H
	DD	00H
	DD	00H
	DD	00H
	DD	00H
	DD	00H
	DD	00H
	DD	00H
	DD	00H
	DD	00H
	DD	00H
	DD	00H
	DD	00H
	DD	00H
	DD	00H
	DD	00H
	DD	00H
	DD	00H
	DD	00H
	DD	00H
	DD	00H
	DD	00H
	DD	00H
	DD	00H
	DD	00H
	DD	00H
	DD	00H
	DD	00H
	DD	00H
	DD	00H
	DD	00H
	DD	00H
	DD	00H
	DD	00H
	DD	00H
	DD	00H
	DD	00H
	DD	00H
	DD	00H
	DD	00H
	DD	00H
	DD	00H
	DD	00H
	DD	00H
	DD	00H
	DD	00H
	DD	00H
	DD	00H
	DD	00H
	DD	00H
	DD	00H
	DD	00H
	DD	00H
	DD	00H
	DD	00H
	DD	00H
	DD	00H
	DD	00H
	DD	00H
	DD	00H
	DD	00H
	DD	00H
	DD	00H
	DD	00H
	DD	00H
	DD	00H
	DD	00H
	DD	00H
	DD	00H
	DD	00H
	DD	00H
	DD	00H
	DD	00H
	DD	00H
	DD	00H
	DD	00H
	DD	00H
	DD	00H
	DD	00H
	DD	00H
	DD	00H
	DD	00H
	DD	00H
	DD	00H
	DD	00H
	DD	00H
	DD	00H
	DD	00H
	DD	00H
	DD	00H
	DD	00H
	DD	00H
	DD	00H
	DD	00H
	DD	00H
	DD	00H
	DD	00H
	DD	00H
	DD	00H
	DD	00H
	DD	00H
	DD	00H
	DD	00H
	DD	00H
	DD	00H
	DD	00H
	DD	00H
	DD	00H
	DD	00H
	DD	00H
	DD	00H
	DD	00H
	DD	00H
	DD	00H
	DD	00H
	DD	00H
	DD	00H
	DD	00H
	DD	00H
	DD	00H
	DD	00H
	DD	00H
	DD	00H
	DD	00H
	DD	00H
	DD	00H
	DD	00H
	DD	00H
	DD	00H
	DD	00H
	DD	00H
	DD	00H
	DD	00H
	DD	00H
	DD	00H
	DD	00H
	DD	00H
	DD	00H
	DD	00H
	DD	00H
	DD	00H
	DD	00H
	DD	00H
	DD	00H
	DD	00H
	DD	00H
	DD	00H
	DD	00H
	DD	00H
	DD	00H
	DD	00H
	DD	00H
	DD	00H
	DD	00H
	DD	00H
	DD	00H
	DD	00H
	DD	00H
	DD	00H
	DD	00H
	DD	00H
	DD	00H
	DD	00H
	DD	00H
	DD	00H
	DD	00H
	DD	00H
	DD	00H
	DD	00H
	DD	00H
	DD	00H
	DD	00H
	DD	00H
	DD	00H
	DD	00H
	DD	00H
	DD	00H
	DD	00H
	DD	00H
	DD	00H
	DD	00H
	DD	00H
	DD	00H
	DD	00H
	DD	00H
	DD	00H
	DD	00H
	DD	00H
	DD	00H
	DD	00H
	DD	00H
	DD	00H
	DD	00H
	DD	00H
	DD	00H
	DD	00H
	DD	00H
	DD	00H
	DD	00H
	DD	00H
	DD	00H
	DD	00H
	DD	00H
	DD	00H
	DD	00H
	DD	00H
	DD	00H
	DD	00H
	DD	00H
	DD	00H
	DD	00H
	DD	00H
	DD	00H
	DD	00H
	DD	00H
	DD	00H
	DD	00H
	DD	00H
	DD	00H
	DD	00H
	DD	00H
	DD	00H
	DD	00H
	DD	00H
	DD	00H
	DD	00H
	DD	00H
	DD	00H
	DD	00H
	DD	00H
	DD	00H
	DD	00H
	DD	00H
	DD	00H
	DD	00H
	DD	00H
	DD	00H
	DD	00H
	DD	00H
	DD	00H
	DD	00H
	DD	00H
	DD	00H
	DD	00H
	DD	00H
	DD	00H
	DD	00H
	DD	00H
	DD	00H
	DD	00H
	DD	00H
	DD	00H
	DD	00H
	DD	00H
	DD	00H
	DD	00H
	DD	00H
	DD	00H
	DD	00H
	DD	00H
	DD	00H
	DD	00H
	DD	00H
	DD	00H
	DD	00H
	DD	00H
	DD	00H
	DD	00H
	DD	00H
	DD	00H
	DD	00H
	DD	00H
	DD	00H
	DD	00H
	DD	00H
	DD	00H
	DD	00H
	DD	00H
	DD	00H
	DD	00H
	DD	00H
	DD	00H
	DD	00H
	DD	00H
	DD	00H
	DD	00H
	DD	00H
	DD	00H
	DD	00H
	DD	00H
	DD	00H
	DD	00H
	DD	00H
	DD	00H
	DD	00H
	DD	00H
	DD	00H
	DD	00H
	DD	00H
	DD	00H
	DD	00H
	DD	00H
	DD	00H
	DD	00H
	DD	00H
	DD	00H
	DD	00H
	DD	00H
	DD	00H
	DD	00H
	DD	00H
	DD	00H
	DD	00H
	DD	00H
	DD	00H
	DD	00H
	DD	00H
	DD	00H
	DD	00H
	DD	00H
	DD	00H
	DD	00H
	DD	00H
	DD	00H
	DD	00H
	DD	00H
	DD	00H
	DD	00H
	DD	00H
	DD	00H
	DD	00H
	DD	00H
	DD	00H
	DD	00H
	DD	00H
	DD	00H
	DD	00H
	DD	00H
	DD	00H
	DD	00H
	DD	00H
	DD	00H
	DD	00H
	DD	00H
	DD	00H
	DD	00H
	DD	00H
	DD	00H
	DD	00H
	DD	00H
	DD	00H
	DD	00H
	DD	00H
	DD	00H
	DD	00H
	DD	00H
	DD	00H
	DD	00H
	DD	00H
	DD	00H
	DD	00H
	DD	00H
	DD	00H
	DD	00H
	DD	00H
	DD	00H
	DD	00H
	DD	00H
	DD	00H
	DD	00H
	DD	00H
	DD	00H
	DD	00H
	DD	00H
	DD	00H
	DD	00H
	DD	00H
	DD	00H
	DD	00H
	DD	00H
	DD	00H
	DD	00H
	DD	00H
	DD	00H
	DD	00H
	DD	00H
	DD	00H
	DD	00H
	DD	00H
	DD	00H
	DD	00H
	DD	00H
	DD	00H
	DD	00H
	DD	00H
	DD	00H
	DD	00H
	DD	00H
	DD	00H
	DD	00H
	DD	00H
	DD	00H
	DD	00H
	DD	00H
	DD	00H
	DD	00H
	DD	00H
	DD	00H
	DD	00H
	DD	00H
	DD	00H
	DD	00H
	DD	00H
	DD	00H
	DD	00H
	DD	00H
	DD	00H
	DD	00H
	DD	00H
	DD	00H
	DD	00H
	DD	00H
	DD	00H
	DD	00H
	DD	00H
	DD	00H
	DD	00H
	DD	00H
	DD	00H
	DD	00H
	DD	00H
	DD	00H
	DD	00H
	DD	00H
	DD	00H
	DD	00H
	DD	00H
	DD	00H
	DD	00H
	DD	00H
	DD	00H
	DD	00H
	DD	00H
	DD	00H
	DD	00H
	DD	00H
	DD	00H
	DD	00H
	DD	00H
	DD	00H
	DD	00H
	DD	00H
	DD	00H
	DD	00H
	DD	00H
	DD	00H
	DD	00H
	DD	00H
	DD	00H
	DD	00H
	DD	00H
	DD	00H
	DD	00H
	DD	00H
	DD	00H
	DD	00H
	DD	00H
	DD	00H
	DD	00H
	DD	00H
	DD	00H
	DD	00H
	DD	00H
	DD	00H
	DD	00H
	DD	00H
	DD	00H
	DD	00H
	DD	00H
	DD	00H
	DD	00H
	DD	00H
	DD	00H
	DD	00H
	DD	00H
	DD	00H
	DD	00H
	DD	00H
	DD	00H
	DD	00H
	DD	00H
	DD	00H
	DD	00H
	DD	00H
	DD	00H
	DD	00H
	DD	00H
	DD	00H
	DD	00H
	DD	00H
	DD	00H
	DD	00H
	DD	00H
	DD	00H
	DD	00H
	DD	00H
	DD	00H
	DD	00H
	DD	00H
	DD	00H
	DD	00H
	DD	00H
	DD	00H
	DD	00H
	DD	00H
	DD	00H
	DD	00H
	DD	00H
	DD	00H
	DD	00H
	DD	00H
	DD	00H
	DD	00H
	DD	00H
	DD	00H
	DD	00H
	DD	00H
	DD	00H
	DD	00H
	DD	00H
	DD	00H
	DD	00H
	DD	00H
	DD	00H
	DD	00H
	DD	00H
	DD	00H
	DD	00H
	DD	00H
	DD	00H
	DD	00H
	DD	00H
	DD	00H
	DD	00H
	DD	00H
	DD	00H
	DD	00H
	DD	00H
	DD	00H
	DD	00H
	DD	00H
	DD	00H
	DD	00H
	DD	00H
	DD	00H
	DD	00H
	DD	00H
	DD	00H
	DD	00H
	DD	00H
	DD	00H
	DD	00H
	DD	00H
	DD	00H
	DD	00H
	DD	00H
	DD	00H
	DD	00H
	DD	00H
	DD	00H
	DD	00H
	DD	00H
	DD	00H
	DD	00H
	DD	00H
	DD	00H
	DD	00H
	DD	00H
	DD	00H
	DD	00H
	DD	00H
	DD	00H
	DD	00H
	DD	00H
	DD	00H
	DD	00H
	DD	00H
	DD	00H
	DD	00H
	DD	00H
	DD	00H
	DD	00H
	DD	00H
	DD	00H
	DD	00H
	DD	00H
	DD	00H
	DD	00H
	DD	00H
	DD	00H
	DD	00H
	DD	00H
	DD	00H
	DD	00H
	DD	00H
	DD	00H
	DD	00H
	DD	00H
	DD	00H
	DD	00H
	DD	00H
	DD	00H
	DD	00H
	DD	00H
	DD	00H
	DD	00H
	DD	00H
	DD	00H
	DD	00H
	DD	00H
	DD	00H
	DD	00H
	DD	00H
	DD	00H
	DD	00H
	DD	00H
	DD	00H
	DD	00H
	DD	00H
	DD	00H
	DD	00H
	DD	00H
	DD	00H
	DD	00H
	DD	00H
	DD	00H
	DD	00H
	DD	00H
	DD	00H
	DD	00H
	DD	00H
	DD	00H
	DD	00H
	DD	00H
	DD	00H
	DD	00H
	DD	00H
	DD	00H
	DD	00H
	DD	00H
	DD	00H
	DD	00H
	DD	00H
	DD	00H
	DD	00H
	DD	00H
	DD	00H
	DD	00H
	DD	00H
	DD	00H
	DD	00H
	DD	00H
	DD	00H
	DD	00H
	DD	00H
	DD	00H
	DD	00H
	DD	00H
	DD	00H
	DD	00H
	DD	00H
	DD	00H
	DD	00H
	DD	00H
	DD	00H
	DD	00H
	DD	00H
	DD	00H
	DD	00H
	DD	00H
	DD	00H
	DD	00H
	DD	00H
	DD	00H
	DD	00H
	DD	00H
	DD	00H
	DD	00H
	DD	00H
	DD	00H
	DD	00H
	DD	00H
	DD	00H
	DD	00H
	DD	00H
	DD	00H
	DD	00H
	DD	00H
	DD	00H
	DD	00H
	DD	00H
	DD	00H
	DD	00H
	DD	00H
	DD	00H
	DD	00H
	DD	00H
	DD	00H
	DD	00H
	DD	00H
	DD	00H
	DD	00H
	DD	00H
	DD	00H
	DD	00H
	DD	00H
	DD	00H
	DD	00H
	DD	00H
	DD	00H
	DD	00H
	DD	00H
	DD	00H
	DD	00H
	DD	00H
	DD	00H
	DD	00H
	DD	00H
	DD	00H
	DD	00H
	DD	00H
	DD	00H
	DD	00H
	DD	00H
	DD	00H
	DD	00H
	DD	00H
	DD	00H
	DD	00H
	DD	00H
	DD	00H
	DD	00H
	DD	00H
	DD	00H
	DD	00H
	DD	00H
	DD	00H
	DD	00H
	DD	00H
	DD	00H
	DD	00H
	DD	00H
	DD	00H
	DD	00H
	DD	00H
	DD	00H
	DD	00H
	DD	00H
	DD	00H
	DD	00H
	DD	00H
	DD	00H
	DD	00H
	DD	00H
	DD	00H
	DD	00H
	DD	00H
	DD	00H
	DD	00H
	DD	00H
	DD	00H
	DD	00H
	DD	00H
	DD	00H
	DD	00H
	DD	00H
	DD	00H
	DD	00H
	DD	00H
	DD	00H
	DD	00H
	DD	00H
	DD	00H
	DD	00H
	DD	00H
	DD	00H
	DD	00H
	DD	00H
	DD	00H
	DD	00H
	DD	00H
	DD	00H
	DD	00H
	DD	00H
	DD	00H
	DD	00H
	DD	00H
	DD	00H
	DD	00H
	DD	00H
	DD	00H
	DD	00H
	DD	00H
	DD	00H
	DD	00H
	DD	00H
	DD	00H
	DD	00H
	DD	00H
	DD	00H
	DD	00H
	DD	00H
	DD	00H
	DD	00H
	DD	00H
	DD	00H
	DD	00H
	DD	00H
	DD	00H
	DD	00H
	DD	00H
	DD	00H
	DD	00H
	DD	00H
	DD	00H
	DD	00H
	DD	00H
	DD	00H
	DD	00H
	DD	00H
	DD	00H
	DD	00H
	DD	00H
	DD	00H
	DD	00H
	DD	00H
	DD	00H
	DD	00H
	DD	00H
	DD	00H
	DD	00H
	DD	00H
	DD	00H
	DD	00H
	DD	00H
	DD	00H
	DD	00H
	DD	00H
	DD	00H
	DD	00H
	DD	00H
	DD	00H
	DD	00H
	DD	00H
	DD	00H
	DD	00H
	DD	00H
	DD	00H
	DD	00H
	DD	00H
	DD	00H
	DD	00H
	DD	00H
	DD	00H
	DD	00H
	DD	00H
	DD	00H
	DD	00H
	DD	00H
	DD	00H
	DD	00H
	DD	00H
	DD	00H
	DD	00H
	DD	00H
	DD	00H
	DD	00H
	DD	00H
	DD	00H
	DD	00H
	DD	00H
	DD	00H
	DD	00H
	DD	00H
	DD	00H
	DD	00H
	DD	00H
	DD	00H
	DD	00H
	DD	00H
	DD	00H
	DD	00H
	DD	00H
	DD	00H
	DD	00H
	DD	00H
	DD	00H
	DD	00H
	DD	00H
	DD	00H
	DD	00H
	DD	00H
	DD	00H
	DD	00H
	DD	00H
	DD	00H
	DD	00H
	DD	00H
	DD	00H
	DD	00H
	DD	00H
	DD	00H
	DD	00H
	DD	00H
	DD	00H
	DD	00H
	DD	00H
	DD	00H
	DD	00H
	DD	00H
	DD	00H
	DD	00H
	DD	00H
	DD	00H
	DD	00H
	DD	00H
	DD	00H
	DD	00H
	DD	00H
	DD	00H
	DD	00H
	DD	00H
	DD	00H
	DD	00H
	DD	00H
	DD	00H
	DD	00H
	DD	00H
	DD	00H
	DD	00H
	DD	00H
	DD	00H
	DD	00H
	DD	00H
	DD	00H
	DD	00H
	DD	00H
	DD	00H
	DD	00H
	DD	00H
	DD	00H
	DD	00H
	DD	00H
	DD	00H
	DD	00H
	DD	00H
	DD	00H
	DD	00H
	DD	00H
	DD	00H
	DD	00H
	DD	00H
	DD	00H
	DD	00H
	DD	00H
	DD	00H
	DD	00H
	DD	00H
	DD	00H
	DD	00H
	DD	00H
	DD	00H
	DD	00H
	DD	00H
	DD	00H
	DD	00H
	DD	00H
	DD	00H
	DD	00H
	DD	00H
	DD	00H
	DD	00H
	DD	00H
	DD	00H
	DD	00H
	DD	00H
	DD	00H
	DD	00H
	DD	00H
	DD	00H
	DD	00H
	DD	00H
	DD	00H
	DD	00H
	DD	00H
	DD	00H
	DD	00H
	DD	00H
	DD	00H
	DD	00H
	DD	00H
	DD	00H
	DD	00H
	DD	00H
	DD	00H
	DD	00H
	DD	00H
	DD	00H
	DD	00H
	DD	00H
	DD	00H
	DD	00H
	DD	00H
	DD	00H
	DD	00H
	DD	00H
	DD	00H
	DD	00H
	DD	00H
	DD	00H
	DD	00H
	DD	00H
	DD	00H
	DD	00H
	DD	00H
	DD	00H
	DD	00H
	DD	00H
	DD	00H
	DD	00H
	DD	00H
	DD	00H
	DD	00H
	DD	00H
	DD	00H
	DD	00H
	DD	00H
	DD	00H
	DD	00H
	DD	00H
	DD	00H
	DD	00H
	DD	00H
	DD	00H
	DD	00H
	DD	00H
	DD	00H
	DD	00H
	DD	00H
	DD	00H
	DD	00H
	DD	00H
	DD	00H
	DD	00H
	DD	00H
	DD	00H
	DD	00H
	DD	00H
	DD	00H
	DD	00H
	DD	00H
	DD	00H
	DD	00H
	DD	00H
	DD	00H
	DD	00H
	DD	00H
	DD	00H
	DD	00H
	DD	00H
	DD	00H
	DD	00H
	DD	00H
	DD	00H
	DD	00H
	DD	00H
	DD	00H
	DD	00H
	DD	00H
	DD	00H
	DD	00H
	DD	00H
	DD	00H
	DD	00H
	DD	00H
	DD	00H
	DD	00H
	DD	00H
	DD	00H
	DD	00H
	DD	00H
	DD	00H
	DD	00H
	DD	00H
	DD	00H
	DD	00H
	DD	00H
	DD	00H
	DD	00H
	DD	00H
	DD	00H
	DD	00H
	DD	00H
	DD	00H
	DD	00H
	DD	00H
	DD	00H
	DD	00H
	DD	00H
	DD	00H
	DD	00H
	DD	00H
	DD	00H
	DD	00H
	DD	00H
	DD	00H
	DD	00H
	DD	00H
	DD	00H
	DD	00H
	DD	00H
	DD	00H
	DD	00H
	DD	00H
	DD	00H
	DD	00H
	DD	00H
	DD	00H
	DD	00H
	DD	00H
	DD	00H
	DD	00H
	DD	00H
	DD	00H
	DD	00H
	DD	00H
	DD	00H
	DD	00H
	DD	00H
	DD	00H
	DD	00H
	DD	00H
	DD	00H
	DD	00H
	DD	00H
	DD	00H
	DD	00H
	DD	00H
	DD	00H
	DD	00H
	DD	00H
	DD	00H
	DD	00H
	DD	00H
	DD	00H
	DD	00H
	DD	00H
	DD	00H
	DD	00H
	DD	00H
	DD	00H
	DD	00H
	DD	00H
	DD	00H
	DD	00H
	DD	00H
	DD	00H
	DD	00H
	DD	00H
	DD	00H
	DD	00H
	DD	00H
	DD	00H
	DD	00H
	DD	00H
	DD	00H
	DD	00H
	DD	00H
	DD	00H
	DD	00H
	DD	00H
	DD	00H
	DD	00H
	DD	00H
	DD	00H
	DD	00H
	DD	00H
	DD	00H
	DD	00H
	DD	00H
	DD	00H
	DD	00H
	DD	00H
	DD	00H
	DD	00H
	DD	00H
	DD	00H
	DD	00H
	DD	00H
	DD	00H
	DD	00H
	DD	00H
	DD	00H
	DD	00H
	DD	00H
	DD	00H
	DD	00H
	DD	00H
	DD	00H
	DD	00H
	DD	00H
	DD	00H
	DD	00H
	DD	00H
	DD	00H
	DD	00H
	DD	00H
	DD	00H
	DD	00H
	DD	00H
	DD	00H
	DD	00H
	DD	00H
	DD	00H
	DD	00H
	DD	00H
	DD	00H
	DD	00H
	DD	00H
	DD	00H
	DD	00H
	DD	00H
	DD	00H
	DD	00H
	DD	00H
	DD	00H
	DD	00H
	DD	00H
	DD	00H
	DD	00H
	DD	00H
	DD	00H
	DD	00H
	DD	00H
	DD	00H
	DD	00H
	DD	00H
	DD	00H
	DD	00H
	DD	00H
	DD	00H
	DD	00H
	DD	00H
	DD	00H
	DD	00H
	DD	00H
	DD	00H
	DD	00H
	DD	00H
	DD	00H
	DD	00H
	DD	00H
	DD	00H
	DD	00H
	DD	00H
	DD	00H
	DD	00H
	DD	00H
	DD	00H
	DD	00H
	DD	00H
	DD	00H
	DD	00H
	DD	00H
	DD	00H
	DD	00H
	DD	00H
	DD	00H
	DD	00H
	DD	00H
	DD	00H
	DD	00H
	DD	00H
	DD	00H
	DD	00H
	DD	00H
	DD	00H
	DD	00H
	DD	00H
	DD	00H
	DD	00H
	DD	00H
	DD	00H
	DD	00H
	DD	00H
	DD	00H
	DD	00H
	DD	00H
	DD	00H
	DD	00H
	DD	00H
	DD	00H
	DD	00H
	DD	00H
	DD	00H
	DD	00H
	DD	00H
	DD	00H
	DD	00H
	DD	00H
	DD	00H
	DD	00H
	DD	00H
	DD	00H
	DD	00H
	DD	00H
	DD	00H
	DD	00H
	DD	00H
	DD	00H
	DD	00H
	DD	00H
	DD	00H
	DD	00H
	DD	00H
	DD	00H
	DD	00H
	DD	00H
	DD	00H
	DD	00H
	DD	00H
	DD	00H
	DD	00H
	DD	00H
	DD	00H
	DD	00H
	DD	00H
	DD	00H
	DD	00H
	DD	00H
	DD	00H
	DD	00H
	DD	00H
	DD	00H
	DD	00H
	DD	00H
	DD	00H
	DD	00H
	DD	00H
	DD	00H
	DD	00H
	DD	00H
	DD	00H
	DD	00H
	DD	00H
	DD	00H
	DD	00H
	DD	00H
	DD	00H
	DD	00H
	DD	00H
	DD	00H
	DD	00H
	DD	00H
	DD	00H
	DD	00H
	DD	00H
	DD	00H
	DD	00H
	DD	00H
	DD	00H
	DD	00H
	DD	00H
	DD	00H
	DD	00H
	DD	00H
	DD	00H
	DD	00H
	DD	00H
	DD	00H
	DD	00H
	DD	00H
	DD	00H
	DD	00H
	DD	00H
	DD	00H
	DD	00H
	DD	00H
	DD	00H
	DD	00H
	DD	00H
	DD	00H
	DD	00H
	DD	00H
	DD	00H
	DD	00H
	DD	00H
	DD	00H
	DD	00H
	DD	00H
	DD	00H
	DD	00H
	DD	00H
	DD	00H
	DD	00H
	DD	00H
	DD	00H
	DD	00H
	DD	00H
	DD	00H
	DD	00H
	DD	00H
	DD	00H
	DD	00H
	DD	00H
	DD	00H
	DD	00H
	DD	00H
	DD	00H
	DD	00H
	DD	00H
	DD	00H
	DD	00H
	DD	00H
	DD	00H
	DD	00H
	DD	00H
	DD	00H
	DD	00H
	DD	00H
	DD	00H
	DD	00H
	DD	00H
	DD	00H
	DD	00H
	DD	00H
	DD	00H
	DD	00H
	DD	00H
	DD	00H
	DD	00H
	DD	00H
	DD	00H
	DD	00H
	DD	00H
	DD	00H
	DD	00H
	DD	00H
	DD	00H
	DD	00H
	DD	00H
	DD	00H
	DD	00H
	DD	00H
	DD	00H
	DD	00H
	DD	00H
	DD	00H
	DD	00H
	DD	00H
	DD	00H
	DD	00H
	DD	00H
	DD	00H
	DD	00H
	DD	00H
	DD	00H
	DD	00H
	DD	00H
	DD	00H
	DD	00H
	DD	00H
	DD	00H
	DD	00H
	DD	00H
	DD	00H
	DD	00H
	DD	00H
	DD	00H
	DD	00H
	DD	00H
	DD	00H
	DD	00H
	DD	00H
	DD	00H
	DD	00H
	DD	00H
	DD	00H
	DD	00H
	DD	00H
	DD	00H
	DD	00H
	DD	00H
	DD	00H
	DD	00H
	DD	00H
	DD	00H
	DD	00H
	DD	00H
	DD	00H
	DD	00H
	DD	00H
	DD	00H
	DD	00H
	DD	00H
	DD	00H
	DD	00H
	DD	00H
	DD	00H
	DD	00H
	DD	00H
	DD	00H
	DD	00H
	DD	00H
	DD	00H
	DD	00H
	DD	00H
	DD	00H
	DD	00H
	DD	00H
	DD	00H
	DD	00H
	DD	00H
	DD	00H
	DD	00H
	DD	00H
	DD	00H
	DD	00H
	DD	00H
	DD	00H
	DD	00H
	DD	00H
	DD	00H
	DD	00H
	DD	00H
	DD	00H
	DD	00H
	DD	00H
	DD	00H
	DD	00H
	DD	00H
	DD	00H
	DD	00H
	DD	00H
	DD	00H
	DD	00H
	DD	00H
	DD	00H
	DD	00H
	DD	00H
	DD	00H
	DD	00H
	DD	00H
	DD	00H
	DD	00H
	DD	00H
	DD	00H
	DD	00H
	DD	00H
	DD	00H
	DD	00H
	DD	00H
	DD	00H
	DD	00H
	DD	00H
	DD	00H
	DD	00H
	DD	00H
	DD	00H
	DD	00H
	DD	00H
	DD	00H
	DD	00H
	DD	00H
	DD	00H
	DD	00H
	DD	00H
	DD	00H
	DD	00H
	DD	00H
	DD	00H
	DD	00H
	DD	00H
	DD	00H
	DD	00H
	DD	00H
	DD	00H
	DD	00H
	DD	00H
	DD	00H
	DD	00H
	DD	00H
	DD	00H
	DD	00H
	DD	00H
	DD	00H
	DD	00H
	DD	00H
	DD	00H
	DD	00H
	DD	00H
	DD	00H
	DD	00H
	DD	00H
	DD	00H
	DD	00H
	DD	00H
	DD	00H
	DD	00H
	DD	00H
	DD	00H
	DD	00H
	DD	00H
	DD	00H
	DD	00H
	DD	00H
	DD	00H
	DD	00H
	DD	00H
	DD	00H
	DD	00H
	DD	00H
	DD	00H
	DD	00H
	DD	00H
	DD	00H
	DD	00H
	DD	00H
	DD	00H
	DD	00H
	DD	00H
	DD	00H
	DD	00H
	DD	00H
	DD	00H
	DD	00H
	DD	00H
	DD	00H
	DD	00H
	DD	00H
	DD	00H
	DD	00H
	DD	00H
	DD	00H
	DD	00H
	DD	00H
	DD	00H
	DD	00H
	DD	00H
	DD	00H
	DD	00H
	DD	00H
	DD	00H
	DD	00H
	DD	00H
	DD	00H
	DD	00H
	DD	00H
	DD	00H
	DD	00H
	DD	00H
	DD	00H
	DD	00H
	DD	00H
	DD	00H
	DD	00H
	DD	00H
	DD	00H
	DD	00H
	DD	00H
	DD	00H
	DD	00H
	DD	00H
	DD	00H
	DD	00H
	DD	00H
	DD	00H
	DD	00H
	DD	00H
	DD	00H
	DD	00H
	DD	00H
	DD	00H
	DD	00H
	DD	00H
	DD	00H
	DD	00H
	DD	00H
	DD	00H
	DD	00H
	DD	00H
	DD	00H
	DD	00H
	DD	00H
	DD	00H
	DD	00H
	DD	00H
	DD	00H
	DD	00H
	DD	00H
	DD	00H
	DD	00H
	DD	00H
	DD	00H
	DD	00H
	DD	00H
	DD	00H
	DD	00H
	DD	00H
	DD	00H
	DD	00H
	DD	00H
	DD	00H
	DD	00H
	DD	00H
	DD	00H
	DD	00H
	DD	00H
	DD	00H
	DD	00H
	DD	00H
	DD	00H
	DD	00H
	DD	00H
	DD	00H
	DD	00H
	DD	00H
	DD	00H
	DD	00H
	DD	00H
	DD	00H
	DD	00H
	DD	00H
	DD	00H
	DD	00H
	DD	00H
	DD	00H
	DD	00H
	DD	00H
	DD	00H
	DD	00H
	DD	00H
	DD	00H
	DD	00H
	DD	00H
	DD	00H
	DD	00H
	DD	00H
	DD	00H
	DD	00H
	DD	00H
	DD	00H
	DD	00H
	DD	00H
	DD	00H
	DD	00H
	DD	00H
	DD	00H
	DD	00H
	DD	00H
	DD	00H
	DD	00H
	DD	00H
	DD	00H
	DD	00H
	DD	00H
	DD	00H
	DD	00H
	DD	00H
	DD	00H
	DD	00H
	DD	00H
	DD	00H
	DD	00H
	DD	00H
	DD	00H
	DD	00H
	DD	00H
	DD	00H
	DD	00H
	DD	00H
	DD	00H
	DD	00H
	DD	00H
	DD	00H
	DD	00H
	DD	00H
	DD	00H
	DD	00H
	DD	00H
	DD	00H
	DD	00H
	DD	00H
	DD	00H
	DD	00H
	DD	00H
	DD	00H
	DD	00H
	DD	00H
	DD	00H
	DD	00H
	DD	00H
	DD	00H
	DD	00H
	DD	00H
	DD	00H
	DD	00H
	DD	00H
	DD	00H
	DD	00H
	DD	00H
	DD	00H
	DD	00H
	DD	00H
	DD	00H
	DD	00H
	DD	00H
	DD	00H
	DD	00H
	DD	00H
	DD	00H
	DD	00H
	DD	00H
	DD	00H
	DD	00H
	DD	00H
	DD	00H
	DD	00H
	DD	00H
	DD	00H
	DD	00H
	DD	00H
	DD	00H
	DD	00H
	DD	00H
	DD	00H
	DD	00H
	DD	00H
	DD	00H
	DD	00H
	DD	00H
	DD	00H
	DD	00H
	DD	00H
	DD	00H
	DD	00H
	DD	00H
	DD	00H
	DD	00H
	DD	00H
	DD	00H
	DD	00H
	DD	00H
	DD	00H
	DD	00H
	DD	00H
	DD	00H
	DD	00H
	DD	00H
	DD	00H
	DD	00H
	DD	00H
	DD	00H
	DD	00H
	DD	00H
	DD	00H
	DD	00H
	DD	00H
	DD	00H
	DD	00H
	DD	00H
	DD	00H
	DD	00H
	DD	00H
	DD	00H
	DD	00H
	DD	00H
	DD	00H
	DD	00H
	DD	00H
	DD	00H
	DD	00H
	DD	00H
	DD	00H
	DD	00H
	DD	00H
	DD	00H
	DD	00H
	DD	00H
	DD	00H
	DD	00H
	DD	00H
	DD	00H
	DD	00H
	DD	00H
	DD	00H
	DD	00H
	DD	00H
	DD	00H
	DD	00H
	DD	00H
	DD	00H
	DD	00H
	DD	00H
	DD	00H
	DD	00H
	DD	00H
	DD	00H
	DD	00H
	DD	00H
	DD	00H
	DD	00H
	DD	00H
	DD	00H
	DD	00H
	DD	00H
	DD	00H
	DD	00H
	DD	00H
	DD	00H
	DD	00H
	DD	00H
	DD	00H
	DD	00H
	DD	00H
	DD	00H
	DD	00H
	DD	00H
	DD	00H
	DD	00H
	DD	00H
	DD	00H
	DD	00H
	DD	00H
	DD	00H
	DD	00H
	DD	00H
	DD	00H
	DD	00H
	DD	00H
	DD	00H
	DD	00H
	DD	00H
	DD	00H
	DD	00H
	DD	00H
	DD	00H
	DD	00H
	DD	00H
	DD	00H
	DD	00H
	DD	00H
	DD	00H
	DD	00H
	DD	00H
	DD	00H
	DD	00H
	DD	00H
	DD	00H
	DD	00H
	DD	00H
	DD	00H
	DD	00H
	DD	00H
	DD	00H
	DD	00H
	DD	00H
	DD	00H
	DD	00H
	DD	00H
	DD	00H
	DD	00H
	DD	00H
	DD	00H
	DD	00H
	DD	00H
	DD	00H
	DD	00H
	DD	00H
	DD	00H
	DD	00H
	DD	00H
	DD	00H
	DD	00H
	DD	00H
	DD	00H
	DD	00H
	DD	00H
	DD	00H
	DD	00H
	DD	00H
	DD	00H
	DD	00H
	DD	00H
	DD	00H
	DD	00H
	DD	00H
	DD	00H
	DD	00H
	DD	00H
	DD	00H
	DD	00H
	DD	00H
	DD	00H
	DD	00H
	DD	00H
	DD	00H
	DD	00H
	DD	00H
	DD	00H
	DD	00H
	DD	00H
	DD	00H
	DD	00H
	DD	00H
	DD	00H
	DD	00H
	DD	00H
	DD	00H
	DD	00H
	DD	00H
	DD	00H
	DD	00H
	DD	00H
	DD	00H
	DD	00H
	DD	00H
	DD	00H
	DD	00H
	DD	00H
	DD	00H
	DD	00H
	DD	00H
	DD	00H
	DD	00H
	DD	00H
	DD	00H
	DD	00H
	DD	00H
	DD	00H
	DD	00H
	DD	00H
	DD	00H
	DD	00H
	DD	00H
	DD	00H
	DD	00H
	DD	00H
	DD	00H
	DD	00H
	DD	00H
	DD	00H
	DD	00H
	DD	00H
	DD	00H
	DD	00H
	DD	00H
	DD	00H
	DD	00H
	DD	00H
	DD	00H
	DD	00H
	DD	00H
	DD	00H
	DD	00H
	DD	00H
	DD	00H
	DD	00H
	DD	00H
	DD	00H
	DD	00H
	DD	00H
	DD	00H
	DD	00H
	DD	00H
	DD	00H
	DD	00H
	DD	00H
	DD	00H
	DD	00H
	DD	00H
	DD	00H
	DD	00H
	DD	00H
	DD	00H
	DD	00H
	DD	00H
	DD	00H
	DD	00H
	DD	00H
	DD	00H
	DD	00H
	DD	00H
	DD	00H
	DD	00H
	DD	00H
	DD	00H
	DD	00H
	DD	00H
	DD	00H
	DD	00H
	DD	00H
	DD	00H
	DD	00H
	DD	00H
	DD	00H
	DD	00H
	DD	00H
	DD	00H
	DD	00H
	DD	00H
	DD	00H
	DD	00H
	DD	00H
	DD	00H
	DD	00H
	DD	00H
	DD	00H
	DD	00H
	DD	00H
	DD	00H
	DD	00H
	DD	00H
	DD	00H
	DD	00H
	DD	00H
	DD	00H
	DD	00H
	DD	00H
	DD	00H
	DD	00H
	DD	00H
	DD	00H
	DD	00H
	DD	00H
	DD	00H
	DD	00H
	DD	00H
	DD	00H
	DD	00H
	DD	00H
	DD	00H
	DD	00H
	DD	00H
	DD	00H
	DD	00H
	DD	00H
	DD	00H
	DD	00H
	DD	00H
	DD	00H
	DD	00H
	DD	00H
	DD	00H
	DD	00H
	DD	00H
	DD	00H
	DD	00H
	DD	00H
	DD	00H
	DD	00H
	DD	00H
	DD	00H
	DD	00H
	DD	00H
	DD	00H
	DD	00H
	DD	00H
	DD	00H
	DD	00H
	DD	00H
	DD	00H
	DD	00H
	DD	00H
	DD	00H
	DD	00H
	DD	00H
	DD	00H
	DD	00H
	DD	00H
	DD	00H
	DD	00H
	DD	00H
	DD	00H
	DD	00H
	DD	00H
	DD	00H
	DD	00H
	DD	00H
	DD	00H
	DD	00H
	DD	00H
	DD	00H
	DD	00H
	DD	00H
	DD	00H
	DD	00H
	DD	00H
	DD	00H
	DD	00H
	DD	00H
	DD	00H
	DD	00H
	DD	00H
	DD	00H
	DD	00H
	DD	00H
	DD	00H
	DD	00H
	DD	00H
	DD	00H
	DD	00H
	DD	00H
	DD	00H
	DD	00H
	DD	00H
	DD	00H
	DD	00H
	DD	00H
	DD	00H
	DD	00H
	DD	00H
	DD	00H
	DD	00H
	DD	00H
	DD	00H
	DD	00H
	DD	00H
	DD	00H
	DD	00H
	DD	00H
	DD	00H
	DD	00H
	DD	00H
	DD	00H
	DD	00H
	DD	00H
	DD	00H
	DD	00H
	DD	00H
	DD	00H
	DD	00H
	DD	00H
	DD	00H
	DD	00H
	DD	00H
	DD	00H
	DD	00H
	DD	00H
	DD	00H
	DD	00H
	DD	00H
	DD	00H
	DD	00H
	DD	00H
	DD	00H
	DD	00H
	DD	00H
	DD	00H
	DD	00H
	DD	00H
	DD	00H
	DD	00H
	DD	00H
	DD	00H
	DD	00H
	DD	00H
	DD	00H
	DD	00H
	DD	00H
	DD	00H
	DD	00H
	DD	00H
	DD	00H
	DD	00H
	DD	00H
	DD	00H
	DD	00H
	DD	00H
	DD	00H
	DD	00H
	DD	00H
	DD	00H
	DD	00H
	DD	00H
	DD	00H
	DD	00H
	DD	00H
	DD	00H
	DD	00H
	DD	00H
	DD	00H
	DD	00H
	DD	00H
	DD	00H
	DD	00H
	DD	00H
	DD	00H
	DD	00H
	DD	00H
	DD	00H
	DD	00H
	DD	00H
	DD	00H
	DD	00H
	DD	00H
	DD	00H
	DD	00H
	DD	00H
	DD	00H
	DD	00H
	DD	00H
	DD	00H
	DD	00H
	DD	00H
	DD	00H
	DD	00H
	DD	00H
	DD	00H
	DD	00H
	DD	00H
	DD	00H
	DD	00H
	DD	00H
	DD	00H
	DD	00H
	DD	00H
	DD	00H
	DD	00H
	DD	00H
	DD	00H
	DD	00H
	DD	00H
	DD	00H
	DD	00H
	DD	00H
	DD	00H
	DD	00H
	DD	00H
	DD	00H
	DD	00H
	DD	00H
	DD	00H
	DD	00H
	DD	00H
	DD	00H
	DD	00H
	DD	00H
	DD	00H
	DD	00H
	DD	00H
	DD	00H
	DD	00H
	DD	00H
	DD	00H
	DD	00H
	DD	00H
	DD	00H
	DD	00H
	DD	00H
	DD	00H
	DD	00H
	DD	00H
	DD	00H
	DD	00H
	DD	00H
	DD	00H
	DD	00H
	DD	00H
	DD	00H
	DD	00H
	DD	00H
	DD	00H
	DD	00H
	DD	00H
	DD	00H
	DD	00H
	DD	00H
	DD	00H
	DD	00H
	DD	00H
	DD	00H
	DD	00H
	DD	00H
	DD	00H
	DD	00H
	DD	00H
	DD	00H
	DD	00H
	DD	00H
	DD	00H
	DD	00H
	DD	00H
	DD	00H
	DD	00H
	DD	00H
	DD	00H
	DD	00H
	DD	00H
	DD	00H
	DD	00H
	DD	00H
	DD	00H
	DD	00H
	DD	00H
	DD	00H
	DD	00H
	DD	00H
	DD	00H
	DD	00H
	DD	00H
	DD	00H
	DD	00H
	DD	00H
	DD	00H
	DD	00H
	DD	00H
	DD	00H
	DD	00H
	DD	00H
	DD	00H
	DD	00H
	DD	00H
	DD	00H
	DD	00H
	DD	00H
	DD	00H
	DD	00H
	DD	00H
	DD	00H
	DD	00H
	DD	00H
	DD	00H
	DD	00H
	DD	00H
	DD	00H
	DD	00H
	DD	00H
	DD	00H
	DD	00H
	DD	00H
	DD	00H
	DD	00H
	DD	00H
	DD	00H
	DD	00H
	DD	00H
	DD	00H
	DD	00H
	DD	00H
	DD	00H
	DD	00H
	DD	00H
	DD	00H
	DD	00H
	DD	00H
	DD	00H
	DD	00H
	DD	00H
	DD	00H
	DD	00H
	DD	00H
	DD	00H
	DD	00H
	DD	00H
	DD	00H
	DD	00H
	DD	00H
	DD	00H
	DD	00H
	DD	00H
	DD	00H
	DD	00H
	DD	00H
	DD	00H
	DD	00H
	DD	00H
	DD	00H
	DD	00H
	DD	00H
	DD	00H
	DD	00H
	DD	00H
	DD	00H
	DD	00H
	DD	00H
	DD	00H
	DD	00H
	DD	00H
	DD	00H
	DD	00H
	DD	00H
	DD	00H
	DD	00H
	DD	00H
	DD	00H
	DD	00H
	DD	00H
	DD	00H
	DD	00H
	DD	00H
	DD	00H
	DD	00H
	DD	00H
	DD	00H
	DD	00H
	DD	00H
	DD	00H
	DD	00H
	DD	00H
	DD	00H
	DD	00H
	DD	00H
	DD	00H
	DD	00H
	DD	00H
	DD	00H
	DD	00H
	DD	00H
	DD	00H
	DD	00H
	DD	00H
	DD	00H
	DD	00H
	DD	00H
	DD	00H
	DD	00H
	DD	00H
	DD	00H
	DD	00H
	DD	00H
	DD	00H
	DD	00H
	DD	00H
	DD	00H
	DD	00H
	DD	00H
	DD	00H
	DD	00H
	DD	00H
	DD	00H
	DD	00H
	DD	00H
	DD	00H
	DD	00H
	DD	00H
	DD	00H
	DD	00H
	DD	00H
	DD	00H
	DD	00H
	DD	00H
	DD	00H
	DD	00H
	DD	00H
	DD	00H
	DD	00H
	DD	00H
	DD	00H
	DD	00H
	DD	00H
	DD	00H
	DD	00H
	DD	00H
	DD	00H
	DD	00H
	DD	00H
	DD	00H
	DD	00H
	DD	00H
	DD	00H
	DD	00H
	DD	00H
	DD	00H
	DD	00H
	DD	00H
	DD	00H
	DD	00H
	DD	00H
	DD	00H
	DD	00H
	DD	00H
	DD	00H
	DD	00H
	DD	00H
	DD	00H
	DD	00H
	DD	00H
	DD	00H
	DD	00H
	DD	00H
	DD	00H
	DD	00H
	DD	00H
	DD	00H
	DD	00H
	DD	00H
	DD	00H
	DD	00H
	DD	00H
	DD	00H
	DD	00H
	DD	00H
	DD	00H
	DD	00H
	DD	00H
	DD	00H
	DD	00H
	DD	00H
	DD	00H
	DD	00H
	DD	00H
	DD	00H
	DD	00H
	DD	00H
	DD	00H
	DD	00H
	DD	00H
	DD	00H
	DD	00H
	DD	00H
	DD	00H
	DD	00H
	DD	00H
	DD	00H
	DD	00H
	DD	00H
	DD	00H
	DD	00H
	DD	00H
	DD	00H
	DD	00H
	DD	00H
	DD	00H
	DD	00H
	DD	00H
	DD	00H
	DD	00H
	DD	00H
	DD	00H
	DD	00H
	DD	00H
	DD	00H
	DD	00H
	DD	00H
	DD	00H
	DD	00H
	DD	00H
	DD	00H
	DD	00H
	DD	00H
	DD	00H
	DD	00H
	DD	00H
	DD	00H
	DD	00H
	DD	00H
	DD	00H
	DD	00H
	DD	00H
	DD	00H
	DD	00H
	DD	00H
	DD	00H
	DD	00H
	DD	00H
	DD	00H
	DD	00H
	DD	00H
	DD	00H
	DD	00H
	DD	00H
	DD	00H
	DD	00H
	DD	00H
	DD	00H
	DD	00H
	DD	00H
	DD	00H
	DD	00H
	DD	00H
	DD	00H
	DD	00H
	DD	00H
	DD	00H
	DD	00H
	DD	01H
	DD	01H
	DD	01H
	DD	01H
	DD	01H
	DD	01H
	DD	01H
	DD	01H
	DD	01H
	DD	01H
	DD	01H
	DD	01H
	DD	01H
	DD	01H
	DD	01H
	DD	01H
	DD	01H
	DD	01H
	DD	01H
	DD	01H
	DD	01H
	DD	01H
	DD	01H
	DD	01H
	DD	01H
	DD	01H
	DD	01H
	DD	00H
	DD	00H
	DD	00H
	DD	00H
	DD	00H
	DD	00H
	DD	00H
	DD	00H
	DD	00H
	DD	00H
	DD	00H
	DD	00H
	DD	00H
	DD	00H
	DD	00H
	DD	00H
	DD	00H
	DD	00H
	DD	00H
	DD	00H
	DD	00H
	DD	00H
	DD	00H
	DD	00H
	DD	00H
	DD	00H
	DD	00H
	DD	00H
	DD	00H
	DD	00H
	DD	00H
	DD	00H
	DD	00H
	DD	00H
	DD	00H
	DD	00H
	DD	00H
	DD	00H
	DD	00H
	DD	00H
	DD	00H
	DD	00H
	DD	00H
	DD	00H
	DD	00H
	DD	00H
	DD	00H
	DD	00H
	DD	00H
	DD	00H
	DD	00H
	DD	00H
	DD	00H
	DD	02H
	DD	03H
	DD	00H
	DD	00H
	DD	00H
	DD	00H
	DD	00H
	DD	00H
	DD	00H
	DD	00H
	DD	00H
	DD	00H
	DD	00H
	DD	00H
	DD	00H
	DD	00H
	DD	00H
	DD	05H
	DD	00H
	DD	00H
	DD	00H
	DD	00H
	DD	00H
	DD	00H
	DD	00H
	DD	00H
	DD	01H
	DD	00H
	DD	00H
	DD	00H
	DD	00H
	DD	00H
	DD	00H
	DD	00H
	DD	00H
	DD	00H
	DD	00H
	DD	00H
	DD	00H
	DD	00H
	DD	00H
	DD	00H
	DD	00H
	DD	00H
	DD	00H
	DD	00H
	DD	00H
	DD	00H
	DD	00H
	DD	00H
	DD	00H
	DD	00H
	DD	00H
	DD	00H
	DD	00H
	DD	00H
	DD	00H
	DD	00H
	DD	00H
	DD	00H
	DD	00H
	DD	00H
	DD	00H
	DD	00H
	DD	00H
	DD	00H
	DD	00H
	DD	00H
	DD	00H
	DD	00H
	DD	00H
	DD	00H
	DD	00H
	DD	00H
	DD	00H
	DD	00H
	DD	00H
	DD	00H
	DD	00H
	DD	00H
	DD	02H
	DD	01H
	DD	00H
	DD	00H
	DD	00H
	DD	00H
	DD	00H
	DD	00H
	DD	00H
	DD	00H
	DD	00H
	DD	00H
	DD	00H
	DD	01H
	DD	00H
	DD	00H
	DD	00H
	DD	05H
	DD	00H
	DD	00H
	DD	00H
	DD	01H
	DD	00H
	DD	05H
	DD	00H
	DD	00H
	DD	01H
	DD	00H
	DD	00H
	DD	00H
	DD	00H
	DD	00H
	DD	00H
	DD	00H
	DD	00H
	DD	00H
	DD	00H
	DD	00H
	DD	00H
	DD	00H
	DD	00H
	DD	00H
	DD	00H
	DD	00H
	DD	00H
	DD	00H
	DD	00H
	DD	00H
	DD	00H
	DD	00H
	DD	00H
	DD	00H
	DD	00H
	DD	00H
	DD	00H
	DD	00H
	DD	00H
	DD	00H
	DD	00H
	DD	00H
	DD	00H
	DD	00H
	DD	00H
	DD	00H
	DD	00H
	DD	00H
	DD	00H
	DD	00H
	DD	00H
	DD	00H
	DD	00H
	DD	00H
	DD	00H
	DD	00H
	DD	00H
	DD	00H
	DD	00H
	DD	00H
	DD	00H
	DD	00H
	DD	02H
	DD	01H
	DD	06H
	DD	00H
	DD	06H
	DD	00H
	DD	06H
	DD	00H
	DD	06H
	DD	05H
	DD	06H
	DD	05H
	DD	06H
	DD	01H
	DD	00H
	DD	05H
	DD	00H
	DD	00H
	DD	00H
	DD	05H
	DD	07H
	DD	01H
	DD	00H
	DD	01H
	DD	00H
	DD	05H
	DD	01H
	DD	00H
	DD	00H
	DD	00H
	DD	00H
	DD	00H
	DD	00H
	DD	00H
	DD	00H
	DD	00H
	DD	00H
	DD	00H
	DD	00H
	DD	00H
	DD	00H
	DD	00H
	DD	00H
	DD	00H
	DD	00H
	DD	00H
	DD	00H
	DD	00H
	DD	00H
	DD	00H
	DD	00H
	DD	00H
	DD	00H
	DD	00H
	DD	00H
	DD	00H
	DD	00H
	DD	00H
	DD	00H
	DD	00H
	DD	00H
	DD	00H
	DD	00H
	DD	00H
	DD	00H
	DD	00H
	DD	00H
	DD	00H
	DD	00H
	DD	00H
	DD	00H
	DD	00H
	DD	00H
	DD	00H
	DD	00H
	DD	00H
	DD	00H
	DD	00H
	DD	00H
	DD	00H
	DD	02H
	DD	01H
	DD	05H
	DD	05H
	DD	05H
	DD	05H
	DD	05H
	DD	05H
	DD	08H
	DD	08H
	DD	08H
	DD	08H
	DD	08H
	DD	01H
	DD	01H
	DD	01H
	DD	01H
	DD	01H
	DD	01H
	DD	01H
	DD	01H
	DD	01H
	DD	00H
	DD	01H
	DD	00H
	DD	00H
	DD	01H
	DD	00H
	DD	00H
	DD	00H
	DD	00H
	DD	00H
	DD	00H
	DD	00H
	DD	00H
	DD	00H
	DD	00H
	DD	00H
	DD	00H
	DD	00H
	DD	00H
	DD	00H
	DD	00H
	DD	00H
	DD	00H
	DD	00H
	DD	00H
	DD	00H
	DD	00H
	DD	00H
	DD	00H
	DD	00H
	DD	00H
	DD	00H
	DD	00H
	DD	00H
	DD	00H
	DD	00H
	DD	00H
	DD	00H
	DD	00H
	DD	00H
	DD	00H
	DD	00H
	DD	00H
	DD	00H
	DD	00H
	DD	00H
	DD	00H
	DD	00H
	DD	00H
	DD	00H
	DD	00H
	DD	00H
	DD	00H
	DD	00H
	DD	00H
	DD	00H
	DD	00H
	DD	00H
	DD	02H
	DD	02H
	DD	02H
	DD	02H
	DD	02H
	DD	02H
	DD	02H
	DD	00H
	DD	00H
	DD	00H
	DD	00H
	DD	00H
	DD	00H
	DD	00H
	DD	00H
	DD	00H
	DD	00H
	DD	00H
	DD	05H
	DD	00H
	DD	00H
	DD	01H
	DD	00H
	DD	01H
	DD	00H
	DD	00H
	DD	01H
	DD	00H
	DD	00H
	DD	00H
	DD	00H
	DD	00H
	DD	00H
	DD	00H
	DD	00H
	DD	00H
	DD	00H
	DD	00H
	DD	00H
	DD	00H
	DD	00H
	DD	00H
	DD	00H
	DD	00H
	DD	00H
	DD	00H
	DD	00H
	DD	00H
	DD	00H
	DD	00H
	DD	00H
	DD	00H
	DD	00H
	DD	00H
	DD	00H
	DD	00H
	DD	00H
	DD	00H
	DD	00H
	DD	00H
	DD	00H
	DD	00H
	DD	00H
	DD	00H
	DD	00H
	DD	00H
	DD	00H
	DD	00H
	DD	00H
	DD	00H
	DD	00H
	DD	00H
	DD	00H
	DD	00H
	DD	00H
	DD	00H
	DD	00H
	DD	00H
	DD	00H
	DD	00H
	DD	01H
	DD	01H
	DD	01H
	DD	01H
	DD	01H
	DD	01H
	DD	01H
	DD	01H
	DD	07H
	DD	07H
	DD	07H
	DD	07H
	DD	07H
	DD	01H
	DD	00H
	DD	00H
	DD	01H
	DD	00H
	DD	00H
	DD	01H
	DD	00H
	DD	01H
	DD	00H
	DD	01H
	DD	00H
	DD	00H
	DD	01H
	DD	00H
	DD	00H
	DD	00H
	DD	00H
	DD	00H
	DD	00H
	DD	00H
	DD	00H
	DD	00H
	DD	00H
	DD	00H
	DD	00H
	DD	00H
	DD	00H
	DD	00H
	DD	00H
	DD	00H
	DD	00H
	DD	00H
	DD	00H
	DD	00H
	DD	00H
	DD	00H
	DD	00H
	DD	00H
	DD	00H
	DD	00H
	DD	00H
	DD	00H
	DD	00H
	DD	00H
	DD	00H
	DD	00H
	DD	00H
	DD	00H
	DD	00H
	DD	00H
	DD	00H
	DD	00H
	DD	00H
	DD	00H
	DD	00H
	DD	00H
	DD	00H
	DD	00H
	DD	00H
	DD	00H
	DD	00H
	DD	00H
	DD	00H
	DD	00H
	DD	00H
	DD	00H
	DD	01H
	DD	01H
	DD	01H
	DD	05H
	DD	00H
	DD	00H
	DD	05H
	DD	01H
	DD	01H
	DD	01H
	DD	01H
	DD	01H
	DD	01H
	DD	01H
	DD	01H
	DD	00H
	DD	00H
	DD	00H
	DD	00H
	DD	00H
	DD	00H
	DD	01H
	DD	00H
	DD	01H
	DD	05H
	DD	00H
	DD	01H
	DD	00H
	DD	00H
	DD	00H
	DD	00H
	DD	00H
	DD	00H
	DD	00H
	DD	00H
	DD	00H
	DD	00H
	DD	00H
	DD	00H
	DD	00H
	DD	00H
	DD	00H
	DD	00H
	DD	00H
	DD	00H
	DD	00H
	DD	00H
	DD	00H
	DD	00H
	DD	00H
	DD	00H
	DD	00H
	DD	00H
	DD	00H
	DD	00H
	DD	00H
	DD	00H
	DD	00H
	DD	00H
	DD	00H
	DD	00H
	DD	00H
	DD	00H
	DD	00H
	DD	00H
	DD	00H
	DD	00H
	DD	00H
	DD	00H
	DD	00H
	DD	00H
	DD	00H
	DD	00H
	DD	00H
	DD	00H
	DD	00H
	DD	00H
	DD	00H
	DD	00H
	DD	00H
	DD	01H
	DD	05H
	DD	05H
	DD	00H
	DD	00H
	DD	00H
	DD	00H
	DD	05H
	DD	05H
	DD	00H
	DD	00H
	DD	00H
	DD	05H
	DD	01H
	DD	05H
	DD	00H
	DD	00H
	DD	01H
	DD	00H
	DD	00H
	DD	05H
	DD	01H
	DD	00H
	DD	01H
	DD	00H
	DD	00H
	DD	01H
	DD	00H
	DD	00H
	DD	00H
	DD	00H
	DD	00H
	DD	00H
	DD	00H
	DD	00H
	DD	00H
	DD	00H
	DD	00H
	DD	00H
	DD	00H
	DD	00H
	DD	00H
	DD	00H
	DD	00H
	DD	00H
	DD	00H
	DD	00H
	DD	00H
	DD	00H
	DD	00H
	DD	00H
	DD	00H
	DD	00H
	DD	00H
	DD	00H
	DD	00H
	DD	00H
	DD	00H
	DD	00H
	DD	00H
	DD	00H
	DD	00H
	DD	00H
	DD	00H
	DD	00H
	DD	00H
	DD	00H
	DD	00H
	DD	00H
	DD	00H
	DD	00H
	DD	00H
	DD	00H
	DD	00H
	DD	00H
	DD	00H
	DD	00H
	DD	00H
	DD	00H
	DD	00H
	DD	01H
	DD	00H
	DD	00H
	DD	00H
	DD	00H
	DD	00H
	DD	00H
	DD	00H
	DD	00H
	DD	00H
	DD	00H
	DD	00H
	DD	00H
	DD	01H
	DD	00H
	DD	00H
	DD	00H
	DD	05H
	DD	00H
	DD	01H
	DD	05H
	DD	01H
	DD	06H
	DD	01H
	DD	00H
	DD	00H
	DD	01H
	DD	00H
	DD	00H
	DD	00H
	DD	00H
	DD	00H
	DD	00H
	DD	00H
	DD	00H
	DD	00H
	DD	00H
	DD	00H
	DD	00H
	DD	00H
	DD	00H
	DD	00H
	DD	00H
	DD	00H
	DD	00H
	DD	00H
	DD	00H
	DD	00H
	DD	00H
	DD	00H
	DD	00H
	DD	00H
	DD	00H
	DD	00H
	DD	00H
	DD	00H
	DD	00H
	DD	00H
	DD	00H
	DD	00H
	DD	00H
	DD	00H
	DD	00H
	DD	00H
	DD	00H
	DD	00H
	DD	00H
	DD	00H
	DD	00H
	DD	00H
	DD	00H
	DD	00H
	DD	00H
	DD	00H
	DD	00H
	DD	00H
	DD	00H
	DD	00H
	DD	00H
	DD	00H
	DD	01H
	DD	00H
	DD	00H
	DD	01H
	DD	05H
	DD	05H
	DD	00H
	DD	00H
	DD	00H
	DD	00H
	DD	05H
	DD	00H
	DD	00H
	DD	01H
	DD	00H
	DD	01H
	DD	00H
	DD	00H
	DD	00H
	DD	00H
	DD	00H
	DD	01H
	DD	05H
	DD	01H
	DD	00H
	DD	01H
	DD	01H
	DD	00H
	DD	00H
	DD	00H
	DD	00H
	DD	00H
	DD	00H
	DD	00H
	DD	00H
	DD	00H
	DD	00H
	DD	00H
	DD	00H
	DD	00H
	DD	00H
	DD	00H
	DD	00H
	DD	00H
	DD	00H
	DD	00H
	DD	00H
	DD	00H
	DD	00H
	DD	00H
	DD	00H
	DD	00H
	DD	00H
	DD	00H
	DD	00H
	DD	00H
	DD	00H
	DD	00H
	DD	00H
	DD	00H
	DD	00H
	DD	00H
	DD	00H
	DD	00H
	DD	00H
	DD	00H
	DD	00H
	DD	00H
	DD	00H
	DD	00H
	DD	00H
	DD	00H
	DD	00H
	DD	00H
	DD	00H
	DD	00H
	DD	00H
	DD	00H
	DD	00H
	DD	00H
	DD	01H
	DD	03H
	DD	01H
	DD	01H
	DD	01H
	DD	01H
	DD	01H
	DD	01H
	DD	01H
	DD	01H
	DD	05H
	DD	05H
	DD	00H
	DD	01H
	DD	05H
	DD	00H
	DD	00H
	DD	00H
	DD	01H
	DD	00H
	DD	00H
	DD	00H
	DD	00H
	DD	05H
	DD	00H
	DD	00H
	DD	01H
	DD	00H
	DD	00H
	DD	00H
	DD	00H
	DD	00H
	DD	00H
	DD	00H
	DD	00H
	DD	00H
	DD	00H
	DD	00H
	DD	00H
	DD	00H
	DD	00H
	DD	00H
	DD	00H
	DD	00H
	DD	00H
	DD	00H
	DD	00H
	DD	00H
	DD	00H
	DD	00H
	DD	00H
	DD	00H
	DD	00H
	DD	00H
	DD	00H
	DD	00H
	DD	00H
	DD	00H
	DD	00H
	DD	00H
	DD	00H
	DD	00H
	DD	00H
	DD	00H
	DD	00H
	DD	00H
	DD	00H
	DD	00H
	DD	00H
	DD	00H
	DD	00H
	DD	00H
	DD	00H
	DD	00H
	DD	00H
	DD	00H
	DD	00H
	DD	00H
	DD	00H
	DD	00H
	DD	01H
	DD	02H
	DD	02H
	DD	02H
	DD	02H
	DD	02H
	DD	02H
	DD	00H
	DD	00H
	DD	01H
	DD	00H
	DD	00H
	DD	00H
	DD	01H
	DD	01H
	DD	01H
	DD	01H
	DD	01H
	DD	01H
	DD	01H
	DD	01H
	DD	01H
	DD	00H
	DD	01H
	DD	00H
	DD	00H
	DD	01H
	DD	00H
	DD	00H
	DD	00H
	DD	00H
	DD	00H
	DD	00H
	DD	00H
	DD	00H
	DD	00H
	DD	00H
	DD	00H
	DD	00H
	DD	00H
	DD	00H
	DD	00H
	DD	00H
	DD	00H
	DD	00H
	DD	00H
	DD	00H
	DD	00H
	DD	00H
	DD	00H
	DD	00H
	DD	00H
	DD	00H
	DD	00H
	DD	00H
	DD	00H
	DD	00H
	DD	00H
	DD	00H
	DD	00H
	DD	00H
	DD	00H
	DD	00H
	DD	00H
	DD	00H
	DD	00H
	DD	00H
	DD	00H
	DD	00H
	DD	00H
	DD	00H
	DD	00H
	DD	00H
	DD	00H
	DD	00H
	DD	00H
	DD	00H
	DD	00H
	DD	00H
	DD	00H
	DD	01H
	DD	01H
	DD	01H
	DD	01H
	DD	01H
	DD	01H
	DD	01H
	DD	01H
	DD	00H
	DD	01H
	DD	00H
	DD	01H
	DD	01H
	DD	01H
	DD	00H
	DD	01H
	DD	00H
	DD	01H
	DD	05H
	DD	01H
	DD	05H
	DD	01H
	DD	00H
	DD	05H
	DD	05H
	DD	00H
	DD	01H
	DD	00H
	DD	00H
	DD	00H
	DD	00H
	DD	00H
	DD	00H
	DD	00H
	DD	00H
	DD	00H
	DD	00H
	DD	00H
	DD	00H
	DD	00H
	DD	00H
	DD	00H
	DD	00H
	DD	00H
	DD	00H
	DD	00H
	DD	00H
	DD	00H
	DD	00H
	DD	00H
	DD	00H
	DD	00H
	DD	00H
	DD	00H
	DD	00H
	DD	00H
	DD	00H
	DD	00H
	DD	00H
	DD	00H
	DD	00H
	DD	00H
	DD	00H
	DD	00H
	DD	00H
	DD	00H
	DD	00H
	DD	00H
	DD	00H
	DD	00H
	DD	00H
	DD	00H
	DD	00H
	DD	00H
	DD	00H
	DD	00H
	DD	00H
	DD	00H
	DD	00H
	DD	00H
	DD	01H
	DD	00H
	DD	00H
	DD	00H
	DD	00H
	DD	00H
	DD	00H
	DD	00H
	DD	00H
	DD	01H
	DD	00H
	DD	00H
	DD	00H
	DD	00H
	DD	00H
	DD	00H
	DD	00H
	DD	00H
	DD	00H
	DD	01H
	DD	00H
	DD	00H
	DD	00H
	DD	01H
	DD	05H
	DD	00H
	DD	01H
	DD	00H
	DD	00H
	DD	00H
	DD	09H
	DD	00H
	DD	00H
	DD	01H
	DD	00H
	DD	00H
	DD	00H
	DD	00H
	DD	00H
	DD	00H
	DD	00H
	DD	00H
	DD	00H
	DD	00H
	DD	00H
	DD	00H
	DD	00H
	DD	00H
	DD	00H
	DD	00H
	DD	00H
	DD	00H
	DD	00H
	DD	00H
	DD	00H
	DD	00H
	DD	00H
	DD	00H
	DD	00H
	DD	00H
	DD	00H
	DD	00H
	DD	00H
	DD	00H
	DD	00H
	DD	00H
	DD	00H
	DD	00H
	DD	00H
	DD	00H
	DD	00H
	DD	00H
	DD	00H
	DD	00H
	DD	00H
	DD	00H
	DD	00H
	DD	00H
	DD	00H
	DD	00H
	DD	01H
	DD	00H
	DD	00H
	DD	00H
	DD	01H
	DD	00H
	DD	00H
	DD	01H
	DD	00H
	DD	01H
	DD	00H
	DD	00H
	DD	00H
	DD	01H
	DD	00H
	DD	00H
	DD	00H
	DD	01H
	DD	00H
	DD	00H
	DD	00H
	DD	01H
	DD	00H
	DD	05H
	DD	05H
	DD	00H
	DD	01H
	DD	00H
	DD	00H
	DD	00H
	DD	00H
	DD	00H
	DD	00H
	DD	00H
	DD	00H
	DD	0bH
	DD	00H
	DD	00H
	DD	01H
	DD	00H
	DD	00H
	DD	00H
	DD	00H
	DD	00H
	DD	00H
	DD	00H
	DD	00H
	DD	00H
	DD	00H
	DD	00H
	DD	00H
	DD	00H
	DD	00H
	DD	00H
	DD	00H
	DD	00H
	DD	00H
	DD	00H
	DD	00H
	DD	00H
	DD	00H
	DD	00H
	DD	00H
	DD	00H
	DD	00H
	DD	00H
	DD	00H
	DD	00H
	DD	00H
	DD	00H
	DD	00H
	DD	00H
	DD	00H
	DD	00H
	DD	00H
	DD	00H
	DD	00H
	DD	00H
	DD	00H
	DD	00H
	DD	01H
	DD	04H
	DD	00H
	DD	01H
	DD	01H
	DD	00H
	DD	05H
	DD	01H
	DD	05H
	DD	01H
	DD	05H
	DD	01H
	DD	05H
	DD	01H
	DD	05H
	DD	00H
	DD	05H
	DD	01H
	DD	05H
	DD	01H
	DD	00H
	DD	01H
	DD	06H
	DD	01H
	DD	05H
	DD	00H
	DD	00H
	DD	00H
	DD	01H
	DD	00H
	DD	0aH
	DD	00H
	DD	00H
	DD	01H
	DD	00H
	DD	00H
	DD	00H
	DD	00H
	DD	00H
	DD	00H
	DD	00H
	DD	00H
	DD	00H
	DD	00H
	DD	00H
	DD	00H
	DD	00H
	DD	00H
	DD	00H
	DD	00H
	DD	00H
	DD	00H
	DD	00H
	DD	00H
	DD	00H
	DD	00H
	DD	00H
	DD	00H
	DD	00H
	DD	00H
	DD	00H
	DD	00H
	DD	00H
	DD	00H
	DD	00H
	DD	00H
	DD	00H
	DD	00H
	DD	00H
	DD	00H
	DD	00H
	DD	00H
	DD	00H
	DD	00H
	DD	00H
	DD	00H
	DD	00H
	DD	00H
	DD	00H
	DD	00H
	DD	01H
	DD	01H
	DD	01H
	DD	01H
	DD	01H
	DD	01H
	DD	01H
	DD	01H
	DD	01H
	DD	01H
	DD	01H
	DD	01H
	DD	01H
	DD	01H
	DD	01H
	DD	01H
	DD	01H
	DD	01H
	DD	01H
	DD	01H
	DD	05H
	DD	01H
	DD	01H
	DD	01H
	DD	01H
	DD	01H
	DD	01H
	DD	01H
	DD	01H
	DD	01H
	DD	01H
	DD	01H
	DD	01H
	DD	01H
	DD	01H
	DD	01H
	DD	01H
	DD	01H
	DD	01H
	DD	01H
	DD	01H
	DD	01H
	DD	01H
	DD	01H
	DD	01H
	DD	01H
	DD	01H
	DD	01H
	DD	01H
	DD	01H
	DD	01H
	DD	01H
	DD	01H
	DD	01H
	DD	01H
	DD	01H
	DD	01H
	DD	01H
	DD	01H
	DD	01H
	DD	01H
	DD	01H
	DD	01H
	DD	01H
	DD	01H
	DD	01H
	DD	01H
	DD	01H
	DD	01H
	DD	01H
	DD	01H
	DD	01H
	DD	01H
	DD	01H
	DD	01H
	DD	01H
	DD	01H
	DD	01H
	DD	01H
	DD	01H
_DATA	ENDS
PUBLIC	?__empty_global_delete@@YAXPAX@Z		; __empty_global_delete
PUBLIC	?__empty_global_delete@@YAXPAXI@Z		; __empty_global_delete
PUBLIC	??2@YAPAXIPAX@Z					; operator new
PUBLIC	??0_Container_proxy@std@@QAE@XZ			; std::_Container_proxy::_Container_proxy
PUBLIC	??0_Container_base12@std@@QAE@XZ		; std::_Container_base12::_Container_base12
PUBLIC	??1_Container_base12@std@@QAE@XZ		; std::_Container_base12::~_Container_base12
PUBLIC	?_Getpfirst@_Container_base12@std@@QBEPAPAU_Iterator_base12@2@XZ ; std::_Container_base12::_Getpfirst
PUBLIC	?_Orphan_all@_Container_base12@std@@QAEXXZ	; std::_Container_base12::_Orphan_all
PUBLIC	??0_Iterator_base12@std@@QAE@XZ			; std::_Iterator_base12::_Iterator_base12
PUBLIC	??1_Iterator_base12@std@@QAE@XZ			; std::_Iterator_base12::~_Iterator_base12
PUBLIC	?_Adopt@_Iterator_base12@std@@QAEXPBU_Container_base12@2@@Z ; std::_Iterator_base12::_Adopt
PUBLIC	?_Clrcont@_Iterator_base12@std@@QAEXXZ		; std::_Iterator_base12::_Clrcont
PUBLIC	?_Getcont@_Iterator_base12@std@@QBEPBU_Container_base12@2@XZ ; std::_Iterator_base12::_Getcont
PUBLIC	?_Getpnext@_Iterator_base12@std@@QAEPAPAU12@XZ	; std::_Iterator_base12::_Getpnext
PUBLIC	?_Orphan_me@_Iterator_base12@std@@QAEXXZ	; std::_Iterator_base12::_Orphan_me
PUBLIC	?_Allocate@std@@YAPAXII_N@Z			; std::_Allocate
PUBLIC	?_Deallocate@std@@YAXPAXII@Z			; std::_Deallocate
PUBLIC	?top@Tile@@QAENXZ				; Tile::top
PUBLIC	?bottom@Tile@@QAENXZ				; Tile::bottom
PUBLIC	?left@Tile@@QAENXZ				; Tile::left
PUBLIC	?right@Tile@@QAENXZ				; Tile::right
PUBLIC	??0Tile@@QAE@XZ					; Tile::Tile
PUBLIC	??0MovingTile@@QAE@XZ				; MovingTile::MovingTile
PUBLIC	??0SpawnTile@@QAE@XZ				; SpawnTile::SpawnTile
PUBLIC	??0PushTile@@QAE@XZ				; PushTile::PushTile
PUBLIC	??0?$allocator@UPushTile@@@std@@QAE@XZ		; std::allocator<PushTile>::allocator<PushTile>
PUBLIC	?deallocate@?$allocator@UPushTile@@@std@@QAEXPAUPushTile@@I@Z ; std::allocator<PushTile>::deallocate
PUBLIC	?allocate@?$allocator@UPushTile@@@std@@QAEPAUPushTile@@I@Z ; std::allocator<PushTile>::allocate
PUBLIC	?max_size@?$allocator@UPushTile@@@std@@QBEIXZ	; std::allocator<PushTile>::max_size
PUBLIC	?max_size@?$allocator_traits@V?$allocator@UPushTile@@@std@@@std@@SAIABV?$allocator@UPushTile@@@2@@Z ; std::allocator_traits<std::allocator<PushTile> >::max_size
PUBLIC	??0?$_Wrap_alloc@V?$allocator@UPushTile@@@std@@@std@@QAE@XZ ; std::_Wrap_alloc<std::allocator<PushTile> >::_Wrap_alloc<std::allocator<PushTile> >
PUBLIC	?allocate@?$_Wrap_alloc@V?$allocator@UPushTile@@@std@@@std@@QAEPAUPushTile@@I@Z ; std::_Wrap_alloc<std::allocator<PushTile> >::allocate
PUBLIC	?deallocate@?$_Wrap_alloc@V?$allocator@UPushTile@@@std@@@std@@QAEXPAUPushTile@@I@Z ; std::_Wrap_alloc<std::allocator<PushTile> >::deallocate
PUBLIC	?max_size@?$_Wrap_alloc@V?$allocator@UPushTile@@@std@@@std@@QBEIU_Nil@2@@Z ; std::_Wrap_alloc<std::allocator<PushTile> >::max_size
PUBLIC	??0?$_Vector_alloc@U?$_Vec_base_types@UPushTile@@V?$allocator@UPushTile@@@std@@@std@@@std@@QAE@XZ ; std::_Vector_alloc<std::_Vec_base_types<PushTile,std::allocator<PushTile> > >::_Vector_alloc<std::_Vec_base_types<PushTile,std::allocator<PushTile> > >
PUBLIC	??1?$_Vector_alloc@U?$_Vec_base_types@UPushTile@@V?$allocator@UPushTile@@@std@@@std@@@std@@QAE@XZ ; std::_Vector_alloc<std::_Vec_base_types<PushTile,std::allocator<PushTile> > >::~_Vector_alloc<std::_Vec_base_types<PushTile,std::allocator<PushTile> > >
PUBLIC	?_Alloc_proxy@?$_Vector_alloc@U?$_Vec_base_types@UPushTile@@V?$allocator@UPushTile@@@std@@@std@@@std@@QAEXXZ ; std::_Vector_alloc<std::_Vec_base_types<PushTile,std::allocator<PushTile> > >::_Alloc_proxy
PUBLIC	?_Free_proxy@?$_Vector_alloc@U?$_Vec_base_types@UPushTile@@V?$allocator@UPushTile@@@std@@@std@@@std@@QAEXXZ ; std::_Vector_alloc<std::_Vec_base_types<PushTile,std::allocator<PushTile> > >::_Free_proxy
PUBLIC	?_Getpfirst@?$_Vector_alloc@U?$_Vec_base_types@UPushTile@@V?$allocator@UPushTile@@@std@@@std@@@std@@QBEPAPAU_Iterator_base12@2@XZ ; std::_Vector_alloc<std::_Vec_base_types<PushTile,std::allocator<PushTile> > >::_Getpfirst
PUBLIC	?_Myproxy@?$_Vector_alloc@U?$_Vec_base_types@UPushTile@@V?$allocator@UPushTile@@@std@@@std@@@std@@QAEAAPAU_Container_proxy@2@XZ ; std::_Vector_alloc<std::_Vec_base_types<PushTile,std::allocator<PushTile> > >::_Myproxy
PUBLIC	?_Orphan_all@?$_Vector_alloc@U?$_Vec_base_types@UPushTile@@V?$allocator@UPushTile@@@std@@@std@@@std@@QAEXXZ ; std::_Vector_alloc<std::_Vec_base_types<PushTile,std::allocator<PushTile> > >::_Orphan_all
PUBLIC	?_Getal@?$_Vector_alloc@U?$_Vec_base_types@UPushTile@@V?$allocator@UPushTile@@@std@@@std@@@std@@QAEAAU?$_Wrap_alloc@V?$allocator@UPushTile@@@std@@@2@XZ ; std::_Vector_alloc<std::_Vec_base_types<PushTile,std::allocator<PushTile> > >::_Getal
PUBLIC	?_Getal@?$_Vector_alloc@U?$_Vec_base_types@UPushTile@@V?$allocator@UPushTile@@@std@@@std@@@std@@QBEABU?$_Wrap_alloc@V?$allocator@UPushTile@@@std@@@2@XZ ; std::_Vector_alloc<std::_Vec_base_types<PushTile,std::allocator<PushTile> > >::_Getal
PUBLIC	?_Get_data@?$_Vector_alloc@U?$_Vec_base_types@UPushTile@@V?$allocator@UPushTile@@@std@@@std@@@std@@QAEAAV?$_Vector_val@U?$_Simple_types@UPushTile@@@std@@@2@XZ ; std::_Vector_alloc<std::_Vec_base_types<PushTile,std::allocator<PushTile> > >::_Get_data
PUBLIC	?_Get_data@?$_Vector_alloc@U?$_Vec_base_types@UPushTile@@V?$allocator@UPushTile@@@std@@@std@@@std@@QBEABV?$_Vector_val@U?$_Simple_types@UPushTile@@@std@@@2@XZ ; std::_Vector_alloc<std::_Vec_base_types<PushTile,std::allocator<PushTile> > >::_Get_data
PUBLIC	?_Myfirst@?$_Vector_alloc@U?$_Vec_base_types@UPushTile@@V?$allocator@UPushTile@@@std@@@std@@@std@@QAEAAPAUPushTile@@XZ ; std::_Vector_alloc<std::_Vec_base_types<PushTile,std::allocator<PushTile> > >::_Myfirst
PUBLIC	?_Myfirst@?$_Vector_alloc@U?$_Vec_base_types@UPushTile@@V?$allocator@UPushTile@@@std@@@std@@@std@@QBEABQAUPushTile@@XZ ; std::_Vector_alloc<std::_Vec_base_types<PushTile,std::allocator<PushTile> > >::_Myfirst
PUBLIC	?_Mylast@?$_Vector_alloc@U?$_Vec_base_types@UPushTile@@V?$allocator@UPushTile@@@std@@@std@@@std@@QAEAAPAUPushTile@@XZ ; std::_Vector_alloc<std::_Vec_base_types<PushTile,std::allocator<PushTile> > >::_Mylast
PUBLIC	?_Mylast@?$_Vector_alloc@U?$_Vec_base_types@UPushTile@@V?$allocator@UPushTile@@@std@@@std@@@std@@QBEABQAUPushTile@@XZ ; std::_Vector_alloc<std::_Vec_base_types<PushTile,std::allocator<PushTile> > >::_Mylast
PUBLIC	?_Myend@?$_Vector_alloc@U?$_Vec_base_types@UPushTile@@V?$allocator@UPushTile@@@std@@@std@@@std@@QAEAAPAUPushTile@@XZ ; std::_Vector_alloc<std::_Vec_base_types<PushTile,std::allocator<PushTile> > >::_Myend
PUBLIC	?_Myend@?$_Vector_alloc@U?$_Vec_base_types@UPushTile@@V?$allocator@UPushTile@@@std@@@std@@@std@@QBEABQAUPushTile@@XZ ; std::_Vector_alloc<std::_Vec_base_types<PushTile,std::allocator<PushTile> > >::_Myend
PUBLIC	??0?$_Vector_val@U?$_Simple_types@UPushTile@@@std@@@std@@QAE@XZ ; std::_Vector_val<std::_Simple_types<PushTile> >::_Vector_val<std::_Simple_types<PushTile> >
PUBLIC	??1?$_Vector_val@U?$_Simple_types@UPushTile@@@std@@@std@@QAE@XZ ; std::_Vector_val<std::_Simple_types<PushTile> >::~_Vector_val<std::_Simple_types<PushTile> >
PUBLIC	?_Get_first@?$_Compressed_pair@U?$_Wrap_alloc@V?$allocator@UPushTile@@@std@@@std@@V?$_Vector_val@U?$_Simple_types@UPushTile@@@std@@@2@$00@std@@QAEAAU?$_Wrap_alloc@V?$allocator@UPushTile@@@std@@@2@XZ ; std::_Compressed_pair<std::_Wrap_alloc<std::allocator<PushTile> >,std::_Vector_val<std::_Simple_types<PushTile> >,1>::_Get_first
PUBLIC	?_Get_first@?$_Compressed_pair@U?$_Wrap_alloc@V?$allocator@UPushTile@@@std@@@std@@V?$_Vector_val@U?$_Simple_types@UPushTile@@@std@@@2@$00@std@@QBEABU?$_Wrap_alloc@V?$allocator@UPushTile@@@std@@@2@XZ ; std::_Compressed_pair<std::_Wrap_alloc<std::allocator<PushTile> >,std::_Vector_val<std::_Simple_types<PushTile> >,1>::_Get_first
PUBLIC	?_Get_second@?$_Compressed_pair@U?$_Wrap_alloc@V?$allocator@UPushTile@@@std@@@std@@V?$_Vector_val@U?$_Simple_types@UPushTile@@@std@@@2@$00@std@@QAEAAV?$_Vector_val@U?$_Simple_types@UPushTile@@@std@@@2@XZ ; std::_Compressed_pair<std::_Wrap_alloc<std::allocator<PushTile> >,std::_Vector_val<std::_Simple_types<PushTile> >,1>::_Get_second
PUBLIC	?_Get_second@?$_Compressed_pair@U?$_Wrap_alloc@V?$allocator@UPushTile@@@std@@@std@@V?$_Vector_val@U?$_Simple_types@UPushTile@@@std@@@2@$00@std@@QBEABV?$_Vector_val@U?$_Simple_types@UPushTile@@@std@@@2@XZ ; std::_Compressed_pair<std::_Wrap_alloc<std::allocator<PushTile> >,std::_Vector_val<std::_Simple_types<PushTile> >,1>::_Get_second
PUBLIC	??1?$_Compressed_pair@U?$_Wrap_alloc@V?$allocator@UPushTile@@@std@@@std@@V?$_Vector_val@U?$_Simple_types@UPushTile@@@std@@@2@$00@std@@QAE@XZ ; std::_Compressed_pair<std::_Wrap_alloc<std::allocator<PushTile> >,std::_Vector_val<std::_Simple_types<PushTile> >,1>::~_Compressed_pair<std::_Wrap_alloc<std::allocator<PushTile> >,std::_Vector_val<std::_Simple_types<PushTile> >,1>
PUBLIC	??0?$vector@UPushTile@@V?$allocator@UPushTile@@@std@@@std@@QAE@XZ ; std::vector<PushTile,std::allocator<PushTile> >::vector<PushTile,std::allocator<PushTile> >
PUBLIC	??1?$vector@UPushTile@@V?$allocator@UPushTile@@@std@@@std@@QAE@XZ ; std::vector<PushTile,std::allocator<PushTile> >::~vector<PushTile,std::allocator<PushTile> >
PUBLIC	?capacity@?$vector@UPushTile@@V?$allocator@UPushTile@@@std@@@std@@QBEIXZ ; std::vector<PushTile,std::allocator<PushTile> >::capacity
PUBLIC	?_Unused_capacity@?$vector@UPushTile@@V?$allocator@UPushTile@@@std@@@std@@QBEIXZ ; std::vector<PushTile,std::allocator<PushTile> >::_Unused_capacity
PUBLIC	?size@?$vector@UPushTile@@V?$allocator@UPushTile@@@std@@@std@@QBEIXZ ; std::vector<PushTile,std::allocator<PushTile> >::size
PUBLIC	?max_size@?$vector@UPushTile@@V?$allocator@UPushTile@@@std@@@std@@QBEIXZ ; std::vector<PushTile,std::allocator<PushTile> >::max_size
PUBLIC	?push_back@?$vector@UPushTile@@V?$allocator@UPushTile@@@std@@@std@@QAEXABUPushTile@@@Z ; std::vector<PushTile,std::allocator<PushTile> >::push_back
PUBLIC	?_Destroy@?$vector@UPushTile@@V?$allocator@UPushTile@@@std@@@std@@IAEXPAUPushTile@@0@Z ; std::vector<PushTile,std::allocator<PushTile> >::_Destroy
PUBLIC	?_Grow_to@?$vector@UPushTile@@V?$allocator@UPushTile@@@std@@@std@@IBEII@Z ; std::vector<PushTile,std::allocator<PushTile> >::_Grow_to
PUBLIC	?_Inside@?$vector@UPushTile@@V?$allocator@UPushTile@@@std@@@std@@IBE_NPBUPushTile@@@Z ; std::vector<PushTile,std::allocator<PushTile> >::_Inside
PUBLIC	?_Reallocate@?$vector@UPushTile@@V?$allocator@UPushTile@@@std@@@std@@IAEXI@Z ; std::vector<PushTile,std::allocator<PushTile> >::_Reallocate
PUBLIC	?_Reserve@?$vector@UPushTile@@V?$allocator@UPushTile@@@std@@@std@@IAEXI@Z ; std::vector<PushTile,std::allocator<PushTile> >::_Reserve
PUBLIC	?_Tidy@?$vector@UPushTile@@V?$allocator@UPushTile@@@std@@@std@@IAEXXZ ; std::vector<PushTile,std::allocator<PushTile> >::_Tidy
PUBLIC	?_Xlen@?$vector@UPushTile@@V?$allocator@UPushTile@@@std@@@std@@IBEXXZ ; std::vector<PushTile,std::allocator<PushTile> >::_Xlen
PUBLIC	?_Orphan_range@?$vector@UPushTile@@V?$allocator@UPushTile@@@std@@@std@@IBEXPAUPushTile@@0@Z ; std::vector<PushTile,std::allocator<PushTile> >::_Orphan_range
PUBLIC	?__autoclassinit2@?$vector@UPushTile@@V?$allocator@UPushTile@@@std@@@std@@QAEXI@Z ; std::vector<PushTile,std::allocator<PushTile> >::__autoclassinit2
PUBLIC	?GenerateTileMap@@YAXXZ				; GenerateTileMap
PUBLIC	?UpdateTile@@YAXH@Z				; UpdateTile
PUBLIC	?DrawMap@@YAXXZ					; DrawMap
PUBLIC	??0?$allocator@UTile@@@std@@QAE@XZ		; std::allocator<Tile>::allocator<Tile>
PUBLIC	?deallocate@?$allocator@UTile@@@std@@QAEXPAUTile@@I@Z ; std::allocator<Tile>::deallocate
PUBLIC	?allocate@?$allocator@UTile@@@std@@QAEPAUTile@@I@Z ; std::allocator<Tile>::allocate
PUBLIC	?max_size@?$allocator@UTile@@@std@@QBEIXZ	; std::allocator<Tile>::max_size
PUBLIC	?max_size@?$allocator_traits@V?$allocator@UTile@@@std@@@std@@SAIABV?$allocator@UTile@@@2@@Z ; std::allocator_traits<std::allocator<Tile> >::max_size
PUBLIC	??0?$_Wrap_alloc@V?$allocator@UTile@@@std@@@std@@QAE@XZ ; std::_Wrap_alloc<std::allocator<Tile> >::_Wrap_alloc<std::allocator<Tile> >
PUBLIC	?allocate@?$_Wrap_alloc@V?$allocator@UTile@@@std@@@std@@QAEPAUTile@@I@Z ; std::_Wrap_alloc<std::allocator<Tile> >::allocate
PUBLIC	?deallocate@?$_Wrap_alloc@V?$allocator@UTile@@@std@@@std@@QAEXPAUTile@@I@Z ; std::_Wrap_alloc<std::allocator<Tile> >::deallocate
PUBLIC	?max_size@?$_Wrap_alloc@V?$allocator@UTile@@@std@@@std@@QBEIU_Nil@2@@Z ; std::_Wrap_alloc<std::allocator<Tile> >::max_size
PUBLIC	??0?$_Vector_alloc@U?$_Vec_base_types@UTile@@V?$allocator@UTile@@@std@@@std@@@std@@QAE@XZ ; std::_Vector_alloc<std::_Vec_base_types<Tile,std::allocator<Tile> > >::_Vector_alloc<std::_Vec_base_types<Tile,std::allocator<Tile> > >
PUBLIC	??1?$_Vector_alloc@U?$_Vec_base_types@UTile@@V?$allocator@UTile@@@std@@@std@@@std@@QAE@XZ ; std::_Vector_alloc<std::_Vec_base_types<Tile,std::allocator<Tile> > >::~_Vector_alloc<std::_Vec_base_types<Tile,std::allocator<Tile> > >
PUBLIC	?_Alloc_proxy@?$_Vector_alloc@U?$_Vec_base_types@UTile@@V?$allocator@UTile@@@std@@@std@@@std@@QAEXXZ ; std::_Vector_alloc<std::_Vec_base_types<Tile,std::allocator<Tile> > >::_Alloc_proxy
PUBLIC	?_Free_proxy@?$_Vector_alloc@U?$_Vec_base_types@UTile@@V?$allocator@UTile@@@std@@@std@@@std@@QAEXXZ ; std::_Vector_alloc<std::_Vec_base_types<Tile,std::allocator<Tile> > >::_Free_proxy
PUBLIC	?_Getpfirst@?$_Vector_alloc@U?$_Vec_base_types@UTile@@V?$allocator@UTile@@@std@@@std@@@std@@QBEPAPAU_Iterator_base12@2@XZ ; std::_Vector_alloc<std::_Vec_base_types<Tile,std::allocator<Tile> > >::_Getpfirst
PUBLIC	?_Myproxy@?$_Vector_alloc@U?$_Vec_base_types@UTile@@V?$allocator@UTile@@@std@@@std@@@std@@QAEAAPAU_Container_proxy@2@XZ ; std::_Vector_alloc<std::_Vec_base_types<Tile,std::allocator<Tile> > >::_Myproxy
PUBLIC	?_Orphan_all@?$_Vector_alloc@U?$_Vec_base_types@UTile@@V?$allocator@UTile@@@std@@@std@@@std@@QAEXXZ ; std::_Vector_alloc<std::_Vec_base_types<Tile,std::allocator<Tile> > >::_Orphan_all
PUBLIC	?_Getal@?$_Vector_alloc@U?$_Vec_base_types@UTile@@V?$allocator@UTile@@@std@@@std@@@std@@QAEAAU?$_Wrap_alloc@V?$allocator@UTile@@@std@@@2@XZ ; std::_Vector_alloc<std::_Vec_base_types<Tile,std::allocator<Tile> > >::_Getal
PUBLIC	?_Getal@?$_Vector_alloc@U?$_Vec_base_types@UTile@@V?$allocator@UTile@@@std@@@std@@@std@@QBEABU?$_Wrap_alloc@V?$allocator@UTile@@@std@@@2@XZ ; std::_Vector_alloc<std::_Vec_base_types<Tile,std::allocator<Tile> > >::_Getal
PUBLIC	?_Get_data@?$_Vector_alloc@U?$_Vec_base_types@UTile@@V?$allocator@UTile@@@std@@@std@@@std@@QAEAAV?$_Vector_val@U?$_Simple_types@UTile@@@std@@@2@XZ ; std::_Vector_alloc<std::_Vec_base_types<Tile,std::allocator<Tile> > >::_Get_data
PUBLIC	?_Get_data@?$_Vector_alloc@U?$_Vec_base_types@UTile@@V?$allocator@UTile@@@std@@@std@@@std@@QBEABV?$_Vector_val@U?$_Simple_types@UTile@@@std@@@2@XZ ; std::_Vector_alloc<std::_Vec_base_types<Tile,std::allocator<Tile> > >::_Get_data
PUBLIC	?_Myfirst@?$_Vector_alloc@U?$_Vec_base_types@UTile@@V?$allocator@UTile@@@std@@@std@@@std@@QAEAAPAUTile@@XZ ; std::_Vector_alloc<std::_Vec_base_types<Tile,std::allocator<Tile> > >::_Myfirst
PUBLIC	?_Myfirst@?$_Vector_alloc@U?$_Vec_base_types@UTile@@V?$allocator@UTile@@@std@@@std@@@std@@QBEABQAUTile@@XZ ; std::_Vector_alloc<std::_Vec_base_types<Tile,std::allocator<Tile> > >::_Myfirst
PUBLIC	?_Mylast@?$_Vector_alloc@U?$_Vec_base_types@UTile@@V?$allocator@UTile@@@std@@@std@@@std@@QAEAAPAUTile@@XZ ; std::_Vector_alloc<std::_Vec_base_types<Tile,std::allocator<Tile> > >::_Mylast
PUBLIC	?_Mylast@?$_Vector_alloc@U?$_Vec_base_types@UTile@@V?$allocator@UTile@@@std@@@std@@@std@@QBEABQAUTile@@XZ ; std::_Vector_alloc<std::_Vec_base_types<Tile,std::allocator<Tile> > >::_Mylast
PUBLIC	?_Myend@?$_Vector_alloc@U?$_Vec_base_types@UTile@@V?$allocator@UTile@@@std@@@std@@@std@@QAEAAPAUTile@@XZ ; std::_Vector_alloc<std::_Vec_base_types<Tile,std::allocator<Tile> > >::_Myend
PUBLIC	?_Myend@?$_Vector_alloc@U?$_Vec_base_types@UTile@@V?$allocator@UTile@@@std@@@std@@@std@@QBEABQAUTile@@XZ ; std::_Vector_alloc<std::_Vec_base_types<Tile,std::allocator<Tile> > >::_Myend
PUBLIC	??0?$_Vector_val@U?$_Simple_types@UTile@@@std@@@std@@QAE@XZ ; std::_Vector_val<std::_Simple_types<Tile> >::_Vector_val<std::_Simple_types<Tile> >
PUBLIC	??1?$_Vector_val@U?$_Simple_types@UTile@@@std@@@std@@QAE@XZ ; std::_Vector_val<std::_Simple_types<Tile> >::~_Vector_val<std::_Simple_types<Tile> >
PUBLIC	?_Get_first@?$_Compressed_pair@U?$_Wrap_alloc@V?$allocator@UTile@@@std@@@std@@V?$_Vector_val@U?$_Simple_types@UTile@@@std@@@2@$00@std@@QAEAAU?$_Wrap_alloc@V?$allocator@UTile@@@std@@@2@XZ ; std::_Compressed_pair<std::_Wrap_alloc<std::allocator<Tile> >,std::_Vector_val<std::_Simple_types<Tile> >,1>::_Get_first
PUBLIC	?_Get_first@?$_Compressed_pair@U?$_Wrap_alloc@V?$allocator@UTile@@@std@@@std@@V?$_Vector_val@U?$_Simple_types@UTile@@@std@@@2@$00@std@@QBEABU?$_Wrap_alloc@V?$allocator@UTile@@@std@@@2@XZ ; std::_Compressed_pair<std::_Wrap_alloc<std::allocator<Tile> >,std::_Vector_val<std::_Simple_types<Tile> >,1>::_Get_first
PUBLIC	?_Get_second@?$_Compressed_pair@U?$_Wrap_alloc@V?$allocator@UTile@@@std@@@std@@V?$_Vector_val@U?$_Simple_types@UTile@@@std@@@2@$00@std@@QAEAAV?$_Vector_val@U?$_Simple_types@UTile@@@std@@@2@XZ ; std::_Compressed_pair<std::_Wrap_alloc<std::allocator<Tile> >,std::_Vector_val<std::_Simple_types<Tile> >,1>::_Get_second
PUBLIC	?_Get_second@?$_Compressed_pair@U?$_Wrap_alloc@V?$allocator@UTile@@@std@@@std@@V?$_Vector_val@U?$_Simple_types@UTile@@@std@@@2@$00@std@@QBEABV?$_Vector_val@U?$_Simple_types@UTile@@@std@@@2@XZ ; std::_Compressed_pair<std::_Wrap_alloc<std::allocator<Tile> >,std::_Vector_val<std::_Simple_types<Tile> >,1>::_Get_second
PUBLIC	??1?$_Compressed_pair@U?$_Wrap_alloc@V?$allocator@UTile@@@std@@@std@@V?$_Vector_val@U?$_Simple_types@UTile@@@std@@@2@$00@std@@QAE@XZ ; std::_Compressed_pair<std::_Wrap_alloc<std::allocator<Tile> >,std::_Vector_val<std::_Simple_types<Tile> >,1>::~_Compressed_pair<std::_Wrap_alloc<std::allocator<Tile> >,std::_Vector_val<std::_Simple_types<Tile> >,1>
PUBLIC	??0?$vector@UTile@@V?$allocator@UTile@@@std@@@std@@QAE@XZ ; std::vector<Tile,std::allocator<Tile> >::vector<Tile,std::allocator<Tile> >
PUBLIC	??1?$vector@UTile@@V?$allocator@UTile@@@std@@@std@@QAE@XZ ; std::vector<Tile,std::allocator<Tile> >::~vector<Tile,std::allocator<Tile> >
PUBLIC	?capacity@?$vector@UTile@@V?$allocator@UTile@@@std@@@std@@QBEIXZ ; std::vector<Tile,std::allocator<Tile> >::capacity
PUBLIC	?_Unused_capacity@?$vector@UTile@@V?$allocator@UTile@@@std@@@std@@QBEIXZ ; std::vector<Tile,std::allocator<Tile> >::_Unused_capacity
PUBLIC	?begin@?$vector@UTile@@V?$allocator@UTile@@@std@@@std@@QAE?AV?$_Vector_iterator@V?$_Vector_val@U?$_Simple_types@UTile@@@std@@@std@@@2@XZ ; std::vector<Tile,std::allocator<Tile> >::begin
PUBLIC	?end@?$vector@UTile@@V?$allocator@UTile@@@std@@@std@@QAE?AV?$_Vector_iterator@V?$_Vector_val@U?$_Simple_types@UTile@@@std@@@std@@@2@XZ ; std::vector<Tile,std::allocator<Tile> >::end
PUBLIC	?size@?$vector@UTile@@V?$allocator@UTile@@@std@@@std@@QBEIXZ ; std::vector<Tile,std::allocator<Tile> >::size
PUBLIC	?max_size@?$vector@UTile@@V?$allocator@UTile@@@std@@@std@@QBEIXZ ; std::vector<Tile,std::allocator<Tile> >::max_size
PUBLIC	?push_back@?$vector@UTile@@V?$allocator@UTile@@@std@@@std@@QAEXABUTile@@@Z ; std::vector<Tile,std::allocator<Tile> >::push_back
PUBLIC	?_Destroy@?$vector@UTile@@V?$allocator@UTile@@@std@@@std@@IAEXPAUTile@@0@Z ; std::vector<Tile,std::allocator<Tile> >::_Destroy
PUBLIC	?_Grow_to@?$vector@UTile@@V?$allocator@UTile@@@std@@@std@@IBEII@Z ; std::vector<Tile,std::allocator<Tile> >::_Grow_to
PUBLIC	?_Inside@?$vector@UTile@@V?$allocator@UTile@@@std@@@std@@IBE_NPBUTile@@@Z ; std::vector<Tile,std::allocator<Tile> >::_Inside
PUBLIC	?_Reallocate@?$vector@UTile@@V?$allocator@UTile@@@std@@@std@@IAEXI@Z ; std::vector<Tile,std::allocator<Tile> >::_Reallocate
PUBLIC	?_Reserve@?$vector@UTile@@V?$allocator@UTile@@@std@@@std@@IAEXI@Z ; std::vector<Tile,std::allocator<Tile> >::_Reserve
PUBLIC	?_Tidy@?$vector@UTile@@V?$allocator@UTile@@@std@@@std@@IAEXXZ ; std::vector<Tile,std::allocator<Tile> >::_Tidy
PUBLIC	?_Xlen@?$vector@UTile@@V?$allocator@UTile@@@std@@@std@@IBEXXZ ; std::vector<Tile,std::allocator<Tile> >::_Xlen
PUBLIC	?_Orphan_range@?$vector@UTile@@V?$allocator@UTile@@@std@@@std@@IBEXPAUTile@@0@Z ; std::vector<Tile,std::allocator<Tile> >::_Orphan_range
PUBLIC	?__autoclassinit2@?$vector@UTile@@V?$allocator@UTile@@@std@@@std@@QAEXI@Z ; std::vector<Tile,std::allocator<Tile> >::__autoclassinit2
PUBLIC	??0?$allocator@UMovingTile@@@std@@QAE@XZ	; std::allocator<MovingTile>::allocator<MovingTile>
PUBLIC	?deallocate@?$allocator@UMovingTile@@@std@@QAEXPAUMovingTile@@I@Z ; std::allocator<MovingTile>::deallocate
PUBLIC	?allocate@?$allocator@UMovingTile@@@std@@QAEPAUMovingTile@@I@Z ; std::allocator<MovingTile>::allocate
PUBLIC	?max_size@?$allocator@UMovingTile@@@std@@QBEIXZ	; std::allocator<MovingTile>::max_size
PUBLIC	?max_size@?$allocator_traits@V?$allocator@UMovingTile@@@std@@@std@@SAIABV?$allocator@UMovingTile@@@2@@Z ; std::allocator_traits<std::allocator<MovingTile> >::max_size
PUBLIC	??0?$_Wrap_alloc@V?$allocator@UMovingTile@@@std@@@std@@QAE@XZ ; std::_Wrap_alloc<std::allocator<MovingTile> >::_Wrap_alloc<std::allocator<MovingTile> >
PUBLIC	?allocate@?$_Wrap_alloc@V?$allocator@UMovingTile@@@std@@@std@@QAEPAUMovingTile@@I@Z ; std::_Wrap_alloc<std::allocator<MovingTile> >::allocate
PUBLIC	?deallocate@?$_Wrap_alloc@V?$allocator@UMovingTile@@@std@@@std@@QAEXPAUMovingTile@@I@Z ; std::_Wrap_alloc<std::allocator<MovingTile> >::deallocate
PUBLIC	?max_size@?$_Wrap_alloc@V?$allocator@UMovingTile@@@std@@@std@@QBEIU_Nil@2@@Z ; std::_Wrap_alloc<std::allocator<MovingTile> >::max_size
PUBLIC	??0?$_Vector_alloc@U?$_Vec_base_types@UMovingTile@@V?$allocator@UMovingTile@@@std@@@std@@@std@@QAE@XZ ; std::_Vector_alloc<std::_Vec_base_types<MovingTile,std::allocator<MovingTile> > >::_Vector_alloc<std::_Vec_base_types<MovingTile,std::allocator<MovingTile> > >
PUBLIC	??1?$_Vector_alloc@U?$_Vec_base_types@UMovingTile@@V?$allocator@UMovingTile@@@std@@@std@@@std@@QAE@XZ ; std::_Vector_alloc<std::_Vec_base_types<MovingTile,std::allocator<MovingTile> > >::~_Vector_alloc<std::_Vec_base_types<MovingTile,std::allocator<MovingTile> > >
PUBLIC	?_Alloc_proxy@?$_Vector_alloc@U?$_Vec_base_types@UMovingTile@@V?$allocator@UMovingTile@@@std@@@std@@@std@@QAEXXZ ; std::_Vector_alloc<std::_Vec_base_types<MovingTile,std::allocator<MovingTile> > >::_Alloc_proxy
PUBLIC	?_Free_proxy@?$_Vector_alloc@U?$_Vec_base_types@UMovingTile@@V?$allocator@UMovingTile@@@std@@@std@@@std@@QAEXXZ ; std::_Vector_alloc<std::_Vec_base_types<MovingTile,std::allocator<MovingTile> > >::_Free_proxy
PUBLIC	?_Getpfirst@?$_Vector_alloc@U?$_Vec_base_types@UMovingTile@@V?$allocator@UMovingTile@@@std@@@std@@@std@@QBEPAPAU_Iterator_base12@2@XZ ; std::_Vector_alloc<std::_Vec_base_types<MovingTile,std::allocator<MovingTile> > >::_Getpfirst
PUBLIC	?_Myproxy@?$_Vector_alloc@U?$_Vec_base_types@UMovingTile@@V?$allocator@UMovingTile@@@std@@@std@@@std@@QAEAAPAU_Container_proxy@2@XZ ; std::_Vector_alloc<std::_Vec_base_types<MovingTile,std::allocator<MovingTile> > >::_Myproxy
PUBLIC	?_Orphan_all@?$_Vector_alloc@U?$_Vec_base_types@UMovingTile@@V?$allocator@UMovingTile@@@std@@@std@@@std@@QAEXXZ ; std::_Vector_alloc<std::_Vec_base_types<MovingTile,std::allocator<MovingTile> > >::_Orphan_all
PUBLIC	?_Getal@?$_Vector_alloc@U?$_Vec_base_types@UMovingTile@@V?$allocator@UMovingTile@@@std@@@std@@@std@@QAEAAU?$_Wrap_alloc@V?$allocator@UMovingTile@@@std@@@2@XZ ; std::_Vector_alloc<std::_Vec_base_types<MovingTile,std::allocator<MovingTile> > >::_Getal
PUBLIC	?_Getal@?$_Vector_alloc@U?$_Vec_base_types@UMovingTile@@V?$allocator@UMovingTile@@@std@@@std@@@std@@QBEABU?$_Wrap_alloc@V?$allocator@UMovingTile@@@std@@@2@XZ ; std::_Vector_alloc<std::_Vec_base_types<MovingTile,std::allocator<MovingTile> > >::_Getal
PUBLIC	?_Get_data@?$_Vector_alloc@U?$_Vec_base_types@UMovingTile@@V?$allocator@UMovingTile@@@std@@@std@@@std@@QAEAAV?$_Vector_val@U?$_Simple_types@UMovingTile@@@std@@@2@XZ ; std::_Vector_alloc<std::_Vec_base_types<MovingTile,std::allocator<MovingTile> > >::_Get_data
PUBLIC	?_Get_data@?$_Vector_alloc@U?$_Vec_base_types@UMovingTile@@V?$allocator@UMovingTile@@@std@@@std@@@std@@QBEABV?$_Vector_val@U?$_Simple_types@UMovingTile@@@std@@@2@XZ ; std::_Vector_alloc<std::_Vec_base_types<MovingTile,std::allocator<MovingTile> > >::_Get_data
PUBLIC	?_Myfirst@?$_Vector_alloc@U?$_Vec_base_types@UMovingTile@@V?$allocator@UMovingTile@@@std@@@std@@@std@@QAEAAPAUMovingTile@@XZ ; std::_Vector_alloc<std::_Vec_base_types<MovingTile,std::allocator<MovingTile> > >::_Myfirst
PUBLIC	?_Myfirst@?$_Vector_alloc@U?$_Vec_base_types@UMovingTile@@V?$allocator@UMovingTile@@@std@@@std@@@std@@QBEABQAUMovingTile@@XZ ; std::_Vector_alloc<std::_Vec_base_types<MovingTile,std::allocator<MovingTile> > >::_Myfirst
PUBLIC	?_Mylast@?$_Vector_alloc@U?$_Vec_base_types@UMovingTile@@V?$allocator@UMovingTile@@@std@@@std@@@std@@QAEAAPAUMovingTile@@XZ ; std::_Vector_alloc<std::_Vec_base_types<MovingTile,std::allocator<MovingTile> > >::_Mylast
PUBLIC	?_Mylast@?$_Vector_alloc@U?$_Vec_base_types@UMovingTile@@V?$allocator@UMovingTile@@@std@@@std@@@std@@QBEABQAUMovingTile@@XZ ; std::_Vector_alloc<std::_Vec_base_types<MovingTile,std::allocator<MovingTile> > >::_Mylast
PUBLIC	?_Myend@?$_Vector_alloc@U?$_Vec_base_types@UMovingTile@@V?$allocator@UMovingTile@@@std@@@std@@@std@@QAEAAPAUMovingTile@@XZ ; std::_Vector_alloc<std::_Vec_base_types<MovingTile,std::allocator<MovingTile> > >::_Myend
PUBLIC	?_Myend@?$_Vector_alloc@U?$_Vec_base_types@UMovingTile@@V?$allocator@UMovingTile@@@std@@@std@@@std@@QBEABQAUMovingTile@@XZ ; std::_Vector_alloc<std::_Vec_base_types<MovingTile,std::allocator<MovingTile> > >::_Myend
PUBLIC	??0?$_Vector_val@U?$_Simple_types@UMovingTile@@@std@@@std@@QAE@XZ ; std::_Vector_val<std::_Simple_types<MovingTile> >::_Vector_val<std::_Simple_types<MovingTile> >
PUBLIC	??1?$_Vector_val@U?$_Simple_types@UMovingTile@@@std@@@std@@QAE@XZ ; std::_Vector_val<std::_Simple_types<MovingTile> >::~_Vector_val<std::_Simple_types<MovingTile> >
PUBLIC	?_Get_first@?$_Compressed_pair@U?$_Wrap_alloc@V?$allocator@UMovingTile@@@std@@@std@@V?$_Vector_val@U?$_Simple_types@UMovingTile@@@std@@@2@$00@std@@QAEAAU?$_Wrap_alloc@V?$allocator@UMovingTile@@@std@@@2@XZ ; std::_Compressed_pair<std::_Wrap_alloc<std::allocator<MovingTile> >,std::_Vector_val<std::_Simple_types<MovingTile> >,1>::_Get_first
PUBLIC	?_Get_first@?$_Compressed_pair@U?$_Wrap_alloc@V?$allocator@UMovingTile@@@std@@@std@@V?$_Vector_val@U?$_Simple_types@UMovingTile@@@std@@@2@$00@std@@QBEABU?$_Wrap_alloc@V?$allocator@UMovingTile@@@std@@@2@XZ ; std::_Compressed_pair<std::_Wrap_alloc<std::allocator<MovingTile> >,std::_Vector_val<std::_Simple_types<MovingTile> >,1>::_Get_first
PUBLIC	?_Get_second@?$_Compressed_pair@U?$_Wrap_alloc@V?$allocator@UMovingTile@@@std@@@std@@V?$_Vector_val@U?$_Simple_types@UMovingTile@@@std@@@2@$00@std@@QAEAAV?$_Vector_val@U?$_Simple_types@UMovingTile@@@std@@@2@XZ ; std::_Compressed_pair<std::_Wrap_alloc<std::allocator<MovingTile> >,std::_Vector_val<std::_Simple_types<MovingTile> >,1>::_Get_second
PUBLIC	?_Get_second@?$_Compressed_pair@U?$_Wrap_alloc@V?$allocator@UMovingTile@@@std@@@std@@V?$_Vector_val@U?$_Simple_types@UMovingTile@@@std@@@2@$00@std@@QBEABV?$_Vector_val@U?$_Simple_types@UMovingTile@@@std@@@2@XZ ; std::_Compressed_pair<std::_Wrap_alloc<std::allocator<MovingTile> >,std::_Vector_val<std::_Simple_types<MovingTile> >,1>::_Get_second
PUBLIC	??1?$_Compressed_pair@U?$_Wrap_alloc@V?$allocator@UMovingTile@@@std@@@std@@V?$_Vector_val@U?$_Simple_types@UMovingTile@@@std@@@2@$00@std@@QAE@XZ ; std::_Compressed_pair<std::_Wrap_alloc<std::allocator<MovingTile> >,std::_Vector_val<std::_Simple_types<MovingTile> >,1>::~_Compressed_pair<std::_Wrap_alloc<std::allocator<MovingTile> >,std::_Vector_val<std::_Simple_types<MovingTile> >,1>
PUBLIC	??0?$vector@UMovingTile@@V?$allocator@UMovingTile@@@std@@@std@@QAE@XZ ; std::vector<MovingTile,std::allocator<MovingTile> >::vector<MovingTile,std::allocator<MovingTile> >
PUBLIC	??1?$vector@UMovingTile@@V?$allocator@UMovingTile@@@std@@@std@@QAE@XZ ; std::vector<MovingTile,std::allocator<MovingTile> >::~vector<MovingTile,std::allocator<MovingTile> >
PUBLIC	?capacity@?$vector@UMovingTile@@V?$allocator@UMovingTile@@@std@@@std@@QBEIXZ ; std::vector<MovingTile,std::allocator<MovingTile> >::capacity
PUBLIC	?_Unused_capacity@?$vector@UMovingTile@@V?$allocator@UMovingTile@@@std@@@std@@QBEIXZ ; std::vector<MovingTile,std::allocator<MovingTile> >::_Unused_capacity
PUBLIC	?begin@?$vector@UMovingTile@@V?$allocator@UMovingTile@@@std@@@std@@QAE?AV?$_Vector_iterator@V?$_Vector_val@U?$_Simple_types@UMovingTile@@@std@@@std@@@2@XZ ; std::vector<MovingTile,std::allocator<MovingTile> >::begin
PUBLIC	?end@?$vector@UMovingTile@@V?$allocator@UMovingTile@@@std@@@std@@QAE?AV?$_Vector_iterator@V?$_Vector_val@U?$_Simple_types@UMovingTile@@@std@@@std@@@2@XZ ; std::vector<MovingTile,std::allocator<MovingTile> >::end
PUBLIC	?size@?$vector@UMovingTile@@V?$allocator@UMovingTile@@@std@@@std@@QBEIXZ ; std::vector<MovingTile,std::allocator<MovingTile> >::size
PUBLIC	?max_size@?$vector@UMovingTile@@V?$allocator@UMovingTile@@@std@@@std@@QBEIXZ ; std::vector<MovingTile,std::allocator<MovingTile> >::max_size
PUBLIC	?push_back@?$vector@UMovingTile@@V?$allocator@UMovingTile@@@std@@@std@@QAEXABUMovingTile@@@Z ; std::vector<MovingTile,std::allocator<MovingTile> >::push_back
PUBLIC	?_Destroy@?$vector@UMovingTile@@V?$allocator@UMovingTile@@@std@@@std@@IAEXPAUMovingTile@@0@Z ; std::vector<MovingTile,std::allocator<MovingTile> >::_Destroy
PUBLIC	?_Grow_to@?$vector@UMovingTile@@V?$allocator@UMovingTile@@@std@@@std@@IBEII@Z ; std::vector<MovingTile,std::allocator<MovingTile> >::_Grow_to
PUBLIC	?_Inside@?$vector@UMovingTile@@V?$allocator@UMovingTile@@@std@@@std@@IBE_NPBUMovingTile@@@Z ; std::vector<MovingTile,std::allocator<MovingTile> >::_Inside
PUBLIC	?_Reallocate@?$vector@UMovingTile@@V?$allocator@UMovingTile@@@std@@@std@@IAEXI@Z ; std::vector<MovingTile,std::allocator<MovingTile> >::_Reallocate
PUBLIC	?_Reserve@?$vector@UMovingTile@@V?$allocator@UMovingTile@@@std@@@std@@IAEXI@Z ; std::vector<MovingTile,std::allocator<MovingTile> >::_Reserve
PUBLIC	?_Tidy@?$vector@UMovingTile@@V?$allocator@UMovingTile@@@std@@@std@@IAEXXZ ; std::vector<MovingTile,std::allocator<MovingTile> >::_Tidy
PUBLIC	?_Xlen@?$vector@UMovingTile@@V?$allocator@UMovingTile@@@std@@@std@@IBEXXZ ; std::vector<MovingTile,std::allocator<MovingTile> >::_Xlen
PUBLIC	?_Orphan_range@?$vector@UMovingTile@@V?$allocator@UMovingTile@@@std@@@std@@IBEXPAUMovingTile@@0@Z ; std::vector<MovingTile,std::allocator<MovingTile> >::_Orphan_range
PUBLIC	?__autoclassinit2@?$vector@UMovingTile@@V?$allocator@UMovingTile@@@std@@@std@@QAEXI@Z ; std::vector<MovingTile,std::allocator<MovingTile> >::__autoclassinit2
PUBLIC	?CheckCollision@@YA_NUTile@@0@Z			; CheckCollision
PUBLIC	??0?$_Iterator012@Urandom_access_iterator_tag@std@@UMovingTile@@HPBU3@ABU3@U_Iterator_base12@2@@std@@QAE@XZ ; std::_Iterator012<std::random_access_iterator_tag,MovingTile,int,MovingTile const *,MovingTile const &,std::_Iterator_base12>::_Iterator012<std::random_access_iterator_tag,MovingTile,int,MovingTile const *,MovingTile const &,std::_Iterator_base12>
PUBLIC	??1?$_Iterator012@Urandom_access_iterator_tag@std@@UMovingTile@@HPBU3@ABU3@U_Iterator_base12@2@@std@@QAE@XZ ; std::_Iterator012<std::random_access_iterator_tag,MovingTile,int,MovingTile const *,MovingTile const &,std::_Iterator_base12>::~_Iterator012<std::random_access_iterator_tag,MovingTile,int,MovingTile const *,MovingTile const &,std::_Iterator_base12>
PUBLIC	??0?$_Vector_const_iterator@V?$_Vector_val@U?$_Simple_types@UMovingTile@@@std@@@std@@@std@@QAE@PAUMovingTile@@PBU_Container_base12@1@@Z ; std::_Vector_const_iterator<std::_Vector_val<std::_Simple_types<MovingTile> > >::_Vector_const_iterator<std::_Vector_val<std::_Simple_types<MovingTile> > >
PUBLIC	??D?$_Vector_const_iterator@V?$_Vector_val@U?$_Simple_types@UMovingTile@@@std@@@std@@@std@@QBEABUMovingTile@@XZ ; std::_Vector_const_iterator<std::_Vector_val<std::_Simple_types<MovingTile> > >::operator*
PUBLIC	??E?$_Vector_const_iterator@V?$_Vector_val@U?$_Simple_types@UMovingTile@@@std@@@std@@@std@@QAEAAV01@XZ ; std::_Vector_const_iterator<std::_Vector_val<std::_Simple_types<MovingTile> > >::operator++
PUBLIC	??8?$_Vector_const_iterator@V?$_Vector_val@U?$_Simple_types@UMovingTile@@@std@@@std@@@std@@QBE_NABV01@@Z ; std::_Vector_const_iterator<std::_Vector_val<std::_Simple_types<MovingTile> > >::operator==
PUBLIC	??9?$_Vector_const_iterator@V?$_Vector_val@U?$_Simple_types@UMovingTile@@@std@@@std@@@std@@QBE_NABV01@@Z ; std::_Vector_const_iterator<std::_Vector_val<std::_Simple_types<MovingTile> > >::operator!=
PUBLIC	?_Compat@?$_Vector_const_iterator@V?$_Vector_val@U?$_Simple_types@UMovingTile@@@std@@@std@@@std@@QBEXABV12@@Z ; std::_Vector_const_iterator<std::_Vector_val<std::_Simple_types<MovingTile> > >::_Compat
PUBLIC	??1?$_Vector_const_iterator@V?$_Vector_val@U?$_Simple_types@UMovingTile@@@std@@@std@@@std@@QAE@XZ ; std::_Vector_const_iterator<std::_Vector_val<std::_Simple_types<MovingTile> > >::~_Vector_const_iterator<std::_Vector_val<std::_Simple_types<MovingTile> > >
PUBLIC	??0?$_Vector_iterator@V?$_Vector_val@U?$_Simple_types@UMovingTile@@@std@@@std@@@std@@QAE@PAUMovingTile@@PBU_Container_base12@1@@Z ; std::_Vector_iterator<std::_Vector_val<std::_Simple_types<MovingTile> > >::_Vector_iterator<std::_Vector_val<std::_Simple_types<MovingTile> > >
PUBLIC	??D?$_Vector_iterator@V?$_Vector_val@U?$_Simple_types@UMovingTile@@@std@@@std@@@std@@QBEAAUMovingTile@@XZ ; std::_Vector_iterator<std::_Vector_val<std::_Simple_types<MovingTile> > >::operator*
PUBLIC	??E?$_Vector_iterator@V?$_Vector_val@U?$_Simple_types@UMovingTile@@@std@@@std@@@std@@QAEAAV01@XZ ; std::_Vector_iterator<std::_Vector_val<std::_Simple_types<MovingTile> > >::operator++
PUBLIC	??1?$_Vector_iterator@V?$_Vector_val@U?$_Simple_types@UMovingTile@@@std@@@std@@@std@@QAE@XZ ; std::_Vector_iterator<std::_Vector_val<std::_Simple_types<MovingTile> > >::~_Vector_iterator<std::_Vector_val<std::_Simple_types<MovingTile> > >
PUBLIC	?__autoclassinit2@?$_Vector_iterator@V?$_Vector_val@U?$_Simple_types@UMovingTile@@@std@@@std@@@std@@QAEXI@Z ; std::_Vector_iterator<std::_Vector_val<std::_Simple_types<MovingTile> > >::__autoclassinit2
PUBLIC	??0?$_Iterator012@Urandom_access_iterator_tag@std@@UTile@@HPBU3@ABU3@U_Iterator_base12@2@@std@@QAE@XZ ; std::_Iterator012<std::random_access_iterator_tag,Tile,int,Tile const *,Tile const &,std::_Iterator_base12>::_Iterator012<std::random_access_iterator_tag,Tile,int,Tile const *,Tile const &,std::_Iterator_base12>
PUBLIC	??1?$_Iterator012@Urandom_access_iterator_tag@std@@UTile@@HPBU3@ABU3@U_Iterator_base12@2@@std@@QAE@XZ ; std::_Iterator012<std::random_access_iterator_tag,Tile,int,Tile const *,Tile const &,std::_Iterator_base12>::~_Iterator012<std::random_access_iterator_tag,Tile,int,Tile const *,Tile const &,std::_Iterator_base12>
PUBLIC	??0?$_Vector_const_iterator@V?$_Vector_val@U?$_Simple_types@UTile@@@std@@@std@@@std@@QAE@PAUTile@@PBU_Container_base12@1@@Z ; std::_Vector_const_iterator<std::_Vector_val<std::_Simple_types<Tile> > >::_Vector_const_iterator<std::_Vector_val<std::_Simple_types<Tile> > >
PUBLIC	??D?$_Vector_const_iterator@V?$_Vector_val@U?$_Simple_types@UTile@@@std@@@std@@@std@@QBEABUTile@@XZ ; std::_Vector_const_iterator<std::_Vector_val<std::_Simple_types<Tile> > >::operator*
PUBLIC	??E?$_Vector_const_iterator@V?$_Vector_val@U?$_Simple_types@UTile@@@std@@@std@@@std@@QAEAAV01@XZ ; std::_Vector_const_iterator<std::_Vector_val<std::_Simple_types<Tile> > >::operator++
PUBLIC	??8?$_Vector_const_iterator@V?$_Vector_val@U?$_Simple_types@UTile@@@std@@@std@@@std@@QBE_NABV01@@Z ; std::_Vector_const_iterator<std::_Vector_val<std::_Simple_types<Tile> > >::operator==
PUBLIC	??9?$_Vector_const_iterator@V?$_Vector_val@U?$_Simple_types@UTile@@@std@@@std@@@std@@QBE_NABV01@@Z ; std::_Vector_const_iterator<std::_Vector_val<std::_Simple_types<Tile> > >::operator!=
PUBLIC	?_Compat@?$_Vector_const_iterator@V?$_Vector_val@U?$_Simple_types@UTile@@@std@@@std@@@std@@QBEXABV12@@Z ; std::_Vector_const_iterator<std::_Vector_val<std::_Simple_types<Tile> > >::_Compat
PUBLIC	??1?$_Vector_const_iterator@V?$_Vector_val@U?$_Simple_types@UTile@@@std@@@std@@@std@@QAE@XZ ; std::_Vector_const_iterator<std::_Vector_val<std::_Simple_types<Tile> > >::~_Vector_const_iterator<std::_Vector_val<std::_Simple_types<Tile> > >
PUBLIC	??0?$_Vector_iterator@V?$_Vector_val@U?$_Simple_types@UTile@@@std@@@std@@@std@@QAE@PAUTile@@PBU_Container_base12@1@@Z ; std::_Vector_iterator<std::_Vector_val<std::_Simple_types<Tile> > >::_Vector_iterator<std::_Vector_val<std::_Simple_types<Tile> > >
PUBLIC	??D?$_Vector_iterator@V?$_Vector_val@U?$_Simple_types@UTile@@@std@@@std@@@std@@QBEAAUTile@@XZ ; std::_Vector_iterator<std::_Vector_val<std::_Simple_types<Tile> > >::operator*
PUBLIC	??E?$_Vector_iterator@V?$_Vector_val@U?$_Simple_types@UTile@@@std@@@std@@@std@@QAEAAV01@XZ ; std::_Vector_iterator<std::_Vector_val<std::_Simple_types<Tile> > >::operator++
PUBLIC	??1?$_Vector_iterator@V?$_Vector_val@U?$_Simple_types@UTile@@@std@@@std@@@std@@QAE@XZ ; std::_Vector_iterator<std::_Vector_val<std::_Simple_types<Tile> > >::~_Vector_iterator<std::_Vector_val<std::_Simple_types<Tile> > >
PUBLIC	?__autoclassinit2@?$_Vector_iterator@V?$_Vector_val@U?$_Simple_types@UTile@@@std@@@std@@@std@@QAEXI@Z ; std::_Vector_iterator<std::_Vector_val<std::_Simple_types<Tile> > >::__autoclassinit2
PUBLIC	?DrawTile@@YAXUTile@@QAH@Z			; DrawTile
PUBLIC	??$addressof@$$CBUMovingTile@@@std@@YAPBUMovingTile@@ABU1@@Z ; std::addressof<MovingTile const >
PUBLIC	??$construct@UMovingTile@@AAU1@@?$_Wrap_alloc@V?$allocator@UMovingTile@@@std@@@std@@QAEXPAUMovingTile@@AAU2@@Z ; std::_Wrap_alloc<std::allocator<MovingTile> >::construct<MovingTile,MovingTile &>
PUBLIC	??$construct@UMovingTile@@ABU1@@?$_Wrap_alloc@V?$allocator@UMovingTile@@@std@@@std@@QAEXPAUMovingTile@@ABU2@@Z ; std::_Wrap_alloc<std::allocator<MovingTile> >::construct<MovingTile,MovingTile const &>
PUBLIC	??$addressof@$$CBUTile@@@std@@YAPBUTile@@ABU1@@Z ; std::addressof<Tile const >
PUBLIC	??$construct@UTile@@AAU1@@?$_Wrap_alloc@V?$allocator@UTile@@@std@@@std@@QAEXPAUTile@@AAU2@@Z ; std::_Wrap_alloc<std::allocator<Tile> >::construct<Tile,Tile &>
PUBLIC	??$construct@UTile@@ABU1@@?$_Wrap_alloc@V?$allocator@UTile@@@std@@@std@@QAEXPAUTile@@ABU2@@Z ; std::_Wrap_alloc<std::allocator<Tile> >::construct<Tile,Tile const &>
PUBLIC	??$addressof@$$CBUPushTile@@@std@@YAPBUPushTile@@ABU1@@Z ; std::addressof<PushTile const >
PUBLIC	??$construct@UPushTile@@AAU1@@?$_Wrap_alloc@V?$allocator@UPushTile@@@std@@@std@@QAEXPAUPushTile@@AAU2@@Z ; std::_Wrap_alloc<std::allocator<PushTile> >::construct<PushTile,PushTile &>
PUBLIC	??$construct@UPushTile@@ABU1@@?$_Wrap_alloc@V?$allocator@UPushTile@@@std@@@std@@QAEXPAUPushTile@@ABU2@@Z ; std::_Wrap_alloc<std::allocator<PushTile> >::construct<PushTile,PushTile const &>
PUBLIC	??$?0$$V@?$_Compressed_pair@U?$_Wrap_alloc@V?$allocator@UMovingTile@@@std@@@std@@V?$_Vector_val@U?$_Simple_types@UMovingTile@@@std@@@2@$00@std@@QAE@U_Zero_then_variadic_args_t@1@@Z ; std::_Compressed_pair<std::_Wrap_alloc<std::allocator<MovingTile> >,std::_Vector_val<std::_Simple_types<MovingTile> >,1>::_Compressed_pair<std::_Wrap_alloc<std::allocator<MovingTile> >,std::_Vector_val<std::_Simple_types<MovingTile> >,1><>
PUBLIC	??$?0$$V@?$_Compressed_pair@U?$_Wrap_alloc@V?$allocator@UTile@@@std@@@std@@V?$_Vector_val@U?$_Simple_types@UTile@@@std@@@2@$00@std@@QAE@U_Zero_then_variadic_args_t@1@@Z ; std::_Compressed_pair<std::_Wrap_alloc<std::allocator<Tile> >,std::_Vector_val<std::_Simple_types<Tile> >,1>::_Compressed_pair<std::_Wrap_alloc<std::allocator<Tile> >,std::_Vector_val<std::_Simple_types<Tile> >,1><>
PUBLIC	??$?0$$V@?$_Compressed_pair@U?$_Wrap_alloc@V?$allocator@UPushTile@@@std@@@std@@V?$_Vector_val@U?$_Simple_types@UPushTile@@@std@@@2@$00@std@@QAE@U_Zero_then_variadic_args_t@1@@Z ; std::_Compressed_pair<std::_Wrap_alloc<std::allocator<PushTile> >,std::_Vector_val<std::_Simple_types<PushTile> >,1>::_Compressed_pair<std::_Wrap_alloc<std::allocator<PushTile> >,std::_Vector_val<std::_Simple_types<PushTile> >,1><>
PUBLIC	?deallocate@?$allocator@U_Container_proxy@std@@@std@@QAEXPAU_Container_proxy@2@I@Z ; std::allocator<std::_Container_proxy>::deallocate
PUBLIC	?allocate@?$allocator@U_Container_proxy@std@@@std@@QAEPAU_Container_proxy@2@I@Z ; std::allocator<std::_Container_proxy>::allocate
PUBLIC	?allocate@?$_Wrap_alloc@V?$allocator@U_Container_proxy@std@@@std@@@std@@QAEPAU_Container_proxy@2@I@Z ; std::_Wrap_alloc<std::allocator<std::_Container_proxy> >::allocate
PUBLIC	?deallocate@?$_Wrap_alloc@V?$allocator@U_Container_proxy@std@@@std@@@std@@QAEXPAU_Container_proxy@2@I@Z ; std::_Wrap_alloc<std::allocator<std::_Container_proxy> >::deallocate
PUBLIC	??$?0AAU?$_Wrap_alloc@V?$allocator@UMovingTile@@@std@@@std@@@?$_Wrap_alloc@V?$allocator@U_Container_proxy@std@@@std@@@std@@QAE@AAU?$_Wrap_alloc@V?$allocator@UMovingTile@@@std@@@1@@Z ; std::_Wrap_alloc<std::allocator<std::_Container_proxy> >::_Wrap_alloc<std::allocator<std::_Container_proxy> ><std::_Wrap_alloc<std::allocator<MovingTile> > &>
PUBLIC	??$destroy@U_Container_proxy@std@@@?$_Wrap_alloc@V?$allocator@U_Container_proxy@std@@@std@@@std@@QAEXPAU_Container_proxy@1@@Z ; std::_Wrap_alloc<std::allocator<std::_Container_proxy> >::destroy<std::_Container_proxy>
PUBLIC	??$construct@U_Container_proxy@std@@U12@@?$_Wrap_alloc@V?$allocator@U_Container_proxy@std@@@std@@@std@@QAEXPAU_Container_proxy@1@$$QAU21@@Z ; std::_Wrap_alloc<std::allocator<std::_Container_proxy> >::construct<std::_Container_proxy,std::_Container_proxy>
PUBLIC	??$?0AAU?$_Wrap_alloc@V?$allocator@UTile@@@std@@@std@@@?$_Wrap_alloc@V?$allocator@U_Container_proxy@std@@@std@@@std@@QAE@AAU?$_Wrap_alloc@V?$allocator@UTile@@@std@@@1@@Z ; std::_Wrap_alloc<std::allocator<std::_Container_proxy> >::_Wrap_alloc<std::allocator<std::_Container_proxy> ><std::_Wrap_alloc<std::allocator<Tile> > &>
PUBLIC	??$_Umove@PAUMovingTile@@@?$vector@UMovingTile@@V?$allocator@UMovingTile@@@std@@@std@@IAEPAUMovingTile@@PAU2@00@Z ; std::vector<MovingTile,std::allocator<MovingTile> >::_Umove<MovingTile *>
PUBLIC	??$_Destroy_range@U?$_Wrap_alloc@V?$allocator@UMovingTile@@@std@@@std@@@std@@YAXPAUMovingTile@@0AAU?$_Wrap_alloc@V?$allocator@UMovingTile@@@std@@@0@@Z ; std::_Destroy_range<std::_Wrap_alloc<std::allocator<MovingTile> > >
PUBLIC	??$_Umove@PAUTile@@@?$vector@UTile@@V?$allocator@UTile@@@std@@@std@@IAEPAUTile@@PAU2@00@Z ; std::vector<Tile,std::allocator<Tile> >::_Umove<Tile *>
PUBLIC	??$_Destroy_range@U?$_Wrap_alloc@V?$allocator@UTile@@@std@@@std@@@std@@YAXPAUTile@@0AAU?$_Wrap_alloc@V?$allocator@UTile@@@std@@@0@@Z ; std::_Destroy_range<std::_Wrap_alloc<std::allocator<Tile> > >
PUBLIC	??$?0AAU?$_Wrap_alloc@V?$allocator@UPushTile@@@std@@@std@@@?$_Wrap_alloc@V?$allocator@U_Container_proxy@std@@@std@@@std@@QAE@AAU?$_Wrap_alloc@V?$allocator@UPushTile@@@std@@@1@@Z ; std::_Wrap_alloc<std::allocator<std::_Container_proxy> >::_Wrap_alloc<std::allocator<std::_Container_proxy> ><std::_Wrap_alloc<std::allocator<PushTile> > &>
PUBLIC	??$_Umove@PAUPushTile@@@?$vector@UPushTile@@V?$allocator@UPushTile@@@std@@@std@@IAEPAUPushTile@@PAU2@00@Z ; std::vector<PushTile,std::allocator<PushTile> >::_Umove<PushTile *>
PUBLIC	??$_Destroy_range@U?$_Wrap_alloc@V?$allocator@UPushTile@@@std@@@std@@@std@@YAXPAUPushTile@@0AAU?$_Wrap_alloc@V?$allocator@UPushTile@@@std@@@0@@Z ; std::_Destroy_range<std::_Wrap_alloc<std::allocator<PushTile> > >
PUBLIC	??$_Addressof@$$CBUMovingTile@@@std@@YAPBUMovingTile@@ABU1@U?$integral_constant@_N$0A@@0@@Z ; std::_Addressof<MovingTile const >
PUBLIC	??$forward@AAUMovingTile@@@std@@YAAAUMovingTile@@AAU1@@Z ; std::forward<MovingTile &>
PUBLIC	??$construct@UMovingTile@@AAU1@@?$allocator_traits@V?$allocator@UMovingTile@@@std@@@std@@SAXAAV?$allocator@UMovingTile@@@1@PAUMovingTile@@AAU3@@Z ; std::allocator_traits<std::allocator<MovingTile> >::construct<MovingTile,MovingTile &>
PUBLIC	??$forward@ABUMovingTile@@@std@@YAABUMovingTile@@ABU1@@Z ; std::forward<MovingTile const &>
PUBLIC	??$construct@UMovingTile@@ABU1@@?$allocator_traits@V?$allocator@UMovingTile@@@std@@@std@@SAXAAV?$allocator@UMovingTile@@@1@PAUMovingTile@@ABU3@@Z ; std::allocator_traits<std::allocator<MovingTile> >::construct<MovingTile,MovingTile const &>
PUBLIC	??$_Addressof@$$CBUTile@@@std@@YAPBUTile@@ABU1@U?$integral_constant@_N$0A@@0@@Z ; std::_Addressof<Tile const >
PUBLIC	??$forward@AAUTile@@@std@@YAAAUTile@@AAU1@@Z	; std::forward<Tile &>
PUBLIC	??$construct@UTile@@AAU1@@?$allocator_traits@V?$allocator@UTile@@@std@@@std@@SAXAAV?$allocator@UTile@@@1@PAUTile@@AAU3@@Z ; std::allocator_traits<std::allocator<Tile> >::construct<Tile,Tile &>
PUBLIC	??$forward@ABUTile@@@std@@YAABUTile@@ABU1@@Z	; std::forward<Tile const &>
PUBLIC	??$construct@UTile@@ABU1@@?$allocator_traits@V?$allocator@UTile@@@std@@@std@@SAXAAV?$allocator@UTile@@@1@PAUTile@@ABU3@@Z ; std::allocator_traits<std::allocator<Tile> >::construct<Tile,Tile const &>
PUBLIC	??$_Addressof@$$CBUPushTile@@@std@@YAPBUPushTile@@ABU1@U?$integral_constant@_N$0A@@0@@Z ; std::_Addressof<PushTile const >
PUBLIC	??$forward@AAUPushTile@@@std@@YAAAUPushTile@@AAU1@@Z ; std::forward<PushTile &>
PUBLIC	??$construct@UPushTile@@AAU1@@?$allocator_traits@V?$allocator@UPushTile@@@std@@@std@@SAXAAV?$allocator@UPushTile@@@1@PAUPushTile@@AAU3@@Z ; std::allocator_traits<std::allocator<PushTile> >::construct<PushTile,PushTile &>
PUBLIC	??$forward@ABUPushTile@@@std@@YAABUPushTile@@ABU1@@Z ; std::forward<PushTile const &>
PUBLIC	??$construct@UPushTile@@ABU1@@?$allocator_traits@V?$allocator@UPushTile@@@std@@@std@@SAXAAV?$allocator@UPushTile@@@1@PAUPushTile@@ABU3@@Z ; std::allocator_traits<std::allocator<PushTile> >::construct<PushTile,PushTile const &>
PUBLIC	??$forward@AAU?$_Wrap_alloc@V?$allocator@UMovingTile@@@std@@@std@@@std@@YAAAU?$_Wrap_alloc@V?$allocator@UMovingTile@@@std@@@0@AAU10@@Z ; std::forward<std::_Wrap_alloc<std::allocator<MovingTile> > &>
PUBLIC	??$?0UMovingTile@@@?$allocator@U_Container_proxy@std@@@std@@QAE@ABV?$allocator@UMovingTile@@@1@@Z ; std::allocator<std::_Container_proxy>::allocator<std::_Container_proxy><MovingTile>
PUBLIC	??$destroy@U_Container_proxy@std@@@?$allocator_traits@V?$allocator@U_Container_proxy@std@@@std@@@std@@SAXAAV?$allocator@U_Container_proxy@std@@@1@PAU_Container_proxy@1@@Z ; std::allocator_traits<std::allocator<std::_Container_proxy> >::destroy<std::_Container_proxy>
PUBLIC	??$forward@U_Container_proxy@std@@@std@@YA$$QAU_Container_proxy@0@AAU10@@Z ; std::forward<std::_Container_proxy>
PUBLIC	??$construct@U_Container_proxy@std@@U12@@?$allocator_traits@V?$allocator@U_Container_proxy@std@@@std@@@std@@SAXAAV?$allocator@U_Container_proxy@std@@@1@PAU_Container_proxy@1@$$QAU31@@Z ; std::allocator_traits<std::allocator<std::_Container_proxy> >::construct<std::_Container_proxy,std::_Container_proxy>
PUBLIC	??$forward@AAU?$_Wrap_alloc@V?$allocator@UTile@@@std@@@std@@@std@@YAAAU?$_Wrap_alloc@V?$allocator@UTile@@@std@@@0@AAU10@@Z ; std::forward<std::_Wrap_alloc<std::allocator<Tile> > &>
PUBLIC	??$?0UTile@@@?$allocator@U_Container_proxy@std@@@std@@QAE@ABV?$allocator@UTile@@@1@@Z ; std::allocator<std::_Container_proxy>::allocator<std::_Container_proxy><Tile>
PUBLIC	??$_Uninitialized_move@PAUMovingTile@@PAU1@U?$_Wrap_alloc@V?$allocator@UMovingTile@@@std@@@std@@@std@@YAPAUMovingTile@@PAU1@00AAU?$_Wrap_alloc@V?$allocator@UMovingTile@@@std@@@0@@Z ; std::_Uninitialized_move<MovingTile *,MovingTile *,std::_Wrap_alloc<std::allocator<MovingTile> > >
PUBLIC	??$addressof@UMovingTile@@@std@@YAPAUMovingTile@@AAU1@@Z ; std::addressof<MovingTile>
PUBLIC	??$destroy@UMovingTile@@@?$_Wrap_alloc@V?$allocator@UMovingTile@@@std@@@std@@QAEXPAUMovingTile@@@Z ; std::_Wrap_alloc<std::allocator<MovingTile> >::destroy<MovingTile>
PUBLIC	??$_Uninitialized_move@PAUTile@@PAU1@U?$_Wrap_alloc@V?$allocator@UTile@@@std@@@std@@@std@@YAPAUTile@@PAU1@00AAU?$_Wrap_alloc@V?$allocator@UTile@@@std@@@0@@Z ; std::_Uninitialized_move<Tile *,Tile *,std::_Wrap_alloc<std::allocator<Tile> > >
PUBLIC	??$addressof@UTile@@@std@@YAPAUTile@@AAU1@@Z	; std::addressof<Tile>
PUBLIC	??$destroy@UTile@@@?$_Wrap_alloc@V?$allocator@UTile@@@std@@@std@@QAEXPAUTile@@@Z ; std::_Wrap_alloc<std::allocator<Tile> >::destroy<Tile>
PUBLIC	??$forward@AAU?$_Wrap_alloc@V?$allocator@UPushTile@@@std@@@std@@@std@@YAAAU?$_Wrap_alloc@V?$allocator@UPushTile@@@std@@@0@AAU10@@Z ; std::forward<std::_Wrap_alloc<std::allocator<PushTile> > &>
PUBLIC	??$?0UPushTile@@@?$allocator@U_Container_proxy@std@@@std@@QAE@ABV?$allocator@UPushTile@@@1@@Z ; std::allocator<std::_Container_proxy>::allocator<std::_Container_proxy><PushTile>
PUBLIC	??$_Uninitialized_move@PAUPushTile@@PAU1@U?$_Wrap_alloc@V?$allocator@UPushTile@@@std@@@std@@@std@@YAPAUPushTile@@PAU1@00AAU?$_Wrap_alloc@V?$allocator@UPushTile@@@std@@@0@@Z ; std::_Uninitialized_move<PushTile *,PushTile *,std::_Wrap_alloc<std::allocator<PushTile> > >
PUBLIC	??$addressof@UPushTile@@@std@@YAPAUPushTile@@AAU1@@Z ; std::addressof<PushTile>
PUBLIC	??$destroy@UPushTile@@@?$_Wrap_alloc@V?$allocator@UPushTile@@@std@@@std@@QAEXPAUPushTile@@@Z ; std::_Wrap_alloc<std::allocator<PushTile> >::destroy<PushTile>
PUBLIC	??$construct@UMovingTile@@AAU1@@?$allocator@UMovingTile@@@std@@QAEXPAUMovingTile@@AAU2@@Z ; std::allocator<MovingTile>::construct<MovingTile,MovingTile &>
PUBLIC	??$construct@UMovingTile@@ABU1@@?$allocator@UMovingTile@@@std@@QAEXPAUMovingTile@@ABU2@@Z ; std::allocator<MovingTile>::construct<MovingTile,MovingTile const &>
PUBLIC	??$construct@UTile@@AAU1@@?$allocator@UTile@@@std@@QAEXPAUTile@@AAU2@@Z ; std::allocator<Tile>::construct<Tile,Tile &>
PUBLIC	??$construct@UTile@@ABU1@@?$allocator@UTile@@@std@@QAEXPAUTile@@ABU2@@Z ; std::allocator<Tile>::construct<Tile,Tile const &>
PUBLIC	??$construct@UPushTile@@AAU1@@?$allocator@UPushTile@@@std@@QAEXPAUPushTile@@AAU2@@Z ; std::allocator<PushTile>::construct<PushTile,PushTile &>
PUBLIC	??$construct@UPushTile@@ABU1@@?$allocator@UPushTile@@@std@@QAEXPAUPushTile@@ABU2@@Z ; std::allocator<PushTile>::construct<PushTile,PushTile const &>
PUBLIC	??$destroy@U_Container_proxy@std@@@?$allocator@U_Container_proxy@std@@@std@@QAEXPAU_Container_proxy@1@@Z ; std::allocator<std::_Container_proxy>::destroy<std::_Container_proxy>
PUBLIC	??$construct@U_Container_proxy@std@@U12@@?$allocator@U_Container_proxy@std@@@std@@QAEXPAU_Container_proxy@1@$$QAU21@@Z ; std::allocator<std::_Container_proxy>::construct<std::_Container_proxy,std::_Container_proxy>
PUBLIC	??$_Unchecked@PAUMovingTile@@@std@@YAPAUMovingTile@@PAU1@@Z ; std::_Unchecked<MovingTile *>
PUBLIC	??$_Uninitialized_move_al_unchecked@PAUMovingTile@@PAU1@U?$_Wrap_alloc@V?$allocator@UMovingTile@@@std@@@std@@@std@@YAPAUMovingTile@@PAU1@00AAU?$_Wrap_alloc@V?$allocator@UMovingTile@@@std@@@0@@Z ; std::_Uninitialized_move_al_unchecked<MovingTile *,MovingTile *,std::_Wrap_alloc<std::allocator<MovingTile> > >
PUBLIC	??$_Rechecked@PAUMovingTile@@PAU1@@std@@YAAAPAUMovingTile@@AAPAU1@PAU1@@Z ; std::_Rechecked<MovingTile *,MovingTile *>
PUBLIC	??$_Addressof@UMovingTile@@@std@@YAPAUMovingTile@@AAU1@U?$integral_constant@_N$0A@@0@@Z ; std::_Addressof<MovingTile>
PUBLIC	??$destroy@UMovingTile@@@?$allocator_traits@V?$allocator@UMovingTile@@@std@@@std@@SAXAAV?$allocator@UMovingTile@@@1@PAUMovingTile@@@Z ; std::allocator_traits<std::allocator<MovingTile> >::destroy<MovingTile>
PUBLIC	??$_Unchecked@PAUTile@@@std@@YAPAUTile@@PAU1@@Z	; std::_Unchecked<Tile *>
PUBLIC	??$_Uninitialized_move_al_unchecked@PAUTile@@PAU1@U?$_Wrap_alloc@V?$allocator@UTile@@@std@@@std@@@std@@YAPAUTile@@PAU1@00AAU?$_Wrap_alloc@V?$allocator@UTile@@@std@@@0@@Z ; std::_Uninitialized_move_al_unchecked<Tile *,Tile *,std::_Wrap_alloc<std::allocator<Tile> > >
PUBLIC	??$_Rechecked@PAUTile@@PAU1@@std@@YAAAPAUTile@@AAPAU1@PAU1@@Z ; std::_Rechecked<Tile *,Tile *>
PUBLIC	??$_Addressof@UTile@@@std@@YAPAUTile@@AAU1@U?$integral_constant@_N$0A@@0@@Z ; std::_Addressof<Tile>
PUBLIC	??$destroy@UTile@@@?$allocator_traits@V?$allocator@UTile@@@std@@@std@@SAXAAV?$allocator@UTile@@@1@PAUTile@@@Z ; std::allocator_traits<std::allocator<Tile> >::destroy<Tile>
PUBLIC	??$_Unchecked@PAUPushTile@@@std@@YAPAUPushTile@@PAU1@@Z ; std::_Unchecked<PushTile *>
PUBLIC	??$_Uninitialized_move_al_unchecked@PAUPushTile@@PAU1@U?$_Wrap_alloc@V?$allocator@UPushTile@@@std@@@std@@@std@@YAPAUPushTile@@PAU1@00AAU?$_Wrap_alloc@V?$allocator@UPushTile@@@std@@@0@@Z ; std::_Uninitialized_move_al_unchecked<PushTile *,PushTile *,std::_Wrap_alloc<std::allocator<PushTile> > >
PUBLIC	??$_Rechecked@PAUPushTile@@PAU1@@std@@YAAAPAUPushTile@@AAPAU1@PAU1@@Z ; std::_Rechecked<PushTile *,PushTile *>
PUBLIC	??$_Addressof@UPushTile@@@std@@YAPAUPushTile@@AAU1@U?$integral_constant@_N$0A@@0@@Z ; std::_Addressof<PushTile>
PUBLIC	??$destroy@UPushTile@@@?$allocator_traits@V?$allocator@UPushTile@@@std@@@std@@SAXAAV?$allocator@UPushTile@@@1@PAUPushTile@@@Z ; std::allocator_traits<std::allocator<PushTile> >::destroy<PushTile>
PUBLIC	??$_Ptr_move_cat@UMovingTile@@U1@@std@@YA?AU_Trivially_copyable_ptr_iterator_tag@0@ABQAUMovingTile@@0@Z ; std::_Ptr_move_cat<MovingTile,MovingTile>
PUBLIC	??$_Uninitialized_move_al_unchecked1@PAUMovingTile@@PAU1@V?$allocator@UMovingTile@@@std@@@std@@YAPAUMovingTile@@PAU1@00AAU?$_Wrap_alloc@V?$allocator@UMovingTile@@@std@@@0@U_General_ptr_iterator_tag@0@@Z ; std::_Uninitialized_move_al_unchecked1<MovingTile *,MovingTile *,std::allocator<MovingTile> >
PUBLIC	??$destroy@UMovingTile@@@?$allocator@UMovingTile@@@std@@QAEXPAUMovingTile@@@Z ; std::allocator<MovingTile>::destroy<MovingTile>
PUBLIC	??$_Ptr_move_cat@UTile@@U1@@std@@YA?AU_Trivially_copyable_ptr_iterator_tag@0@ABQAUTile@@0@Z ; std::_Ptr_move_cat<Tile,Tile>
PUBLIC	??$_Uninitialized_move_al_unchecked1@PAUTile@@PAU1@V?$allocator@UTile@@@std@@@std@@YAPAUTile@@PAU1@00AAU?$_Wrap_alloc@V?$allocator@UTile@@@std@@@0@U_General_ptr_iterator_tag@0@@Z ; std::_Uninitialized_move_al_unchecked1<Tile *,Tile *,std::allocator<Tile> >
PUBLIC	??$destroy@UTile@@@?$allocator@UTile@@@std@@QAEXPAUTile@@@Z ; std::allocator<Tile>::destroy<Tile>
PUBLIC	??$_Ptr_move_cat@UPushTile@@U1@@std@@YA?AU_Trivially_copyable_ptr_iterator_tag@0@ABQAUPushTile@@0@Z ; std::_Ptr_move_cat<PushTile,PushTile>
PUBLIC	??$_Uninitialized_move_al_unchecked1@PAUPushTile@@PAU1@V?$allocator@UPushTile@@@std@@@std@@YAPAUPushTile@@PAU1@00AAU?$_Wrap_alloc@V?$allocator@UPushTile@@@std@@@0@U_General_ptr_iterator_tag@0@@Z ; std::_Uninitialized_move_al_unchecked1<PushTile *,PushTile *,std::allocator<PushTile> >
PUBLIC	??$destroy@UPushTile@@@?$allocator@UPushTile@@@std@@QAEXPAUPushTile@@@Z ; std::allocator<PushTile>::destroy<PushTile>
PUBLIC	??$move@AAUMovingTile@@@std@@YA$$QAUMovingTile@@AAU1@@Z ; std::move<MovingTile &>
PUBLIC	??$construct@UMovingTile@@U1@@?$_Wrap_alloc@V?$allocator@UMovingTile@@@std@@@std@@QAEXPAUMovingTile@@$$QAU2@@Z ; std::_Wrap_alloc<std::allocator<MovingTile> >::construct<MovingTile,MovingTile>
PUBLIC	??$move@AAUTile@@@std@@YA$$QAUTile@@AAU1@@Z	; std::move<Tile &>
PUBLIC	??$construct@UTile@@U1@@?$_Wrap_alloc@V?$allocator@UTile@@@std@@@std@@QAEXPAUTile@@$$QAU2@@Z ; std::_Wrap_alloc<std::allocator<Tile> >::construct<Tile,Tile>
PUBLIC	??$move@AAUPushTile@@@std@@YA$$QAUPushTile@@AAU1@@Z ; std::move<PushTile &>
PUBLIC	??$construct@UPushTile@@U1@@?$_Wrap_alloc@V?$allocator@UPushTile@@@std@@@std@@QAEXPAUPushTile@@$$QAU2@@Z ; std::_Wrap_alloc<std::allocator<PushTile> >::construct<PushTile,PushTile>
PUBLIC	??$forward@UMovingTile@@@std@@YA$$QAUMovingTile@@AAU1@@Z ; std::forward<MovingTile>
PUBLIC	??$construct@UMovingTile@@U1@@?$allocator_traits@V?$allocator@UMovingTile@@@std@@@std@@SAXAAV?$allocator@UMovingTile@@@1@PAUMovingTile@@$$QAU3@@Z ; std::allocator_traits<std::allocator<MovingTile> >::construct<MovingTile,MovingTile>
PUBLIC	??$forward@UTile@@@std@@YA$$QAUTile@@AAU1@@Z	; std::forward<Tile>
PUBLIC	??$construct@UTile@@U1@@?$allocator_traits@V?$allocator@UTile@@@std@@@std@@SAXAAV?$allocator@UTile@@@1@PAUTile@@$$QAU3@@Z ; std::allocator_traits<std::allocator<Tile> >::construct<Tile,Tile>
PUBLIC	??$forward@UPushTile@@@std@@YA$$QAUPushTile@@AAU1@@Z ; std::forward<PushTile>
PUBLIC	??$construct@UPushTile@@U1@@?$allocator_traits@V?$allocator@UPushTile@@@std@@@std@@SAXAAV?$allocator@UPushTile@@@1@PAUPushTile@@$$QAU3@@Z ; std::allocator_traits<std::allocator<PushTile> >::construct<PushTile,PushTile>
PUBLIC	??$construct@UMovingTile@@U1@@?$allocator@UMovingTile@@@std@@QAEXPAUMovingTile@@$$QAU2@@Z ; std::allocator<MovingTile>::construct<MovingTile,MovingTile>
PUBLIC	??$construct@UTile@@U1@@?$allocator@UTile@@@std@@QAEXPAUTile@@$$QAU2@@Z ; std::allocator<Tile>::construct<Tile,Tile>
PUBLIC	??$construct@UPushTile@@U1@@?$allocator@UPushTile@@@std@@QAEXPAUPushTile@@$$QAU2@@Z ; std::allocator<PushTile>::construct<PushTile,PushTile>
PUBLIC	??_C@_1JA@MHADJNIL@?$AAc?$AA?3?$AA?2?$AAp?$AAr?$AAo?$AAg?$AAr?$AAa?$AAm?$AA?5?$AAf?$AAi?$AAl?$AAe?$AAs?$AA?5?$AA?$CI?$AAx?$AA8?$AA6?$AA?$CJ?$AA?2?$AAm?$AAi?$AAc?$AAr?$AAo?$AAs?$AAo?$AAf?$AAt@ ; `string'
PUBLIC	??_C@_1DC@POOIKBAO@?$AAI?$AAT?$AAE?$AAR?$AAA?$AAT?$AAO?$AAR?$AA?5?$AAL?$AAI?$AAS?$AAT?$AA?5?$AAC?$AAO?$AAR?$AAR?$AAU?$AAP?$AAT?$AAE?$AAD?$AA?$CB?$AA?$AA@ ; `string'
PUBLIC	?__LINE__Var@?0??_Allocate@std@@YAPAXII_N@Z@4JA	; `std::_Allocate'::`1'::__LINE__Var
PUBLIC	??_C@_0BE@LMNLACIC@_Ptr_container?5?$CB?$DN?50?$AA@ ; `string'
PUBLIC	??_C@_1DG@HGDKEBPG@?$AA?$CC?$AA_?$AAP?$AAt?$AAr?$AA_?$AAc?$AAo?$AAn?$AAt?$AAa?$AAi?$AAn?$AAe?$AAr?$AA?5?$AA?$CB?$AA?$DN?$AA?5?$AA0?$AA?$CC?$AA?5?$AA?$CG?$AA?$CG?$AA?5?$AA0?$AA?$AA@ ; `string'
PUBLIC	??_C@_17CNPHIMPH@?$AA?$CF?$AAl?$AAs?$AA?$AA@	; `string'
PUBLIC	??_C@_1JA@DKOIEICI@?$AAc?$AA?3?$AA?2?$AAp?$AAr?$AAo?$AAg?$AAr?$AAa?$AAm?$AA?5?$AAf?$AAi?$AAl?$AAe?$AAs?$AA?5?$AA?$CI?$AAx?$AA8?$AA6?$AA?$CJ?$AA?2?$AAm?$AAi?$AAc?$AAr?$AAo?$AAs?$AAo?$AAf?$AAt@ ; `string'
PUBLIC	??_C@_1BO@NKFMJPA@?$AAs?$AAt?$AAd?$AA?3?$AA?3?$AA_?$AAA?$AAl?$AAl?$AAo?$AAc?$AAa?$AAt?$AAe?$AA?$AA@ ; `string'
PUBLIC	??_C@_1CG@JNLFBNGN@?$AA?$CC?$AAi?$AAn?$AAv?$AAa?$AAl?$AAi?$AAd?$AA?5?$AAa?$AAr?$AAg?$AAu?$AAm?$AAe?$AAn?$AAt?$AA?$CC?$AA?$AA@ ; `string'
PUBLIC	??_C@_09GLJCAGLP@_Ptr?5?$CB?$DN?50?$AA@		; `string'
PUBLIC	??_C@_1CC@GKJLLHIM@?$AA?$CC?$AA_?$AAP?$AAt?$AAr?$AA?5?$AA?$CB?$AA?$DN?$AA?5?$AA0?$AA?$CC?$AA?5?$AA?$CG?$AA?$CG?$AA?5?$AA0?$AA?$AA@ ; `string'
PUBLIC	?__LINE__Var@?0??_Deallocate@std@@YAXPAXII@Z@4JA ; `std::_Deallocate'::`1'::__LINE__Var
PUBLIC	??_C@_0BN@HMCJOMKN@_Count?5?$DM?$DN?5?$CIsize_t?$CJ?$CI?91?$CJ?5?1?5_Sz?$AA@ ; `string'
PUBLIC	??_C@_1EI@MLOBABC@?$AA?$CC?$AA_?$AAC?$AAo?$AAu?$AAn?$AAt?$AA?5?$AA?$DM?$AA?$DN?$AA?5?$AA?$CI?$AAs?$AAi?$AAz?$AAe?$AA_?$AAt?$AA?$CJ?$AA?$CI?$AA?9?$AA1?$AA?$CJ?$AA?5?$AA?1?$AA?5?$AA_?$AAS?$AAz?$AA?$CC?$AA?5?$AA?$CG@ ; `string'
PUBLIC	??_C@_1CC@LOFJFFDB@?$AAs?$AAt?$AAd?$AA?3?$AA?3?$AA_?$AAD?$AAe?$AAa?$AAl?$AAl?$AAo?$AAc?$AAa?$AAt?$AAe?$AA?$AA@ ; `string'
PUBLIC	??_C@_0DD@GBGGGKGG@?$CI_Ptr_user?5?$CG?5?$CI_BIG_ALLOCATION_AL@ ; `string'
PUBLIC	??_C@_1HE@CDMBFOKC@?$AA?$CC?$AA?$CI?$AA_?$AAP?$AAt?$AAr?$AA_?$AAu?$AAs?$AAe?$AAr?$AA?5?$AA?$CG?$AA?5?$AA?$CI?$AA_?$AAB?$AAI?$AAG?$AA_?$AAA?$AAL?$AAL?$AAO?$AAC?$AAA?$AAT?$AAI?$AAO?$AAN?$AA_?$AAA@ ; `string'
PUBLIC	??_C@_0EI@NOJHEJCJ@reinterpret_cast?$DMuintptr_t?5?$CK?$DO?$CI_P@ ; `string'
PUBLIC	??_C@_1JO@EKLKIEHP@?$AA?$CC?$AAr?$AAe?$AAi?$AAn?$AAt?$AAe?$AAr?$AAp?$AAr?$AAe?$AAt?$AA_?$AAc?$AAa?$AAs?$AAt?$AA?$DM?$AAu?$AAi?$AAn?$AAt?$AAp?$AAt?$AAr?$AA_?$AAt?$AA?5?$AA?$CK?$AA?$DO?$AA?$CI?$AA_@ ; `string'
PUBLIC	??_C@_0BL@OCKMEJON@_Ptr_container?5?$DM?5_Ptr_user?$AA@ ; `string'
PUBLIC	??_C@_1EE@PDHAHDDC@?$AA?$CC?$AA_?$AAP?$AAt?$AAr?$AA_?$AAc?$AAo?$AAn?$AAt?$AAa?$AAi?$AAn?$AAe?$AAr?$AA?5?$AA?$DM?$AA?5?$AA_?$AAP?$AAt?$AAr?$AA_?$AAu?$AAs?$AAe?$AAr?$AA?$CC?$AA?5?$AA?$CG?$AA?$CG?$AA?5@ ; `string'
PUBLIC	??_C@_0DB@GLFJLNCE@2?5?$CK?5sizeof?$CIvoid?5?$CK?$CJ?5?$DM?$DN?5_Ptr_user?5@ ; `string'
PUBLIC	??_C@_1HA@NAPGMHAO@?$AA?$CC?$AA2?$AA?5?$AA?$CK?$AA?5?$AAs?$AAi?$AAz?$AAe?$AAo?$AAf?$AA?$CI?$AAv?$AAo?$AAi?$AAd?$AA?5?$AA?$CK?$AA?$CJ?$AA?5?$AA?$DM?$AA?$DN?$AA?5?$AA_?$AAP?$AAt?$AAr?$AA_?$AAu?$AAs?$AAe?$AAr@ ; `string'
PUBLIC	??_C@_0CN@BLHJCAL@_Ptr_user?5?9?5_Ptr_container?5?$DM?$DN?5_N@ ; `string'
PUBLIC	??_C@_1GI@DHJGPFNI@?$AA?$CC?$AA_?$AAP?$AAt?$AAr?$AA_?$AAu?$AAs?$AAe?$AAr?$AA?5?$AA?9?$AA?5?$AA_?$AAP?$AAt?$AAr?$AA_?$AAc?$AAo?$AAn?$AAt?$AAa?$AAi?$AAn?$AAe?$AAr?$AA?5?$AA?$DM?$AA?$DN?$AA?5?$AA_@ ; `string'
PUBLIC	?spawnTile@@3USpawnTile@@A			; spawnTile
PUBLIC	?tileMap@@3V?$vector@UTile@@V?$allocator@UTile@@@std@@@std@@A ; tileMap
PUBLIC	?pushTileMap@@3V?$vector@UPushTile@@V?$allocator@UPushTile@@@std@@@std@@A ; pushTileMap
PUBLIC	?movingTileMap@@3V?$vector@UMovingTile@@V?$allocator@UMovingTile@@@std@@@std@@A ; movingTileMap
PUBLIC	??_C@_1IM@NCODKBJH@?$AAc?$AA?3?$AA?2?$AAp?$AAr?$AAo?$AAg?$AAr?$AAa?$AAm?$AA?5?$AAf?$AAi?$AAl?$AAe?$AAs?$AA?5?$AA?$CI?$AAx?$AA8?$AA6?$AA?$CJ?$AA?2?$AAm?$AAi?$AAc?$AAr?$AAo?$AAs?$AAo?$AAf?$AAt@ ; `string'
PUBLIC	??_C@_1EE@EJDKCLKB@?$AAv?$AAe?$AAc?$AAt?$AAo?$AAr?$AA?5?$AAi?$AAt?$AAe?$AAr?$AAa?$AAt?$AAo?$AAr?$AA?5?$AAn?$AAo?$AAt?$AA?5?$AAi?$AAn?$AAc?$AAr?$AAe?$AAm?$AAe?$AAn?$AAt?$AAa?$AAb?$AAl@ ; `string'
PUBLIC	??_C@_0CE@OFMIGAMM@Standard?5C?$CL?$CL?5Libraries?5Out?5of?5Ra@ ; `string'
PUBLIC	??_C@_1FG@IBPIFFN@?$AA?$CC?$AAS?$AAt?$AAa?$AAn?$AAd?$AAa?$AAr?$AAd?$AA?5?$AAC?$AA?$CL?$AA?$CL?$AA?5?$AAL?$AAi?$AAb?$AAr?$AAa?$AAr?$AAi?$AAe?$AAs?$AA?5?$AAO?$AAu?$AAt?$AA?5?$AAo?$AAf?$AA?5?$AAR@ ; `string'
PUBLIC	??_C@_1OC@EGHAOCGO@?$AAs?$AAt?$AAd?$AA?3?$AA?3?$AA_?$AAV?$AAe?$AAc?$AAt?$AAo?$AAr?$AA_?$AAc?$AAo?$AAn?$AAs?$AAt?$AA_?$AAi?$AAt?$AAe?$AAr?$AAa?$AAt?$AAo?$AAr?$AA?$DM?$AAc?$AAl?$AAa?$AAs@ ; `string'
PUBLIC	??_C@_1BO@MEPPHOO@?$AA?$CC?$AAo?$AAu?$AAt?$AA?5?$AAo?$AAf?$AA?5?$AAr?$AAa?$AAn?$AAg?$AAe?$AA?$CC?$AA?$AA@ ; `string'
PUBLIC	??_C@_1EG@FOHJJHAC@?$AAv?$AAe?$AAc?$AAt?$AAo?$AAr?$AA?5?$AAi?$AAt?$AAe?$AAr?$AAa?$AAt?$AAo?$AAr?$AA?5?$AAn?$AAo?$AAt?$AA?5?$AAd?$AAe?$AAr?$AAe?$AAf?$AAe?$AAr?$AAe?$AAn?$AAc?$AAa?$AAb@ ; `string'
PUBLIC	??_C@_1OA@POONEEJK@?$AAs?$AAt?$AAd?$AA?3?$AA?3?$AA_?$AAV?$AAe?$AAc?$AAt?$AAo?$AAr?$AA_?$AAc?$AAo?$AAn?$AAs?$AAt?$AA_?$AAi?$AAt?$AAe?$AAr?$AAa?$AAt?$AAo?$AAr?$AA?$DM?$AAc?$AAl?$AAa?$AAs@ ; `string'
PUBLIC	??_C@_1NG@NCMKFBLG@?$AAs?$AAt?$AAd?$AA?3?$AA?3?$AA_?$AAV?$AAe?$AAc?$AAt?$AAo?$AAr?$AA_?$AAc?$AAo?$AAn?$AAs?$AAt?$AA_?$AAi?$AAt?$AAe?$AAr?$AAa?$AAt?$AAo?$AAr?$AA?$DM?$AAc?$AAl?$AAa?$AAs@ ; `string'
PUBLIC	??_C@_1NE@MNCPAIHH@?$AAs?$AAt?$AAd?$AA?3?$AA?3?$AA_?$AAV?$AAe?$AAc?$AAt?$AAo?$AAr?$AA_?$AAc?$AAo?$AAn?$AAs?$AAt?$AA_?$AAi?$AAt?$AAe?$AAr?$AAa?$AAt?$AAo?$AAr?$AA?$DM?$AAc?$AAl?$AAa?$AAs@ ; `string'
PUBLIC	??_C@_1DM@HINDPMBP@?$AAv?$AAe?$AAc?$AAt?$AAo?$AAr?$AA?5?$AAi?$AAt?$AAe?$AAr?$AAa?$AAt?$AAo?$AAr?$AAs?$AA?5?$AAi?$AAn?$AAc?$AAo?$AAm?$AAp?$AAa?$AAt?$AAi?$AAb?$AAl?$AAe?$AA?$AA@ ; `string'
PUBLIC	??_C@_0CI@FNPHFCCM@Standard?5C?$CL?$CL?5Libraries?5Invalid?5A@ ; `string'
PUBLIC	??_C@_1FO@GJIHNDLM@?$AA?$CC?$AAS?$AAt?$AAa?$AAn?$AAd?$AAa?$AAr?$AAd?$AA?5?$AAC?$AA?$CL?$AA?$CL?$AA?5?$AAL?$AAi?$AAb?$AAr?$AAa?$AAr?$AAi?$AAe?$AAs?$AA?5?$AAI?$AAn?$AAv?$AAa?$AAl?$AAi?$AAd?$AA?5@ ; `string'
PUBLIC	??_C@_1NK@NBKKOKHK@?$AAs?$AAt?$AAd?$AA?3?$AA?3?$AA_?$AAV?$AAe?$AAc?$AAt?$AAo?$AAr?$AA_?$AAc?$AAo?$AAn?$AAs?$AAt?$AA_?$AAi?$AAt?$AAe?$AAr?$AAa?$AAt?$AAo?$AAr?$AA?$DM?$AAc?$AAl?$AAa?$AAs@ ; `string'
PUBLIC	??_C@_1MO@FIOFHBNA@?$AAs?$AAt?$AAd?$AA?3?$AA?3?$AA_?$AAV?$AAe?$AAc?$AAt?$AAo?$AAr?$AA_?$AAc?$AAo?$AAn?$AAs?$AAt?$AA_?$AAi?$AAt?$AAe?$AAr?$AAa?$AAt?$AAo?$AAr?$AA?$DM?$AAc?$AAl?$AAa?$AAs@ ; `string'
PUBLIC	??_C@_0BD@OLBABOEK@vector?$DMT?$DO?5too?5long?$AA@ ; `string'
PUBLIC	__real@4039000000000000
PUBLIC	__real@4059000000000000
PUBLIC	__real@447a0000
EXTRN	??2@YAPAXI@Z:PROC				; operator new
EXTRN	??3@YAXPAX@Z:PROC				; operator delete
EXTRN	_atexit:PROC
EXTRN	__imp___invalid_parameter:PROC
EXTRN	__imp_??0_Lockit@std@@QAE@H@Z:PROC
EXTRN	__imp_??1_Lockit@std@@QAE@XZ:PROC
EXTRN	__imp___CrtDbgReportW:PROC
EXTRN	__imp_?_Debug_message@std@@YAXPB_W0I@Z:PROC
EXTRN	__imp_?_Xbad_alloc@std@@YAXXZ:PROC
EXTRN	__imp_?_Xlength_error@std@@YAXPBD@Z:PROC
EXTRN	??0Vector2@@QAE@XZ:PROC				; Vector2::Vector2
EXTRN	??0Vector2@@QAE@NN@Z:PROC			; Vector2::Vector2
EXTRN	?DrawRect@@YAXVVector2@@HHQAH@Z:PROC		; DrawRect
EXTRN	@_RTC_CheckStackVars@8:PROC
EXTRN	@__security_check_cookie@4:PROC
EXTRN	__CxxThrowException@8:PROC
EXTRN	__RTC_CheckEsp:PROC
EXTRN	__RTC_InitBase:PROC
EXTRN	__RTC_Shutdown:PROC
EXTRN	___CxxFrameHandler3:PROC
EXTRN	_memset:PROC
EXTRN	___security_cookie:DWORD
EXTRN	__fltused:DWORD
_BSS	SEGMENT
?spawnTile@@3USpawnTile@@A DB 020H DUP (?)		; spawnTile
?tileMap@@3V?$vector@UTile@@V?$allocator@UTile@@@std@@@std@@A DB 010H DUP (?) ; tileMap
?pushTileMap@@3V?$vector@UPushTile@@V?$allocator@UPushTile@@@std@@@std@@A DB 010H DUP (?) ; pushTileMap
?movingTileMap@@3V?$vector@UMovingTile@@V?$allocator@UMovingTile@@@std@@@std@@A DB 010H DUP (?) ; movingTileMap
_BSS	ENDS
CRT$XCU	SEGMENT
?spawnTile$initializer$@@3P6AXXZA DD FLAT:??__EspawnTile@@YAXXZ ; spawnTile$initializer$
CRT$XCU	ENDS
;	COMDAT __real@447a0000
CONST	SEGMENT
__real@447a0000 DD 0447a0000r			; 1000
CONST	ENDS
;	COMDAT __real@4059000000000000
CONST	SEGMENT
__real@4059000000000000 DQ 04059000000000000r	; 100
CONST	ENDS
;	COMDAT __real@4039000000000000
CONST	SEGMENT
__real@4039000000000000 DQ 04039000000000000r	; 25
CONST	ENDS
;	COMDAT rtc$TMZ
rtc$TMZ	SEGMENT
__RTC_Shutdown.rtc$TMZ DD FLAT:__RTC_Shutdown
rtc$TMZ	ENDS
;	COMDAT rtc$IMZ
rtc$IMZ	SEGMENT
__RTC_InitBase.rtc$IMZ DD FLAT:__RTC_InitBase
rtc$IMZ	ENDS
;	COMDAT ??_C@_0BD@OLBABOEK@vector?$DMT?$DO?5too?5long?$AA@
CONST	SEGMENT
??_C@_0BD@OLBABOEK@vector?$DMT?$DO?5too?5long?$AA@ DB 'vector<T> too long'
	DB	00H						; `string'
CONST	ENDS
;	COMDAT ??_C@_1MO@FIOFHBNA@?$AAs?$AAt?$AAd?$AA?3?$AA?3?$AA_?$AAV?$AAe?$AAc?$AAt?$AAo?$AAr?$AA_?$AAc?$AAo?$AAn?$AAs?$AAt?$AA_?$AAi?$AAt?$AAe?$AAr?$AAa?$AAt?$AAo?$AAr?$AA?$DM?$AAc?$AAl?$AAa?$AAs@
CONST	SEGMENT
??_C@_1MO@FIOFHBNA@?$AAs?$AAt?$AAd?$AA?3?$AA?3?$AA_?$AAV?$AAe?$AAc?$AAt?$AAo?$AAr?$AA_?$AAc?$AAo?$AAn?$AAs?$AAt?$AA_?$AAi?$AAt?$AAe?$AAr?$AAa?$AAt?$AAo?$AAr?$AA?$DM?$AAc?$AAl?$AAa?$AAs@ DB 's'
	DB	00H, 't', 00H, 'd', 00H, ':', 00H, ':', 00H, '_', 00H, 'V', 00H
	DB	'e', 00H, 'c', 00H, 't', 00H, 'o', 00H, 'r', 00H, '_', 00H, 'c'
	DB	00H, 'o', 00H, 'n', 00H, 's', 00H, 't', 00H, '_', 00H, 'i', 00H
	DB	't', 00H, 'e', 00H, 'r', 00H, 'a', 00H, 't', 00H, 'o', 00H, 'r'
	DB	00H, '<', 00H, 'c', 00H, 'l', 00H, 'a', 00H, 's', 00H, 's', 00H
	DB	' ', 00H, 's', 00H, 't', 00H, 'd', 00H, ':', 00H, ':', 00H, '_'
	DB	00H, 'V', 00H, 'e', 00H, 'c', 00H, 't', 00H, 'o', 00H, 'r', 00H
	DB	'_', 00H, 'v', 00H, 'a', 00H, 'l', 00H, '<', 00H, 's', 00H, 't'
	DB	00H, 'r', 00H, 'u', 00H, 'c', 00H, 't', 00H, ' ', 00H, 's', 00H
	DB	't', 00H, 'd', 00H, ':', 00H, ':', 00H, '_', 00H, 'S', 00H, 'i'
	DB	00H, 'm', 00H, 'p', 00H, 'l', 00H, 'e', 00H, '_', 00H, 't', 00H
	DB	'y', 00H, 'p', 00H, 'e', 00H, 's', 00H, '<', 00H, 's', 00H, 't'
	DB	00H, 'r', 00H, 'u', 00H, 'c', 00H, 't', 00H, ' ', 00H, 'T', 00H
	DB	'i', 00H, 'l', 00H, 'e', 00H, '>', 00H, ' ', 00H, '>', 00H, ' '
	DB	00H, '>', 00H, ':', 00H, ':', 00H, '_', 00H, 'C', 00H, 'o', 00H
	DB	'm', 00H, 'p', 00H, 'a', 00H, 't', 00H, 00H, 00H ; `string'
CONST	ENDS
;	COMDAT ??_C@_1NK@NBKKOKHK@?$AAs?$AAt?$AAd?$AA?3?$AA?3?$AA_?$AAV?$AAe?$AAc?$AAt?$AAo?$AAr?$AA_?$AAc?$AAo?$AAn?$AAs?$AAt?$AA_?$AAi?$AAt?$AAe?$AAr?$AAa?$AAt?$AAo?$AAr?$AA?$DM?$AAc?$AAl?$AAa?$AAs@
CONST	SEGMENT
??_C@_1NK@NBKKOKHK@?$AAs?$AAt?$AAd?$AA?3?$AA?3?$AA_?$AAV?$AAe?$AAc?$AAt?$AAo?$AAr?$AA_?$AAc?$AAo?$AAn?$AAs?$AAt?$AA_?$AAi?$AAt?$AAe?$AAr?$AAa?$AAt?$AAo?$AAr?$AA?$DM?$AAc?$AAl?$AAa?$AAs@ DB 's'
	DB	00H, 't', 00H, 'd', 00H, ':', 00H, ':', 00H, '_', 00H, 'V', 00H
	DB	'e', 00H, 'c', 00H, 't', 00H, 'o', 00H, 'r', 00H, '_', 00H, 'c'
	DB	00H, 'o', 00H, 'n', 00H, 's', 00H, 't', 00H, '_', 00H, 'i', 00H
	DB	't', 00H, 'e', 00H, 'r', 00H, 'a', 00H, 't', 00H, 'o', 00H, 'r'
	DB	00H, '<', 00H, 'c', 00H, 'l', 00H, 'a', 00H, 's', 00H, 's', 00H
	DB	' ', 00H, 's', 00H, 't', 00H, 'd', 00H, ':', 00H, ':', 00H, '_'
	DB	00H, 'V', 00H, 'e', 00H, 'c', 00H, 't', 00H, 'o', 00H, 'r', 00H
	DB	'_', 00H, 'v', 00H, 'a', 00H, 'l', 00H, '<', 00H, 's', 00H, 't'
	DB	00H, 'r', 00H, 'u', 00H, 'c', 00H, 't', 00H, ' ', 00H, 's', 00H
	DB	't', 00H, 'd', 00H, ':', 00H, ':', 00H, '_', 00H, 'S', 00H, 'i'
	DB	00H, 'm', 00H, 'p', 00H, 'l', 00H, 'e', 00H, '_', 00H, 't', 00H
	DB	'y', 00H, 'p', 00H, 'e', 00H, 's', 00H, '<', 00H, 's', 00H, 't'
	DB	00H, 'r', 00H, 'u', 00H, 'c', 00H, 't', 00H, ' ', 00H, 'M', 00H
	DB	'o', 00H, 'v', 00H, 'i', 00H, 'n', 00H, 'g', 00H, 'T', 00H, 'i'
	DB	00H, 'l', 00H, 'e', 00H, '>', 00H, ' ', 00H, '>', 00H, ' ', 00H
	DB	'>', 00H, ':', 00H, ':', 00H, '_', 00H, 'C', 00H, 'o', 00H, 'm'
	DB	00H, 'p', 00H, 'a', 00H, 't', 00H, 00H, 00H	; `string'
CONST	ENDS
;	COMDAT ??_C@_1FO@GJIHNDLM@?$AA?$CC?$AAS?$AAt?$AAa?$AAn?$AAd?$AAa?$AAr?$AAd?$AA?5?$AAC?$AA?$CL?$AA?$CL?$AA?5?$AAL?$AAi?$AAb?$AAr?$AAa?$AAr?$AAi?$AAe?$AAs?$AA?5?$AAI?$AAn?$AAv?$AAa?$AAl?$AAi?$AAd?$AA?5@
CONST	SEGMENT
??_C@_1FO@GJIHNDLM@?$AA?$CC?$AAS?$AAt?$AAa?$AAn?$AAd?$AAa?$AAr?$AAd?$AA?5?$AAC?$AA?$CL?$AA?$CL?$AA?5?$AAL?$AAi?$AAb?$AAr?$AAa?$AAr?$AAi?$AAe?$AAs?$AA?5?$AAI?$AAn?$AAv?$AAa?$AAl?$AAi?$AAd?$AA?5@ DB '"'
	DB	00H, 'S', 00H, 't', 00H, 'a', 00H, 'n', 00H, 'd', 00H, 'a', 00H
	DB	'r', 00H, 'd', 00H, ' ', 00H, 'C', 00H, '+', 00H, '+', 00H, ' '
	DB	00H, 'L', 00H, 'i', 00H, 'b', 00H, 'r', 00H, 'a', 00H, 'r', 00H
	DB	'i', 00H, 'e', 00H, 's', 00H, ' ', 00H, 'I', 00H, 'n', 00H, 'v'
	DB	00H, 'a', 00H, 'l', 00H, 'i', 00H, 'd', 00H, ' ', 00H, 'A', 00H
	DB	'r', 00H, 'g', 00H, 'u', 00H, 'm', 00H, 'e', 00H, 'n', 00H, 't'
	DB	00H, '"', 00H, ' ', 00H, '&', 00H, '&', 00H, ' ', 00H, '0', 00H
	DB	00H, 00H					; `string'
CONST	ENDS
;	COMDAT ??_C@_0CI@FNPHFCCM@Standard?5C?$CL?$CL?5Libraries?5Invalid?5A@
CONST	SEGMENT
??_C@_0CI@FNPHFCCM@Standard?5C?$CL?$CL?5Libraries?5Invalid?5A@ DB 'Standa'
	DB	'rd C++ Libraries Invalid Argument', 00H	; `string'
CONST	ENDS
;	COMDAT ??_C@_1DM@HINDPMBP@?$AAv?$AAe?$AAc?$AAt?$AAo?$AAr?$AA?5?$AAi?$AAt?$AAe?$AAr?$AAa?$AAt?$AAo?$AAr?$AAs?$AA?5?$AAi?$AAn?$AAc?$AAo?$AAm?$AAp?$AAa?$AAt?$AAi?$AAb?$AAl?$AAe?$AA?$AA@
CONST	SEGMENT
??_C@_1DM@HINDPMBP@?$AAv?$AAe?$AAc?$AAt?$AAo?$AAr?$AA?5?$AAi?$AAt?$AAe?$AAr?$AAa?$AAt?$AAo?$AAr?$AAs?$AA?5?$AAi?$AAn?$AAc?$AAo?$AAm?$AAp?$AAa?$AAt?$AAi?$AAb?$AAl?$AAe?$AA?$AA@ DB 'v'
	DB	00H, 'e', 00H, 'c', 00H, 't', 00H, 'o', 00H, 'r', 00H, ' ', 00H
	DB	'i', 00H, 't', 00H, 'e', 00H, 'r', 00H, 'a', 00H, 't', 00H, 'o'
	DB	00H, 'r', 00H, 's', 00H, ' ', 00H, 'i', 00H, 'n', 00H, 'c', 00H
	DB	'o', 00H, 'm', 00H, 'p', 00H, 'a', 00H, 't', 00H, 'i', 00H, 'b'
	DB	00H, 'l', 00H, 'e', 00H, 00H, 00H		; `string'
CONST	ENDS
;	COMDAT ??_C@_1NE@MNCPAIHH@?$AAs?$AAt?$AAd?$AA?3?$AA?3?$AA_?$AAV?$AAe?$AAc?$AAt?$AAo?$AAr?$AA_?$AAc?$AAo?$AAn?$AAs?$AAt?$AA_?$AAi?$AAt?$AAe?$AAr?$AAa?$AAt?$AAo?$AAr?$AA?$DM?$AAc?$AAl?$AAa?$AAs@
CONST	SEGMENT
??_C@_1NE@MNCPAIHH@?$AAs?$AAt?$AAd?$AA?3?$AA?3?$AA_?$AAV?$AAe?$AAc?$AAt?$AAo?$AAr?$AA_?$AAc?$AAo?$AAn?$AAs?$AAt?$AA_?$AAi?$AAt?$AAe?$AAr?$AAa?$AAt?$AAo?$AAr?$AA?$DM?$AAc?$AAl?$AAa?$AAs@ DB 's'
	DB	00H, 't', 00H, 'd', 00H, ':', 00H, ':', 00H, '_', 00H, 'V', 00H
	DB	'e', 00H, 'c', 00H, 't', 00H, 'o', 00H, 'r', 00H, '_', 00H, 'c'
	DB	00H, 'o', 00H, 'n', 00H, 's', 00H, 't', 00H, '_', 00H, 'i', 00H
	DB	't', 00H, 'e', 00H, 'r', 00H, 'a', 00H, 't', 00H, 'o', 00H, 'r'
	DB	00H, '<', 00H, 'c', 00H, 'l', 00H, 'a', 00H, 's', 00H, 's', 00H
	DB	' ', 00H, 's', 00H, 't', 00H, 'd', 00H, ':', 00H, ':', 00H, '_'
	DB	00H, 'V', 00H, 'e', 00H, 'c', 00H, 't', 00H, 'o', 00H, 'r', 00H
	DB	'_', 00H, 'v', 00H, 'a', 00H, 'l', 00H, '<', 00H, 's', 00H, 't'
	DB	00H, 'r', 00H, 'u', 00H, 'c', 00H, 't', 00H, ' ', 00H, 's', 00H
	DB	't', 00H, 'd', 00H, ':', 00H, ':', 00H, '_', 00H, 'S', 00H, 'i'
	DB	00H, 'm', 00H, 'p', 00H, 'l', 00H, 'e', 00H, '_', 00H, 't', 00H
	DB	'y', 00H, 'p', 00H, 'e', 00H, 's', 00H, '<', 00H, 's', 00H, 't'
	DB	00H, 'r', 00H, 'u', 00H, 'c', 00H, 't', 00H, ' ', 00H, 'T', 00H
	DB	'i', 00H, 'l', 00H, 'e', 00H, '>', 00H, ' ', 00H, '>', 00H, ' '
	DB	00H, '>', 00H, ':', 00H, ':', 00H, 'o', 00H, 'p', 00H, 'e', 00H
	DB	'r', 00H, 'a', 00H, 't', 00H, 'o', 00H, 'r', 00H, ' ', 00H, '*'
	DB	00H, 00H, 00H				; `string'
CONST	ENDS
;	COMDAT ??_C@_1NG@NCMKFBLG@?$AAs?$AAt?$AAd?$AA?3?$AA?3?$AA_?$AAV?$AAe?$AAc?$AAt?$AAo?$AAr?$AA_?$AAc?$AAo?$AAn?$AAs?$AAt?$AA_?$AAi?$AAt?$AAe?$AAr?$AAa?$AAt?$AAo?$AAr?$AA?$DM?$AAc?$AAl?$AAa?$AAs@
CONST	SEGMENT
??_C@_1NG@NCMKFBLG@?$AAs?$AAt?$AAd?$AA?3?$AA?3?$AA_?$AAV?$AAe?$AAc?$AAt?$AAo?$AAr?$AA_?$AAc?$AAo?$AAn?$AAs?$AAt?$AA_?$AAi?$AAt?$AAe?$AAr?$AAa?$AAt?$AAo?$AAr?$AA?$DM?$AAc?$AAl?$AAa?$AAs@ DB 's'
	DB	00H, 't', 00H, 'd', 00H, ':', 00H, ':', 00H, '_', 00H, 'V', 00H
	DB	'e', 00H, 'c', 00H, 't', 00H, 'o', 00H, 'r', 00H, '_', 00H, 'c'
	DB	00H, 'o', 00H, 'n', 00H, 's', 00H, 't', 00H, '_', 00H, 'i', 00H
	DB	't', 00H, 'e', 00H, 'r', 00H, 'a', 00H, 't', 00H, 'o', 00H, 'r'
	DB	00H, '<', 00H, 'c', 00H, 'l', 00H, 'a', 00H, 's', 00H, 's', 00H
	DB	' ', 00H, 's', 00H, 't', 00H, 'd', 00H, ':', 00H, ':', 00H, '_'
	DB	00H, 'V', 00H, 'e', 00H, 'c', 00H, 't', 00H, 'o', 00H, 'r', 00H
	DB	'_', 00H, 'v', 00H, 'a', 00H, 'l', 00H, '<', 00H, 's', 00H, 't'
	DB	00H, 'r', 00H, 'u', 00H, 'c', 00H, 't', 00H, ' ', 00H, 's', 00H
	DB	't', 00H, 'd', 00H, ':', 00H, ':', 00H, '_', 00H, 'S', 00H, 'i'
	DB	00H, 'm', 00H, 'p', 00H, 'l', 00H, 'e', 00H, '_', 00H, 't', 00H
	DB	'y', 00H, 'p', 00H, 'e', 00H, 's', 00H, '<', 00H, 's', 00H, 't'
	DB	00H, 'r', 00H, 'u', 00H, 'c', 00H, 't', 00H, ' ', 00H, 'T', 00H
	DB	'i', 00H, 'l', 00H, 'e', 00H, '>', 00H, ' ', 00H, '>', 00H, ' '
	DB	00H, '>', 00H, ':', 00H, ':', 00H, 'o', 00H, 'p', 00H, 'e', 00H
	DB	'r', 00H, 'a', 00H, 't', 00H, 'o', 00H, 'r', 00H, ' ', 00H, '+'
	DB	00H, '+', 00H, 00H, 00H			; `string'
CONST	ENDS
;	COMDAT ??_C@_1OA@POONEEJK@?$AAs?$AAt?$AAd?$AA?3?$AA?3?$AA_?$AAV?$AAe?$AAc?$AAt?$AAo?$AAr?$AA_?$AAc?$AAo?$AAn?$AAs?$AAt?$AA_?$AAi?$AAt?$AAe?$AAr?$AAa?$AAt?$AAo?$AAr?$AA?$DM?$AAc?$AAl?$AAa?$AAs@
CONST	SEGMENT
??_C@_1OA@POONEEJK@?$AAs?$AAt?$AAd?$AA?3?$AA?3?$AA_?$AAV?$AAe?$AAc?$AAt?$AAo?$AAr?$AA_?$AAc?$AAo?$AAn?$AAs?$AAt?$AA_?$AAi?$AAt?$AAe?$AAr?$AAa?$AAt?$AAo?$AAr?$AA?$DM?$AAc?$AAl?$AAa?$AAs@ DB 's'
	DB	00H, 't', 00H, 'd', 00H, ':', 00H, ':', 00H, '_', 00H, 'V', 00H
	DB	'e', 00H, 'c', 00H, 't', 00H, 'o', 00H, 'r', 00H, '_', 00H, 'c'
	DB	00H, 'o', 00H, 'n', 00H, 's', 00H, 't', 00H, '_', 00H, 'i', 00H
	DB	't', 00H, 'e', 00H, 'r', 00H, 'a', 00H, 't', 00H, 'o', 00H, 'r'
	DB	00H, '<', 00H, 'c', 00H, 'l', 00H, 'a', 00H, 's', 00H, 's', 00H
	DB	' ', 00H, 's', 00H, 't', 00H, 'd', 00H, ':', 00H, ':', 00H, '_'
	DB	00H, 'V', 00H, 'e', 00H, 'c', 00H, 't', 00H, 'o', 00H, 'r', 00H
	DB	'_', 00H, 'v', 00H, 'a', 00H, 'l', 00H, '<', 00H, 's', 00H, 't'
	DB	00H, 'r', 00H, 'u', 00H, 'c', 00H, 't', 00H, ' ', 00H, 's', 00H
	DB	't', 00H, 'd', 00H, ':', 00H, ':', 00H, '_', 00H, 'S', 00H, 'i'
	DB	00H, 'm', 00H, 'p', 00H, 'l', 00H, 'e', 00H, '_', 00H, 't', 00H
	DB	'y', 00H, 'p', 00H, 'e', 00H, 's', 00H, '<', 00H, 's', 00H, 't'
	DB	00H, 'r', 00H, 'u', 00H, 'c', 00H, 't', 00H, ' ', 00H, 'M', 00H
	DB	'o', 00H, 'v', 00H, 'i', 00H, 'n', 00H, 'g', 00H, 'T', 00H, 'i'
	DB	00H, 'l', 00H, 'e', 00H, '>', 00H, ' ', 00H, '>', 00H, ' ', 00H
	DB	'>', 00H, ':', 00H, ':', 00H, 'o', 00H, 'p', 00H, 'e', 00H, 'r'
	DB	00H, 'a', 00H, 't', 00H, 'o', 00H, 'r', 00H, ' ', 00H, '*', 00H
	DB	00H, 00H					; `string'
CONST	ENDS
;	COMDAT ??_C@_1EG@FOHJJHAC@?$AAv?$AAe?$AAc?$AAt?$AAo?$AAr?$AA?5?$AAi?$AAt?$AAe?$AAr?$AAa?$AAt?$AAo?$AAr?$AA?5?$AAn?$AAo?$AAt?$AA?5?$AAd?$AAe?$AAr?$AAe?$AAf?$AAe?$AAr?$AAe?$AAn?$AAc?$AAa?$AAb@
CONST	SEGMENT
??_C@_1EG@FOHJJHAC@?$AAv?$AAe?$AAc?$AAt?$AAo?$AAr?$AA?5?$AAi?$AAt?$AAe?$AAr?$AAa?$AAt?$AAo?$AAr?$AA?5?$AAn?$AAo?$AAt?$AA?5?$AAd?$AAe?$AAr?$AAe?$AAf?$AAe?$AAr?$AAe?$AAn?$AAc?$AAa?$AAb@ DB 'v'
	DB	00H, 'e', 00H, 'c', 00H, 't', 00H, 'o', 00H, 'r', 00H, ' ', 00H
	DB	'i', 00H, 't', 00H, 'e', 00H, 'r', 00H, 'a', 00H, 't', 00H, 'o'
	DB	00H, 'r', 00H, ' ', 00H, 'n', 00H, 'o', 00H, 't', 00H, ' ', 00H
	DB	'd', 00H, 'e', 00H, 'r', 00H, 'e', 00H, 'f', 00H, 'e', 00H, 'r'
	DB	00H, 'e', 00H, 'n', 00H, 'c', 00H, 'a', 00H, 'b', 00H, 'l', 00H
	DB	'e', 00H, 00H, 00H				; `string'
CONST	ENDS
;	COMDAT ??_C@_1BO@MEPPHOO@?$AA?$CC?$AAo?$AAu?$AAt?$AA?5?$AAo?$AAf?$AA?5?$AAr?$AAa?$AAn?$AAg?$AAe?$AA?$CC?$AA?$AA@
CONST	SEGMENT
??_C@_1BO@MEPPHOO@?$AA?$CC?$AAo?$AAu?$AAt?$AA?5?$AAo?$AAf?$AA?5?$AAr?$AAa?$AAn?$AAg?$AAe?$AA?$CC?$AA?$AA@ DB '"'
	DB	00H, 'o', 00H, 'u', 00H, 't', 00H, ' ', 00H, 'o', 00H, 'f', 00H
	DB	' ', 00H, 'r', 00H, 'a', 00H, 'n', 00H, 'g', 00H, 'e', 00H, '"'
	DB	00H, 00H, 00H				; `string'
CONST	ENDS
;	COMDAT ??_C@_1OC@EGHAOCGO@?$AAs?$AAt?$AAd?$AA?3?$AA?3?$AA_?$AAV?$AAe?$AAc?$AAt?$AAo?$AAr?$AA_?$AAc?$AAo?$AAn?$AAs?$AAt?$AA_?$AAi?$AAt?$AAe?$AAr?$AAa?$AAt?$AAo?$AAr?$AA?$DM?$AAc?$AAl?$AAa?$AAs@
CONST	SEGMENT
??_C@_1OC@EGHAOCGO@?$AAs?$AAt?$AAd?$AA?3?$AA?3?$AA_?$AAV?$AAe?$AAc?$AAt?$AAo?$AAr?$AA_?$AAc?$AAo?$AAn?$AAs?$AAt?$AA_?$AAi?$AAt?$AAe?$AAr?$AAa?$AAt?$AAo?$AAr?$AA?$DM?$AAc?$AAl?$AAa?$AAs@ DB 's'
	DB	00H, 't', 00H, 'd', 00H, ':', 00H, ':', 00H, '_', 00H, 'V', 00H
	DB	'e', 00H, 'c', 00H, 't', 00H, 'o', 00H, 'r', 00H, '_', 00H, 'c'
	DB	00H, 'o', 00H, 'n', 00H, 's', 00H, 't', 00H, '_', 00H, 'i', 00H
	DB	't', 00H, 'e', 00H, 'r', 00H, 'a', 00H, 't', 00H, 'o', 00H, 'r'
	DB	00H, '<', 00H, 'c', 00H, 'l', 00H, 'a', 00H, 's', 00H, 's', 00H
	DB	' ', 00H, 's', 00H, 't', 00H, 'd', 00H, ':', 00H, ':', 00H, '_'
	DB	00H, 'V', 00H, 'e', 00H, 'c', 00H, 't', 00H, 'o', 00H, 'r', 00H
	DB	'_', 00H, 'v', 00H, 'a', 00H, 'l', 00H, '<', 00H, 's', 00H, 't'
	DB	00H, 'r', 00H, 'u', 00H, 'c', 00H, 't', 00H, ' ', 00H, 's', 00H
	DB	't', 00H, 'd', 00H, ':', 00H, ':', 00H, '_', 00H, 'S', 00H, 'i'
	DB	00H, 'm', 00H, 'p', 00H, 'l', 00H, 'e', 00H, '_', 00H, 't', 00H
	DB	'y', 00H, 'p', 00H, 'e', 00H, 's', 00H, '<', 00H, 's', 00H, 't'
	DB	00H, 'r', 00H, 'u', 00H, 'c', 00H, 't', 00H, ' ', 00H, 'M', 00H
	DB	'o', 00H, 'v', 00H, 'i', 00H, 'n', 00H, 'g', 00H, 'T', 00H, 'i'
	DB	00H, 'l', 00H, 'e', 00H, '>', 00H, ' ', 00H, '>', 00H, ' ', 00H
	DB	'>', 00H, ':', 00H, ':', 00H, 'o', 00H, 'p', 00H, 'e', 00H, 'r'
	DB	00H, 'a', 00H, 't', 00H, 'o', 00H, 'r', 00H, ' ', 00H, '+', 00H
	DB	'+', 00H, 00H, 00H				; `string'
CONST	ENDS
;	COMDAT ??_C@_1FG@IBPIFFN@?$AA?$CC?$AAS?$AAt?$AAa?$AAn?$AAd?$AAa?$AAr?$AAd?$AA?5?$AAC?$AA?$CL?$AA?$CL?$AA?5?$AAL?$AAi?$AAb?$AAr?$AAa?$AAr?$AAi?$AAe?$AAs?$AA?5?$AAO?$AAu?$AAt?$AA?5?$AAo?$AAf?$AA?5?$AAR@
CONST	SEGMENT
??_C@_1FG@IBPIFFN@?$AA?$CC?$AAS?$AAt?$AAa?$AAn?$AAd?$AAa?$AAr?$AAd?$AA?5?$AAC?$AA?$CL?$AA?$CL?$AA?5?$AAL?$AAi?$AAb?$AAr?$AAa?$AAr?$AAi?$AAe?$AAs?$AA?5?$AAO?$AAu?$AAt?$AA?5?$AAo?$AAf?$AA?5?$AAR@ DB '"'
	DB	00H, 'S', 00H, 't', 00H, 'a', 00H, 'n', 00H, 'd', 00H, 'a', 00H
	DB	'r', 00H, 'd', 00H, ' ', 00H, 'C', 00H, '+', 00H, '+', 00H, ' '
	DB	00H, 'L', 00H, 'i', 00H, 'b', 00H, 'r', 00H, 'a', 00H, 'r', 00H
	DB	'i', 00H, 'e', 00H, 's', 00H, ' ', 00H, 'O', 00H, 'u', 00H, 't'
	DB	00H, ' ', 00H, 'o', 00H, 'f', 00H, ' ', 00H, 'R', 00H, 'a', 00H
	DB	'n', 00H, 'g', 00H, 'e', 00H, '"', 00H, ' ', 00H, '&', 00H, '&'
	DB	00H, ' ', 00H, '0', 00H, 00H, 00H		; `string'
CONST	ENDS
;	COMDAT ??_C@_0CE@OFMIGAMM@Standard?5C?$CL?$CL?5Libraries?5Out?5of?5Ra@
CONST	SEGMENT
??_C@_0CE@OFMIGAMM@Standard?5C?$CL?$CL?5Libraries?5Out?5of?5Ra@ DB 'Stand'
	DB	'ard C++ Libraries Out of Range', 00H	; `string'
CONST	ENDS
;	COMDAT ??_C@_1EE@EJDKCLKB@?$AAv?$AAe?$AAc?$AAt?$AAo?$AAr?$AA?5?$AAi?$AAt?$AAe?$AAr?$AAa?$AAt?$AAo?$AAr?$AA?5?$AAn?$AAo?$AAt?$AA?5?$AAi?$AAn?$AAc?$AAr?$AAe?$AAm?$AAe?$AAn?$AAt?$AAa?$AAb?$AAl@
CONST	SEGMENT
??_C@_1EE@EJDKCLKB@?$AAv?$AAe?$AAc?$AAt?$AAo?$AAr?$AA?5?$AAi?$AAt?$AAe?$AAr?$AAa?$AAt?$AAo?$AAr?$AA?5?$AAn?$AAo?$AAt?$AA?5?$AAi?$AAn?$AAc?$AAr?$AAe?$AAm?$AAe?$AAn?$AAt?$AAa?$AAb?$AAl@ DB 'v'
	DB	00H, 'e', 00H, 'c', 00H, 't', 00H, 'o', 00H, 'r', 00H, ' ', 00H
	DB	'i', 00H, 't', 00H, 'e', 00H, 'r', 00H, 'a', 00H, 't', 00H, 'o'
	DB	00H, 'r', 00H, ' ', 00H, 'n', 00H, 'o', 00H, 't', 00H, ' ', 00H
	DB	'i', 00H, 'n', 00H, 'c', 00H, 'r', 00H, 'e', 00H, 'm', 00H, 'e'
	DB	00H, 'n', 00H, 't', 00H, 'a', 00H, 'b', 00H, 'l', 00H, 'e', 00H
	DB	00H, 00H					; `string'
CONST	ENDS
;	COMDAT ??_C@_1IM@NCODKBJH@?$AAc?$AA?3?$AA?2?$AAp?$AAr?$AAo?$AAg?$AAr?$AAa?$AAm?$AA?5?$AAf?$AAi?$AAl?$AAe?$AAs?$AA?5?$AA?$CI?$AAx?$AA8?$AA6?$AA?$CJ?$AA?2?$AAm?$AAi?$AAc?$AAr?$AAo?$AAs?$AAo?$AAf?$AAt@
CONST	SEGMENT
??_C@_1IM@NCODKBJH@?$AAc?$AA?3?$AA?2?$AAp?$AAr?$AAo?$AAg?$AAr?$AAa?$AAm?$AA?5?$AAf?$AAi?$AAl?$AAe?$AAs?$AA?5?$AA?$CI?$AAx?$AA8?$AA6?$AA?$CJ?$AA?2?$AAm?$AAi?$AAc?$AAr?$AAo?$AAs?$AAo?$AAf?$AAt@ DB 'c'
	DB	00H, ':', 00H, '\', 00H, 'p', 00H, 'r', 00H, 'o', 00H, 'g', 00H
	DB	'r', 00H, 'a', 00H, 'm', 00H, ' ', 00H, 'f', 00H, 'i', 00H, 'l'
	DB	00H, 'e', 00H, 's', 00H, ' ', 00H, '(', 00H, 'x', 00H, '8', 00H
	DB	'6', 00H, ')', 00H, '\', 00H, 'm', 00H, 'i', 00H, 'c', 00H, 'r'
	DB	00H, 'o', 00H, 's', 00H, 'o', 00H, 'f', 00H, 't', 00H, ' ', 00H
	DB	'v', 00H, 'i', 00H, 's', 00H, 'u', 00H, 'a', 00H, 'l', 00H, ' '
	DB	00H, 's', 00H, 't', 00H, 'u', 00H, 'd', 00H, 'i', 00H, 'o', 00H
	DB	' ', 00H, '1', 00H, '4', 00H, '.', 00H, '0', 00H, '\', 00H, 'v'
	DB	00H, 'c', 00H, '\', 00H, 'i', 00H, 'n', 00H, 'c', 00H, 'l', 00H
	DB	'u', 00H, 'd', 00H, 'e', 00H, '\', 00H, 'v', 00H, 'e', 00H, 'c'
	DB	00H, 't', 00H, 'o', 00H, 'r', 00H, 00H, 00H	; `string'
CONST	ENDS
;	COMDAT ??_C@_1GI@DHJGPFNI@?$AA?$CC?$AA_?$AAP?$AAt?$AAr?$AA_?$AAu?$AAs?$AAe?$AAr?$AA?5?$AA?9?$AA?5?$AA_?$AAP?$AAt?$AAr?$AA_?$AAc?$AAo?$AAn?$AAt?$AAa?$AAi?$AAn?$AAe?$AAr?$AA?5?$AA?$DM?$AA?$DN?$AA?5?$AA_@
CONST	SEGMENT
??_C@_1GI@DHJGPFNI@?$AA?$CC?$AA_?$AAP?$AAt?$AAr?$AA_?$AAu?$AAs?$AAe?$AAr?$AA?5?$AA?9?$AA?5?$AA_?$AAP?$AAt?$AAr?$AA_?$AAc?$AAo?$AAn?$AAt?$AAa?$AAi?$AAn?$AAe?$AAr?$AA?5?$AA?$DM?$AA?$DN?$AA?5?$AA_@ DB '"'
	DB	00H, '_', 00H, 'P', 00H, 't', 00H, 'r', 00H, '_', 00H, 'u', 00H
	DB	's', 00H, 'e', 00H, 'r', 00H, ' ', 00H, '-', 00H, ' ', 00H, '_'
	DB	00H, 'P', 00H, 't', 00H, 'r', 00H, '_', 00H, 'c', 00H, 'o', 00H
	DB	'n', 00H, 't', 00H, 'a', 00H, 'i', 00H, 'n', 00H, 'e', 00H, 'r'
	DB	00H, ' ', 00H, '<', 00H, '=', 00H, ' ', 00H, '_', 00H, 'N', 00H
	DB	'O', 00H, 'N', 00H, '_', 00H, 'U', 00H, 'S', 00H, 'E', 00H, 'R'
	DB	00H, '_', 00H, 'S', 00H, 'I', 00H, 'Z', 00H, 'E', 00H, '"', 00H
	DB	' ', 00H, '&', 00H, '&', 00H, ' ', 00H, '0', 00H, 00H, 00H ; `string'
CONST	ENDS
;	COMDAT ??_C@_0CN@BLHJCAL@_Ptr_user?5?9?5_Ptr_container?5?$DM?$DN?5_N@
CONST	SEGMENT
??_C@_0CN@BLHJCAL@_Ptr_user?5?9?5_Ptr_container?5?$DM?$DN?5_N@ DB '_Ptr_u'
	DB	'ser - _Ptr_container <= _NON_USER_SIZE', 00H ; `string'
CONST	ENDS
;	COMDAT ??_C@_1HA@NAPGMHAO@?$AA?$CC?$AA2?$AA?5?$AA?$CK?$AA?5?$AAs?$AAi?$AAz?$AAe?$AAo?$AAf?$AA?$CI?$AAv?$AAo?$AAi?$AAd?$AA?5?$AA?$CK?$AA?$CJ?$AA?5?$AA?$DM?$AA?$DN?$AA?5?$AA_?$AAP?$AAt?$AAr?$AA_?$AAu?$AAs?$AAe?$AAr@
CONST	SEGMENT
??_C@_1HA@NAPGMHAO@?$AA?$CC?$AA2?$AA?5?$AA?$CK?$AA?5?$AAs?$AAi?$AAz?$AAe?$AAo?$AAf?$AA?$CI?$AAv?$AAo?$AAi?$AAd?$AA?5?$AA?$CK?$AA?$CJ?$AA?5?$AA?$DM?$AA?$DN?$AA?5?$AA_?$AAP?$AAt?$AAr?$AA_?$AAu?$AAs?$AAe?$AAr@ DB '"'
	DB	00H, '2', 00H, ' ', 00H, '*', 00H, ' ', 00H, 's', 00H, 'i', 00H
	DB	'z', 00H, 'e', 00H, 'o', 00H, 'f', 00H, '(', 00H, 'v', 00H, 'o'
	DB	00H, 'i', 00H, 'd', 00H, ' ', 00H, '*', 00H, ')', 00H, ' ', 00H
	DB	'<', 00H, '=', 00H, ' ', 00H, '_', 00H, 'P', 00H, 't', 00H, 'r'
	DB	00H, '_', 00H, 'u', 00H, 's', 00H, 'e', 00H, 'r', 00H, ' ', 00H
	DB	'-', 00H, ' ', 00H, '_', 00H, 'P', 00H, 't', 00H, 'r', 00H, '_'
	DB	00H, 'c', 00H, 'o', 00H, 'n', 00H, 't', 00H, 'a', 00H, 'i', 00H
	DB	'n', 00H, 'e', 00H, 'r', 00H, '"', 00H, ' ', 00H, '&', 00H, '&'
	DB	00H, ' ', 00H, '0', 00H, 00H, 00H		; `string'
CONST	ENDS
;	COMDAT ??_C@_0DB@GLFJLNCE@2?5?$CK?5sizeof?$CIvoid?5?$CK?$CJ?5?$DM?$DN?5_Ptr_user?5@
CONST	SEGMENT
??_C@_0DB@GLFJLNCE@2?5?$CK?5sizeof?$CIvoid?5?$CK?$CJ?5?$DM?$DN?5_Ptr_user?5@ DB '2'
	DB	' * sizeof(void *) <= _Ptr_user - _Ptr_container', 00H ; `string'
CONST	ENDS
;	COMDAT ??_C@_1EE@PDHAHDDC@?$AA?$CC?$AA_?$AAP?$AAt?$AAr?$AA_?$AAc?$AAo?$AAn?$AAt?$AAa?$AAi?$AAn?$AAe?$AAr?$AA?5?$AA?$DM?$AA?5?$AA_?$AAP?$AAt?$AAr?$AA_?$AAu?$AAs?$AAe?$AAr?$AA?$CC?$AA?5?$AA?$CG?$AA?$CG?$AA?5@
CONST	SEGMENT
??_C@_1EE@PDHAHDDC@?$AA?$CC?$AA_?$AAP?$AAt?$AAr?$AA_?$AAc?$AAo?$AAn?$AAt?$AAa?$AAi?$AAn?$AAe?$AAr?$AA?5?$AA?$DM?$AA?5?$AA_?$AAP?$AAt?$AAr?$AA_?$AAu?$AAs?$AAe?$AAr?$AA?$CC?$AA?5?$AA?$CG?$AA?$CG?$AA?5@ DB '"'
	DB	00H, '_', 00H, 'P', 00H, 't', 00H, 'r', 00H, '_', 00H, 'c', 00H
	DB	'o', 00H, 'n', 00H, 't', 00H, 'a', 00H, 'i', 00H, 'n', 00H, 'e'
	DB	00H, 'r', 00H, ' ', 00H, '<', 00H, ' ', 00H, '_', 00H, 'P', 00H
	DB	't', 00H, 'r', 00H, '_', 00H, 'u', 00H, 's', 00H, 'e', 00H, 'r'
	DB	00H, '"', 00H, ' ', 00H, '&', 00H, '&', 00H, ' ', 00H, '0', 00H
	DB	00H, 00H					; `string'
CONST	ENDS
;	COMDAT ??_C@_0BL@OCKMEJON@_Ptr_container?5?$DM?5_Ptr_user?$AA@
CONST	SEGMENT
??_C@_0BL@OCKMEJON@_Ptr_container?5?$DM?5_Ptr_user?$AA@ DB '_Ptr_containe'
	DB	'r < _Ptr_user', 00H				; `string'
CONST	ENDS
;	COMDAT ??_C@_1JO@EKLKIEHP@?$AA?$CC?$AAr?$AAe?$AAi?$AAn?$AAt?$AAe?$AAr?$AAp?$AAr?$AAe?$AAt?$AA_?$AAc?$AAa?$AAs?$AAt?$AA?$DM?$AAu?$AAi?$AAn?$AAt?$AAp?$AAt?$AAr?$AA_?$AAt?$AA?5?$AA?$CK?$AA?$DO?$AA?$CI?$AA_@
CONST	SEGMENT
??_C@_1JO@EKLKIEHP@?$AA?$CC?$AAr?$AAe?$AAi?$AAn?$AAt?$AAe?$AAr?$AAp?$AAr?$AAe?$AAt?$AA_?$AAc?$AAa?$AAs?$AAt?$AA?$DM?$AAu?$AAi?$AAn?$AAt?$AAp?$AAt?$AAr?$AA_?$AAt?$AA?5?$AA?$CK?$AA?$DO?$AA?$CI?$AA_@ DB '"'
	DB	00H, 'r', 00H, 'e', 00H, 'i', 00H, 'n', 00H, 't', 00H, 'e', 00H
	DB	'r', 00H, 'p', 00H, 'r', 00H, 'e', 00H, 't', 00H, '_', 00H, 'c'
	DB	00H, 'a', 00H, 's', 00H, 't', 00H, '<', 00H, 'u', 00H, 'i', 00H
	DB	'n', 00H, 't', 00H, 'p', 00H, 't', 00H, 'r', 00H, '_', 00H, 't'
	DB	00H, ' ', 00H, '*', 00H, '>', 00H, '(', 00H, '_', 00H, 'P', 00H
	DB	't', 00H, 'r', 00H, '_', 00H, 'p', 00H, 't', 00H, 'r', 00H, ')'
	DB	00H, '[', 00H, '-', 00H, '1', 00H, ']', 00H, ' ', 00H, '=', 00H
	DB	'=', 00H, ' ', 00H, '_', 00H, 'B', 00H, 'I', 00H, 'G', 00H, '_'
	DB	00H, 'A', 00H, 'L', 00H, 'L', 00H, 'O', 00H, 'C', 00H, 'A', 00H
	DB	'T', 00H, 'I', 00H, 'O', 00H, 'N', 00H, '_', 00H, 'S', 00H, 'E'
	DB	00H, 'N', 00H, 'T', 00H, 'I', 00H, 'N', 00H, 'E', 00H, 'L', 00H
	DB	'"', 00H, ' ', 00H, '&', 00H, '&', 00H, ' ', 00H, '0', 00H, 00H
	DB	00H						; `string'
CONST	ENDS
;	COMDAT ??_C@_0EI@NOJHEJCJ@reinterpret_cast?$DMuintptr_t?5?$CK?$DO?$CI_P@
CONST	SEGMENT
??_C@_0EI@NOJHEJCJ@reinterpret_cast?$DMuintptr_t?5?$CK?$DO?$CI_P@ DB 'rei'
	DB	'nterpret_cast<uintptr_t *>(_Ptr_ptr)[-1] == _BIG_ALLOCATION_S'
	DB	'ENTINEL', 00H				; `string'
CONST	ENDS
;	COMDAT ??_C@_1HE@CDMBFOKC@?$AA?$CC?$AA?$CI?$AA_?$AAP?$AAt?$AAr?$AA_?$AAu?$AAs?$AAe?$AAr?$AA?5?$AA?$CG?$AA?5?$AA?$CI?$AA_?$AAB?$AAI?$AAG?$AA_?$AAA?$AAL?$AAL?$AAO?$AAC?$AAA?$AAT?$AAI?$AAO?$AAN?$AA_?$AAA@
CONST	SEGMENT
??_C@_1HE@CDMBFOKC@?$AA?$CC?$AA?$CI?$AA_?$AAP?$AAt?$AAr?$AA_?$AAu?$AAs?$AAe?$AAr?$AA?5?$AA?$CG?$AA?5?$AA?$CI?$AA_?$AAB?$AAI?$AAG?$AA_?$AAA?$AAL?$AAL?$AAO?$AAC?$AAA?$AAT?$AAI?$AAO?$AAN?$AA_?$AAA@ DB '"'
	DB	00H, '(', 00H, '_', 00H, 'P', 00H, 't', 00H, 'r', 00H, '_', 00H
	DB	'u', 00H, 's', 00H, 'e', 00H, 'r', 00H, ' ', 00H, '&', 00H, ' '
	DB	00H, '(', 00H, '_', 00H, 'B', 00H, 'I', 00H, 'G', 00H, '_', 00H
	DB	'A', 00H, 'L', 00H, 'L', 00H, 'O', 00H, 'C', 00H, 'A', 00H, 'T'
	DB	00H, 'I', 00H, 'O', 00H, 'N', 00H, '_', 00H, 'A', 00H, 'L', 00H
	DB	'I', 00H, 'G', 00H, 'N', 00H, 'M', 00H, 'E', 00H, 'N', 00H, 'T'
	DB	00H, ' ', 00H, '-', 00H, ' ', 00H, '1', 00H, ')', 00H, ')', 00H
	DB	' ', 00H, '=', 00H, '=', 00H, ' ', 00H, '0', 00H, '"', 00H, ' '
	DB	00H, '&', 00H, '&', 00H, ' ', 00H, '0', 00H, 00H, 00H ; `string'
CONST	ENDS
;	COMDAT ??_C@_0DD@GBGGGKGG@?$CI_Ptr_user?5?$CG?5?$CI_BIG_ALLOCATION_AL@
CONST	SEGMENT
??_C@_0DD@GBGGGKGG@?$CI_Ptr_user?5?$CG?5?$CI_BIG_ALLOCATION_AL@ DB '(_Ptr'
	DB	'_user & (_BIG_ALLOCATION_ALIGNMENT - 1)) == 0', 00H ; `string'
CONST	ENDS
;	COMDAT ??_C@_1CC@LOFJFFDB@?$AAs?$AAt?$AAd?$AA?3?$AA?3?$AA_?$AAD?$AAe?$AAa?$AAl?$AAl?$AAo?$AAc?$AAa?$AAt?$AAe?$AA?$AA@
CONST	SEGMENT
??_C@_1CC@LOFJFFDB@?$AAs?$AAt?$AAd?$AA?3?$AA?3?$AA_?$AAD?$AAe?$AAa?$AAl?$AAl?$AAo?$AAc?$AAa?$AAt?$AAe?$AA?$AA@ DB 's'
	DB	00H, 't', 00H, 'd', 00H, ':', 00H, ':', 00H, '_', 00H, 'D', 00H
	DB	'e', 00H, 'a', 00H, 'l', 00H, 'l', 00H, 'o', 00H, 'c', 00H, 'a'
	DB	00H, 't', 00H, 'e', 00H, 00H, 00H		; `string'
CONST	ENDS
;	COMDAT ??_C@_1EI@MLOBABC@?$AA?$CC?$AA_?$AAC?$AAo?$AAu?$AAn?$AAt?$AA?5?$AA?$DM?$AA?$DN?$AA?5?$AA?$CI?$AAs?$AAi?$AAz?$AAe?$AA_?$AAt?$AA?$CJ?$AA?$CI?$AA?9?$AA1?$AA?$CJ?$AA?5?$AA?1?$AA?5?$AA_?$AAS?$AAz?$AA?$CC?$AA?5?$AA?$CG@
CONST	SEGMENT
??_C@_1EI@MLOBABC@?$AA?$CC?$AA_?$AAC?$AAo?$AAu?$AAn?$AAt?$AA?5?$AA?$DM?$AA?$DN?$AA?5?$AA?$CI?$AAs?$AAi?$AAz?$AAe?$AA_?$AAt?$AA?$CJ?$AA?$CI?$AA?9?$AA1?$AA?$CJ?$AA?5?$AA?1?$AA?5?$AA_?$AAS?$AAz?$AA?$CC?$AA?5?$AA?$CG@ DB '"'
	DB	00H, '_', 00H, 'C', 00H, 'o', 00H, 'u', 00H, 'n', 00H, 't', 00H
	DB	' ', 00H, '<', 00H, '=', 00H, ' ', 00H, '(', 00H, 's', 00H, 'i'
	DB	00H, 'z', 00H, 'e', 00H, '_', 00H, 't', 00H, ')', 00H, '(', 00H
	DB	'-', 00H, '1', 00H, ')', 00H, ' ', 00H, '/', 00H, ' ', 00H, '_'
	DB	00H, 'S', 00H, 'z', 00H, '"', 00H, ' ', 00H, '&', 00H, '&', 00H
	DB	' ', 00H, '0', 00H, 00H, 00H			; `string'
CONST	ENDS
;	COMDAT ??_C@_0BN@HMCJOMKN@_Count?5?$DM?$DN?5?$CIsize_t?$CJ?$CI?91?$CJ?5?1?5_Sz?$AA@
CONST	SEGMENT
??_C@_0BN@HMCJOMKN@_Count?5?$DM?$DN?5?$CIsize_t?$CJ?$CI?91?$CJ?5?1?5_Sz?$AA@ DB '_'
	DB	'Count <= (size_t)(-1) / _Sz', 00H		; `string'
CONST	ENDS
;	COMDAT ?__LINE__Var@?0??_Deallocate@std@@YAXPAXII@Z@4JA
_DATA	SEGMENT
?__LINE__Var@?0??_Deallocate@std@@YAXPAXII@Z@4JA DD 05cH ; `std::_Deallocate'::`1'::__LINE__Var
_DATA	ENDS
;	COMDAT ??_C@_1CC@GKJLLHIM@?$AA?$CC?$AA_?$AAP?$AAt?$AAr?$AA?5?$AA?$CB?$AA?$DN?$AA?5?$AA0?$AA?$CC?$AA?5?$AA?$CG?$AA?$CG?$AA?5?$AA0?$AA?$AA@
CONST	SEGMENT
??_C@_1CC@GKJLLHIM@?$AA?$CC?$AA_?$AAP?$AAt?$AAr?$AA?5?$AA?$CB?$AA?$DN?$AA?5?$AA0?$AA?$CC?$AA?5?$AA?$CG?$AA?$CG?$AA?5?$AA0?$AA?$AA@ DB '"'
	DB	00H, '_', 00H, 'P', 00H, 't', 00H, 'r', 00H, ' ', 00H, '!', 00H
	DB	'=', 00H, ' ', 00H, '0', 00H, '"', 00H, ' ', 00H, '&', 00H, '&'
	DB	00H, ' ', 00H, '0', 00H, 00H, 00H		; `string'
CONST	ENDS
;	COMDAT ??_C@_09GLJCAGLP@_Ptr?5?$CB?$DN?50?$AA@
CONST	SEGMENT
??_C@_09GLJCAGLP@_Ptr?5?$CB?$DN?50?$AA@ DB '_Ptr != 0', 00H ; `string'
CONST	ENDS
;	COMDAT ??_C@_1CG@JNLFBNGN@?$AA?$CC?$AAi?$AAn?$AAv?$AAa?$AAl?$AAi?$AAd?$AA?5?$AAa?$AAr?$AAg?$AAu?$AAm?$AAe?$AAn?$AAt?$AA?$CC?$AA?$AA@
CONST	SEGMENT
??_C@_1CG@JNLFBNGN@?$AA?$CC?$AAi?$AAn?$AAv?$AAa?$AAl?$AAi?$AAd?$AA?5?$AAa?$AAr?$AAg?$AAu?$AAm?$AAe?$AAn?$AAt?$AA?$CC?$AA?$AA@ DB '"'
	DB	00H, 'i', 00H, 'n', 00H, 'v', 00H, 'a', 00H, 'l', 00H, 'i', 00H
	DB	'd', 00H, ' ', 00H, 'a', 00H, 'r', 00H, 'g', 00H, 'u', 00H, 'm'
	DB	00H, 'e', 00H, 'n', 00H, 't', 00H, '"', 00H, 00H, 00H ; `string'
CONST	ENDS
;	COMDAT ??_C@_1BO@NKFMJPA@?$AAs?$AAt?$AAd?$AA?3?$AA?3?$AA_?$AAA?$AAl?$AAl?$AAo?$AAc?$AAa?$AAt?$AAe?$AA?$AA@
CONST	SEGMENT
??_C@_1BO@NKFMJPA@?$AAs?$AAt?$AAd?$AA?3?$AA?3?$AA_?$AAA?$AAl?$AAl?$AAo?$AAc?$AAa?$AAt?$AAe?$AA?$AA@ DB 's'
	DB	00H, 't', 00H, 'd', 00H, ':', 00H, ':', 00H, '_', 00H, 'A', 00H
	DB	'l', 00H, 'l', 00H, 'o', 00H, 'c', 00H, 'a', 00H, 't', 00H, 'e'
	DB	00H, 00H, 00H				; `string'
CONST	ENDS
;	COMDAT ??_C@_1JA@DKOIEICI@?$AAc?$AA?3?$AA?2?$AAp?$AAr?$AAo?$AAg?$AAr?$AAa?$AAm?$AA?5?$AAf?$AAi?$AAl?$AAe?$AAs?$AA?5?$AA?$CI?$AAx?$AA8?$AA6?$AA?$CJ?$AA?2?$AAm?$AAi?$AAc?$AAr?$AAo?$AAs?$AAo?$AAf?$AAt@
CONST	SEGMENT
??_C@_1JA@DKOIEICI@?$AAc?$AA?3?$AA?2?$AAp?$AAr?$AAo?$AAg?$AAr?$AAa?$AAm?$AA?5?$AAf?$AAi?$AAl?$AAe?$AAs?$AA?5?$AA?$CI?$AAx?$AA8?$AA6?$AA?$CJ?$AA?2?$AAm?$AAi?$AAc?$AAr?$AAo?$AAs?$AAo?$AAf?$AAt@ DB 'c'
	DB	00H, ':', 00H, '\', 00H, 'p', 00H, 'r', 00H, 'o', 00H, 'g', 00H
	DB	'r', 00H, 'a', 00H, 'm', 00H, ' ', 00H, 'f', 00H, 'i', 00H, 'l'
	DB	00H, 'e', 00H, 's', 00H, ' ', 00H, '(', 00H, 'x', 00H, '8', 00H
	DB	'6', 00H, ')', 00H, '\', 00H, 'm', 00H, 'i', 00H, 'c', 00H, 'r'
	DB	00H, 'o', 00H, 's', 00H, 'o', 00H, 'f', 00H, 't', 00H, ' ', 00H
	DB	'v', 00H, 'i', 00H, 's', 00H, 'u', 00H, 'a', 00H, 'l', 00H, ' '
	DB	00H, 's', 00H, 't', 00H, 'u', 00H, 'd', 00H, 'i', 00H, 'o', 00H
	DB	' ', 00H, '1', 00H, '4', 00H, '.', 00H, '0', 00H, '\', 00H, 'v'
	DB	00H, 'c', 00H, '\', 00H, 'i', 00H, 'n', 00H, 'c', 00H, 'l', 00H
	DB	'u', 00H, 'd', 00H, 'e', 00H, '\', 00H, 'x', 00H, 'm', 00H, 'e'
	DB	00H, 'm', 00H, 'o', 00H, 'r', 00H, 'y', 00H, '0', 00H, 00H, 00H ; `string'
CONST	ENDS
;	COMDAT ??_C@_17CNPHIMPH@?$AA?$CF?$AAl?$AAs?$AA?$AA@
CONST	SEGMENT
??_C@_17CNPHIMPH@?$AA?$CF?$AAl?$AAs?$AA?$AA@ DB '%', 00H, 'l', 00H, 's', 00H
	DB	00H, 00H					; `string'
CONST	ENDS
;	COMDAT ??_C@_1DG@HGDKEBPG@?$AA?$CC?$AA_?$AAP?$AAt?$AAr?$AA_?$AAc?$AAo?$AAn?$AAt?$AAa?$AAi?$AAn?$AAe?$AAr?$AA?5?$AA?$CB?$AA?$DN?$AA?5?$AA0?$AA?$CC?$AA?5?$AA?$CG?$AA?$CG?$AA?5?$AA0?$AA?$AA@
CONST	SEGMENT
??_C@_1DG@HGDKEBPG@?$AA?$CC?$AA_?$AAP?$AAt?$AAr?$AA_?$AAc?$AAo?$AAn?$AAt?$AAa?$AAi?$AAn?$AAe?$AAr?$AA?5?$AA?$CB?$AA?$DN?$AA?5?$AA0?$AA?$CC?$AA?5?$AA?$CG?$AA?$CG?$AA?5?$AA0?$AA?$AA@ DB '"'
	DB	00H, '_', 00H, 'P', 00H, 't', 00H, 'r', 00H, '_', 00H, 'c', 00H
	DB	'o', 00H, 'n', 00H, 't', 00H, 'a', 00H, 'i', 00H, 'n', 00H, 'e'
	DB	00H, 'r', 00H, ' ', 00H, '!', 00H, '=', 00H, ' ', 00H, '0', 00H
	DB	'"', 00H, ' ', 00H, '&', 00H, '&', 00H, ' ', 00H, '0', 00H, 00H
	DB	00H						; `string'
CONST	ENDS
;	COMDAT ??_C@_0BE@LMNLACIC@_Ptr_container?5?$CB?$DN?50?$AA@
CONST	SEGMENT
??_C@_0BE@LMNLACIC@_Ptr_container?5?$CB?$DN?50?$AA@ DB '_Ptr_container !='
	DB	' 0', 00H					; `string'
CONST	ENDS
;	COMDAT ?__LINE__Var@?0??_Allocate@std@@YAPAXII_N@Z@4JA
_DATA	SEGMENT
?__LINE__Var@?0??_Allocate@std@@YAPAXII_N@Z@4JA DD 030H	; `std::_Allocate'::`1'::__LINE__Var
_DATA	ENDS
;	COMDAT ??_C@_1DC@POOIKBAO@?$AAI?$AAT?$AAE?$AAR?$AAA?$AAT?$AAO?$AAR?$AA?5?$AAL?$AAI?$AAS?$AAT?$AA?5?$AAC?$AAO?$AAR?$AAR?$AAU?$AAP?$AAT?$AAE?$AAD?$AA?$CB?$AA?$AA@
CONST	SEGMENT
??_C@_1DC@POOIKBAO@?$AAI?$AAT?$AAE?$AAR?$AAA?$AAT?$AAO?$AAR?$AA?5?$AAL?$AAI?$AAS?$AAT?$AA?5?$AAC?$AAO?$AAR?$AAR?$AAU?$AAP?$AAT?$AAE?$AAD?$AA?$CB?$AA?$AA@ DB 'I'
	DB	00H, 'T', 00H, 'E', 00H, 'R', 00H, 'A', 00H, 'T', 00H, 'O', 00H
	DB	'R', 00H, ' ', 00H, 'L', 00H, 'I', 00H, 'S', 00H, 'T', 00H, ' '
	DB	00H, 'C', 00H, 'O', 00H, 'R', 00H, 'R', 00H, 'U', 00H, 'P', 00H
	DB	'T', 00H, 'E', 00H, 'D', 00H, '!', 00H, 00H, 00H ; `string'
CONST	ENDS
;	COMDAT ??_C@_1JA@MHADJNIL@?$AAc?$AA?3?$AA?2?$AAp?$AAr?$AAo?$AAg?$AAr?$AAa?$AAm?$AA?5?$AAf?$AAi?$AAl?$AAe?$AAs?$AA?5?$AA?$CI?$AAx?$AA8?$AA6?$AA?$CJ?$AA?2?$AAm?$AAi?$AAc?$AAr?$AAo?$AAs?$AAo?$AAf?$AAt@
CONST	SEGMENT
??_C@_1JA@MHADJNIL@?$AAc?$AA?3?$AA?2?$AAp?$AAr?$AAo?$AAg?$AAr?$AAa?$AAm?$AA?5?$AAf?$AAi?$AAl?$AAe?$AAs?$AA?5?$AA?$CI?$AAx?$AA8?$AA6?$AA?$CJ?$AA?2?$AAm?$AAi?$AAc?$AAr?$AAo?$AAs?$AAo?$AAf?$AAt@ DB 'c'
	DB	00H, ':', 00H, '\', 00H, 'p', 00H, 'r', 00H, 'o', 00H, 'g', 00H
	DB	'r', 00H, 'a', 00H, 'm', 00H, ' ', 00H, 'f', 00H, 'i', 00H, 'l'
	DB	00H, 'e', 00H, 's', 00H, ' ', 00H, '(', 00H, 'x', 00H, '8', 00H
	DB	'6', 00H, ')', 00H, '\', 00H, 'm', 00H, 'i', 00H, 'c', 00H, 'r'
	DB	00H, 'o', 00H, 's', 00H, 'o', 00H, 'f', 00H, 't', 00H, ' ', 00H
	DB	'v', 00H, 'i', 00H, 's', 00H, 'u', 00H, 'a', 00H, 'l', 00H, ' '
	DB	00H, 's', 00H, 't', 00H, 'u', 00H, 'd', 00H, 'i', 00H, 'o', 00H
	DB	' ', 00H, '1', 00H, '4', 00H, '.', 00H, '0', 00H, '\', 00H, 'v'
	DB	00H, 'c', 00H, '\', 00H, 'i', 00H, 'n', 00H, 'c', 00H, 'l', 00H
	DB	'u', 00H, 'd', 00H, 'e', 00H, '\', 00H, 'x', 00H, 'u', 00H, 't'
	DB	00H, 'i', 00H, 'l', 00H, 'i', 00H, 't', 00H, 'y', 00H, 00H, 00H ; `string'
CONST	ENDS
;	COMDAT xdata$x
xdata$x	SEGMENT
__catchsym$??$_Uninitialized_move_al_unchecked1@PAUPushTile@@PAU1@V?$allocator@UPushTile@@@std@@@std@@YAPAUPushTile@@PAU1@00AAU?$_Wrap_alloc@V?$allocator@UPushTile@@@std@@@0@U_General_ptr_iterator_tag@0@@Z$2 DD 040H
	DD	00H
	DD	00H
	DD	FLAT:__catch$??$_Uninitialized_move_al_unchecked1@PAUPushTile@@PAU1@V?$allocator@UPushTile@@@std@@@std@@YAPAUPushTile@@PAU1@00AAU?$_Wrap_alloc@V?$allocator@UPushTile@@@std@@@0@U_General_ptr_iterator_tag@0@@Z$0
__unwindtable$??$_Uninitialized_move_al_unchecked1@PAUPushTile@@PAU1@V?$allocator@UPushTile@@@std@@@std@@YAPAUPushTile@@PAU1@00AAU?$_Wrap_alloc@V?$allocator@UPushTile@@@std@@@0@U_General_ptr_iterator_tag@0@@Z DD 0ffffffffH
	DD	00H
	DD	0ffffffffH
	DD	00H
__tryblocktable$??$_Uninitialized_move_al_unchecked1@PAUPushTile@@PAU1@V?$allocator@UPushTile@@@std@@@std@@YAPAUPushTile@@PAU1@00AAU?$_Wrap_alloc@V?$allocator@UPushTile@@@std@@@0@U_General_ptr_iterator_tag@0@@Z DD 00H
	DD	00H
	DD	01H
	DD	01H
	DD	FLAT:__catchsym$??$_Uninitialized_move_al_unchecked1@PAUPushTile@@PAU1@V?$allocator@UPushTile@@@std@@@std@@YAPAUPushTile@@PAU1@00AAU?$_Wrap_alloc@V?$allocator@UPushTile@@@std@@@0@U_General_ptr_iterator_tag@0@@Z$2
__ehfuncinfo$??$_Uninitialized_move_al_unchecked1@PAUPushTile@@PAU1@V?$allocator@UPushTile@@@std@@@std@@YAPAUPushTile@@PAU1@00AAU?$_Wrap_alloc@V?$allocator@UPushTile@@@std@@@0@U_General_ptr_iterator_tag@0@@Z DD 019930522H
	DD	02H
	DD	FLAT:__unwindtable$??$_Uninitialized_move_al_unchecked1@PAUPushTile@@PAU1@V?$allocator@UPushTile@@@std@@@std@@YAPAUPushTile@@PAU1@00AAU?$_Wrap_alloc@V?$allocator@UPushTile@@@std@@@0@U_General_ptr_iterator_tag@0@@Z
	DD	01H
	DD	FLAT:__tryblocktable$??$_Uninitialized_move_al_unchecked1@PAUPushTile@@PAU1@V?$allocator@UPushTile@@@std@@@std@@YAPAUPushTile@@PAU1@00AAU?$_Wrap_alloc@V?$allocator@UPushTile@@@std@@@0@U_General_ptr_iterator_tag@0@@Z
	DD	2 DUP(00H)
	DD	00H
	DD	01H
xdata$x	ENDS
;	COMDAT xdata$x
xdata$x	SEGMENT
__catchsym$??$_Uninitialized_move_al_unchecked1@PAUTile@@PAU1@V?$allocator@UTile@@@std@@@std@@YAPAUTile@@PAU1@00AAU?$_Wrap_alloc@V?$allocator@UTile@@@std@@@0@U_General_ptr_iterator_tag@0@@Z$2 DD 040H
	DD	00H
	DD	00H
	DD	FLAT:__catch$??$_Uninitialized_move_al_unchecked1@PAUTile@@PAU1@V?$allocator@UTile@@@std@@@std@@YAPAUTile@@PAU1@00AAU?$_Wrap_alloc@V?$allocator@UTile@@@std@@@0@U_General_ptr_iterator_tag@0@@Z$0
__unwindtable$??$_Uninitialized_move_al_unchecked1@PAUTile@@PAU1@V?$allocator@UTile@@@std@@@std@@YAPAUTile@@PAU1@00AAU?$_Wrap_alloc@V?$allocator@UTile@@@std@@@0@U_General_ptr_iterator_tag@0@@Z DD 0ffffffffH
	DD	00H
	DD	0ffffffffH
	DD	00H
__tryblocktable$??$_Uninitialized_move_al_unchecked1@PAUTile@@PAU1@V?$allocator@UTile@@@std@@@std@@YAPAUTile@@PAU1@00AAU?$_Wrap_alloc@V?$allocator@UTile@@@std@@@0@U_General_ptr_iterator_tag@0@@Z DD 00H
	DD	00H
	DD	01H
	DD	01H
	DD	FLAT:__catchsym$??$_Uninitialized_move_al_unchecked1@PAUTile@@PAU1@V?$allocator@UTile@@@std@@@std@@YAPAUTile@@PAU1@00AAU?$_Wrap_alloc@V?$allocator@UTile@@@std@@@0@U_General_ptr_iterator_tag@0@@Z$2
__ehfuncinfo$??$_Uninitialized_move_al_unchecked1@PAUTile@@PAU1@V?$allocator@UTile@@@std@@@std@@YAPAUTile@@PAU1@00AAU?$_Wrap_alloc@V?$allocator@UTile@@@std@@@0@U_General_ptr_iterator_tag@0@@Z DD 019930522H
	DD	02H
	DD	FLAT:__unwindtable$??$_Uninitialized_move_al_unchecked1@PAUTile@@PAU1@V?$allocator@UTile@@@std@@@std@@YAPAUTile@@PAU1@00AAU?$_Wrap_alloc@V?$allocator@UTile@@@std@@@0@U_General_ptr_iterator_tag@0@@Z
	DD	01H
	DD	FLAT:__tryblocktable$??$_Uninitialized_move_al_unchecked1@PAUTile@@PAU1@V?$allocator@UTile@@@std@@@std@@YAPAUTile@@PAU1@00AAU?$_Wrap_alloc@V?$allocator@UTile@@@std@@@0@U_General_ptr_iterator_tag@0@@Z
	DD	2 DUP(00H)
	DD	00H
	DD	01H
xdata$x	ENDS
;	COMDAT xdata$x
xdata$x	SEGMENT
__catchsym$??$_Uninitialized_move_al_unchecked1@PAUMovingTile@@PAU1@V?$allocator@UMovingTile@@@std@@@std@@YAPAUMovingTile@@PAU1@00AAU?$_Wrap_alloc@V?$allocator@UMovingTile@@@std@@@0@U_General_ptr_iterator_tag@0@@Z$2 DD 040H
	DD	00H
	DD	00H
	DD	FLAT:__catch$??$_Uninitialized_move_al_unchecked1@PAUMovingTile@@PAU1@V?$allocator@UMovingTile@@@std@@@std@@YAPAUMovingTile@@PAU1@00AAU?$_Wrap_alloc@V?$allocator@UMovingTile@@@std@@@0@U_General_ptr_iterator_tag@0@@Z$0
__unwindtable$??$_Uninitialized_move_al_unchecked1@PAUMovingTile@@PAU1@V?$allocator@UMovingTile@@@std@@@std@@YAPAUMovingTile@@PAU1@00AAU?$_Wrap_alloc@V?$allocator@UMovingTile@@@std@@@0@U_General_ptr_iterator_tag@0@@Z DD 0ffffffffH
	DD	00H
	DD	0ffffffffH
	DD	00H
__tryblocktable$??$_Uninitialized_move_al_unchecked1@PAUMovingTile@@PAU1@V?$allocator@UMovingTile@@@std@@@std@@YAPAUMovingTile@@PAU1@00AAU?$_Wrap_alloc@V?$allocator@UMovingTile@@@std@@@0@U_General_ptr_iterator_tag@0@@Z DD 00H
	DD	00H
	DD	01H
	DD	01H
	DD	FLAT:__catchsym$??$_Uninitialized_move_al_unchecked1@PAUMovingTile@@PAU1@V?$allocator@UMovingTile@@@std@@@std@@YAPAUMovingTile@@PAU1@00AAU?$_Wrap_alloc@V?$allocator@UMovingTile@@@std@@@0@U_General_ptr_iterator_tag@0@@Z$2
__ehfuncinfo$??$_Uninitialized_move_al_unchecked1@PAUMovingTile@@PAU1@V?$allocator@UMovingTile@@@std@@@std@@YAPAUMovingTile@@PAU1@00AAU?$_Wrap_alloc@V?$allocator@UMovingTile@@@std@@@0@U_General_ptr_iterator_tag@0@@Z DD 019930522H
	DD	02H
	DD	FLAT:__unwindtable$??$_Uninitialized_move_al_unchecked1@PAUMovingTile@@PAU1@V?$allocator@UMovingTile@@@std@@@std@@YAPAUMovingTile@@PAU1@00AAU?$_Wrap_alloc@V?$allocator@UMovingTile@@@std@@@0@U_General_ptr_iterator_tag@0@@Z
	DD	01H
	DD	FLAT:__tryblocktable$??$_Uninitialized_move_al_unchecked1@PAUMovingTile@@PAU1@V?$allocator@UMovingTile@@@std@@@std@@YAPAUMovingTile@@PAU1@00AAU?$_Wrap_alloc@V?$allocator@UMovingTile@@@std@@@0@U_General_ptr_iterator_tag@0@@Z
	DD	2 DUP(00H)
	DD	00H
	DD	01H
xdata$x	ENDS
;	COMDAT xdata$x
xdata$x	SEGMENT
__unwindtable$??0?$_Vector_const_iterator@V?$_Vector_val@U?$_Simple_types@UTile@@@std@@@std@@@std@@QAE@PAUTile@@PBU_Container_base12@1@@Z DD 0ffffffffH
	DD	FLAT:__unwindfunclet$??0?$_Vector_const_iterator@V?$_Vector_val@U?$_Simple_types@UTile@@@std@@@std@@@std@@QAE@PAUTile@@PBU_Container_base12@1@@Z$0
__ehfuncinfo$??0?$_Vector_const_iterator@V?$_Vector_val@U?$_Simple_types@UTile@@@std@@@std@@@std@@QAE@PAUTile@@PBU_Container_base12@1@@Z DD 019930522H
	DD	01H
	DD	FLAT:__unwindtable$??0?$_Vector_const_iterator@V?$_Vector_val@U?$_Simple_types@UTile@@@std@@@std@@@std@@QAE@PAUTile@@PBU_Container_base12@1@@Z
	DD	2 DUP(00H)
	DD	2 DUP(00H)
	DD	00H
	DD	01H
xdata$x	ENDS
;	COMDAT xdata$x
xdata$x	SEGMENT
__unwindtable$??0?$_Vector_const_iterator@V?$_Vector_val@U?$_Simple_types@UMovingTile@@@std@@@std@@@std@@QAE@PAUMovingTile@@PBU_Container_base12@1@@Z DD 0ffffffffH
	DD	FLAT:__unwindfunclet$??0?$_Vector_const_iterator@V?$_Vector_val@U?$_Simple_types@UMovingTile@@@std@@@std@@@std@@QAE@PAUMovingTile@@PBU_Container_base12@1@@Z$0
__ehfuncinfo$??0?$_Vector_const_iterator@V?$_Vector_val@U?$_Simple_types@UMovingTile@@@std@@@std@@@std@@QAE@PAUMovingTile@@PBU_Container_base12@1@@Z DD 019930522H
	DD	01H
	DD	FLAT:__unwindtable$??0?$_Vector_const_iterator@V?$_Vector_val@U?$_Simple_types@UMovingTile@@@std@@@std@@@std@@QAE@PAUMovingTile@@PBU_Container_base12@1@@Z
	DD	2 DUP(00H)
	DD	2 DUP(00H)
	DD	00H
	DD	01H
xdata$x	ENDS
;	COMDAT xdata$x
xdata$x	SEGMENT
__unwindtable$?_Orphan_range@?$vector@UMovingTile@@V?$allocator@UMovingTile@@@std@@@std@@IBEXPAUMovingTile@@0@Z DD 0ffffffffH
	DD	FLAT:__unwindfunclet$?_Orphan_range@?$vector@UMovingTile@@V?$allocator@UMovingTile@@@std@@@std@@IBEXPAUMovingTile@@0@Z$0
__ehfuncinfo$?_Orphan_range@?$vector@UMovingTile@@V?$allocator@UMovingTile@@@std@@@std@@IBEXPAUMovingTile@@0@Z DD 019930522H
	DD	01H
	DD	FLAT:__unwindtable$?_Orphan_range@?$vector@UMovingTile@@V?$allocator@UMovingTile@@@std@@@std@@IBEXPAUMovingTile@@0@Z
	DD	2 DUP(00H)
	DD	2 DUP(00H)
	DD	00H
	DD	01H
xdata$x	ENDS
;	COMDAT xdata$x
xdata$x	SEGMENT
__catchsym$?_Reallocate@?$vector@UMovingTile@@V?$allocator@UMovingTile@@@std@@@std@@IAEXI@Z$2 DD 040H
	DD	00H
	DD	00H
	DD	FLAT:__catch$?_Reallocate@?$vector@UMovingTile@@V?$allocator@UMovingTile@@@std@@@std@@IAEXI@Z$0
__unwindtable$?_Reallocate@?$vector@UMovingTile@@V?$allocator@UMovingTile@@@std@@@std@@IAEXI@Z DD 0ffffffffH
	DD	00H
	DD	0ffffffffH
	DD	00H
__tryblocktable$?_Reallocate@?$vector@UMovingTile@@V?$allocator@UMovingTile@@@std@@@std@@IAEXI@Z DD 00H
	DD	00H
	DD	01H
	DD	01H
	DD	FLAT:__catchsym$?_Reallocate@?$vector@UMovingTile@@V?$allocator@UMovingTile@@@std@@@std@@IAEXI@Z$2
__ehfuncinfo$?_Reallocate@?$vector@UMovingTile@@V?$allocator@UMovingTile@@@std@@@std@@IAEXI@Z DD 019930522H
	DD	02H
	DD	FLAT:__unwindtable$?_Reallocate@?$vector@UMovingTile@@V?$allocator@UMovingTile@@@std@@@std@@IAEXI@Z
	DD	01H
	DD	FLAT:__tryblocktable$?_Reallocate@?$vector@UMovingTile@@V?$allocator@UMovingTile@@@std@@@std@@IAEXI@Z
	DD	2 DUP(00H)
	DD	00H
	DD	01H
xdata$x	ENDS
;	COMDAT xdata$x
xdata$x	SEGMENT
__ehfuncinfo$?end@?$vector@UMovingTile@@V?$allocator@UMovingTile@@@std@@@std@@QAE?AV?$_Vector_iterator@V?$_Vector_val@U?$_Simple_types@UMovingTile@@@std@@@std@@@2@XZ DD 019930522H
	DD	00H
	DD	00H
	DD	2 DUP(00H)
	DD	2 DUP(00H)
	DD	00H
	DD	05H
xdata$x	ENDS
;	COMDAT xdata$x
xdata$x	SEGMENT
__ehfuncinfo$?begin@?$vector@UMovingTile@@V?$allocator@UMovingTile@@@std@@@std@@QAE?AV?$_Vector_iterator@V?$_Vector_val@U?$_Simple_types@UMovingTile@@@std@@@std@@@2@XZ DD 019930522H
	DD	00H
	DD	00H
	DD	2 DUP(00H)
	DD	2 DUP(00H)
	DD	00H
	DD	05H
xdata$x	ENDS
;	COMDAT xdata$x
xdata$x	SEGMENT
__ehfuncinfo$??1?$vector@UMovingTile@@V?$allocator@UMovingTile@@@std@@@std@@QAE@XZ DD 019930522H
	DD	00H
	DD	00H
	DD	2 DUP(00H)
	DD	2 DUP(00H)
	DD	00H
	DD	05H
xdata$x	ENDS
;	COMDAT xdata$x
xdata$x	SEGMENT
__ehfuncinfo$??0?$vector@UMovingTile@@V?$allocator@UMovingTile@@@std@@@std@@QAE@XZ DD 019930522H
	DD	00H
	DD	00H
	DD	2 DUP(00H)
	DD	2 DUP(00H)
	DD	00H
	DD	05H
xdata$x	ENDS
;	COMDAT xdata$x
xdata$x	SEGMENT
__ehfuncinfo$??1?$_Vector_alloc@U?$_Vec_base_types@UMovingTile@@V?$allocator@UMovingTile@@@std@@@std@@@std@@QAE@XZ DD 019930522H
	DD	00H
	DD	00H
	DD	2 DUP(00H)
	DD	2 DUP(00H)
	DD	00H
	DD	05H
xdata$x	ENDS
;	COMDAT xdata$x
xdata$x	SEGMENT
__unwindtable$??0?$_Vector_alloc@U?$_Vec_base_types@UMovingTile@@V?$allocator@UMovingTile@@@std@@@std@@@std@@QAE@XZ DD 0ffffffffH
	DD	FLAT:__unwindfunclet$??0?$_Vector_alloc@U?$_Vec_base_types@UMovingTile@@V?$allocator@UMovingTile@@@std@@@std@@@std@@QAE@XZ$0
__ehfuncinfo$??0?$_Vector_alloc@U?$_Vec_base_types@UMovingTile@@V?$allocator@UMovingTile@@@std@@@std@@@std@@QAE@XZ DD 019930522H
	DD	01H
	DD	FLAT:__unwindtable$??0?$_Vector_alloc@U?$_Vec_base_types@UMovingTile@@V?$allocator@UMovingTile@@@std@@@std@@@std@@QAE@XZ
	DD	2 DUP(00H)
	DD	2 DUP(00H)
	DD	00H
	DD	01H
xdata$x	ENDS
;	COMDAT xdata$x
xdata$x	SEGMENT
__unwindtable$?_Orphan_range@?$vector@UTile@@V?$allocator@UTile@@@std@@@std@@IBEXPAUTile@@0@Z DD 0ffffffffH
	DD	FLAT:__unwindfunclet$?_Orphan_range@?$vector@UTile@@V?$allocator@UTile@@@std@@@std@@IBEXPAUTile@@0@Z$0
__ehfuncinfo$?_Orphan_range@?$vector@UTile@@V?$allocator@UTile@@@std@@@std@@IBEXPAUTile@@0@Z DD 019930522H
	DD	01H
	DD	FLAT:__unwindtable$?_Orphan_range@?$vector@UTile@@V?$allocator@UTile@@@std@@@std@@IBEXPAUTile@@0@Z
	DD	2 DUP(00H)
	DD	2 DUP(00H)
	DD	00H
	DD	01H
xdata$x	ENDS
;	COMDAT xdata$x
xdata$x	SEGMENT
__catchsym$?_Reallocate@?$vector@UTile@@V?$allocator@UTile@@@std@@@std@@IAEXI@Z$2 DD 040H
	DD	00H
	DD	00H
	DD	FLAT:__catch$?_Reallocate@?$vector@UTile@@V?$allocator@UTile@@@std@@@std@@IAEXI@Z$0
__unwindtable$?_Reallocate@?$vector@UTile@@V?$allocator@UTile@@@std@@@std@@IAEXI@Z DD 0ffffffffH
	DD	00H
	DD	0ffffffffH
	DD	00H
__tryblocktable$?_Reallocate@?$vector@UTile@@V?$allocator@UTile@@@std@@@std@@IAEXI@Z DD 00H
	DD	00H
	DD	01H
	DD	01H
	DD	FLAT:__catchsym$?_Reallocate@?$vector@UTile@@V?$allocator@UTile@@@std@@@std@@IAEXI@Z$2
__ehfuncinfo$?_Reallocate@?$vector@UTile@@V?$allocator@UTile@@@std@@@std@@IAEXI@Z DD 019930522H
	DD	02H
	DD	FLAT:__unwindtable$?_Reallocate@?$vector@UTile@@V?$allocator@UTile@@@std@@@std@@IAEXI@Z
	DD	01H
	DD	FLAT:__tryblocktable$?_Reallocate@?$vector@UTile@@V?$allocator@UTile@@@std@@@std@@IAEXI@Z
	DD	2 DUP(00H)
	DD	00H
	DD	01H
xdata$x	ENDS
;	COMDAT xdata$x
xdata$x	SEGMENT
__ehfuncinfo$?end@?$vector@UTile@@V?$allocator@UTile@@@std@@@std@@QAE?AV?$_Vector_iterator@V?$_Vector_val@U?$_Simple_types@UTile@@@std@@@std@@@2@XZ DD 019930522H
	DD	00H
	DD	00H
	DD	2 DUP(00H)
	DD	2 DUP(00H)
	DD	00H
	DD	05H
xdata$x	ENDS
;	COMDAT xdata$x
xdata$x	SEGMENT
__ehfuncinfo$?begin@?$vector@UTile@@V?$allocator@UTile@@@std@@@std@@QAE?AV?$_Vector_iterator@V?$_Vector_val@U?$_Simple_types@UTile@@@std@@@std@@@2@XZ DD 019930522H
	DD	00H
	DD	00H
	DD	2 DUP(00H)
	DD	2 DUP(00H)
	DD	00H
	DD	05H
xdata$x	ENDS
;	COMDAT xdata$x
xdata$x	SEGMENT
__ehfuncinfo$??1?$vector@UTile@@V?$allocator@UTile@@@std@@@std@@QAE@XZ DD 019930522H
	DD	00H
	DD	00H
	DD	2 DUP(00H)
	DD	2 DUP(00H)
	DD	00H
	DD	05H
xdata$x	ENDS
;	COMDAT xdata$x
xdata$x	SEGMENT
__ehfuncinfo$??0?$vector@UTile@@V?$allocator@UTile@@@std@@@std@@QAE@XZ DD 019930522H
	DD	00H
	DD	00H
	DD	2 DUP(00H)
	DD	2 DUP(00H)
	DD	00H
	DD	05H
xdata$x	ENDS
;	COMDAT xdata$x
xdata$x	SEGMENT
__ehfuncinfo$??1?$_Vector_alloc@U?$_Vec_base_types@UTile@@V?$allocator@UTile@@@std@@@std@@@std@@QAE@XZ DD 019930522H
	DD	00H
	DD	00H
	DD	2 DUP(00H)
	DD	2 DUP(00H)
	DD	00H
	DD	05H
xdata$x	ENDS
;	COMDAT xdata$x
xdata$x	SEGMENT
__unwindtable$??0?$_Vector_alloc@U?$_Vec_base_types@UTile@@V?$allocator@UTile@@@std@@@std@@@std@@QAE@XZ DD 0ffffffffH
	DD	FLAT:__unwindfunclet$??0?$_Vector_alloc@U?$_Vec_base_types@UTile@@V?$allocator@UTile@@@std@@@std@@@std@@QAE@XZ$0
__ehfuncinfo$??0?$_Vector_alloc@U?$_Vec_base_types@UTile@@V?$allocator@UTile@@@std@@@std@@@std@@QAE@XZ DD 019930522H
	DD	01H
	DD	FLAT:__unwindtable$??0?$_Vector_alloc@U?$_Vec_base_types@UTile@@V?$allocator@UTile@@@std@@@std@@@std@@QAE@XZ
	DD	2 DUP(00H)
	DD	2 DUP(00H)
	DD	00H
	DD	01H
xdata$x	ENDS
;	COMDAT xdata$x
xdata$x	SEGMENT
__unwindtable$?DrawMap@@YAXXZ DD 0ffffffffH
	DD	FLAT:__unwindfunclet$?DrawMap@@YAXXZ$0
	DD	00H
	DD	FLAT:__unwindfunclet$?DrawMap@@YAXXZ$1
	DD	0ffffffffH
	DD	FLAT:__unwindfunclet$?DrawMap@@YAXXZ$2
	DD	02H
	DD	FLAT:__unwindfunclet$?DrawMap@@YAXXZ$3
__ehfuncinfo$?DrawMap@@YAXXZ DD 019930522H
	DD	04H
	DD	FLAT:__unwindtable$?DrawMap@@YAXXZ
	DD	2 DUP(00H)
	DD	2 DUP(00H)
	DD	00H
	DD	01H
xdata$x	ENDS
;	COMDAT xdata$x
xdata$x	SEGMENT
__unwindtable$?UpdateTile@@YAXH@Z DD 0ffffffffH
	DD	FLAT:__unwindfunclet$?UpdateTile@@YAXH@Z$0
	DD	00H
	DD	FLAT:__unwindfunclet$?UpdateTile@@YAXH@Z$1
	DD	01H
	DD	FLAT:__unwindfunclet$?UpdateTile@@YAXH@Z$2
	DD	02H
	DD	FLAT:__unwindfunclet$?UpdateTile@@YAXH@Z$3
__ehfuncinfo$?UpdateTile@@YAXH@Z DD 019930522H
	DD	04H
	DD	FLAT:__unwindtable$?UpdateTile@@YAXH@Z
	DD	2 DUP(00H)
	DD	2 DUP(00H)
	DD	00H
	DD	01H
xdata$x	ENDS
;	COMDAT xdata$x
xdata$x	SEGMENT
__unwindtable$?_Orphan_range@?$vector@UPushTile@@V?$allocator@UPushTile@@@std@@@std@@IBEXPAUPushTile@@0@Z DD 0ffffffffH
	DD	FLAT:__unwindfunclet$?_Orphan_range@?$vector@UPushTile@@V?$allocator@UPushTile@@@std@@@std@@IBEXPAUPushTile@@0@Z$0
__ehfuncinfo$?_Orphan_range@?$vector@UPushTile@@V?$allocator@UPushTile@@@std@@@std@@IBEXPAUPushTile@@0@Z DD 019930522H
	DD	01H
	DD	FLAT:__unwindtable$?_Orphan_range@?$vector@UPushTile@@V?$allocator@UPushTile@@@std@@@std@@IBEXPAUPushTile@@0@Z
	DD	2 DUP(00H)
	DD	2 DUP(00H)
	DD	00H
	DD	01H
xdata$x	ENDS
;	COMDAT xdata$x
xdata$x	SEGMENT
__catchsym$?_Reallocate@?$vector@UPushTile@@V?$allocator@UPushTile@@@std@@@std@@IAEXI@Z$2 DD 040H
	DD	00H
	DD	00H
	DD	FLAT:__catch$?_Reallocate@?$vector@UPushTile@@V?$allocator@UPushTile@@@std@@@std@@IAEXI@Z$0
__unwindtable$?_Reallocate@?$vector@UPushTile@@V?$allocator@UPushTile@@@std@@@std@@IAEXI@Z DD 0ffffffffH
	DD	00H
	DD	0ffffffffH
	DD	00H
__tryblocktable$?_Reallocate@?$vector@UPushTile@@V?$allocator@UPushTile@@@std@@@std@@IAEXI@Z DD 00H
	DD	00H
	DD	01H
	DD	01H
	DD	FLAT:__catchsym$?_Reallocate@?$vector@UPushTile@@V?$allocator@UPushTile@@@std@@@std@@IAEXI@Z$2
__ehfuncinfo$?_Reallocate@?$vector@UPushTile@@V?$allocator@UPushTile@@@std@@@std@@IAEXI@Z DD 019930522H
	DD	02H
	DD	FLAT:__unwindtable$?_Reallocate@?$vector@UPushTile@@V?$allocator@UPushTile@@@std@@@std@@IAEXI@Z
	DD	01H
	DD	FLAT:__tryblocktable$?_Reallocate@?$vector@UPushTile@@V?$allocator@UPushTile@@@std@@@std@@IAEXI@Z
	DD	2 DUP(00H)
	DD	00H
	DD	01H
xdata$x	ENDS
;	COMDAT xdata$x
xdata$x	SEGMENT
__ehfuncinfo$??1?$vector@UPushTile@@V?$allocator@UPushTile@@@std@@@std@@QAE@XZ DD 019930522H
	DD	00H
	DD	00H
	DD	2 DUP(00H)
	DD	2 DUP(00H)
	DD	00H
	DD	05H
xdata$x	ENDS
;	COMDAT xdata$x
xdata$x	SEGMENT
__ehfuncinfo$??0?$vector@UPushTile@@V?$allocator@UPushTile@@@std@@@std@@QAE@XZ DD 019930522H
	DD	00H
	DD	00H
	DD	2 DUP(00H)
	DD	2 DUP(00H)
	DD	00H
	DD	05H
xdata$x	ENDS
;	COMDAT xdata$x
xdata$x	SEGMENT
__ehfuncinfo$??1?$_Vector_alloc@U?$_Vec_base_types@UPushTile@@V?$allocator@UPushTile@@@std@@@std@@@std@@QAE@XZ DD 019930522H
	DD	00H
	DD	00H
	DD	2 DUP(00H)
	DD	2 DUP(00H)
	DD	00H
	DD	05H
xdata$x	ENDS
;	COMDAT xdata$x
xdata$x	SEGMENT
__unwindtable$??0?$_Vector_alloc@U?$_Vec_base_types@UPushTile@@V?$allocator@UPushTile@@@std@@@std@@@std@@QAE@XZ DD 0ffffffffH
	DD	FLAT:__unwindfunclet$??0?$_Vector_alloc@U?$_Vec_base_types@UPushTile@@V?$allocator@UPushTile@@@std@@@std@@@std@@QAE@XZ$0
__ehfuncinfo$??0?$_Vector_alloc@U?$_Vec_base_types@UPushTile@@V?$allocator@UPushTile@@@std@@@std@@@std@@QAE@XZ DD 019930522H
	DD	01H
	DD	FLAT:__unwindtable$??0?$_Vector_alloc@U?$_Vec_base_types@UPushTile@@V?$allocator@UPushTile@@@std@@@std@@@std@@QAE@XZ
	DD	2 DUP(00H)
	DD	2 DUP(00H)
	DD	00H
	DD	01H
xdata$x	ENDS
;	COMDAT xdata$x
xdata$x	SEGMENT
__unwindtable$?_Adopt@_Iterator_base12@std@@QAEXPBU_Container_base12@2@@Z DD 0ffffffffH
	DD	FLAT:__unwindfunclet$?_Adopt@_Iterator_base12@std@@QAEXPBU_Container_base12@2@@Z$0
	DD	0ffffffffH
	DD	FLAT:__unwindfunclet$?_Adopt@_Iterator_base12@std@@QAEXPBU_Container_base12@2@@Z$1
__ehfuncinfo$?_Adopt@_Iterator_base12@std@@QAEXPBU_Container_base12@2@@Z DD 019930522H
	DD	02H
	DD	FLAT:__unwindtable$?_Adopt@_Iterator_base12@std@@QAEXPBU_Container_base12@2@@Z
	DD	2 DUP(00H)
	DD	2 DUP(00H)
	DD	00H
	DD	01H
xdata$x	ENDS
;	COMDAT xdata$x
xdata$x	SEGMENT
__ehfuncinfo$??1_Iterator_base12@std@@QAE@XZ DD 019930522H
	DD	00H
	DD	00H
	DD	2 DUP(00H)
	DD	2 DUP(00H)
	DD	00H
	DD	05H
xdata$x	ENDS
;	COMDAT xdata$x
xdata$x	SEGMENT
__ehfuncinfo$??1_Container_base12@std@@QAE@XZ DD 019930522H
	DD	00H
	DD	00H
	DD	2 DUP(00H)
	DD	2 DUP(00H)
	DD	00H
	DD	05H
xdata$x	ENDS
CRT$XCU	SEGMENT
?tileMap$initializer$@@3P6AXXZA DD FLAT:??__EtileMap@@YAXXZ ; tileMap$initializer$
CRT$XCU	ENDS
CRT$XCU	SEGMENT
?pushTileMap$initializer$@@3P6AXXZA DD FLAT:??__EpushTileMap@@YAXXZ ; pushTileMap$initializer$
CRT$XCU	ENDS
CRT$XCU	SEGMENT
?movingTileMap$initializer$@@3P6AXXZA DD FLAT:??__EmovingTileMap@@YAXXZ ; movingTileMap$initializer$
CRT$XCU	ENDS
; Function compile flags: /Odtp /RTCsu /ZI
; File c:\program files (x86)\microsoft visual studio 14.0\vc\include\xmemory0
;	COMDAT ??$construct@UPushTile@@U1@@?$allocator@UPushTile@@@std@@QAEXPAUPushTile@@$$QAU2@@Z
_TEXT	SEGMENT
tv74 = -220						; size = 4
$T1 = -212						; size = 4
_this$ = -8						; size = 4
__Ptr$ = 8						; size = 4
_<_Args_0>$ = 12					; size = 4
??$construct@UPushTile@@U1@@?$allocator@UPushTile@@@std@@QAEXPAUPushTile@@$$QAU2@@Z PROC ; std::allocator<PushTile>::construct<PushTile,PushTile>, COMDAT
; _this$ = ecx

; 636  : 		{	// construct _Objty(_Types...) at _Ptr

	push	ebp
	mov	ebp, esp
	sub	esp, 220				; 000000dcH
	push	ebx
	push	esi
	push	edi
	push	ecx
	lea	edi, DWORD PTR [ebp-220]
	mov	ecx, 55					; 00000037H
	mov	eax, -858993460				; ccccccccH
	rep stosd
	pop	ecx
	mov	DWORD PTR _this$[ebp], ecx

; 637  : 		::new ((void *)_Ptr) _Objty(_STD forward<_Types>(_Args)...);

	mov	eax, DWORD PTR __Ptr$[ebp]
	push	eax
	push	48					; 00000030H
	call	??2@YAPAXIPAX@Z				; operator new
	add	esp, 8
	mov	DWORD PTR $T1[ebp], eax
	cmp	DWORD PTR $T1[ebp], 0
	je	SHORT $LN3@construct
	mov	ecx, DWORD PTR _<_Args_0>$[ebp]
	push	ecx
	call	??$forward@UPushTile@@@std@@YA$$QAUPushTile@@AAU1@@Z ; std::forward<PushTile>
	add	esp, 4
	mov	ecx, 12					; 0000000cH
	mov	esi, eax
	mov	edi, DWORD PTR $T1[ebp]
	rep movsd
	mov	edx, DWORD PTR $T1[ebp]
	mov	DWORD PTR tv74[ebp], edx
	jmp	SHORT $LN1@construct
$LN3@construct:
	mov	DWORD PTR tv74[ebp], 0
$LN1@construct:

; 638  : 		}

	pop	edi
	pop	esi
	pop	ebx
	add	esp, 220				; 000000dcH
	cmp	ebp, esp
	call	__RTC_CheckEsp
	mov	esp, ebp
	pop	ebp
	ret	8
??$construct@UPushTile@@U1@@?$allocator@UPushTile@@@std@@QAEXPAUPushTile@@$$QAU2@@Z ENDP ; std::allocator<PushTile>::construct<PushTile,PushTile>
_TEXT	ENDS
; Function compile flags: /Odtp /RTCsu /ZI
; File c:\program files (x86)\microsoft visual studio 14.0\vc\include\xmemory0
;	COMDAT ??$construct@UTile@@U1@@?$allocator@UTile@@@std@@QAEXPAUTile@@$$QAU2@@Z
_TEXT	SEGMENT
tv74 = -220						; size = 4
$T1 = -212						; size = 4
_this$ = -8						; size = 4
__Ptr$ = 8						; size = 4
_<_Args_0>$ = 12					; size = 4
??$construct@UTile@@U1@@?$allocator@UTile@@@std@@QAEXPAUTile@@$$QAU2@@Z PROC ; std::allocator<Tile>::construct<Tile,Tile>, COMDAT
; _this$ = ecx

; 636  : 		{	// construct _Objty(_Types...) at _Ptr

	push	ebp
	mov	ebp, esp
	sub	esp, 220				; 000000dcH
	push	ebx
	push	esi
	push	edi
	push	ecx
	lea	edi, DWORD PTR [ebp-220]
	mov	ecx, 55					; 00000037H
	mov	eax, -858993460				; ccccccccH
	rep stosd
	pop	ecx
	mov	DWORD PTR _this$[ebp], ecx

; 637  : 		::new ((void *)_Ptr) _Objty(_STD forward<_Types>(_Args)...);

	mov	eax, DWORD PTR __Ptr$[ebp]
	push	eax
	push	32					; 00000020H
	call	??2@YAPAXIPAX@Z				; operator new
	add	esp, 8
	mov	DWORD PTR $T1[ebp], eax
	cmp	DWORD PTR $T1[ebp], 0
	je	SHORT $LN3@construct
	mov	ecx, DWORD PTR _<_Args_0>$[ebp]
	push	ecx
	call	??$forward@UTile@@@std@@YA$$QAUTile@@AAU1@@Z ; std::forward<Tile>
	add	esp, 4
	mov	ecx, 8
	mov	esi, eax
	mov	edi, DWORD PTR $T1[ebp]
	rep movsd
	mov	edx, DWORD PTR $T1[ebp]
	mov	DWORD PTR tv74[ebp], edx
	jmp	SHORT $LN1@construct
$LN3@construct:
	mov	DWORD PTR tv74[ebp], 0
$LN1@construct:

; 638  : 		}

	pop	edi
	pop	esi
	pop	ebx
	add	esp, 220				; 000000dcH
	cmp	ebp, esp
	call	__RTC_CheckEsp
	mov	esp, ebp
	pop	ebp
	ret	8
??$construct@UTile@@U1@@?$allocator@UTile@@@std@@QAEXPAUTile@@$$QAU2@@Z ENDP ; std::allocator<Tile>::construct<Tile,Tile>
_TEXT	ENDS
; Function compile flags: /Odtp /RTCsu /ZI
; File c:\program files (x86)\microsoft visual studio 14.0\vc\include\xmemory0
;	COMDAT ??$construct@UMovingTile@@U1@@?$allocator@UMovingTile@@@std@@QAEXPAUMovingTile@@$$QAU2@@Z
_TEXT	SEGMENT
tv74 = -220						; size = 4
$T1 = -212						; size = 4
_this$ = -8						; size = 4
__Ptr$ = 8						; size = 4
_<_Args_0>$ = 12					; size = 4
??$construct@UMovingTile@@U1@@?$allocator@UMovingTile@@@std@@QAEXPAUMovingTile@@$$QAU2@@Z PROC ; std::allocator<MovingTile>::construct<MovingTile,MovingTile>, COMDAT
; _this$ = ecx

; 636  : 		{	// construct _Objty(_Types...) at _Ptr

	push	ebp
	mov	ebp, esp
	sub	esp, 220				; 000000dcH
	push	ebx
	push	esi
	push	edi
	push	ecx
	lea	edi, DWORD PTR [ebp-220]
	mov	ecx, 55					; 00000037H
	mov	eax, -858993460				; ccccccccH
	rep stosd
	pop	ecx
	mov	DWORD PTR _this$[ebp], ecx

; 637  : 		::new ((void *)_Ptr) _Objty(_STD forward<_Types>(_Args)...);

	mov	eax, DWORD PTR __Ptr$[ebp]
	push	eax
	push	48					; 00000030H
	call	??2@YAPAXIPAX@Z				; operator new
	add	esp, 8
	mov	DWORD PTR $T1[ebp], eax
	cmp	DWORD PTR $T1[ebp], 0
	je	SHORT $LN3@construct
	mov	ecx, DWORD PTR _<_Args_0>$[ebp]
	push	ecx
	call	??$forward@UMovingTile@@@std@@YA$$QAUMovingTile@@AAU1@@Z ; std::forward<MovingTile>
	add	esp, 4
	mov	ecx, 12					; 0000000cH
	mov	esi, eax
	mov	edi, DWORD PTR $T1[ebp]
	rep movsd
	mov	edx, DWORD PTR $T1[ebp]
	mov	DWORD PTR tv74[ebp], edx
	jmp	SHORT $LN1@construct
$LN3@construct:
	mov	DWORD PTR tv74[ebp], 0
$LN1@construct:

; 638  : 		}

	pop	edi
	pop	esi
	pop	ebx
	add	esp, 220				; 000000dcH
	cmp	ebp, esp
	call	__RTC_CheckEsp
	mov	esp, ebp
	pop	ebp
	ret	8
??$construct@UMovingTile@@U1@@?$allocator@UMovingTile@@@std@@QAEXPAUMovingTile@@$$QAU2@@Z ENDP ; std::allocator<MovingTile>::construct<MovingTile,MovingTile>
_TEXT	ENDS
; Function compile flags: /Odtp /RTCsu /ZI
; File c:\program files (x86)\microsoft visual studio 14.0\vc\include\xmemory0
;	COMDAT ??$construct@UPushTile@@U1@@?$allocator_traits@V?$allocator@UPushTile@@@std@@@std@@SAXAAV?$allocator@UPushTile@@@1@PAUPushTile@@$$QAU3@@Z
_TEXT	SEGMENT
__Al$ = 8						; size = 4
__Ptr$ = 12						; size = 4
_<_Args_0>$ = 16					; size = 4
??$construct@UPushTile@@U1@@?$allocator_traits@V?$allocator@UPushTile@@@std@@@std@@SAXAAV?$allocator@UPushTile@@@1@PAUPushTile@@$$QAU3@@Z PROC ; std::allocator_traits<std::allocator<PushTile> >::construct<PushTile,PushTile>, COMDAT

; 754  : 		{	// construct _Objty(_Types...) at _Ptr

	push	ebp
	mov	ebp, esp
	sub	esp, 192				; 000000c0H
	push	ebx
	push	esi
	push	edi
	lea	edi, DWORD PTR [ebp-192]
	mov	ecx, 48					; 00000030H
	mov	eax, -858993460				; ccccccccH
	rep stosd

; 755  : 		_Al.construct(_Ptr, _STD forward<_Types>(_Args)...);

	mov	eax, DWORD PTR _<_Args_0>$[ebp]
	push	eax
	call	??$forward@UPushTile@@@std@@YA$$QAUPushTile@@AAU1@@Z ; std::forward<PushTile>
	add	esp, 4
	push	eax
	mov	ecx, DWORD PTR __Ptr$[ebp]
	push	ecx
	mov	ecx, DWORD PTR __Al$[ebp]
	call	??$construct@UPushTile@@U1@@?$allocator@UPushTile@@@std@@QAEXPAUPushTile@@$$QAU2@@Z ; std::allocator<PushTile>::construct<PushTile,PushTile>

; 756  : 		}

	pop	edi
	pop	esi
	pop	ebx
	add	esp, 192				; 000000c0H
	cmp	ebp, esp
	call	__RTC_CheckEsp
	mov	esp, ebp
	pop	ebp
	ret	0
??$construct@UPushTile@@U1@@?$allocator_traits@V?$allocator@UPushTile@@@std@@@std@@SAXAAV?$allocator@UPushTile@@@1@PAUPushTile@@$$QAU3@@Z ENDP ; std::allocator_traits<std::allocator<PushTile> >::construct<PushTile,PushTile>
_TEXT	ENDS
; Function compile flags: /Odtp /RTCsu /ZI
; File c:\program files (x86)\microsoft visual studio 14.0\vc\include\type_traits
;	COMDAT ??$forward@UPushTile@@@std@@YA$$QAUPushTile@@AAU1@@Z
_TEXT	SEGMENT
__Arg$ = 8						; size = 4
??$forward@UPushTile@@@std@@YA$$QAUPushTile@@AAU1@@Z PROC ; std::forward<PushTile>, COMDAT

; 1298 : 	{	// forward an lvalue as either an lvalue or an rvalue

	push	ebp
	mov	ebp, esp
	sub	esp, 192				; 000000c0H
	push	ebx
	push	esi
	push	edi
	lea	edi, DWORD PTR [ebp-192]
	mov	ecx, 48					; 00000030H
	mov	eax, -858993460				; ccccccccH
	rep stosd

; 1299 : 	return (static_cast<_Ty&&>(_Arg));

	mov	eax, DWORD PTR __Arg$[ebp]

; 1300 : 	}

	pop	edi
	pop	esi
	pop	ebx
	mov	esp, ebp
	pop	ebp
	ret	0
??$forward@UPushTile@@@std@@YA$$QAUPushTile@@AAU1@@Z ENDP ; std::forward<PushTile>
_TEXT	ENDS
; Function compile flags: /Odtp /RTCsu /ZI
; File c:\program files (x86)\microsoft visual studio 14.0\vc\include\xmemory0
;	COMDAT ??$construct@UTile@@U1@@?$allocator_traits@V?$allocator@UTile@@@std@@@std@@SAXAAV?$allocator@UTile@@@1@PAUTile@@$$QAU3@@Z
_TEXT	SEGMENT
__Al$ = 8						; size = 4
__Ptr$ = 12						; size = 4
_<_Args_0>$ = 16					; size = 4
??$construct@UTile@@U1@@?$allocator_traits@V?$allocator@UTile@@@std@@@std@@SAXAAV?$allocator@UTile@@@1@PAUTile@@$$QAU3@@Z PROC ; std::allocator_traits<std::allocator<Tile> >::construct<Tile,Tile>, COMDAT

; 754  : 		{	// construct _Objty(_Types...) at _Ptr

	push	ebp
	mov	ebp, esp
	sub	esp, 192				; 000000c0H
	push	ebx
	push	esi
	push	edi
	lea	edi, DWORD PTR [ebp-192]
	mov	ecx, 48					; 00000030H
	mov	eax, -858993460				; ccccccccH
	rep stosd

; 755  : 		_Al.construct(_Ptr, _STD forward<_Types>(_Args)...);

	mov	eax, DWORD PTR _<_Args_0>$[ebp]
	push	eax
	call	??$forward@UTile@@@std@@YA$$QAUTile@@AAU1@@Z ; std::forward<Tile>
	add	esp, 4
	push	eax
	mov	ecx, DWORD PTR __Ptr$[ebp]
	push	ecx
	mov	ecx, DWORD PTR __Al$[ebp]
	call	??$construct@UTile@@U1@@?$allocator@UTile@@@std@@QAEXPAUTile@@$$QAU2@@Z ; std::allocator<Tile>::construct<Tile,Tile>

; 756  : 		}

	pop	edi
	pop	esi
	pop	ebx
	add	esp, 192				; 000000c0H
	cmp	ebp, esp
	call	__RTC_CheckEsp
	mov	esp, ebp
	pop	ebp
	ret	0
??$construct@UTile@@U1@@?$allocator_traits@V?$allocator@UTile@@@std@@@std@@SAXAAV?$allocator@UTile@@@1@PAUTile@@$$QAU3@@Z ENDP ; std::allocator_traits<std::allocator<Tile> >::construct<Tile,Tile>
_TEXT	ENDS
; Function compile flags: /Odtp /RTCsu /ZI
; File c:\program files (x86)\microsoft visual studio 14.0\vc\include\type_traits
;	COMDAT ??$forward@UTile@@@std@@YA$$QAUTile@@AAU1@@Z
_TEXT	SEGMENT
__Arg$ = 8						; size = 4
??$forward@UTile@@@std@@YA$$QAUTile@@AAU1@@Z PROC	; std::forward<Tile>, COMDAT

; 1298 : 	{	// forward an lvalue as either an lvalue or an rvalue

	push	ebp
	mov	ebp, esp
	sub	esp, 192				; 000000c0H
	push	ebx
	push	esi
	push	edi
	lea	edi, DWORD PTR [ebp-192]
	mov	ecx, 48					; 00000030H
	mov	eax, -858993460				; ccccccccH
	rep stosd

; 1299 : 	return (static_cast<_Ty&&>(_Arg));

	mov	eax, DWORD PTR __Arg$[ebp]

; 1300 : 	}

	pop	edi
	pop	esi
	pop	ebx
	mov	esp, ebp
	pop	ebp
	ret	0
??$forward@UTile@@@std@@YA$$QAUTile@@AAU1@@Z ENDP	; std::forward<Tile>
_TEXT	ENDS
; Function compile flags: /Odtp /RTCsu /ZI
; File c:\program files (x86)\microsoft visual studio 14.0\vc\include\xmemory0
;	COMDAT ??$construct@UMovingTile@@U1@@?$allocator_traits@V?$allocator@UMovingTile@@@std@@@std@@SAXAAV?$allocator@UMovingTile@@@1@PAUMovingTile@@$$QAU3@@Z
_TEXT	SEGMENT
__Al$ = 8						; size = 4
__Ptr$ = 12						; size = 4
_<_Args_0>$ = 16					; size = 4
??$construct@UMovingTile@@U1@@?$allocator_traits@V?$allocator@UMovingTile@@@std@@@std@@SAXAAV?$allocator@UMovingTile@@@1@PAUMovingTile@@$$QAU3@@Z PROC ; std::allocator_traits<std::allocator<MovingTile> >::construct<MovingTile,MovingTile>, COMDAT

; 754  : 		{	// construct _Objty(_Types...) at _Ptr

	push	ebp
	mov	ebp, esp
	sub	esp, 192				; 000000c0H
	push	ebx
	push	esi
	push	edi
	lea	edi, DWORD PTR [ebp-192]
	mov	ecx, 48					; 00000030H
	mov	eax, -858993460				; ccccccccH
	rep stosd

; 755  : 		_Al.construct(_Ptr, _STD forward<_Types>(_Args)...);

	mov	eax, DWORD PTR _<_Args_0>$[ebp]
	push	eax
	call	??$forward@UMovingTile@@@std@@YA$$QAUMovingTile@@AAU1@@Z ; std::forward<MovingTile>
	add	esp, 4
	push	eax
	mov	ecx, DWORD PTR __Ptr$[ebp]
	push	ecx
	mov	ecx, DWORD PTR __Al$[ebp]
	call	??$construct@UMovingTile@@U1@@?$allocator@UMovingTile@@@std@@QAEXPAUMovingTile@@$$QAU2@@Z ; std::allocator<MovingTile>::construct<MovingTile,MovingTile>

; 756  : 		}

	pop	edi
	pop	esi
	pop	ebx
	add	esp, 192				; 000000c0H
	cmp	ebp, esp
	call	__RTC_CheckEsp
	mov	esp, ebp
	pop	ebp
	ret	0
??$construct@UMovingTile@@U1@@?$allocator_traits@V?$allocator@UMovingTile@@@std@@@std@@SAXAAV?$allocator@UMovingTile@@@1@PAUMovingTile@@$$QAU3@@Z ENDP ; std::allocator_traits<std::allocator<MovingTile> >::construct<MovingTile,MovingTile>
_TEXT	ENDS
; Function compile flags: /Odtp /RTCsu /ZI
; File c:\program files (x86)\microsoft visual studio 14.0\vc\include\type_traits
;	COMDAT ??$forward@UMovingTile@@@std@@YA$$QAUMovingTile@@AAU1@@Z
_TEXT	SEGMENT
__Arg$ = 8						; size = 4
??$forward@UMovingTile@@@std@@YA$$QAUMovingTile@@AAU1@@Z PROC ; std::forward<MovingTile>, COMDAT

; 1298 : 	{	// forward an lvalue as either an lvalue or an rvalue

	push	ebp
	mov	ebp, esp
	sub	esp, 192				; 000000c0H
	push	ebx
	push	esi
	push	edi
	lea	edi, DWORD PTR [ebp-192]
	mov	ecx, 48					; 00000030H
	mov	eax, -858993460				; ccccccccH
	rep stosd

; 1299 : 	return (static_cast<_Ty&&>(_Arg));

	mov	eax, DWORD PTR __Arg$[ebp]

; 1300 : 	}

	pop	edi
	pop	esi
	pop	ebx
	mov	esp, ebp
	pop	ebp
	ret	0
??$forward@UMovingTile@@@std@@YA$$QAUMovingTile@@AAU1@@Z ENDP ; std::forward<MovingTile>
_TEXT	ENDS
; Function compile flags: /Odtp /RTCsu /ZI
; File c:\program files (x86)\microsoft visual studio 14.0\vc\include\xmemory0
;	COMDAT ??$construct@UPushTile@@U1@@?$_Wrap_alloc@V?$allocator@UPushTile@@@std@@@std@@QAEXPAUPushTile@@$$QAU2@@Z
_TEXT	SEGMENT
_this$ = -8						; size = 4
__Ptr$ = 8						; size = 4
_<_Args_0>$ = 12					; size = 4
??$construct@UPushTile@@U1@@?$_Wrap_alloc@V?$allocator@UPushTile@@@std@@@std@@QAEXPAUPushTile@@$$QAU2@@Z PROC ; std::_Wrap_alloc<std::allocator<PushTile> >::construct<PushTile,PushTile>, COMDAT
; _this$ = ecx

; 892  : 		{	// construct _Ty(_Types...) at _Ptr

	push	ebp
	mov	ebp, esp
	sub	esp, 204				; 000000ccH
	push	ebx
	push	esi
	push	edi
	push	ecx
	lea	edi, DWORD PTR [ebp-204]
	mov	ecx, 51					; 00000033H
	mov	eax, -858993460				; ccccccccH
	rep stosd
	pop	ecx
	mov	DWORD PTR _this$[ebp], ecx

; 893  : 		_Mytraits::construct(*this, _Ptr,

	mov	eax, DWORD PTR _<_Args_0>$[ebp]
	push	eax
	call	??$forward@UPushTile@@@std@@YA$$QAUPushTile@@AAU1@@Z ; std::forward<PushTile>
	add	esp, 4
	push	eax
	mov	ecx, DWORD PTR __Ptr$[ebp]
	push	ecx
	mov	edx, DWORD PTR _this$[ebp]
	push	edx
	call	??$construct@UPushTile@@U1@@?$allocator_traits@V?$allocator@UPushTile@@@std@@@std@@SAXAAV?$allocator@UPushTile@@@1@PAUPushTile@@$$QAU3@@Z ; std::allocator_traits<std::allocator<PushTile> >::construct<PushTile,PushTile>
	add	esp, 12					; 0000000cH

; 894  : 			_STD forward<_Types>(_Args)...);
; 895  : 		}

	pop	edi
	pop	esi
	pop	ebx
	add	esp, 204				; 000000ccH
	cmp	ebp, esp
	call	__RTC_CheckEsp
	mov	esp, ebp
	pop	ebp
	ret	8
??$construct@UPushTile@@U1@@?$_Wrap_alloc@V?$allocator@UPushTile@@@std@@@std@@QAEXPAUPushTile@@$$QAU2@@Z ENDP ; std::_Wrap_alloc<std::allocator<PushTile> >::construct<PushTile,PushTile>
_TEXT	ENDS
; Function compile flags: /Odtp /RTCsu /ZI
; File c:\program files (x86)\microsoft visual studio 14.0\vc\include\type_traits
;	COMDAT ??$move@AAUPushTile@@@std@@YA$$QAUPushTile@@AAU1@@Z
_TEXT	SEGMENT
__Arg$ = 8						; size = 4
??$move@AAUPushTile@@@std@@YA$$QAUPushTile@@AAU1@@Z PROC ; std::move<PushTile &>, COMDAT

; 1314 : 	{	// forward _Arg as movable

	push	ebp
	mov	ebp, esp
	sub	esp, 192				; 000000c0H
	push	ebx
	push	esi
	push	edi
	lea	edi, DWORD PTR [ebp-192]
	mov	ecx, 48					; 00000030H
	mov	eax, -858993460				; ccccccccH
	rep stosd

; 1315 : 	return (static_cast<typename remove_reference<_Ty>::type&&>(_Arg));

	mov	eax, DWORD PTR __Arg$[ebp]

; 1316 : 	}

	pop	edi
	pop	esi
	pop	ebx
	mov	esp, ebp
	pop	ebp
	ret	0
??$move@AAUPushTile@@@std@@YA$$QAUPushTile@@AAU1@@Z ENDP ; std::move<PushTile &>
_TEXT	ENDS
; Function compile flags: /Odtp /RTCsu /ZI
; File c:\program files (x86)\microsoft visual studio 14.0\vc\include\xmemory0
;	COMDAT ??$construct@UTile@@U1@@?$_Wrap_alloc@V?$allocator@UTile@@@std@@@std@@QAEXPAUTile@@$$QAU2@@Z
_TEXT	SEGMENT
_this$ = -8						; size = 4
__Ptr$ = 8						; size = 4
_<_Args_0>$ = 12					; size = 4
??$construct@UTile@@U1@@?$_Wrap_alloc@V?$allocator@UTile@@@std@@@std@@QAEXPAUTile@@$$QAU2@@Z PROC ; std::_Wrap_alloc<std::allocator<Tile> >::construct<Tile,Tile>, COMDAT
; _this$ = ecx

; 892  : 		{	// construct _Ty(_Types...) at _Ptr

	push	ebp
	mov	ebp, esp
	sub	esp, 204				; 000000ccH
	push	ebx
	push	esi
	push	edi
	push	ecx
	lea	edi, DWORD PTR [ebp-204]
	mov	ecx, 51					; 00000033H
	mov	eax, -858993460				; ccccccccH
	rep stosd
	pop	ecx
	mov	DWORD PTR _this$[ebp], ecx

; 893  : 		_Mytraits::construct(*this, _Ptr,

	mov	eax, DWORD PTR _<_Args_0>$[ebp]
	push	eax
	call	??$forward@UTile@@@std@@YA$$QAUTile@@AAU1@@Z ; std::forward<Tile>
	add	esp, 4
	push	eax
	mov	ecx, DWORD PTR __Ptr$[ebp]
	push	ecx
	mov	edx, DWORD PTR _this$[ebp]
	push	edx
	call	??$construct@UTile@@U1@@?$allocator_traits@V?$allocator@UTile@@@std@@@std@@SAXAAV?$allocator@UTile@@@1@PAUTile@@$$QAU3@@Z ; std::allocator_traits<std::allocator<Tile> >::construct<Tile,Tile>
	add	esp, 12					; 0000000cH

; 894  : 			_STD forward<_Types>(_Args)...);
; 895  : 		}

	pop	edi
	pop	esi
	pop	ebx
	add	esp, 204				; 000000ccH
	cmp	ebp, esp
	call	__RTC_CheckEsp
	mov	esp, ebp
	pop	ebp
	ret	8
??$construct@UTile@@U1@@?$_Wrap_alloc@V?$allocator@UTile@@@std@@@std@@QAEXPAUTile@@$$QAU2@@Z ENDP ; std::_Wrap_alloc<std::allocator<Tile> >::construct<Tile,Tile>
_TEXT	ENDS
; Function compile flags: /Odtp /RTCsu /ZI
; File c:\program files (x86)\microsoft visual studio 14.0\vc\include\type_traits
;	COMDAT ??$move@AAUTile@@@std@@YA$$QAUTile@@AAU1@@Z
_TEXT	SEGMENT
__Arg$ = 8						; size = 4
??$move@AAUTile@@@std@@YA$$QAUTile@@AAU1@@Z PROC	; std::move<Tile &>, COMDAT

; 1314 : 	{	// forward _Arg as movable

	push	ebp
	mov	ebp, esp
	sub	esp, 192				; 000000c0H
	push	ebx
	push	esi
	push	edi
	lea	edi, DWORD PTR [ebp-192]
	mov	ecx, 48					; 00000030H
	mov	eax, -858993460				; ccccccccH
	rep stosd

; 1315 : 	return (static_cast<typename remove_reference<_Ty>::type&&>(_Arg));

	mov	eax, DWORD PTR __Arg$[ebp]

; 1316 : 	}

	pop	edi
	pop	esi
	pop	ebx
	mov	esp, ebp
	pop	ebp
	ret	0
??$move@AAUTile@@@std@@YA$$QAUTile@@AAU1@@Z ENDP	; std::move<Tile &>
_TEXT	ENDS
; Function compile flags: /Odtp /RTCsu /ZI
; File c:\program files (x86)\microsoft visual studio 14.0\vc\include\xmemory0
;	COMDAT ??$construct@UMovingTile@@U1@@?$_Wrap_alloc@V?$allocator@UMovingTile@@@std@@@std@@QAEXPAUMovingTile@@$$QAU2@@Z
_TEXT	SEGMENT
_this$ = -8						; size = 4
__Ptr$ = 8						; size = 4
_<_Args_0>$ = 12					; size = 4
??$construct@UMovingTile@@U1@@?$_Wrap_alloc@V?$allocator@UMovingTile@@@std@@@std@@QAEXPAUMovingTile@@$$QAU2@@Z PROC ; std::_Wrap_alloc<std::allocator<MovingTile> >::construct<MovingTile,MovingTile>, COMDAT
; _this$ = ecx

; 892  : 		{	// construct _Ty(_Types...) at _Ptr

	push	ebp
	mov	ebp, esp
	sub	esp, 204				; 000000ccH
	push	ebx
	push	esi
	push	edi
	push	ecx
	lea	edi, DWORD PTR [ebp-204]
	mov	ecx, 51					; 00000033H
	mov	eax, -858993460				; ccccccccH
	rep stosd
	pop	ecx
	mov	DWORD PTR _this$[ebp], ecx

; 893  : 		_Mytraits::construct(*this, _Ptr,

	mov	eax, DWORD PTR _<_Args_0>$[ebp]
	push	eax
	call	??$forward@UMovingTile@@@std@@YA$$QAUMovingTile@@AAU1@@Z ; std::forward<MovingTile>
	add	esp, 4
	push	eax
	mov	ecx, DWORD PTR __Ptr$[ebp]
	push	ecx
	mov	edx, DWORD PTR _this$[ebp]
	push	edx
	call	??$construct@UMovingTile@@U1@@?$allocator_traits@V?$allocator@UMovingTile@@@std@@@std@@SAXAAV?$allocator@UMovingTile@@@1@PAUMovingTile@@$$QAU3@@Z ; std::allocator_traits<std::allocator<MovingTile> >::construct<MovingTile,MovingTile>
	add	esp, 12					; 0000000cH

; 894  : 			_STD forward<_Types>(_Args)...);
; 895  : 		}

	pop	edi
	pop	esi
	pop	ebx
	add	esp, 204				; 000000ccH
	cmp	ebp, esp
	call	__RTC_CheckEsp
	mov	esp, ebp
	pop	ebp
	ret	8
??$construct@UMovingTile@@U1@@?$_Wrap_alloc@V?$allocator@UMovingTile@@@std@@@std@@QAEXPAUMovingTile@@$$QAU2@@Z ENDP ; std::_Wrap_alloc<std::allocator<MovingTile> >::construct<MovingTile,MovingTile>
_TEXT	ENDS
; Function compile flags: /Odtp /RTCsu /ZI
; File c:\program files (x86)\microsoft visual studio 14.0\vc\include\type_traits
;	COMDAT ??$move@AAUMovingTile@@@std@@YA$$QAUMovingTile@@AAU1@@Z
_TEXT	SEGMENT
__Arg$ = 8						; size = 4
??$move@AAUMovingTile@@@std@@YA$$QAUMovingTile@@AAU1@@Z PROC ; std::move<MovingTile &>, COMDAT

; 1314 : 	{	// forward _Arg as movable

	push	ebp
	mov	ebp, esp
	sub	esp, 192				; 000000c0H
	push	ebx
	push	esi
	push	edi
	lea	edi, DWORD PTR [ebp-192]
	mov	ecx, 48					; 00000030H
	mov	eax, -858993460				; ccccccccH
	rep stosd

; 1315 : 	return (static_cast<typename remove_reference<_Ty>::type&&>(_Arg));

	mov	eax, DWORD PTR __Arg$[ebp]

; 1316 : 	}

	pop	edi
	pop	esi
	pop	ebx
	mov	esp, ebp
	pop	ebp
	ret	0
??$move@AAUMovingTile@@@std@@YA$$QAUMovingTile@@AAU1@@Z ENDP ; std::move<MovingTile &>
_TEXT	ENDS
; Function compile flags: /Odtp /RTCsu /ZI
; File c:\program files (x86)\microsoft visual studio 14.0\vc\include\xmemory0
;	COMDAT ??$destroy@UPushTile@@@?$allocator@UPushTile@@@std@@QAEXPAUPushTile@@@Z
_TEXT	SEGMENT
_this$ = -8						; size = 4
__Ptr$ = 8						; size = 4
??$destroy@UPushTile@@@?$allocator@UPushTile@@@std@@QAEXPAUPushTile@@@Z PROC ; std::allocator<PushTile>::destroy<PushTile>, COMDAT
; _this$ = ecx

; 643  : 		{	// destroy object at _Ptr

	push	ebp
	mov	ebp, esp
	sub	esp, 204				; 000000ccH
	push	ebx
	push	esi
	push	edi
	push	ecx
	lea	edi, DWORD PTR [ebp-204]
	mov	ecx, 51					; 00000033H
	mov	eax, -858993460				; ccccccccH
	rep stosd
	pop	ecx
	mov	DWORD PTR _this$[ebp], ecx

; 644  : 		_Ptr->~_Uty();
; 645  : 		}

	pop	edi
	pop	esi
	pop	ebx
	mov	esp, ebp
	pop	ebp
	ret	4
??$destroy@UPushTile@@@?$allocator@UPushTile@@@std@@QAEXPAUPushTile@@@Z ENDP ; std::allocator<PushTile>::destroy<PushTile>
_TEXT	ENDS
; Function compile flags: /Odtp /RTCsu /ZI
; File c:\program files (x86)\microsoft visual studio 14.0\vc\include\xmemory
;	COMDAT ??$_Uninitialized_move_al_unchecked1@PAUPushTile@@PAU1@V?$allocator@UPushTile@@@std@@@std@@YAPAUPushTile@@PAU1@00AAU?$_Wrap_alloc@V?$allocator@UPushTile@@@std@@@0@U_General_ptr_iterator_tag@0@@Z
_TEXT	SEGMENT
__Next$ = -24						; size = 4
__$EHRec$ = -16						; size = 16
__First$ = 8						; size = 4
__Last$ = 12						; size = 4
__Dest$ = 16						; size = 4
__Al$ = 20						; size = 4
___formal$ = 24						; size = 1
??$_Uninitialized_move_al_unchecked1@PAUPushTile@@PAU1@V?$allocator@UPushTile@@@std@@@std@@YAPAUPushTile@@PAU1@00AAU?$_Wrap_alloc@V?$allocator@UPushTile@@@std@@@0@U_General_ptr_iterator_tag@0@@Z PROC ; std::_Uninitialized_move_al_unchecked1<PushTile *,PushTile *,std::allocator<PushTile> >, COMDAT

; 317  : 	{	// move [_First, _Last) to raw _Dest, using _Al, no special optimization

	push	ebp
	mov	ebp, esp
	push	-1
	push	__ehhandler$??$_Uninitialized_move_al_unchecked1@PAUPushTile@@PAU1@V?$allocator@UPushTile@@@std@@@std@@YAPAUPushTile@@PAU1@00AAU?$_Wrap_alloc@V?$allocator@UPushTile@@@std@@@0@U_General_ptr_iterator_tag@0@@Z
	mov	eax, DWORD PTR fs:0
	push	eax
	push	ecx
	sub	esp, 204				; 000000ccH
	push	ebx
	push	esi
	push	edi
	lea	edi, DWORD PTR [ebp-220]
	mov	ecx, 51					; 00000033H
	mov	eax, -858993460				; ccccccccH
	rep stosd
	mov	eax, DWORD PTR ___security_cookie
	xor	eax, ebp
	push	eax
	lea	eax, DWORD PTR __$EHRec$[ebp+4]
	mov	DWORD PTR fs:0, eax
	mov	DWORD PTR __$EHRec$[ebp], esp

; 318  : 	_FwdIt _Next = _Dest;

	mov	eax, DWORD PTR __Dest$[ebp]
	mov	DWORD PTR __Next$[ebp], eax

; 319  : 
; 320  : 	_TRY_BEGIN

	mov	DWORD PTR __$EHRec$[ebp+12], 0

; 321  : 	for (; _First != _Last; ++_Dest, (void)++_First)

	jmp	SHORT $LN4@Uninitiali
$LN2@Uninitiali:
	mov	eax, DWORD PTR __Dest$[ebp]
	add	eax, 48					; 00000030H
	mov	DWORD PTR __Dest$[ebp], eax
	mov	ecx, DWORD PTR __First$[ebp]
	add	ecx, 48					; 00000030H
	mov	DWORD PTR __First$[ebp], ecx
$LN4@Uninitiali:
	mov	eax, DWORD PTR __First$[ebp]
	cmp	eax, DWORD PTR __Last$[ebp]
	je	SHORT $LN3@Uninitiali

; 322  : 		_Al.construct(_Dest, _STD move(*_First));

	mov	eax, DWORD PTR __First$[ebp]
	push	eax
	call	??$move@AAUPushTile@@@std@@YA$$QAUPushTile@@AAU1@@Z ; std::move<PushTile &>
	add	esp, 4
	push	eax
	mov	ecx, DWORD PTR __Dest$[ebp]
	push	ecx
	mov	ecx, DWORD PTR __Al$[ebp]
	call	??$construct@UPushTile@@U1@@?$_Wrap_alloc@V?$allocator@UPushTile@@@std@@@std@@QAEXPAUPushTile@@$$QAU2@@Z ; std::_Wrap_alloc<std::allocator<PushTile> >::construct<PushTile,PushTile>
	jmp	SHORT $LN2@Uninitiali
$LN3@Uninitiali:
	jmp	SHORT $LN10@Uninitiali
__catch$??$_Uninitialized_move_al_unchecked1@PAUPushTile@@PAU1@V?$allocator@UPushTile@@@std@@@std@@YAPAUPushTile@@PAU1@00AAU?$_Wrap_alloc@V?$allocator@UPushTile@@@std@@@0@U_General_ptr_iterator_tag@0@@Z$0:

; 323  : 	_CATCH_ALL
; 324  : 	for (; _Next != _Dest; ++_Next)

	jmp	SHORT $LN7@Uninitiali
$LN5@Uninitiali:
	mov	eax, DWORD PTR __Next$[ebp]
	add	eax, 48					; 00000030H
	mov	DWORD PTR __Next$[ebp], eax
$LN7@Uninitiali:
	mov	eax, DWORD PTR __Next$[ebp]
	cmp	eax, DWORD PTR __Dest$[ebp]
	je	SHORT $LN6@Uninitiali

; 325  : 		_Al.destroy(_Next);

	mov	eax, DWORD PTR __Next$[ebp]
	push	eax
	mov	ecx, DWORD PTR __Al$[ebp]
	call	??$destroy@UPushTile@@@?$_Wrap_alloc@V?$allocator@UPushTile@@@std@@@std@@QAEXPAUPushTile@@@Z ; std::_Wrap_alloc<std::allocator<PushTile> >::destroy<PushTile>
	jmp	SHORT $LN5@Uninitiali
$LN6@Uninitiali:

; 326  : 	_RERAISE;

	push	0
	push	0
	call	__CxxThrowException@8

; 327  : 	_CATCH_END

	mov	eax, $LN13@Uninitiali
	ret	0
$LN10@Uninitiali:
	mov	DWORD PTR __$EHRec$[ebp+12], -1
	jmp	SHORT __tryend$??$_Uninitialized_move_al_unchecked1@PAUPushTile@@PAU1@V?$allocator@UPushTile@@@std@@@std@@YAPAUPushTile@@PAU1@00AAU?$_Wrap_alloc@V?$allocator@UPushTile@@@std@@@0@U_General_ptr_iterator_tag@0@@Z$1
$LN13@Uninitiali:
	mov	DWORD PTR __$EHRec$[ebp+12], -1
__tryend$??$_Uninitialized_move_al_unchecked1@PAUPushTile@@PAU1@V?$allocator@UPushTile@@@std@@@std@@YAPAUPushTile@@PAU1@00AAU?$_Wrap_alloc@V?$allocator@UPushTile@@@std@@@0@U_General_ptr_iterator_tag@0@@Z$1:

; 328  : 
; 329  : 	return (_Dest);

	mov	eax, DWORD PTR __Dest$[ebp]
$LN9@Uninitiali:

; 330  : 	}

	mov	ecx, DWORD PTR __$EHRec$[ebp+4]
	mov	DWORD PTR fs:0, ecx
	pop	ecx
	pop	edi
	pop	esi
	pop	ebx
	add	esp, 220				; 000000dcH
	cmp	ebp, esp
	call	__RTC_CheckEsp
	mov	esp, ebp
	pop	ebp
	ret	0
_TEXT	ENDS
;	COMDAT text$x
text$x	SEGMENT
__ehhandler$??$_Uninitialized_move_al_unchecked1@PAUPushTile@@PAU1@V?$allocator@UPushTile@@@std@@@std@@YAPAUPushTile@@PAU1@00AAU?$_Wrap_alloc@V?$allocator@UPushTile@@@std@@@0@U_General_ptr_iterator_tag@0@@Z:
	mov	edx, DWORD PTR [esp+8]
	lea	eax, DWORD PTR [edx+12]
	mov	ecx, DWORD PTR [edx-224]
	xor	ecx, eax
	call	@__security_check_cookie@4
	mov	eax, OFFSET __ehfuncinfo$??$_Uninitialized_move_al_unchecked1@PAUPushTile@@PAU1@V?$allocator@UPushTile@@@std@@@std@@YAPAUPushTile@@PAU1@00AAU?$_Wrap_alloc@V?$allocator@UPushTile@@@std@@@0@U_General_ptr_iterator_tag@0@@Z
	jmp	___CxxFrameHandler3
text$x	ENDS
??$_Uninitialized_move_al_unchecked1@PAUPushTile@@PAU1@V?$allocator@UPushTile@@@std@@@std@@YAPAUPushTile@@PAU1@00AAU?$_Wrap_alloc@V?$allocator@UPushTile@@@std@@@0@U_General_ptr_iterator_tag@0@@Z ENDP ; std::_Uninitialized_move_al_unchecked1<PushTile *,PushTile *,std::allocator<PushTile> >
; Function compile flags: /Odtp /RTCsu /ZI
; File c:\program files (x86)\microsoft visual studio 14.0\vc\include\xutility
;	COMDAT ??$_Ptr_move_cat@UPushTile@@U1@@std@@YA?AU_Trivially_copyable_ptr_iterator_tag@0@ABQAUPushTile@@0@Z
_TEXT	SEGMENT
___$ReturnUdt$ = 8					; size = 4
___formal$ = 12						; size = 4
___formal$ = 16						; size = 4
??$_Ptr_move_cat@UPushTile@@U1@@std@@YA?AU_Trivially_copyable_ptr_iterator_tag@0@ABQAUPushTile@@0@Z PROC ; std::_Ptr_move_cat<PushTile,PushTile>, COMDAT

; 725  : 	{	// return pointer move optimization category for pointers

	push	ebp
	mov	ebp, esp
	sub	esp, 192				; 000000c0H
	push	ebx
	push	esi
	push	edi
	lea	edi, DWORD PTR [ebp-192]
	mov	ecx, 48					; 00000030H
	mov	eax, -858993460				; ccccccccH
	rep stosd

; 726  : 	return {};

	mov	eax, DWORD PTR ___$ReturnUdt$[ebp]

; 727  : 	}

	pop	edi
	pop	esi
	pop	ebx
	mov	esp, ebp
	pop	ebp
	ret	0
??$_Ptr_move_cat@UPushTile@@U1@@std@@YA?AU_Trivially_copyable_ptr_iterator_tag@0@ABQAUPushTile@@0@Z ENDP ; std::_Ptr_move_cat<PushTile,PushTile>
_TEXT	ENDS
; Function compile flags: /Odtp /RTCsu /ZI
; File c:\program files (x86)\microsoft visual studio 14.0\vc\include\xmemory0
;	COMDAT ??$destroy@UTile@@@?$allocator@UTile@@@std@@QAEXPAUTile@@@Z
_TEXT	SEGMENT
_this$ = -8						; size = 4
__Ptr$ = 8						; size = 4
??$destroy@UTile@@@?$allocator@UTile@@@std@@QAEXPAUTile@@@Z PROC ; std::allocator<Tile>::destroy<Tile>, COMDAT
; _this$ = ecx

; 643  : 		{	// destroy object at _Ptr

	push	ebp
	mov	ebp, esp
	sub	esp, 204				; 000000ccH
	push	ebx
	push	esi
	push	edi
	push	ecx
	lea	edi, DWORD PTR [ebp-204]
	mov	ecx, 51					; 00000033H
	mov	eax, -858993460				; ccccccccH
	rep stosd
	pop	ecx
	mov	DWORD PTR _this$[ebp], ecx

; 644  : 		_Ptr->~_Uty();
; 645  : 		}

	pop	edi
	pop	esi
	pop	ebx
	mov	esp, ebp
	pop	ebp
	ret	4
??$destroy@UTile@@@?$allocator@UTile@@@std@@QAEXPAUTile@@@Z ENDP ; std::allocator<Tile>::destroy<Tile>
_TEXT	ENDS
; Function compile flags: /Odtp /RTCsu /ZI
; File c:\program files (x86)\microsoft visual studio 14.0\vc\include\xmemory
;	COMDAT ??$_Uninitialized_move_al_unchecked1@PAUTile@@PAU1@V?$allocator@UTile@@@std@@@std@@YAPAUTile@@PAU1@00AAU?$_Wrap_alloc@V?$allocator@UTile@@@std@@@0@U_General_ptr_iterator_tag@0@@Z
_TEXT	SEGMENT
__Next$ = -24						; size = 4
__$EHRec$ = -16						; size = 16
__First$ = 8						; size = 4
__Last$ = 12						; size = 4
__Dest$ = 16						; size = 4
__Al$ = 20						; size = 4
___formal$ = 24						; size = 1
??$_Uninitialized_move_al_unchecked1@PAUTile@@PAU1@V?$allocator@UTile@@@std@@@std@@YAPAUTile@@PAU1@00AAU?$_Wrap_alloc@V?$allocator@UTile@@@std@@@0@U_General_ptr_iterator_tag@0@@Z PROC ; std::_Uninitialized_move_al_unchecked1<Tile *,Tile *,std::allocator<Tile> >, COMDAT

; 317  : 	{	// move [_First, _Last) to raw _Dest, using _Al, no special optimization

	push	ebp
	mov	ebp, esp
	push	-1
	push	__ehhandler$??$_Uninitialized_move_al_unchecked1@PAUTile@@PAU1@V?$allocator@UTile@@@std@@@std@@YAPAUTile@@PAU1@00AAU?$_Wrap_alloc@V?$allocator@UTile@@@std@@@0@U_General_ptr_iterator_tag@0@@Z
	mov	eax, DWORD PTR fs:0
	push	eax
	push	ecx
	sub	esp, 204				; 000000ccH
	push	ebx
	push	esi
	push	edi
	lea	edi, DWORD PTR [ebp-220]
	mov	ecx, 51					; 00000033H
	mov	eax, -858993460				; ccccccccH
	rep stosd
	mov	eax, DWORD PTR ___security_cookie
	xor	eax, ebp
	push	eax
	lea	eax, DWORD PTR __$EHRec$[ebp+4]
	mov	DWORD PTR fs:0, eax
	mov	DWORD PTR __$EHRec$[ebp], esp

; 318  : 	_FwdIt _Next = _Dest;

	mov	eax, DWORD PTR __Dest$[ebp]
	mov	DWORD PTR __Next$[ebp], eax

; 319  : 
; 320  : 	_TRY_BEGIN

	mov	DWORD PTR __$EHRec$[ebp+12], 0

; 321  : 	for (; _First != _Last; ++_Dest, (void)++_First)

	jmp	SHORT $LN4@Uninitiali
$LN2@Uninitiali:
	mov	eax, DWORD PTR __Dest$[ebp]
	add	eax, 32					; 00000020H
	mov	DWORD PTR __Dest$[ebp], eax
	mov	ecx, DWORD PTR __First$[ebp]
	add	ecx, 32					; 00000020H
	mov	DWORD PTR __First$[ebp], ecx
$LN4@Uninitiali:
	mov	eax, DWORD PTR __First$[ebp]
	cmp	eax, DWORD PTR __Last$[ebp]
	je	SHORT $LN3@Uninitiali

; 322  : 		_Al.construct(_Dest, _STD move(*_First));

	mov	eax, DWORD PTR __First$[ebp]
	push	eax
	call	??$move@AAUTile@@@std@@YA$$QAUTile@@AAU1@@Z ; std::move<Tile &>
	add	esp, 4
	push	eax
	mov	ecx, DWORD PTR __Dest$[ebp]
	push	ecx
	mov	ecx, DWORD PTR __Al$[ebp]
	call	??$construct@UTile@@U1@@?$_Wrap_alloc@V?$allocator@UTile@@@std@@@std@@QAEXPAUTile@@$$QAU2@@Z ; std::_Wrap_alloc<std::allocator<Tile> >::construct<Tile,Tile>
	jmp	SHORT $LN2@Uninitiali
$LN3@Uninitiali:
	jmp	SHORT $LN10@Uninitiali
__catch$??$_Uninitialized_move_al_unchecked1@PAUTile@@PAU1@V?$allocator@UTile@@@std@@@std@@YAPAUTile@@PAU1@00AAU?$_Wrap_alloc@V?$allocator@UTile@@@std@@@0@U_General_ptr_iterator_tag@0@@Z$0:

; 323  : 	_CATCH_ALL
; 324  : 	for (; _Next != _Dest; ++_Next)

	jmp	SHORT $LN7@Uninitiali
$LN5@Uninitiali:
	mov	eax, DWORD PTR __Next$[ebp]
	add	eax, 32					; 00000020H
	mov	DWORD PTR __Next$[ebp], eax
$LN7@Uninitiali:
	mov	eax, DWORD PTR __Next$[ebp]
	cmp	eax, DWORD PTR __Dest$[ebp]
	je	SHORT $LN6@Uninitiali

; 325  : 		_Al.destroy(_Next);

	mov	eax, DWORD PTR __Next$[ebp]
	push	eax
	mov	ecx, DWORD PTR __Al$[ebp]
	call	??$destroy@UTile@@@?$_Wrap_alloc@V?$allocator@UTile@@@std@@@std@@QAEXPAUTile@@@Z ; std::_Wrap_alloc<std::allocator<Tile> >::destroy<Tile>
	jmp	SHORT $LN5@Uninitiali
$LN6@Uninitiali:

; 326  : 	_RERAISE;

	push	0
	push	0
	call	__CxxThrowException@8

; 327  : 	_CATCH_END

	mov	eax, $LN13@Uninitiali
	ret	0
$LN10@Uninitiali:
	mov	DWORD PTR __$EHRec$[ebp+12], -1
	jmp	SHORT __tryend$??$_Uninitialized_move_al_unchecked1@PAUTile@@PAU1@V?$allocator@UTile@@@std@@@std@@YAPAUTile@@PAU1@00AAU?$_Wrap_alloc@V?$allocator@UTile@@@std@@@0@U_General_ptr_iterator_tag@0@@Z$1
$LN13@Uninitiali:
	mov	DWORD PTR __$EHRec$[ebp+12], -1
__tryend$??$_Uninitialized_move_al_unchecked1@PAUTile@@PAU1@V?$allocator@UTile@@@std@@@std@@YAPAUTile@@PAU1@00AAU?$_Wrap_alloc@V?$allocator@UTile@@@std@@@0@U_General_ptr_iterator_tag@0@@Z$1:

; 328  : 
; 329  : 	return (_Dest);

	mov	eax, DWORD PTR __Dest$[ebp]
$LN9@Uninitiali:

; 330  : 	}

	mov	ecx, DWORD PTR __$EHRec$[ebp+4]
	mov	DWORD PTR fs:0, ecx
	pop	ecx
	pop	edi
	pop	esi
	pop	ebx
	add	esp, 220				; 000000dcH
	cmp	ebp, esp
	call	__RTC_CheckEsp
	mov	esp, ebp
	pop	ebp
	ret	0
_TEXT	ENDS
;	COMDAT text$x
text$x	SEGMENT
__ehhandler$??$_Uninitialized_move_al_unchecked1@PAUTile@@PAU1@V?$allocator@UTile@@@std@@@std@@YAPAUTile@@PAU1@00AAU?$_Wrap_alloc@V?$allocator@UTile@@@std@@@0@U_General_ptr_iterator_tag@0@@Z:
	mov	edx, DWORD PTR [esp+8]
	lea	eax, DWORD PTR [edx+12]
	mov	ecx, DWORD PTR [edx-224]
	xor	ecx, eax
	call	@__security_check_cookie@4
	mov	eax, OFFSET __ehfuncinfo$??$_Uninitialized_move_al_unchecked1@PAUTile@@PAU1@V?$allocator@UTile@@@std@@@std@@YAPAUTile@@PAU1@00AAU?$_Wrap_alloc@V?$allocator@UTile@@@std@@@0@U_General_ptr_iterator_tag@0@@Z
	jmp	___CxxFrameHandler3
text$x	ENDS
??$_Uninitialized_move_al_unchecked1@PAUTile@@PAU1@V?$allocator@UTile@@@std@@@std@@YAPAUTile@@PAU1@00AAU?$_Wrap_alloc@V?$allocator@UTile@@@std@@@0@U_General_ptr_iterator_tag@0@@Z ENDP ; std::_Uninitialized_move_al_unchecked1<Tile *,Tile *,std::allocator<Tile> >
; Function compile flags: /Odtp /RTCsu /ZI
; File c:\program files (x86)\microsoft visual studio 14.0\vc\include\xutility
;	COMDAT ??$_Ptr_move_cat@UTile@@U1@@std@@YA?AU_Trivially_copyable_ptr_iterator_tag@0@ABQAUTile@@0@Z
_TEXT	SEGMENT
___$ReturnUdt$ = 8					; size = 4
___formal$ = 12						; size = 4
___formal$ = 16						; size = 4
??$_Ptr_move_cat@UTile@@U1@@std@@YA?AU_Trivially_copyable_ptr_iterator_tag@0@ABQAUTile@@0@Z PROC ; std::_Ptr_move_cat<Tile,Tile>, COMDAT

; 725  : 	{	// return pointer move optimization category for pointers

	push	ebp
	mov	ebp, esp
	sub	esp, 192				; 000000c0H
	push	ebx
	push	esi
	push	edi
	lea	edi, DWORD PTR [ebp-192]
	mov	ecx, 48					; 00000030H
	mov	eax, -858993460				; ccccccccH
	rep stosd

; 726  : 	return {};

	mov	eax, DWORD PTR ___$ReturnUdt$[ebp]

; 727  : 	}

	pop	edi
	pop	esi
	pop	ebx
	mov	esp, ebp
	pop	ebp
	ret	0
??$_Ptr_move_cat@UTile@@U1@@std@@YA?AU_Trivially_copyable_ptr_iterator_tag@0@ABQAUTile@@0@Z ENDP ; std::_Ptr_move_cat<Tile,Tile>
_TEXT	ENDS
; Function compile flags: /Odtp /RTCsu /ZI
; File c:\program files (x86)\microsoft visual studio 14.0\vc\include\xmemory0
;	COMDAT ??$destroy@UMovingTile@@@?$allocator@UMovingTile@@@std@@QAEXPAUMovingTile@@@Z
_TEXT	SEGMENT
_this$ = -8						; size = 4
__Ptr$ = 8						; size = 4
??$destroy@UMovingTile@@@?$allocator@UMovingTile@@@std@@QAEXPAUMovingTile@@@Z PROC ; std::allocator<MovingTile>::destroy<MovingTile>, COMDAT
; _this$ = ecx

; 643  : 		{	// destroy object at _Ptr

	push	ebp
	mov	ebp, esp
	sub	esp, 204				; 000000ccH
	push	ebx
	push	esi
	push	edi
	push	ecx
	lea	edi, DWORD PTR [ebp-204]
	mov	ecx, 51					; 00000033H
	mov	eax, -858993460				; ccccccccH
	rep stosd
	pop	ecx
	mov	DWORD PTR _this$[ebp], ecx

; 644  : 		_Ptr->~_Uty();
; 645  : 		}

	pop	edi
	pop	esi
	pop	ebx
	mov	esp, ebp
	pop	ebp
	ret	4
??$destroy@UMovingTile@@@?$allocator@UMovingTile@@@std@@QAEXPAUMovingTile@@@Z ENDP ; std::allocator<MovingTile>::destroy<MovingTile>
_TEXT	ENDS
; Function compile flags: /Odtp /RTCsu /ZI
; File c:\program files (x86)\microsoft visual studio 14.0\vc\include\xmemory
;	COMDAT ??$_Uninitialized_move_al_unchecked1@PAUMovingTile@@PAU1@V?$allocator@UMovingTile@@@std@@@std@@YAPAUMovingTile@@PAU1@00AAU?$_Wrap_alloc@V?$allocator@UMovingTile@@@std@@@0@U_General_ptr_iterator_tag@0@@Z
_TEXT	SEGMENT
__Next$ = -24						; size = 4
__$EHRec$ = -16						; size = 16
__First$ = 8						; size = 4
__Last$ = 12						; size = 4
__Dest$ = 16						; size = 4
__Al$ = 20						; size = 4
___formal$ = 24						; size = 1
??$_Uninitialized_move_al_unchecked1@PAUMovingTile@@PAU1@V?$allocator@UMovingTile@@@std@@@std@@YAPAUMovingTile@@PAU1@00AAU?$_Wrap_alloc@V?$allocator@UMovingTile@@@std@@@0@U_General_ptr_iterator_tag@0@@Z PROC ; std::_Uninitialized_move_al_unchecked1<MovingTile *,MovingTile *,std::allocator<MovingTile> >, COMDAT

; 317  : 	{	// move [_First, _Last) to raw _Dest, using _Al, no special optimization

	push	ebp
	mov	ebp, esp
	push	-1
	push	__ehhandler$??$_Uninitialized_move_al_unchecked1@PAUMovingTile@@PAU1@V?$allocator@UMovingTile@@@std@@@std@@YAPAUMovingTile@@PAU1@00AAU?$_Wrap_alloc@V?$allocator@UMovingTile@@@std@@@0@U_General_ptr_iterator_tag@0@@Z
	mov	eax, DWORD PTR fs:0
	push	eax
	push	ecx
	sub	esp, 204				; 000000ccH
	push	ebx
	push	esi
	push	edi
	lea	edi, DWORD PTR [ebp-220]
	mov	ecx, 51					; 00000033H
	mov	eax, -858993460				; ccccccccH
	rep stosd
	mov	eax, DWORD PTR ___security_cookie
	xor	eax, ebp
	push	eax
	lea	eax, DWORD PTR __$EHRec$[ebp+4]
	mov	DWORD PTR fs:0, eax
	mov	DWORD PTR __$EHRec$[ebp], esp

; 318  : 	_FwdIt _Next = _Dest;

	mov	eax, DWORD PTR __Dest$[ebp]
	mov	DWORD PTR __Next$[ebp], eax

; 319  : 
; 320  : 	_TRY_BEGIN

	mov	DWORD PTR __$EHRec$[ebp+12], 0

; 321  : 	for (; _First != _Last; ++_Dest, (void)++_First)

	jmp	SHORT $LN4@Uninitiali
$LN2@Uninitiali:
	mov	eax, DWORD PTR __Dest$[ebp]
	add	eax, 48					; 00000030H
	mov	DWORD PTR __Dest$[ebp], eax
	mov	ecx, DWORD PTR __First$[ebp]
	add	ecx, 48					; 00000030H
	mov	DWORD PTR __First$[ebp], ecx
$LN4@Uninitiali:
	mov	eax, DWORD PTR __First$[ebp]
	cmp	eax, DWORD PTR __Last$[ebp]
	je	SHORT $LN3@Uninitiali

; 322  : 		_Al.construct(_Dest, _STD move(*_First));

	mov	eax, DWORD PTR __First$[ebp]
	push	eax
	call	??$move@AAUMovingTile@@@std@@YA$$QAUMovingTile@@AAU1@@Z ; std::move<MovingTile &>
	add	esp, 4
	push	eax
	mov	ecx, DWORD PTR __Dest$[ebp]
	push	ecx
	mov	ecx, DWORD PTR __Al$[ebp]
	call	??$construct@UMovingTile@@U1@@?$_Wrap_alloc@V?$allocator@UMovingTile@@@std@@@std@@QAEXPAUMovingTile@@$$QAU2@@Z ; std::_Wrap_alloc<std::allocator<MovingTile> >::construct<MovingTile,MovingTile>
	jmp	SHORT $LN2@Uninitiali
$LN3@Uninitiali:
	jmp	SHORT $LN10@Uninitiali
__catch$??$_Uninitialized_move_al_unchecked1@PAUMovingTile@@PAU1@V?$allocator@UMovingTile@@@std@@@std@@YAPAUMovingTile@@PAU1@00AAU?$_Wrap_alloc@V?$allocator@UMovingTile@@@std@@@0@U_General_ptr_iterator_tag@0@@Z$0:

; 323  : 	_CATCH_ALL
; 324  : 	for (; _Next != _Dest; ++_Next)

	jmp	SHORT $LN7@Uninitiali
$LN5@Uninitiali:
	mov	eax, DWORD PTR __Next$[ebp]
	add	eax, 48					; 00000030H
	mov	DWORD PTR __Next$[ebp], eax
$LN7@Uninitiali:
	mov	eax, DWORD PTR __Next$[ebp]
	cmp	eax, DWORD PTR __Dest$[ebp]
	je	SHORT $LN6@Uninitiali

; 325  : 		_Al.destroy(_Next);

	mov	eax, DWORD PTR __Next$[ebp]
	push	eax
	mov	ecx, DWORD PTR __Al$[ebp]
	call	??$destroy@UMovingTile@@@?$_Wrap_alloc@V?$allocator@UMovingTile@@@std@@@std@@QAEXPAUMovingTile@@@Z ; std::_Wrap_alloc<std::allocator<MovingTile> >::destroy<MovingTile>
	jmp	SHORT $LN5@Uninitiali
$LN6@Uninitiali:

; 326  : 	_RERAISE;

	push	0
	push	0
	call	__CxxThrowException@8

; 327  : 	_CATCH_END

	mov	eax, $LN13@Uninitiali
	ret	0
$LN10@Uninitiali:
	mov	DWORD PTR __$EHRec$[ebp+12], -1
	jmp	SHORT __tryend$??$_Uninitialized_move_al_unchecked1@PAUMovingTile@@PAU1@V?$allocator@UMovingTile@@@std@@@std@@YAPAUMovingTile@@PAU1@00AAU?$_Wrap_alloc@V?$allocator@UMovingTile@@@std@@@0@U_General_ptr_iterator_tag@0@@Z$1
$LN13@Uninitiali:
	mov	DWORD PTR __$EHRec$[ebp+12], -1
__tryend$??$_Uninitialized_move_al_unchecked1@PAUMovingTile@@PAU1@V?$allocator@UMovingTile@@@std@@@std@@YAPAUMovingTile@@PAU1@00AAU?$_Wrap_alloc@V?$allocator@UMovingTile@@@std@@@0@U_General_ptr_iterator_tag@0@@Z$1:

; 328  : 
; 329  : 	return (_Dest);

	mov	eax, DWORD PTR __Dest$[ebp]
$LN9@Uninitiali:

; 330  : 	}

	mov	ecx, DWORD PTR __$EHRec$[ebp+4]
	mov	DWORD PTR fs:0, ecx
	pop	ecx
	pop	edi
	pop	esi
	pop	ebx
	add	esp, 220				; 000000dcH
	cmp	ebp, esp
	call	__RTC_CheckEsp
	mov	esp, ebp
	pop	ebp
	ret	0
_TEXT	ENDS
;	COMDAT text$x
text$x	SEGMENT
__ehhandler$??$_Uninitialized_move_al_unchecked1@PAUMovingTile@@PAU1@V?$allocator@UMovingTile@@@std@@@std@@YAPAUMovingTile@@PAU1@00AAU?$_Wrap_alloc@V?$allocator@UMovingTile@@@std@@@0@U_General_ptr_iterator_tag@0@@Z:
	mov	edx, DWORD PTR [esp+8]
	lea	eax, DWORD PTR [edx+12]
	mov	ecx, DWORD PTR [edx-224]
	xor	ecx, eax
	call	@__security_check_cookie@4
	mov	eax, OFFSET __ehfuncinfo$??$_Uninitialized_move_al_unchecked1@PAUMovingTile@@PAU1@V?$allocator@UMovingTile@@@std@@@std@@YAPAUMovingTile@@PAU1@00AAU?$_Wrap_alloc@V?$allocator@UMovingTile@@@std@@@0@U_General_ptr_iterator_tag@0@@Z
	jmp	___CxxFrameHandler3
text$x	ENDS
??$_Uninitialized_move_al_unchecked1@PAUMovingTile@@PAU1@V?$allocator@UMovingTile@@@std@@@std@@YAPAUMovingTile@@PAU1@00AAU?$_Wrap_alloc@V?$allocator@UMovingTile@@@std@@@0@U_General_ptr_iterator_tag@0@@Z ENDP ; std::_Uninitialized_move_al_unchecked1<MovingTile *,MovingTile *,std::allocator<MovingTile> >
; Function compile flags: /Odtp /RTCsu /ZI
; File c:\program files (x86)\microsoft visual studio 14.0\vc\include\xutility
;	COMDAT ??$_Ptr_move_cat@UMovingTile@@U1@@std@@YA?AU_Trivially_copyable_ptr_iterator_tag@0@ABQAUMovingTile@@0@Z
_TEXT	SEGMENT
___$ReturnUdt$ = 8					; size = 4
___formal$ = 12						; size = 4
___formal$ = 16						; size = 4
??$_Ptr_move_cat@UMovingTile@@U1@@std@@YA?AU_Trivially_copyable_ptr_iterator_tag@0@ABQAUMovingTile@@0@Z PROC ; std::_Ptr_move_cat<MovingTile,MovingTile>, COMDAT

; 725  : 	{	// return pointer move optimization category for pointers

	push	ebp
	mov	ebp, esp
	sub	esp, 192				; 000000c0H
	push	ebx
	push	esi
	push	edi
	lea	edi, DWORD PTR [ebp-192]
	mov	ecx, 48					; 00000030H
	mov	eax, -858993460				; ccccccccH
	rep stosd

; 726  : 	return {};

	mov	eax, DWORD PTR ___$ReturnUdt$[ebp]

; 727  : 	}

	pop	edi
	pop	esi
	pop	ebx
	mov	esp, ebp
	pop	ebp
	ret	0
??$_Ptr_move_cat@UMovingTile@@U1@@std@@YA?AU_Trivially_copyable_ptr_iterator_tag@0@ABQAUMovingTile@@0@Z ENDP ; std::_Ptr_move_cat<MovingTile,MovingTile>
_TEXT	ENDS
; Function compile flags: /Odtp /RTCsu /ZI
; File c:\program files (x86)\microsoft visual studio 14.0\vc\include\xmemory0
;	COMDAT ??$destroy@UPushTile@@@?$allocator_traits@V?$allocator@UPushTile@@@std@@@std@@SAXAAV?$allocator@UPushTile@@@1@PAUPushTile@@@Z
_TEXT	SEGMENT
__Al$ = 8						; size = 4
__Ptr$ = 12						; size = 4
??$destroy@UPushTile@@@?$allocator_traits@V?$allocator@UPushTile@@@std@@@std@@SAXAAV?$allocator@UPushTile@@@1@PAUPushTile@@@Z PROC ; std::allocator_traits<std::allocator<PushTile> >::destroy<PushTile>, COMDAT

; 761  : 		{	// destroy object at _Ptr

	push	ebp
	mov	ebp, esp
	sub	esp, 192				; 000000c0H
	push	ebx
	push	esi
	push	edi
	lea	edi, DWORD PTR [ebp-192]
	mov	ecx, 48					; 00000030H
	mov	eax, -858993460				; ccccccccH
	rep stosd

; 762  : 		_Al.destroy(_Ptr);

	mov	eax, DWORD PTR __Ptr$[ebp]
	push	eax
	mov	ecx, DWORD PTR __Al$[ebp]
	call	??$destroy@UPushTile@@@?$allocator@UPushTile@@@std@@QAEXPAUPushTile@@@Z ; std::allocator<PushTile>::destroy<PushTile>

; 763  : 		}

	pop	edi
	pop	esi
	pop	ebx
	add	esp, 192				; 000000c0H
	cmp	ebp, esp
	call	__RTC_CheckEsp
	mov	esp, ebp
	pop	ebp
	ret	0
??$destroy@UPushTile@@@?$allocator_traits@V?$allocator@UPushTile@@@std@@@std@@SAXAAV?$allocator@UPushTile@@@1@PAUPushTile@@@Z ENDP ; std::allocator_traits<std::allocator<PushTile> >::destroy<PushTile>
_TEXT	ENDS
; Function compile flags: /Odtp /RTCsu /ZI
; File c:\program files (x86)\microsoft visual studio 14.0\vc\include\xstddef
;	COMDAT ??$_Addressof@UPushTile@@@std@@YAPAUPushTile@@AAU1@U?$integral_constant@_N$0A@@0@@Z
_TEXT	SEGMENT
__Val$ = 8						; size = 4
___formal$ = 12						; size = 1
??$_Addressof@UPushTile@@@std@@YAPAUPushTile@@AAU1@U?$integral_constant@_N$0A@@0@@Z PROC ; std::_Addressof<PushTile>, COMDAT

; 707  : 	{	// return address of object _Val

	push	ebp
	mov	ebp, esp
	sub	esp, 192				; 000000c0H
	push	ebx
	push	esi
	push	edi
	lea	edi, DWORD PTR [ebp-192]
	mov	ecx, 48					; 00000030H
	mov	eax, -858993460				; ccccccccH
	rep stosd

; 708  : 	return (reinterpret_cast<_Ty *>(

	mov	eax, DWORD PTR __Val$[ebp]

; 709  : 		&const_cast<char&>(
; 710  : 		reinterpret_cast<const volatile char&>(_Val))));
; 711  : 	}

	pop	edi
	pop	esi
	pop	ebx
	mov	esp, ebp
	pop	ebp
	ret	0
??$_Addressof@UPushTile@@@std@@YAPAUPushTile@@AAU1@U?$integral_constant@_N$0A@@0@@Z ENDP ; std::_Addressof<PushTile>
_TEXT	ENDS
; Function compile flags: /Odtp /RTCsu /ZI
; File c:\program files (x86)\microsoft visual studio 14.0\vc\include\xutility
;	COMDAT ??$_Rechecked@PAUPushTile@@PAU1@@std@@YAAAPAUPushTile@@AAPAU1@PAU1@@Z
_TEXT	SEGMENT
__Dest$ = 8						; size = 4
__Src$ = 12						; size = 4
??$_Rechecked@PAUPushTile@@PAU1@@std@@YAAAPAUPushTile@@AAPAU1@PAU1@@Z PROC ; std::_Rechecked<PushTile *,PushTile *>, COMDAT

; 465  : 	{	// reset checked from unchecked, generic

	push	ebp
	mov	ebp, esp
	sub	esp, 192				; 000000c0H
	push	ebx
	push	esi
	push	edi
	lea	edi, DWORD PTR [ebp-192]
	mov	ecx, 48					; 00000030H
	mov	eax, -858993460				; ccccccccH
	rep stosd

; 466  : 	_Dest = _Src;

	mov	eax, DWORD PTR __Dest$[ebp]
	mov	ecx, DWORD PTR __Src$[ebp]
	mov	DWORD PTR [eax], ecx

; 467  : 	return (_Dest);

	mov	eax, DWORD PTR __Dest$[ebp]

; 468  : 	}

	pop	edi
	pop	esi
	pop	ebx
	mov	esp, ebp
	pop	ebp
	ret	0
??$_Rechecked@PAUPushTile@@PAU1@@std@@YAAAPAUPushTile@@AAPAU1@PAU1@@Z ENDP ; std::_Rechecked<PushTile *,PushTile *>
_TEXT	ENDS
; Function compile flags: /Odtp /RTCsu /ZI
; File c:\program files (x86)\microsoft visual studio 14.0\vc\include\xmemory
;	COMDAT ??$_Uninitialized_move_al_unchecked@PAUPushTile@@PAU1@U?$_Wrap_alloc@V?$allocator@UPushTile@@@std@@@std@@@std@@YAPAUPushTile@@PAU1@00AAU?$_Wrap_alloc@V?$allocator@UPushTile@@@std@@@0@@Z
_TEXT	SEGMENT
$T1 = -209						; size = 1
$T2 = -197						; size = 1
__First$ = 8						; size = 4
__Last$ = 12						; size = 4
__Dest$ = 16						; size = 4
__Al$ = 20						; size = 4
??$_Uninitialized_move_al_unchecked@PAUPushTile@@PAU1@U?$_Wrap_alloc@V?$allocator@UPushTile@@@std@@@std@@@std@@YAPAUPushTile@@PAU1@00AAU?$_Wrap_alloc@V?$allocator@UPushTile@@@std@@@0@@Z PROC ; std::_Uninitialized_move_al_unchecked<PushTile *,PushTile *,std::_Wrap_alloc<std::allocator<PushTile> > >, COMDAT

; 345  : 	{	// move [_First, _Last) to raw _Dest, using _Al, choose optimization

	push	ebp
	mov	ebp, esp
	sub	esp, 216				; 000000d8H
	push	ebx
	push	esi
	push	edi
	lea	edi, DWORD PTR [ebp-216]
	mov	ecx, 54					; 00000036H
	mov	eax, -858993460				; ccccccccH
	rep stosd

; 346  : 	return (_Uninitialized_move_al_unchecked1(_First, _Last, _Dest, _Al,

	lea	eax, DWORD PTR __Dest$[ebp]
	push	eax
	lea	ecx, DWORD PTR __First$[ebp]
	push	ecx
	lea	edx, DWORD PTR $T2[ebp]
	push	edx
	call	??$_Ptr_move_cat@UPushTile@@U1@@std@@YA?AU_Trivially_copyable_ptr_iterator_tag@0@ABQAUPushTile@@0@Z ; std::_Ptr_move_cat<PushTile,PushTile>
	add	esp, 12					; 0000000cH
	movzx	eax, BYTE PTR $T1[ebp]
	push	eax
	mov	ecx, DWORD PTR __Al$[ebp]
	push	ecx
	mov	edx, DWORD PTR __Dest$[ebp]
	push	edx
	mov	eax, DWORD PTR __Last$[ebp]
	push	eax
	mov	ecx, DWORD PTR __First$[ebp]
	push	ecx
	call	??$_Uninitialized_move_al_unchecked1@PAUPushTile@@PAU1@V?$allocator@UPushTile@@@std@@@std@@YAPAUPushTile@@PAU1@00AAU?$_Wrap_alloc@V?$allocator@UPushTile@@@std@@@0@U_General_ptr_iterator_tag@0@@Z ; std::_Uninitialized_move_al_unchecked1<PushTile *,PushTile *,std::allocator<PushTile> >
	add	esp, 20					; 00000014H

; 347  : 		_Ptr_move_cat(_First, _Dest)));
; 348  : 	}

	pop	edi
	pop	esi
	pop	ebx
	add	esp, 216				; 000000d8H
	cmp	ebp, esp
	call	__RTC_CheckEsp
	mov	esp, ebp
	pop	ebp
	ret	0
??$_Uninitialized_move_al_unchecked@PAUPushTile@@PAU1@U?$_Wrap_alloc@V?$allocator@UPushTile@@@std@@@std@@@std@@YAPAUPushTile@@PAU1@00AAU?$_Wrap_alloc@V?$allocator@UPushTile@@@std@@@0@@Z ENDP ; std::_Uninitialized_move_al_unchecked<PushTile *,PushTile *,std::_Wrap_alloc<std::allocator<PushTile> > >
_TEXT	ENDS
; Function compile flags: /Odtp /RTCsu /ZI
; File c:\program files (x86)\microsoft visual studio 14.0\vc\include\xutility
;	COMDAT ??$_Unchecked@PAUPushTile@@@std@@YAPAUPushTile@@PAU1@@Z
_TEXT	SEGMENT
__Src$ = 8						; size = 4
??$_Unchecked@PAUPushTile@@@std@@YAPAUPushTile@@PAU1@@Z PROC ; std::_Unchecked<PushTile *>, COMDAT

; 438  : 	{	// construct unchecked from checked, generic

	push	ebp
	mov	ebp, esp
	sub	esp, 192				; 000000c0H
	push	ebx
	push	esi
	push	edi
	lea	edi, DWORD PTR [ebp-192]
	mov	ecx, 48					; 00000030H
	mov	eax, -858993460				; ccccccccH
	rep stosd

; 439  : 	return (_Src);

	mov	eax, DWORD PTR __Src$[ebp]

; 440  : 	}

	pop	edi
	pop	esi
	pop	ebx
	mov	esp, ebp
	pop	ebp
	ret	0
??$_Unchecked@PAUPushTile@@@std@@YAPAUPushTile@@PAU1@@Z ENDP ; std::_Unchecked<PushTile *>
_TEXT	ENDS
; Function compile flags: /Odtp /RTCsu /ZI
; File c:\program files (x86)\microsoft visual studio 14.0\vc\include\xmemory0
;	COMDAT ??$destroy@UTile@@@?$allocator_traits@V?$allocator@UTile@@@std@@@std@@SAXAAV?$allocator@UTile@@@1@PAUTile@@@Z
_TEXT	SEGMENT
__Al$ = 8						; size = 4
__Ptr$ = 12						; size = 4
??$destroy@UTile@@@?$allocator_traits@V?$allocator@UTile@@@std@@@std@@SAXAAV?$allocator@UTile@@@1@PAUTile@@@Z PROC ; std::allocator_traits<std::allocator<Tile> >::destroy<Tile>, COMDAT

; 761  : 		{	// destroy object at _Ptr

	push	ebp
	mov	ebp, esp
	sub	esp, 192				; 000000c0H
	push	ebx
	push	esi
	push	edi
	lea	edi, DWORD PTR [ebp-192]
	mov	ecx, 48					; 00000030H
	mov	eax, -858993460				; ccccccccH
	rep stosd

; 762  : 		_Al.destroy(_Ptr);

	mov	eax, DWORD PTR __Ptr$[ebp]
	push	eax
	mov	ecx, DWORD PTR __Al$[ebp]
	call	??$destroy@UTile@@@?$allocator@UTile@@@std@@QAEXPAUTile@@@Z ; std::allocator<Tile>::destroy<Tile>

; 763  : 		}

	pop	edi
	pop	esi
	pop	ebx
	add	esp, 192				; 000000c0H
	cmp	ebp, esp
	call	__RTC_CheckEsp
	mov	esp, ebp
	pop	ebp
	ret	0
??$destroy@UTile@@@?$allocator_traits@V?$allocator@UTile@@@std@@@std@@SAXAAV?$allocator@UTile@@@1@PAUTile@@@Z ENDP ; std::allocator_traits<std::allocator<Tile> >::destroy<Tile>
_TEXT	ENDS
; Function compile flags: /Odtp /RTCsu /ZI
; File c:\program files (x86)\microsoft visual studio 14.0\vc\include\xstddef
;	COMDAT ??$_Addressof@UTile@@@std@@YAPAUTile@@AAU1@U?$integral_constant@_N$0A@@0@@Z
_TEXT	SEGMENT
__Val$ = 8						; size = 4
___formal$ = 12						; size = 1
??$_Addressof@UTile@@@std@@YAPAUTile@@AAU1@U?$integral_constant@_N$0A@@0@@Z PROC ; std::_Addressof<Tile>, COMDAT

; 707  : 	{	// return address of object _Val

	push	ebp
	mov	ebp, esp
	sub	esp, 192				; 000000c0H
	push	ebx
	push	esi
	push	edi
	lea	edi, DWORD PTR [ebp-192]
	mov	ecx, 48					; 00000030H
	mov	eax, -858993460				; ccccccccH
	rep stosd

; 708  : 	return (reinterpret_cast<_Ty *>(

	mov	eax, DWORD PTR __Val$[ebp]

; 709  : 		&const_cast<char&>(
; 710  : 		reinterpret_cast<const volatile char&>(_Val))));
; 711  : 	}

	pop	edi
	pop	esi
	pop	ebx
	mov	esp, ebp
	pop	ebp
	ret	0
??$_Addressof@UTile@@@std@@YAPAUTile@@AAU1@U?$integral_constant@_N$0A@@0@@Z ENDP ; std::_Addressof<Tile>
_TEXT	ENDS
; Function compile flags: /Odtp /RTCsu /ZI
; File c:\program files (x86)\microsoft visual studio 14.0\vc\include\xutility
;	COMDAT ??$_Rechecked@PAUTile@@PAU1@@std@@YAAAPAUTile@@AAPAU1@PAU1@@Z
_TEXT	SEGMENT
__Dest$ = 8						; size = 4
__Src$ = 12						; size = 4
??$_Rechecked@PAUTile@@PAU1@@std@@YAAAPAUTile@@AAPAU1@PAU1@@Z PROC ; std::_Rechecked<Tile *,Tile *>, COMDAT

; 465  : 	{	// reset checked from unchecked, generic

	push	ebp
	mov	ebp, esp
	sub	esp, 192				; 000000c0H
	push	ebx
	push	esi
	push	edi
	lea	edi, DWORD PTR [ebp-192]
	mov	ecx, 48					; 00000030H
	mov	eax, -858993460				; ccccccccH
	rep stosd

; 466  : 	_Dest = _Src;

	mov	eax, DWORD PTR __Dest$[ebp]
	mov	ecx, DWORD PTR __Src$[ebp]
	mov	DWORD PTR [eax], ecx

; 467  : 	return (_Dest);

	mov	eax, DWORD PTR __Dest$[ebp]

; 468  : 	}

	pop	edi
	pop	esi
	pop	ebx
	mov	esp, ebp
	pop	ebp
	ret	0
??$_Rechecked@PAUTile@@PAU1@@std@@YAAAPAUTile@@AAPAU1@PAU1@@Z ENDP ; std::_Rechecked<Tile *,Tile *>
_TEXT	ENDS
; Function compile flags: /Odtp /RTCsu /ZI
; File c:\program files (x86)\microsoft visual studio 14.0\vc\include\xmemory
;	COMDAT ??$_Uninitialized_move_al_unchecked@PAUTile@@PAU1@U?$_Wrap_alloc@V?$allocator@UTile@@@std@@@std@@@std@@YAPAUTile@@PAU1@00AAU?$_Wrap_alloc@V?$allocator@UTile@@@std@@@0@@Z
_TEXT	SEGMENT
$T1 = -209						; size = 1
$T2 = -197						; size = 1
__First$ = 8						; size = 4
__Last$ = 12						; size = 4
__Dest$ = 16						; size = 4
__Al$ = 20						; size = 4
??$_Uninitialized_move_al_unchecked@PAUTile@@PAU1@U?$_Wrap_alloc@V?$allocator@UTile@@@std@@@std@@@std@@YAPAUTile@@PAU1@00AAU?$_Wrap_alloc@V?$allocator@UTile@@@std@@@0@@Z PROC ; std::_Uninitialized_move_al_unchecked<Tile *,Tile *,std::_Wrap_alloc<std::allocator<Tile> > >, COMDAT

; 345  : 	{	// move [_First, _Last) to raw _Dest, using _Al, choose optimization

	push	ebp
	mov	ebp, esp
	sub	esp, 216				; 000000d8H
	push	ebx
	push	esi
	push	edi
	lea	edi, DWORD PTR [ebp-216]
	mov	ecx, 54					; 00000036H
	mov	eax, -858993460				; ccccccccH
	rep stosd

; 346  : 	return (_Uninitialized_move_al_unchecked1(_First, _Last, _Dest, _Al,

	lea	eax, DWORD PTR __Dest$[ebp]
	push	eax
	lea	ecx, DWORD PTR __First$[ebp]
	push	ecx
	lea	edx, DWORD PTR $T2[ebp]
	push	edx
	call	??$_Ptr_move_cat@UTile@@U1@@std@@YA?AU_Trivially_copyable_ptr_iterator_tag@0@ABQAUTile@@0@Z ; std::_Ptr_move_cat<Tile,Tile>
	add	esp, 12					; 0000000cH
	movzx	eax, BYTE PTR $T1[ebp]
	push	eax
	mov	ecx, DWORD PTR __Al$[ebp]
	push	ecx
	mov	edx, DWORD PTR __Dest$[ebp]
	push	edx
	mov	eax, DWORD PTR __Last$[ebp]
	push	eax
	mov	ecx, DWORD PTR __First$[ebp]
	push	ecx
	call	??$_Uninitialized_move_al_unchecked1@PAUTile@@PAU1@V?$allocator@UTile@@@std@@@std@@YAPAUTile@@PAU1@00AAU?$_Wrap_alloc@V?$allocator@UTile@@@std@@@0@U_General_ptr_iterator_tag@0@@Z ; std::_Uninitialized_move_al_unchecked1<Tile *,Tile *,std::allocator<Tile> >
	add	esp, 20					; 00000014H

; 347  : 		_Ptr_move_cat(_First, _Dest)));
; 348  : 	}

	pop	edi
	pop	esi
	pop	ebx
	add	esp, 216				; 000000d8H
	cmp	ebp, esp
	call	__RTC_CheckEsp
	mov	esp, ebp
	pop	ebp
	ret	0
??$_Uninitialized_move_al_unchecked@PAUTile@@PAU1@U?$_Wrap_alloc@V?$allocator@UTile@@@std@@@std@@@std@@YAPAUTile@@PAU1@00AAU?$_Wrap_alloc@V?$allocator@UTile@@@std@@@0@@Z ENDP ; std::_Uninitialized_move_al_unchecked<Tile *,Tile *,std::_Wrap_alloc<std::allocator<Tile> > >
_TEXT	ENDS
; Function compile flags: /Odtp /RTCsu /ZI
; File c:\program files (x86)\microsoft visual studio 14.0\vc\include\xutility
;	COMDAT ??$_Unchecked@PAUTile@@@std@@YAPAUTile@@PAU1@@Z
_TEXT	SEGMENT
__Src$ = 8						; size = 4
??$_Unchecked@PAUTile@@@std@@YAPAUTile@@PAU1@@Z PROC	; std::_Unchecked<Tile *>, COMDAT

; 438  : 	{	// construct unchecked from checked, generic

	push	ebp
	mov	ebp, esp
	sub	esp, 192				; 000000c0H
	push	ebx
	push	esi
	push	edi
	lea	edi, DWORD PTR [ebp-192]
	mov	ecx, 48					; 00000030H
	mov	eax, -858993460				; ccccccccH
	rep stosd

; 439  : 	return (_Src);

	mov	eax, DWORD PTR __Src$[ebp]

; 440  : 	}

	pop	edi
	pop	esi
	pop	ebx
	mov	esp, ebp
	pop	ebp
	ret	0
??$_Unchecked@PAUTile@@@std@@YAPAUTile@@PAU1@@Z ENDP	; std::_Unchecked<Tile *>
_TEXT	ENDS
; Function compile flags: /Odtp /RTCsu /ZI
; File c:\program files (x86)\microsoft visual studio 14.0\vc\include\xmemory0
;	COMDAT ??$destroy@UMovingTile@@@?$allocator_traits@V?$allocator@UMovingTile@@@std@@@std@@SAXAAV?$allocator@UMovingTile@@@1@PAUMovingTile@@@Z
_TEXT	SEGMENT
__Al$ = 8						; size = 4
__Ptr$ = 12						; size = 4
??$destroy@UMovingTile@@@?$allocator_traits@V?$allocator@UMovingTile@@@std@@@std@@SAXAAV?$allocator@UMovingTile@@@1@PAUMovingTile@@@Z PROC ; std::allocator_traits<std::allocator<MovingTile> >::destroy<MovingTile>, COMDAT

; 761  : 		{	// destroy object at _Ptr

	push	ebp
	mov	ebp, esp
	sub	esp, 192				; 000000c0H
	push	ebx
	push	esi
	push	edi
	lea	edi, DWORD PTR [ebp-192]
	mov	ecx, 48					; 00000030H
	mov	eax, -858993460				; ccccccccH
	rep stosd

; 762  : 		_Al.destroy(_Ptr);

	mov	eax, DWORD PTR __Ptr$[ebp]
	push	eax
	mov	ecx, DWORD PTR __Al$[ebp]
	call	??$destroy@UMovingTile@@@?$allocator@UMovingTile@@@std@@QAEXPAUMovingTile@@@Z ; std::allocator<MovingTile>::destroy<MovingTile>

; 763  : 		}

	pop	edi
	pop	esi
	pop	ebx
	add	esp, 192				; 000000c0H
	cmp	ebp, esp
	call	__RTC_CheckEsp
	mov	esp, ebp
	pop	ebp
	ret	0
??$destroy@UMovingTile@@@?$allocator_traits@V?$allocator@UMovingTile@@@std@@@std@@SAXAAV?$allocator@UMovingTile@@@1@PAUMovingTile@@@Z ENDP ; std::allocator_traits<std::allocator<MovingTile> >::destroy<MovingTile>
_TEXT	ENDS
; Function compile flags: /Odtp /RTCsu /ZI
; File c:\program files (x86)\microsoft visual studio 14.0\vc\include\xstddef
;	COMDAT ??$_Addressof@UMovingTile@@@std@@YAPAUMovingTile@@AAU1@U?$integral_constant@_N$0A@@0@@Z
_TEXT	SEGMENT
__Val$ = 8						; size = 4
___formal$ = 12						; size = 1
??$_Addressof@UMovingTile@@@std@@YAPAUMovingTile@@AAU1@U?$integral_constant@_N$0A@@0@@Z PROC ; std::_Addressof<MovingTile>, COMDAT

; 707  : 	{	// return address of object _Val

	push	ebp
	mov	ebp, esp
	sub	esp, 192				; 000000c0H
	push	ebx
	push	esi
	push	edi
	lea	edi, DWORD PTR [ebp-192]
	mov	ecx, 48					; 00000030H
	mov	eax, -858993460				; ccccccccH
	rep stosd

; 708  : 	return (reinterpret_cast<_Ty *>(

	mov	eax, DWORD PTR __Val$[ebp]

; 709  : 		&const_cast<char&>(
; 710  : 		reinterpret_cast<const volatile char&>(_Val))));
; 711  : 	}

	pop	edi
	pop	esi
	pop	ebx
	mov	esp, ebp
	pop	ebp
	ret	0
??$_Addressof@UMovingTile@@@std@@YAPAUMovingTile@@AAU1@U?$integral_constant@_N$0A@@0@@Z ENDP ; std::_Addressof<MovingTile>
_TEXT	ENDS
; Function compile flags: /Odtp /RTCsu /ZI
; File c:\program files (x86)\microsoft visual studio 14.0\vc\include\xutility
;	COMDAT ??$_Rechecked@PAUMovingTile@@PAU1@@std@@YAAAPAUMovingTile@@AAPAU1@PAU1@@Z
_TEXT	SEGMENT
__Dest$ = 8						; size = 4
__Src$ = 12						; size = 4
??$_Rechecked@PAUMovingTile@@PAU1@@std@@YAAAPAUMovingTile@@AAPAU1@PAU1@@Z PROC ; std::_Rechecked<MovingTile *,MovingTile *>, COMDAT

; 465  : 	{	// reset checked from unchecked, generic

	push	ebp
	mov	ebp, esp
	sub	esp, 192				; 000000c0H
	push	ebx
	push	esi
	push	edi
	lea	edi, DWORD PTR [ebp-192]
	mov	ecx, 48					; 00000030H
	mov	eax, -858993460				; ccccccccH
	rep stosd

; 466  : 	_Dest = _Src;

	mov	eax, DWORD PTR __Dest$[ebp]
	mov	ecx, DWORD PTR __Src$[ebp]
	mov	DWORD PTR [eax], ecx

; 467  : 	return (_Dest);

	mov	eax, DWORD PTR __Dest$[ebp]

; 468  : 	}

	pop	edi
	pop	esi
	pop	ebx
	mov	esp, ebp
	pop	ebp
	ret	0
??$_Rechecked@PAUMovingTile@@PAU1@@std@@YAAAPAUMovingTile@@AAPAU1@PAU1@@Z ENDP ; std::_Rechecked<MovingTile *,MovingTile *>
_TEXT	ENDS
; Function compile flags: /Odtp /RTCsu /ZI
; File c:\program files (x86)\microsoft visual studio 14.0\vc\include\xmemory
;	COMDAT ??$_Uninitialized_move_al_unchecked@PAUMovingTile@@PAU1@U?$_Wrap_alloc@V?$allocator@UMovingTile@@@std@@@std@@@std@@YAPAUMovingTile@@PAU1@00AAU?$_Wrap_alloc@V?$allocator@UMovingTile@@@std@@@0@@Z
_TEXT	SEGMENT
$T1 = -209						; size = 1
$T2 = -197						; size = 1
__First$ = 8						; size = 4
__Last$ = 12						; size = 4
__Dest$ = 16						; size = 4
__Al$ = 20						; size = 4
??$_Uninitialized_move_al_unchecked@PAUMovingTile@@PAU1@U?$_Wrap_alloc@V?$allocator@UMovingTile@@@std@@@std@@@std@@YAPAUMovingTile@@PAU1@00AAU?$_Wrap_alloc@V?$allocator@UMovingTile@@@std@@@0@@Z PROC ; std::_Uninitialized_move_al_unchecked<MovingTile *,MovingTile *,std::_Wrap_alloc<std::allocator<MovingTile> > >, COMDAT

; 345  : 	{	// move [_First, _Last) to raw _Dest, using _Al, choose optimization

	push	ebp
	mov	ebp, esp
	sub	esp, 216				; 000000d8H
	push	ebx
	push	esi
	push	edi
	lea	edi, DWORD PTR [ebp-216]
	mov	ecx, 54					; 00000036H
	mov	eax, -858993460				; ccccccccH
	rep stosd

; 346  : 	return (_Uninitialized_move_al_unchecked1(_First, _Last, _Dest, _Al,

	lea	eax, DWORD PTR __Dest$[ebp]
	push	eax
	lea	ecx, DWORD PTR __First$[ebp]
	push	ecx
	lea	edx, DWORD PTR $T2[ebp]
	push	edx
	call	??$_Ptr_move_cat@UMovingTile@@U1@@std@@YA?AU_Trivially_copyable_ptr_iterator_tag@0@ABQAUMovingTile@@0@Z ; std::_Ptr_move_cat<MovingTile,MovingTile>
	add	esp, 12					; 0000000cH
	movzx	eax, BYTE PTR $T1[ebp]
	push	eax
	mov	ecx, DWORD PTR __Al$[ebp]
	push	ecx
	mov	edx, DWORD PTR __Dest$[ebp]
	push	edx
	mov	eax, DWORD PTR __Last$[ebp]
	push	eax
	mov	ecx, DWORD PTR __First$[ebp]
	push	ecx
	call	??$_Uninitialized_move_al_unchecked1@PAUMovingTile@@PAU1@V?$allocator@UMovingTile@@@std@@@std@@YAPAUMovingTile@@PAU1@00AAU?$_Wrap_alloc@V?$allocator@UMovingTile@@@std@@@0@U_General_ptr_iterator_tag@0@@Z ; std::_Uninitialized_move_al_unchecked1<MovingTile *,MovingTile *,std::allocator<MovingTile> >
	add	esp, 20					; 00000014H

; 347  : 		_Ptr_move_cat(_First, _Dest)));
; 348  : 	}

	pop	edi
	pop	esi
	pop	ebx
	add	esp, 216				; 000000d8H
	cmp	ebp, esp
	call	__RTC_CheckEsp
	mov	esp, ebp
	pop	ebp
	ret	0
??$_Uninitialized_move_al_unchecked@PAUMovingTile@@PAU1@U?$_Wrap_alloc@V?$allocator@UMovingTile@@@std@@@std@@@std@@YAPAUMovingTile@@PAU1@00AAU?$_Wrap_alloc@V?$allocator@UMovingTile@@@std@@@0@@Z ENDP ; std::_Uninitialized_move_al_unchecked<MovingTile *,MovingTile *,std::_Wrap_alloc<std::allocator<MovingTile> > >
_TEXT	ENDS
; Function compile flags: /Odtp /RTCsu /ZI
; File c:\program files (x86)\microsoft visual studio 14.0\vc\include\xutility
;	COMDAT ??$_Unchecked@PAUMovingTile@@@std@@YAPAUMovingTile@@PAU1@@Z
_TEXT	SEGMENT
__Src$ = 8						; size = 4
??$_Unchecked@PAUMovingTile@@@std@@YAPAUMovingTile@@PAU1@@Z PROC ; std::_Unchecked<MovingTile *>, COMDAT

; 438  : 	{	// construct unchecked from checked, generic

	push	ebp
	mov	ebp, esp
	sub	esp, 192				; 000000c0H
	push	ebx
	push	esi
	push	edi
	lea	edi, DWORD PTR [ebp-192]
	mov	ecx, 48					; 00000030H
	mov	eax, -858993460				; ccccccccH
	rep stosd

; 439  : 	return (_Src);

	mov	eax, DWORD PTR __Src$[ebp]

; 440  : 	}

	pop	edi
	pop	esi
	pop	ebx
	mov	esp, ebp
	pop	ebp
	ret	0
??$_Unchecked@PAUMovingTile@@@std@@YAPAUMovingTile@@PAU1@@Z ENDP ; std::_Unchecked<MovingTile *>
_TEXT	ENDS
; Function compile flags: /Odtp /RTCsu /ZI
; File c:\program files (x86)\microsoft visual studio 14.0\vc\include\xmemory0
;	COMDAT ??$construct@U_Container_proxy@std@@U12@@?$allocator@U_Container_proxy@std@@@std@@QAEXPAU_Container_proxy@1@$$QAU21@@Z
_TEXT	SEGMENT
tv74 = -220						; size = 4
$T1 = -212						; size = 4
_this$ = -8						; size = 4
__Ptr$ = 8						; size = 4
_<_Args_0>$ = 12					; size = 4
??$construct@U_Container_proxy@std@@U12@@?$allocator@U_Container_proxy@std@@@std@@QAEXPAU_Container_proxy@1@$$QAU21@@Z PROC ; std::allocator<std::_Container_proxy>::construct<std::_Container_proxy,std::_Container_proxy>, COMDAT
; _this$ = ecx

; 636  : 		{	// construct _Objty(_Types...) at _Ptr

	push	ebp
	mov	ebp, esp
	sub	esp, 220				; 000000dcH
	push	ebx
	push	esi
	push	edi
	push	ecx
	lea	edi, DWORD PTR [ebp-220]
	mov	ecx, 55					; 00000037H
	mov	eax, -858993460				; ccccccccH
	rep stosd
	pop	ecx
	mov	DWORD PTR _this$[ebp], ecx

; 637  : 		::new ((void *)_Ptr) _Objty(_STD forward<_Types>(_Args)...);

	mov	eax, DWORD PTR __Ptr$[ebp]
	push	eax
	push	8
	call	??2@YAPAXIPAX@Z				; operator new
	add	esp, 8
	mov	DWORD PTR $T1[ebp], eax
	cmp	DWORD PTR $T1[ebp], 0
	je	SHORT $LN3@construct
	mov	ecx, DWORD PTR _<_Args_0>$[ebp]
	push	ecx
	call	??$forward@U_Container_proxy@std@@@std@@YA$$QAU_Container_proxy@0@AAU10@@Z ; std::forward<std::_Container_proxy>
	add	esp, 4
	mov	edx, DWORD PTR [eax]
	mov	eax, DWORD PTR [eax+4]
	mov	ecx, DWORD PTR $T1[ebp]
	mov	DWORD PTR [ecx], edx
	mov	DWORD PTR [ecx+4], eax
	mov	edx, DWORD PTR $T1[ebp]
	mov	DWORD PTR tv74[ebp], edx
	jmp	SHORT $LN1@construct
$LN3@construct:
	mov	DWORD PTR tv74[ebp], 0
$LN1@construct:

; 638  : 		}

	pop	edi
	pop	esi
	pop	ebx
	add	esp, 220				; 000000dcH
	cmp	ebp, esp
	call	__RTC_CheckEsp
	mov	esp, ebp
	pop	ebp
	ret	8
??$construct@U_Container_proxy@std@@U12@@?$allocator@U_Container_proxy@std@@@std@@QAEXPAU_Container_proxy@1@$$QAU21@@Z ENDP ; std::allocator<std::_Container_proxy>::construct<std::_Container_proxy,std::_Container_proxy>
_TEXT	ENDS
; Function compile flags: /Odtp /RTCsu /ZI
; File c:\program files (x86)\microsoft visual studio 14.0\vc\include\xmemory0
;	COMDAT ??$destroy@U_Container_proxy@std@@@?$allocator@U_Container_proxy@std@@@std@@QAEXPAU_Container_proxy@1@@Z
_TEXT	SEGMENT
_this$ = -8						; size = 4
__Ptr$ = 8						; size = 4
??$destroy@U_Container_proxy@std@@@?$allocator@U_Container_proxy@std@@@std@@QAEXPAU_Container_proxy@1@@Z PROC ; std::allocator<std::_Container_proxy>::destroy<std::_Container_proxy>, COMDAT
; _this$ = ecx

; 643  : 		{	// destroy object at _Ptr

	push	ebp
	mov	ebp, esp
	sub	esp, 204				; 000000ccH
	push	ebx
	push	esi
	push	edi
	push	ecx
	lea	edi, DWORD PTR [ebp-204]
	mov	ecx, 51					; 00000033H
	mov	eax, -858993460				; ccccccccH
	rep stosd
	pop	ecx
	mov	DWORD PTR _this$[ebp], ecx

; 644  : 		_Ptr->~_Uty();
; 645  : 		}

	pop	edi
	pop	esi
	pop	ebx
	mov	esp, ebp
	pop	ebp
	ret	4
??$destroy@U_Container_proxy@std@@@?$allocator@U_Container_proxy@std@@@std@@QAEXPAU_Container_proxy@1@@Z ENDP ; std::allocator<std::_Container_proxy>::destroy<std::_Container_proxy>
_TEXT	ENDS
; Function compile flags: /Odtp /RTCsu /ZI
; File c:\program files (x86)\microsoft visual studio 14.0\vc\include\xmemory0
;	COMDAT ??$construct@UPushTile@@ABU1@@?$allocator@UPushTile@@@std@@QAEXPAUPushTile@@ABU2@@Z
_TEXT	SEGMENT
tv74 = -220						; size = 4
$T1 = -212						; size = 4
_this$ = -8						; size = 4
__Ptr$ = 8						; size = 4
_<_Args_0>$ = 12					; size = 4
??$construct@UPushTile@@ABU1@@?$allocator@UPushTile@@@std@@QAEXPAUPushTile@@ABU2@@Z PROC ; std::allocator<PushTile>::construct<PushTile,PushTile const &>, COMDAT
; _this$ = ecx

; 636  : 		{	// construct _Objty(_Types...) at _Ptr

	push	ebp
	mov	ebp, esp
	sub	esp, 220				; 000000dcH
	push	ebx
	push	esi
	push	edi
	push	ecx
	lea	edi, DWORD PTR [ebp-220]
	mov	ecx, 55					; 00000037H
	mov	eax, -858993460				; ccccccccH
	rep stosd
	pop	ecx
	mov	DWORD PTR _this$[ebp], ecx

; 637  : 		::new ((void *)_Ptr) _Objty(_STD forward<_Types>(_Args)...);

	mov	eax, DWORD PTR __Ptr$[ebp]
	push	eax
	push	48					; 00000030H
	call	??2@YAPAXIPAX@Z				; operator new
	add	esp, 8
	mov	DWORD PTR $T1[ebp], eax
	cmp	DWORD PTR $T1[ebp], 0
	je	SHORT $LN3@construct
	mov	ecx, DWORD PTR _<_Args_0>$[ebp]
	push	ecx
	call	??$forward@ABUPushTile@@@std@@YAABUPushTile@@ABU1@@Z ; std::forward<PushTile const &>
	add	esp, 4
	mov	ecx, 12					; 0000000cH
	mov	esi, eax
	mov	edi, DWORD PTR $T1[ebp]
	rep movsd
	mov	edx, DWORD PTR $T1[ebp]
	mov	DWORD PTR tv74[ebp], edx
	jmp	SHORT $LN1@construct
$LN3@construct:
	mov	DWORD PTR tv74[ebp], 0
$LN1@construct:

; 638  : 		}

	pop	edi
	pop	esi
	pop	ebx
	add	esp, 220				; 000000dcH
	cmp	ebp, esp
	call	__RTC_CheckEsp
	mov	esp, ebp
	pop	ebp
	ret	8
??$construct@UPushTile@@ABU1@@?$allocator@UPushTile@@@std@@QAEXPAUPushTile@@ABU2@@Z ENDP ; std::allocator<PushTile>::construct<PushTile,PushTile const &>
_TEXT	ENDS
; Function compile flags: /Odtp /RTCsu /ZI
; File c:\program files (x86)\microsoft visual studio 14.0\vc\include\xmemory0
;	COMDAT ??$construct@UPushTile@@AAU1@@?$allocator@UPushTile@@@std@@QAEXPAUPushTile@@AAU2@@Z
_TEXT	SEGMENT
tv74 = -220						; size = 4
$T1 = -212						; size = 4
_this$ = -8						; size = 4
__Ptr$ = 8						; size = 4
_<_Args_0>$ = 12					; size = 4
??$construct@UPushTile@@AAU1@@?$allocator@UPushTile@@@std@@QAEXPAUPushTile@@AAU2@@Z PROC ; std::allocator<PushTile>::construct<PushTile,PushTile &>, COMDAT
; _this$ = ecx

; 636  : 		{	// construct _Objty(_Types...) at _Ptr

	push	ebp
	mov	ebp, esp
	sub	esp, 220				; 000000dcH
	push	ebx
	push	esi
	push	edi
	push	ecx
	lea	edi, DWORD PTR [ebp-220]
	mov	ecx, 55					; 00000037H
	mov	eax, -858993460				; ccccccccH
	rep stosd
	pop	ecx
	mov	DWORD PTR _this$[ebp], ecx

; 637  : 		::new ((void *)_Ptr) _Objty(_STD forward<_Types>(_Args)...);

	mov	eax, DWORD PTR __Ptr$[ebp]
	push	eax
	push	48					; 00000030H
	call	??2@YAPAXIPAX@Z				; operator new
	add	esp, 8
	mov	DWORD PTR $T1[ebp], eax
	cmp	DWORD PTR $T1[ebp], 0
	je	SHORT $LN3@construct
	mov	ecx, DWORD PTR _<_Args_0>$[ebp]
	push	ecx
	call	??$forward@AAUPushTile@@@std@@YAAAUPushTile@@AAU1@@Z ; std::forward<PushTile &>
	add	esp, 4
	mov	ecx, 12					; 0000000cH
	mov	esi, eax
	mov	edi, DWORD PTR $T1[ebp]
	rep movsd
	mov	edx, DWORD PTR $T1[ebp]
	mov	DWORD PTR tv74[ebp], edx
	jmp	SHORT $LN1@construct
$LN3@construct:
	mov	DWORD PTR tv74[ebp], 0
$LN1@construct:

; 638  : 		}

	pop	edi
	pop	esi
	pop	ebx
	add	esp, 220				; 000000dcH
	cmp	ebp, esp
	call	__RTC_CheckEsp
	mov	esp, ebp
	pop	ebp
	ret	8
??$construct@UPushTile@@AAU1@@?$allocator@UPushTile@@@std@@QAEXPAUPushTile@@AAU2@@Z ENDP ; std::allocator<PushTile>::construct<PushTile,PushTile &>
_TEXT	ENDS
; Function compile flags: /Odtp /RTCsu /ZI
; File c:\program files (x86)\microsoft visual studio 14.0\vc\include\xmemory0
;	COMDAT ??$construct@UTile@@ABU1@@?$allocator@UTile@@@std@@QAEXPAUTile@@ABU2@@Z
_TEXT	SEGMENT
tv74 = -220						; size = 4
$T1 = -212						; size = 4
_this$ = -8						; size = 4
__Ptr$ = 8						; size = 4
_<_Args_0>$ = 12					; size = 4
??$construct@UTile@@ABU1@@?$allocator@UTile@@@std@@QAEXPAUTile@@ABU2@@Z PROC ; std::allocator<Tile>::construct<Tile,Tile const &>, COMDAT
; _this$ = ecx

; 636  : 		{	// construct _Objty(_Types...) at _Ptr

	push	ebp
	mov	ebp, esp
	sub	esp, 220				; 000000dcH
	push	ebx
	push	esi
	push	edi
	push	ecx
	lea	edi, DWORD PTR [ebp-220]
	mov	ecx, 55					; 00000037H
	mov	eax, -858993460				; ccccccccH
	rep stosd
	pop	ecx
	mov	DWORD PTR _this$[ebp], ecx

; 637  : 		::new ((void *)_Ptr) _Objty(_STD forward<_Types>(_Args)...);

	mov	eax, DWORD PTR __Ptr$[ebp]
	push	eax
	push	32					; 00000020H
	call	??2@YAPAXIPAX@Z				; operator new
	add	esp, 8
	mov	DWORD PTR $T1[ebp], eax
	cmp	DWORD PTR $T1[ebp], 0
	je	SHORT $LN3@construct
	mov	ecx, DWORD PTR _<_Args_0>$[ebp]
	push	ecx
	call	??$forward@ABUTile@@@std@@YAABUTile@@ABU1@@Z ; std::forward<Tile const &>
	add	esp, 4
	mov	ecx, 8
	mov	esi, eax
	mov	edi, DWORD PTR $T1[ebp]
	rep movsd
	mov	edx, DWORD PTR $T1[ebp]
	mov	DWORD PTR tv74[ebp], edx
	jmp	SHORT $LN1@construct
$LN3@construct:
	mov	DWORD PTR tv74[ebp], 0
$LN1@construct:

; 638  : 		}

	pop	edi
	pop	esi
	pop	ebx
	add	esp, 220				; 000000dcH
	cmp	ebp, esp
	call	__RTC_CheckEsp
	mov	esp, ebp
	pop	ebp
	ret	8
??$construct@UTile@@ABU1@@?$allocator@UTile@@@std@@QAEXPAUTile@@ABU2@@Z ENDP ; std::allocator<Tile>::construct<Tile,Tile const &>
_TEXT	ENDS
; Function compile flags: /Odtp /RTCsu /ZI
; File c:\program files (x86)\microsoft visual studio 14.0\vc\include\xmemory0
;	COMDAT ??$construct@UTile@@AAU1@@?$allocator@UTile@@@std@@QAEXPAUTile@@AAU2@@Z
_TEXT	SEGMENT
tv74 = -220						; size = 4
$T1 = -212						; size = 4
_this$ = -8						; size = 4
__Ptr$ = 8						; size = 4
_<_Args_0>$ = 12					; size = 4
??$construct@UTile@@AAU1@@?$allocator@UTile@@@std@@QAEXPAUTile@@AAU2@@Z PROC ; std::allocator<Tile>::construct<Tile,Tile &>, COMDAT
; _this$ = ecx

; 636  : 		{	// construct _Objty(_Types...) at _Ptr

	push	ebp
	mov	ebp, esp
	sub	esp, 220				; 000000dcH
	push	ebx
	push	esi
	push	edi
	push	ecx
	lea	edi, DWORD PTR [ebp-220]
	mov	ecx, 55					; 00000037H
	mov	eax, -858993460				; ccccccccH
	rep stosd
	pop	ecx
	mov	DWORD PTR _this$[ebp], ecx

; 637  : 		::new ((void *)_Ptr) _Objty(_STD forward<_Types>(_Args)...);

	mov	eax, DWORD PTR __Ptr$[ebp]
	push	eax
	push	32					; 00000020H
	call	??2@YAPAXIPAX@Z				; operator new
	add	esp, 8
	mov	DWORD PTR $T1[ebp], eax
	cmp	DWORD PTR $T1[ebp], 0
	je	SHORT $LN3@construct
	mov	ecx, DWORD PTR _<_Args_0>$[ebp]
	push	ecx
	call	??$forward@AAUTile@@@std@@YAAAUTile@@AAU1@@Z ; std::forward<Tile &>
	add	esp, 4
	mov	ecx, 8
	mov	esi, eax
	mov	edi, DWORD PTR $T1[ebp]
	rep movsd
	mov	edx, DWORD PTR $T1[ebp]
	mov	DWORD PTR tv74[ebp], edx
	jmp	SHORT $LN1@construct
$LN3@construct:
	mov	DWORD PTR tv74[ebp], 0
$LN1@construct:

; 638  : 		}

	pop	edi
	pop	esi
	pop	ebx
	add	esp, 220				; 000000dcH
	cmp	ebp, esp
	call	__RTC_CheckEsp
	mov	esp, ebp
	pop	ebp
	ret	8
??$construct@UTile@@AAU1@@?$allocator@UTile@@@std@@QAEXPAUTile@@AAU2@@Z ENDP ; std::allocator<Tile>::construct<Tile,Tile &>
_TEXT	ENDS
; Function compile flags: /Odtp /RTCsu /ZI
; File c:\program files (x86)\microsoft visual studio 14.0\vc\include\xmemory0
;	COMDAT ??$construct@UMovingTile@@ABU1@@?$allocator@UMovingTile@@@std@@QAEXPAUMovingTile@@ABU2@@Z
_TEXT	SEGMENT
tv74 = -220						; size = 4
$T1 = -212						; size = 4
_this$ = -8						; size = 4
__Ptr$ = 8						; size = 4
_<_Args_0>$ = 12					; size = 4
??$construct@UMovingTile@@ABU1@@?$allocator@UMovingTile@@@std@@QAEXPAUMovingTile@@ABU2@@Z PROC ; std::allocator<MovingTile>::construct<MovingTile,MovingTile const &>, COMDAT
; _this$ = ecx

; 636  : 		{	// construct _Objty(_Types...) at _Ptr

	push	ebp
	mov	ebp, esp
	sub	esp, 220				; 000000dcH
	push	ebx
	push	esi
	push	edi
	push	ecx
	lea	edi, DWORD PTR [ebp-220]
	mov	ecx, 55					; 00000037H
	mov	eax, -858993460				; ccccccccH
	rep stosd
	pop	ecx
	mov	DWORD PTR _this$[ebp], ecx

; 637  : 		::new ((void *)_Ptr) _Objty(_STD forward<_Types>(_Args)...);

	mov	eax, DWORD PTR __Ptr$[ebp]
	push	eax
	push	48					; 00000030H
	call	??2@YAPAXIPAX@Z				; operator new
	add	esp, 8
	mov	DWORD PTR $T1[ebp], eax
	cmp	DWORD PTR $T1[ebp], 0
	je	SHORT $LN3@construct
	mov	ecx, DWORD PTR _<_Args_0>$[ebp]
	push	ecx
	call	??$forward@ABUMovingTile@@@std@@YAABUMovingTile@@ABU1@@Z ; std::forward<MovingTile const &>
	add	esp, 4
	mov	ecx, 12					; 0000000cH
	mov	esi, eax
	mov	edi, DWORD PTR $T1[ebp]
	rep movsd
	mov	edx, DWORD PTR $T1[ebp]
	mov	DWORD PTR tv74[ebp], edx
	jmp	SHORT $LN1@construct
$LN3@construct:
	mov	DWORD PTR tv74[ebp], 0
$LN1@construct:

; 638  : 		}

	pop	edi
	pop	esi
	pop	ebx
	add	esp, 220				; 000000dcH
	cmp	ebp, esp
	call	__RTC_CheckEsp
	mov	esp, ebp
	pop	ebp
	ret	8
??$construct@UMovingTile@@ABU1@@?$allocator@UMovingTile@@@std@@QAEXPAUMovingTile@@ABU2@@Z ENDP ; std::allocator<MovingTile>::construct<MovingTile,MovingTile const &>
_TEXT	ENDS
; Function compile flags: /Odtp /RTCsu /ZI
; File c:\program files (x86)\microsoft visual studio 14.0\vc\include\xmemory0
;	COMDAT ??$construct@UMovingTile@@AAU1@@?$allocator@UMovingTile@@@std@@QAEXPAUMovingTile@@AAU2@@Z
_TEXT	SEGMENT
tv74 = -220						; size = 4
$T1 = -212						; size = 4
_this$ = -8						; size = 4
__Ptr$ = 8						; size = 4
_<_Args_0>$ = 12					; size = 4
??$construct@UMovingTile@@AAU1@@?$allocator@UMovingTile@@@std@@QAEXPAUMovingTile@@AAU2@@Z PROC ; std::allocator<MovingTile>::construct<MovingTile,MovingTile &>, COMDAT
; _this$ = ecx

; 636  : 		{	// construct _Objty(_Types...) at _Ptr

	push	ebp
	mov	ebp, esp
	sub	esp, 220				; 000000dcH
	push	ebx
	push	esi
	push	edi
	push	ecx
	lea	edi, DWORD PTR [ebp-220]
	mov	ecx, 55					; 00000037H
	mov	eax, -858993460				; ccccccccH
	rep stosd
	pop	ecx
	mov	DWORD PTR _this$[ebp], ecx

; 637  : 		::new ((void *)_Ptr) _Objty(_STD forward<_Types>(_Args)...);

	mov	eax, DWORD PTR __Ptr$[ebp]
	push	eax
	push	48					; 00000030H
	call	??2@YAPAXIPAX@Z				; operator new
	add	esp, 8
	mov	DWORD PTR $T1[ebp], eax
	cmp	DWORD PTR $T1[ebp], 0
	je	SHORT $LN3@construct
	mov	ecx, DWORD PTR _<_Args_0>$[ebp]
	push	ecx
	call	??$forward@AAUMovingTile@@@std@@YAAAUMovingTile@@AAU1@@Z ; std::forward<MovingTile &>
	add	esp, 4
	mov	ecx, 12					; 0000000cH
	mov	esi, eax
	mov	edi, DWORD PTR $T1[ebp]
	rep movsd
	mov	edx, DWORD PTR $T1[ebp]
	mov	DWORD PTR tv74[ebp], edx
	jmp	SHORT $LN1@construct
$LN3@construct:
	mov	DWORD PTR tv74[ebp], 0
$LN1@construct:

; 638  : 		}

	pop	edi
	pop	esi
	pop	ebx
	add	esp, 220				; 000000dcH
	cmp	ebp, esp
	call	__RTC_CheckEsp
	mov	esp, ebp
	pop	ebp
	ret	8
??$construct@UMovingTile@@AAU1@@?$allocator@UMovingTile@@@std@@QAEXPAUMovingTile@@AAU2@@Z ENDP ; std::allocator<MovingTile>::construct<MovingTile,MovingTile &>
_TEXT	ENDS
; Function compile flags: /Odtp /RTCsu /ZI
; File c:\program files (x86)\microsoft visual studio 14.0\vc\include\xmemory0
;	COMDAT ??$destroy@UPushTile@@@?$_Wrap_alloc@V?$allocator@UPushTile@@@std@@@std@@QAEXPAUPushTile@@@Z
_TEXT	SEGMENT
_this$ = -8						; size = 4
__Ptr$ = 8						; size = 4
??$destroy@UPushTile@@@?$_Wrap_alloc@V?$allocator@UPushTile@@@std@@@std@@QAEXPAUPushTile@@@Z PROC ; std::_Wrap_alloc<std::allocator<PushTile> >::destroy<PushTile>, COMDAT
; _this$ = ecx

; 900  : 		{	// destroy object at _Ptr

	push	ebp
	mov	ebp, esp
	sub	esp, 204				; 000000ccH
	push	ebx
	push	esi
	push	edi
	push	ecx
	lea	edi, DWORD PTR [ebp-204]
	mov	ecx, 51					; 00000033H
	mov	eax, -858993460				; ccccccccH
	rep stosd
	pop	ecx
	mov	DWORD PTR _this$[ebp], ecx

; 901  : 		_Mytraits::destroy(*this, _Ptr);

	mov	eax, DWORD PTR __Ptr$[ebp]
	push	eax
	mov	ecx, DWORD PTR _this$[ebp]
	push	ecx
	call	??$destroy@UPushTile@@@?$allocator_traits@V?$allocator@UPushTile@@@std@@@std@@SAXAAV?$allocator@UPushTile@@@1@PAUPushTile@@@Z ; std::allocator_traits<std::allocator<PushTile> >::destroy<PushTile>
	add	esp, 8

; 902  : 		}

	pop	edi
	pop	esi
	pop	ebx
	add	esp, 204				; 000000ccH
	cmp	ebp, esp
	call	__RTC_CheckEsp
	mov	esp, ebp
	pop	ebp
	ret	4
??$destroy@UPushTile@@@?$_Wrap_alloc@V?$allocator@UPushTile@@@std@@@std@@QAEXPAUPushTile@@@Z ENDP ; std::_Wrap_alloc<std::allocator<PushTile> >::destroy<PushTile>
_TEXT	ENDS
; Function compile flags: /Odtp /RTCsu /ZI
; File c:\program files (x86)\microsoft visual studio 14.0\vc\include\xstddef
;	COMDAT ??$addressof@UPushTile@@@std@@YAPAUPushTile@@AAU1@@Z
_TEXT	SEGMENT
$T1 = -209						; size = 1
__Val$ = 8						; size = 4
??$addressof@UPushTile@@@std@@YAPAUPushTile@@AAU1@@Z PROC ; std::addressof<PushTile>, COMDAT

; 715  : 	{	// return address of _Val

	push	ebp
	mov	ebp, esp
	sub	esp, 216				; 000000d8H
	push	ebx
	push	esi
	push	edi
	lea	edi, DWORD PTR [ebp-216]
	mov	ecx, 54					; 00000036H
	mov	eax, -858993460				; ccccccccH
	rep stosd

; 716  : 	return (_Addressof(_Val, is_function<_Ty>()));

	movzx	eax, BYTE PTR $T1[ebp]
	push	eax
	mov	ecx, DWORD PTR __Val$[ebp]
	push	ecx
	call	??$_Addressof@UPushTile@@@std@@YAPAUPushTile@@AAU1@U?$integral_constant@_N$0A@@0@@Z ; std::_Addressof<PushTile>
	add	esp, 8

; 717  : 	}

	pop	edi
	pop	esi
	pop	ebx
	add	esp, 216				; 000000d8H
	cmp	ebp, esp
	call	__RTC_CheckEsp
	mov	esp, ebp
	pop	ebp
	ret	0
??$addressof@UPushTile@@@std@@YAPAUPushTile@@AAU1@@Z ENDP ; std::addressof<PushTile>
_TEXT	ENDS
; Function compile flags: /Odtp /RTCsu /ZI
; File c:\program files (x86)\microsoft visual studio 14.0\vc\include\xmemory
;	COMDAT ??$_Uninitialized_move@PAUPushTile@@PAU1@U?$_Wrap_alloc@V?$allocator@UPushTile@@@std@@@std@@@std@@YAPAUPushTile@@PAU1@00AAU?$_Wrap_alloc@V?$allocator@UPushTile@@@std@@@0@@Z
_TEXT	SEGMENT
__First$ = 8						; size = 4
__Last$ = 12						; size = 4
__Dest$ = 16						; size = 4
__Al$ = 20						; size = 4
??$_Uninitialized_move@PAUPushTile@@PAU1@U?$_Wrap_alloc@V?$allocator@UPushTile@@@std@@@std@@@std@@YAPAUPushTile@@PAU1@00AAU?$_Wrap_alloc@V?$allocator@UPushTile@@@std@@@0@@Z PROC ; std::_Uninitialized_move<PushTile *,PushTile *,std::_Wrap_alloc<std::allocator<PushTile> > >, COMDAT

; 355  : 	{	// move [_First, _Last) to raw _Dest, using _Al

	push	ebp
	mov	ebp, esp
	sub	esp, 192				; 000000c0H
	push	ebx
	push	esi
	push	edi
	lea	edi, DWORD PTR [ebp-192]
	mov	ecx, 48					; 00000030H
	mov	eax, -858993460				; ccccccccH
	rep stosd

; 356  : 		// note: only called internally from elsewhere in the STL, debug checks
; 357  : 		// and deprecation warnings omitted
; 358  : 	return (_Rechecked(_Dest,

	mov	eax, DWORD PTR __Al$[ebp]
	push	eax
	mov	ecx, DWORD PTR __Dest$[ebp]
	push	ecx
	call	??$_Unchecked@PAUPushTile@@@std@@YAPAUPushTile@@PAU1@@Z ; std::_Unchecked<PushTile *>
	add	esp, 4
	push	eax
	mov	edx, DWORD PTR __Last$[ebp]
	push	edx
	call	??$_Unchecked@PAUPushTile@@@std@@YAPAUPushTile@@PAU1@@Z ; std::_Unchecked<PushTile *>
	add	esp, 4
	push	eax
	mov	eax, DWORD PTR __First$[ebp]
	push	eax
	call	??$_Unchecked@PAUPushTile@@@std@@YAPAUPushTile@@PAU1@@Z ; std::_Unchecked<PushTile *>
	add	esp, 4
	push	eax
	call	??$_Uninitialized_move_al_unchecked@PAUPushTile@@PAU1@U?$_Wrap_alloc@V?$allocator@UPushTile@@@std@@@std@@@std@@YAPAUPushTile@@PAU1@00AAU?$_Wrap_alloc@V?$allocator@UPushTile@@@std@@@0@@Z ; std::_Uninitialized_move_al_unchecked<PushTile *,PushTile *,std::_Wrap_alloc<std::allocator<PushTile> > >
	add	esp, 16					; 00000010H
	push	eax
	lea	ecx, DWORD PTR __Dest$[ebp]
	push	ecx
	call	??$_Rechecked@PAUPushTile@@PAU1@@std@@YAAAPAUPushTile@@AAPAU1@PAU1@@Z ; std::_Rechecked<PushTile *,PushTile *>
	add	esp, 8
	mov	eax, DWORD PTR [eax]

; 359  : 		_Uninitialized_move_al_unchecked(_Unchecked(_First), _Unchecked(_Last),
; 360  : 			_Unchecked(_Dest), _Al)));
; 361  : 	}

	pop	edi
	pop	esi
	pop	ebx
	add	esp, 192				; 000000c0H
	cmp	ebp, esp
	call	__RTC_CheckEsp
	mov	esp, ebp
	pop	ebp
	ret	0
??$_Uninitialized_move@PAUPushTile@@PAU1@U?$_Wrap_alloc@V?$allocator@UPushTile@@@std@@@std@@@std@@YAPAUPushTile@@PAU1@00AAU?$_Wrap_alloc@V?$allocator@UPushTile@@@std@@@0@@Z ENDP ; std::_Uninitialized_move<PushTile *,PushTile *,std::_Wrap_alloc<std::allocator<PushTile> > >
_TEXT	ENDS
; Function compile flags: /Odtp /RTCsu /ZI
; File c:\program files (x86)\microsoft visual studio 14.0\vc\include\xmemory0
;	COMDAT ??$?0UPushTile@@@?$allocator@U_Container_proxy@std@@@std@@QAE@ABV?$allocator@UPushTile@@@1@@Z
_TEXT	SEGMENT
_this$ = -8						; size = 4
___formal$ = 8						; size = 4
??$?0UPushTile@@@?$allocator@U_Container_proxy@std@@@std@@QAE@ABV?$allocator@UPushTile@@@1@@Z PROC ; std::allocator<std::_Container_proxy>::allocator<std::_Container_proxy><PushTile>, COMDAT
; _this$ = ecx

; 609  : 		{	// construct from a related allocator (do nothing)

	push	ebp
	mov	ebp, esp
	sub	esp, 204				; 000000ccH
	push	ebx
	push	esi
	push	edi
	push	ecx
	lea	edi, DWORD PTR [ebp-204]
	mov	ecx, 51					; 00000033H
	mov	eax, -858993460				; ccccccccH
	rep stosd
	pop	ecx
	mov	DWORD PTR _this$[ebp], ecx

; 610  : 		}

	mov	eax, DWORD PTR _this$[ebp]
	pop	edi
	pop	esi
	pop	ebx
	mov	esp, ebp
	pop	ebp
	ret	4
??$?0UPushTile@@@?$allocator@U_Container_proxy@std@@@std@@QAE@ABV?$allocator@UPushTile@@@1@@Z ENDP ; std::allocator<std::_Container_proxy>::allocator<std::_Container_proxy><PushTile>
_TEXT	ENDS
; Function compile flags: /Odtp /RTCsu /ZI
; File c:\program files (x86)\microsoft visual studio 14.0\vc\include\type_traits
;	COMDAT ??$forward@AAU?$_Wrap_alloc@V?$allocator@UPushTile@@@std@@@std@@@std@@YAAAU?$_Wrap_alloc@V?$allocator@UPushTile@@@std@@@0@AAU10@@Z
_TEXT	SEGMENT
__Arg$ = 8						; size = 4
??$forward@AAU?$_Wrap_alloc@V?$allocator@UPushTile@@@std@@@std@@@std@@YAAAU?$_Wrap_alloc@V?$allocator@UPushTile@@@std@@@0@AAU10@@Z PROC ; std::forward<std::_Wrap_alloc<std::allocator<PushTile> > &>, COMDAT

; 1298 : 	{	// forward an lvalue as either an lvalue or an rvalue

	push	ebp
	mov	ebp, esp
	sub	esp, 192				; 000000c0H
	push	ebx
	push	esi
	push	edi
	lea	edi, DWORD PTR [ebp-192]
	mov	ecx, 48					; 00000030H
	mov	eax, -858993460				; ccccccccH
	rep stosd

; 1299 : 	return (static_cast<_Ty&&>(_Arg));

	mov	eax, DWORD PTR __Arg$[ebp]

; 1300 : 	}

	pop	edi
	pop	esi
	pop	ebx
	mov	esp, ebp
	pop	ebp
	ret	0
??$forward@AAU?$_Wrap_alloc@V?$allocator@UPushTile@@@std@@@std@@@std@@YAAAU?$_Wrap_alloc@V?$allocator@UPushTile@@@std@@@0@AAU10@@Z ENDP ; std::forward<std::_Wrap_alloc<std::allocator<PushTile> > &>
_TEXT	ENDS
; Function compile flags: /Odtp /RTCsu /ZI
; File c:\program files (x86)\microsoft visual studio 14.0\vc\include\xmemory0
;	COMDAT ??$destroy@UTile@@@?$_Wrap_alloc@V?$allocator@UTile@@@std@@@std@@QAEXPAUTile@@@Z
_TEXT	SEGMENT
_this$ = -8						; size = 4
__Ptr$ = 8						; size = 4
??$destroy@UTile@@@?$_Wrap_alloc@V?$allocator@UTile@@@std@@@std@@QAEXPAUTile@@@Z PROC ; std::_Wrap_alloc<std::allocator<Tile> >::destroy<Tile>, COMDAT
; _this$ = ecx

; 900  : 		{	// destroy object at _Ptr

	push	ebp
	mov	ebp, esp
	sub	esp, 204				; 000000ccH
	push	ebx
	push	esi
	push	edi
	push	ecx
	lea	edi, DWORD PTR [ebp-204]
	mov	ecx, 51					; 00000033H
	mov	eax, -858993460				; ccccccccH
	rep stosd
	pop	ecx
	mov	DWORD PTR _this$[ebp], ecx

; 901  : 		_Mytraits::destroy(*this, _Ptr);

	mov	eax, DWORD PTR __Ptr$[ebp]
	push	eax
	mov	ecx, DWORD PTR _this$[ebp]
	push	ecx
	call	??$destroy@UTile@@@?$allocator_traits@V?$allocator@UTile@@@std@@@std@@SAXAAV?$allocator@UTile@@@1@PAUTile@@@Z ; std::allocator_traits<std::allocator<Tile> >::destroy<Tile>
	add	esp, 8

; 902  : 		}

	pop	edi
	pop	esi
	pop	ebx
	add	esp, 204				; 000000ccH
	cmp	ebp, esp
	call	__RTC_CheckEsp
	mov	esp, ebp
	pop	ebp
	ret	4
??$destroy@UTile@@@?$_Wrap_alloc@V?$allocator@UTile@@@std@@@std@@QAEXPAUTile@@@Z ENDP ; std::_Wrap_alloc<std::allocator<Tile> >::destroy<Tile>
_TEXT	ENDS
; Function compile flags: /Odtp /RTCsu /ZI
; File c:\program files (x86)\microsoft visual studio 14.0\vc\include\xstddef
;	COMDAT ??$addressof@UTile@@@std@@YAPAUTile@@AAU1@@Z
_TEXT	SEGMENT
$T1 = -209						; size = 1
__Val$ = 8						; size = 4
??$addressof@UTile@@@std@@YAPAUTile@@AAU1@@Z PROC	; std::addressof<Tile>, COMDAT

; 715  : 	{	// return address of _Val

	push	ebp
	mov	ebp, esp
	sub	esp, 216				; 000000d8H
	push	ebx
	push	esi
	push	edi
	lea	edi, DWORD PTR [ebp-216]
	mov	ecx, 54					; 00000036H
	mov	eax, -858993460				; ccccccccH
	rep stosd

; 716  : 	return (_Addressof(_Val, is_function<_Ty>()));

	movzx	eax, BYTE PTR $T1[ebp]
	push	eax
	mov	ecx, DWORD PTR __Val$[ebp]
	push	ecx
	call	??$_Addressof@UTile@@@std@@YAPAUTile@@AAU1@U?$integral_constant@_N$0A@@0@@Z ; std::_Addressof<Tile>
	add	esp, 8

; 717  : 	}

	pop	edi
	pop	esi
	pop	ebx
	add	esp, 216				; 000000d8H
	cmp	ebp, esp
	call	__RTC_CheckEsp
	mov	esp, ebp
	pop	ebp
	ret	0
??$addressof@UTile@@@std@@YAPAUTile@@AAU1@@Z ENDP	; std::addressof<Tile>
_TEXT	ENDS
; Function compile flags: /Odtp /RTCsu /ZI
; File c:\program files (x86)\microsoft visual studio 14.0\vc\include\xmemory
;	COMDAT ??$_Uninitialized_move@PAUTile@@PAU1@U?$_Wrap_alloc@V?$allocator@UTile@@@std@@@std@@@std@@YAPAUTile@@PAU1@00AAU?$_Wrap_alloc@V?$allocator@UTile@@@std@@@0@@Z
_TEXT	SEGMENT
__First$ = 8						; size = 4
__Last$ = 12						; size = 4
__Dest$ = 16						; size = 4
__Al$ = 20						; size = 4
??$_Uninitialized_move@PAUTile@@PAU1@U?$_Wrap_alloc@V?$allocator@UTile@@@std@@@std@@@std@@YAPAUTile@@PAU1@00AAU?$_Wrap_alloc@V?$allocator@UTile@@@std@@@0@@Z PROC ; std::_Uninitialized_move<Tile *,Tile *,std::_Wrap_alloc<std::allocator<Tile> > >, COMDAT

; 355  : 	{	// move [_First, _Last) to raw _Dest, using _Al

	push	ebp
	mov	ebp, esp
	sub	esp, 192				; 000000c0H
	push	ebx
	push	esi
	push	edi
	lea	edi, DWORD PTR [ebp-192]
	mov	ecx, 48					; 00000030H
	mov	eax, -858993460				; ccccccccH
	rep stosd

; 356  : 		// note: only called internally from elsewhere in the STL, debug checks
; 357  : 		// and deprecation warnings omitted
; 358  : 	return (_Rechecked(_Dest,

	mov	eax, DWORD PTR __Al$[ebp]
	push	eax
	mov	ecx, DWORD PTR __Dest$[ebp]
	push	ecx
	call	??$_Unchecked@PAUTile@@@std@@YAPAUTile@@PAU1@@Z ; std::_Unchecked<Tile *>
	add	esp, 4
	push	eax
	mov	edx, DWORD PTR __Last$[ebp]
	push	edx
	call	??$_Unchecked@PAUTile@@@std@@YAPAUTile@@PAU1@@Z ; std::_Unchecked<Tile *>
	add	esp, 4
	push	eax
	mov	eax, DWORD PTR __First$[ebp]
	push	eax
	call	??$_Unchecked@PAUTile@@@std@@YAPAUTile@@PAU1@@Z ; std::_Unchecked<Tile *>
	add	esp, 4
	push	eax
	call	??$_Uninitialized_move_al_unchecked@PAUTile@@PAU1@U?$_Wrap_alloc@V?$allocator@UTile@@@std@@@std@@@std@@YAPAUTile@@PAU1@00AAU?$_Wrap_alloc@V?$allocator@UTile@@@std@@@0@@Z ; std::_Uninitialized_move_al_unchecked<Tile *,Tile *,std::_Wrap_alloc<std::allocator<Tile> > >
	add	esp, 16					; 00000010H
	push	eax
	lea	ecx, DWORD PTR __Dest$[ebp]
	push	ecx
	call	??$_Rechecked@PAUTile@@PAU1@@std@@YAAAPAUTile@@AAPAU1@PAU1@@Z ; std::_Rechecked<Tile *,Tile *>
	add	esp, 8
	mov	eax, DWORD PTR [eax]

; 359  : 		_Uninitialized_move_al_unchecked(_Unchecked(_First), _Unchecked(_Last),
; 360  : 			_Unchecked(_Dest), _Al)));
; 361  : 	}

	pop	edi
	pop	esi
	pop	ebx
	add	esp, 192				; 000000c0H
	cmp	ebp, esp
	call	__RTC_CheckEsp
	mov	esp, ebp
	pop	ebp
	ret	0
??$_Uninitialized_move@PAUTile@@PAU1@U?$_Wrap_alloc@V?$allocator@UTile@@@std@@@std@@@std@@YAPAUTile@@PAU1@00AAU?$_Wrap_alloc@V?$allocator@UTile@@@std@@@0@@Z ENDP ; std::_Uninitialized_move<Tile *,Tile *,std::_Wrap_alloc<std::allocator<Tile> > >
_TEXT	ENDS
; Function compile flags: /Odtp /RTCsu /ZI
; File c:\program files (x86)\microsoft visual studio 14.0\vc\include\xmemory0
;	COMDAT ??$destroy@UMovingTile@@@?$_Wrap_alloc@V?$allocator@UMovingTile@@@std@@@std@@QAEXPAUMovingTile@@@Z
_TEXT	SEGMENT
_this$ = -8						; size = 4
__Ptr$ = 8						; size = 4
??$destroy@UMovingTile@@@?$_Wrap_alloc@V?$allocator@UMovingTile@@@std@@@std@@QAEXPAUMovingTile@@@Z PROC ; std::_Wrap_alloc<std::allocator<MovingTile> >::destroy<MovingTile>, COMDAT
; _this$ = ecx

; 900  : 		{	// destroy object at _Ptr

	push	ebp
	mov	ebp, esp
	sub	esp, 204				; 000000ccH
	push	ebx
	push	esi
	push	edi
	push	ecx
	lea	edi, DWORD PTR [ebp-204]
	mov	ecx, 51					; 00000033H
	mov	eax, -858993460				; ccccccccH
	rep stosd
	pop	ecx
	mov	DWORD PTR _this$[ebp], ecx

; 901  : 		_Mytraits::destroy(*this, _Ptr);

	mov	eax, DWORD PTR __Ptr$[ebp]
	push	eax
	mov	ecx, DWORD PTR _this$[ebp]
	push	ecx
	call	??$destroy@UMovingTile@@@?$allocator_traits@V?$allocator@UMovingTile@@@std@@@std@@SAXAAV?$allocator@UMovingTile@@@1@PAUMovingTile@@@Z ; std::allocator_traits<std::allocator<MovingTile> >::destroy<MovingTile>
	add	esp, 8

; 902  : 		}

	pop	edi
	pop	esi
	pop	ebx
	add	esp, 204				; 000000ccH
	cmp	ebp, esp
	call	__RTC_CheckEsp
	mov	esp, ebp
	pop	ebp
	ret	4
??$destroy@UMovingTile@@@?$_Wrap_alloc@V?$allocator@UMovingTile@@@std@@@std@@QAEXPAUMovingTile@@@Z ENDP ; std::_Wrap_alloc<std::allocator<MovingTile> >::destroy<MovingTile>
_TEXT	ENDS
; Function compile flags: /Odtp /RTCsu /ZI
; File c:\program files (x86)\microsoft visual studio 14.0\vc\include\xstddef
;	COMDAT ??$addressof@UMovingTile@@@std@@YAPAUMovingTile@@AAU1@@Z
_TEXT	SEGMENT
$T1 = -209						; size = 1
__Val$ = 8						; size = 4
??$addressof@UMovingTile@@@std@@YAPAUMovingTile@@AAU1@@Z PROC ; std::addressof<MovingTile>, COMDAT

; 715  : 	{	// return address of _Val

	push	ebp
	mov	ebp, esp
	sub	esp, 216				; 000000d8H
	push	ebx
	push	esi
	push	edi
	lea	edi, DWORD PTR [ebp-216]
	mov	ecx, 54					; 00000036H
	mov	eax, -858993460				; ccccccccH
	rep stosd

; 716  : 	return (_Addressof(_Val, is_function<_Ty>()));

	movzx	eax, BYTE PTR $T1[ebp]
	push	eax
	mov	ecx, DWORD PTR __Val$[ebp]
	push	ecx
	call	??$_Addressof@UMovingTile@@@std@@YAPAUMovingTile@@AAU1@U?$integral_constant@_N$0A@@0@@Z ; std::_Addressof<MovingTile>
	add	esp, 8

; 717  : 	}

	pop	edi
	pop	esi
	pop	ebx
	add	esp, 216				; 000000d8H
	cmp	ebp, esp
	call	__RTC_CheckEsp
	mov	esp, ebp
	pop	ebp
	ret	0
??$addressof@UMovingTile@@@std@@YAPAUMovingTile@@AAU1@@Z ENDP ; std::addressof<MovingTile>
_TEXT	ENDS
; Function compile flags: /Odtp /RTCsu /ZI
; File c:\program files (x86)\microsoft visual studio 14.0\vc\include\xmemory
;	COMDAT ??$_Uninitialized_move@PAUMovingTile@@PAU1@U?$_Wrap_alloc@V?$allocator@UMovingTile@@@std@@@std@@@std@@YAPAUMovingTile@@PAU1@00AAU?$_Wrap_alloc@V?$allocator@UMovingTile@@@std@@@0@@Z
_TEXT	SEGMENT
__First$ = 8						; size = 4
__Last$ = 12						; size = 4
__Dest$ = 16						; size = 4
__Al$ = 20						; size = 4
??$_Uninitialized_move@PAUMovingTile@@PAU1@U?$_Wrap_alloc@V?$allocator@UMovingTile@@@std@@@std@@@std@@YAPAUMovingTile@@PAU1@00AAU?$_Wrap_alloc@V?$allocator@UMovingTile@@@std@@@0@@Z PROC ; std::_Uninitialized_move<MovingTile *,MovingTile *,std::_Wrap_alloc<std::allocator<MovingTile> > >, COMDAT

; 355  : 	{	// move [_First, _Last) to raw _Dest, using _Al

	push	ebp
	mov	ebp, esp
	sub	esp, 192				; 000000c0H
	push	ebx
	push	esi
	push	edi
	lea	edi, DWORD PTR [ebp-192]
	mov	ecx, 48					; 00000030H
	mov	eax, -858993460				; ccccccccH
	rep stosd

; 356  : 		// note: only called internally from elsewhere in the STL, debug checks
; 357  : 		// and deprecation warnings omitted
; 358  : 	return (_Rechecked(_Dest,

	mov	eax, DWORD PTR __Al$[ebp]
	push	eax
	mov	ecx, DWORD PTR __Dest$[ebp]
	push	ecx
	call	??$_Unchecked@PAUMovingTile@@@std@@YAPAUMovingTile@@PAU1@@Z ; std::_Unchecked<MovingTile *>
	add	esp, 4
	push	eax
	mov	edx, DWORD PTR __Last$[ebp]
	push	edx
	call	??$_Unchecked@PAUMovingTile@@@std@@YAPAUMovingTile@@PAU1@@Z ; std::_Unchecked<MovingTile *>
	add	esp, 4
	push	eax
	mov	eax, DWORD PTR __First$[ebp]
	push	eax
	call	??$_Unchecked@PAUMovingTile@@@std@@YAPAUMovingTile@@PAU1@@Z ; std::_Unchecked<MovingTile *>
	add	esp, 4
	push	eax
	call	??$_Uninitialized_move_al_unchecked@PAUMovingTile@@PAU1@U?$_Wrap_alloc@V?$allocator@UMovingTile@@@std@@@std@@@std@@YAPAUMovingTile@@PAU1@00AAU?$_Wrap_alloc@V?$allocator@UMovingTile@@@std@@@0@@Z ; std::_Uninitialized_move_al_unchecked<MovingTile *,MovingTile *,std::_Wrap_alloc<std::allocator<MovingTile> > >
	add	esp, 16					; 00000010H
	push	eax
	lea	ecx, DWORD PTR __Dest$[ebp]
	push	ecx
	call	??$_Rechecked@PAUMovingTile@@PAU1@@std@@YAAAPAUMovingTile@@AAPAU1@PAU1@@Z ; std::_Rechecked<MovingTile *,MovingTile *>
	add	esp, 8
	mov	eax, DWORD PTR [eax]

; 359  : 		_Uninitialized_move_al_unchecked(_Unchecked(_First), _Unchecked(_Last),
; 360  : 			_Unchecked(_Dest), _Al)));
; 361  : 	}

	pop	edi
	pop	esi
	pop	ebx
	add	esp, 192				; 000000c0H
	cmp	ebp, esp
	call	__RTC_CheckEsp
	mov	esp, ebp
	pop	ebp
	ret	0
??$_Uninitialized_move@PAUMovingTile@@PAU1@U?$_Wrap_alloc@V?$allocator@UMovingTile@@@std@@@std@@@std@@YAPAUMovingTile@@PAU1@00AAU?$_Wrap_alloc@V?$allocator@UMovingTile@@@std@@@0@@Z ENDP ; std::_Uninitialized_move<MovingTile *,MovingTile *,std::_Wrap_alloc<std::allocator<MovingTile> > >
_TEXT	ENDS
; Function compile flags: /Odtp /RTCsu /ZI
; File c:\program files (x86)\microsoft visual studio 14.0\vc\include\xmemory0
;	COMDAT ??$?0UTile@@@?$allocator@U_Container_proxy@std@@@std@@QAE@ABV?$allocator@UTile@@@1@@Z
_TEXT	SEGMENT
_this$ = -8						; size = 4
___formal$ = 8						; size = 4
??$?0UTile@@@?$allocator@U_Container_proxy@std@@@std@@QAE@ABV?$allocator@UTile@@@1@@Z PROC ; std::allocator<std::_Container_proxy>::allocator<std::_Container_proxy><Tile>, COMDAT
; _this$ = ecx

; 609  : 		{	// construct from a related allocator (do nothing)

	push	ebp
	mov	ebp, esp
	sub	esp, 204				; 000000ccH
	push	ebx
	push	esi
	push	edi
	push	ecx
	lea	edi, DWORD PTR [ebp-204]
	mov	ecx, 51					; 00000033H
	mov	eax, -858993460				; ccccccccH
	rep stosd
	pop	ecx
	mov	DWORD PTR _this$[ebp], ecx

; 610  : 		}

	mov	eax, DWORD PTR _this$[ebp]
	pop	edi
	pop	esi
	pop	ebx
	mov	esp, ebp
	pop	ebp
	ret	4
??$?0UTile@@@?$allocator@U_Container_proxy@std@@@std@@QAE@ABV?$allocator@UTile@@@1@@Z ENDP ; std::allocator<std::_Container_proxy>::allocator<std::_Container_proxy><Tile>
_TEXT	ENDS
; Function compile flags: /Odtp /RTCsu /ZI
; File c:\program files (x86)\microsoft visual studio 14.0\vc\include\type_traits
;	COMDAT ??$forward@AAU?$_Wrap_alloc@V?$allocator@UTile@@@std@@@std@@@std@@YAAAU?$_Wrap_alloc@V?$allocator@UTile@@@std@@@0@AAU10@@Z
_TEXT	SEGMENT
__Arg$ = 8						; size = 4
??$forward@AAU?$_Wrap_alloc@V?$allocator@UTile@@@std@@@std@@@std@@YAAAU?$_Wrap_alloc@V?$allocator@UTile@@@std@@@0@AAU10@@Z PROC ; std::forward<std::_Wrap_alloc<std::allocator<Tile> > &>, COMDAT

; 1298 : 	{	// forward an lvalue as either an lvalue or an rvalue

	push	ebp
	mov	ebp, esp
	sub	esp, 192				; 000000c0H
	push	ebx
	push	esi
	push	edi
	lea	edi, DWORD PTR [ebp-192]
	mov	ecx, 48					; 00000030H
	mov	eax, -858993460				; ccccccccH
	rep stosd

; 1299 : 	return (static_cast<_Ty&&>(_Arg));

	mov	eax, DWORD PTR __Arg$[ebp]

; 1300 : 	}

	pop	edi
	pop	esi
	pop	ebx
	mov	esp, ebp
	pop	ebp
	ret	0
??$forward@AAU?$_Wrap_alloc@V?$allocator@UTile@@@std@@@std@@@std@@YAAAU?$_Wrap_alloc@V?$allocator@UTile@@@std@@@0@AAU10@@Z ENDP ; std::forward<std::_Wrap_alloc<std::allocator<Tile> > &>
_TEXT	ENDS
; Function compile flags: /Odtp /RTCsu /ZI
; File c:\program files (x86)\microsoft visual studio 14.0\vc\include\xmemory0
;	COMDAT ??$construct@U_Container_proxy@std@@U12@@?$allocator_traits@V?$allocator@U_Container_proxy@std@@@std@@@std@@SAXAAV?$allocator@U_Container_proxy@std@@@1@PAU_Container_proxy@1@$$QAU31@@Z
_TEXT	SEGMENT
__Al$ = 8						; size = 4
__Ptr$ = 12						; size = 4
_<_Args_0>$ = 16					; size = 4
??$construct@U_Container_proxy@std@@U12@@?$allocator_traits@V?$allocator@U_Container_proxy@std@@@std@@@std@@SAXAAV?$allocator@U_Container_proxy@std@@@1@PAU_Container_proxy@1@$$QAU31@@Z PROC ; std::allocator_traits<std::allocator<std::_Container_proxy> >::construct<std::_Container_proxy,std::_Container_proxy>, COMDAT

; 754  : 		{	// construct _Objty(_Types...) at _Ptr

	push	ebp
	mov	ebp, esp
	sub	esp, 192				; 000000c0H
	push	ebx
	push	esi
	push	edi
	lea	edi, DWORD PTR [ebp-192]
	mov	ecx, 48					; 00000030H
	mov	eax, -858993460				; ccccccccH
	rep stosd

; 755  : 		_Al.construct(_Ptr, _STD forward<_Types>(_Args)...);

	mov	eax, DWORD PTR _<_Args_0>$[ebp]
	push	eax
	call	??$forward@U_Container_proxy@std@@@std@@YA$$QAU_Container_proxy@0@AAU10@@Z ; std::forward<std::_Container_proxy>
	add	esp, 4
	push	eax
	mov	ecx, DWORD PTR __Ptr$[ebp]
	push	ecx
	mov	ecx, DWORD PTR __Al$[ebp]
	call	??$construct@U_Container_proxy@std@@U12@@?$allocator@U_Container_proxy@std@@@std@@QAEXPAU_Container_proxy@1@$$QAU21@@Z ; std::allocator<std::_Container_proxy>::construct<std::_Container_proxy,std::_Container_proxy>

; 756  : 		}

	pop	edi
	pop	esi
	pop	ebx
	add	esp, 192				; 000000c0H
	cmp	ebp, esp
	call	__RTC_CheckEsp
	mov	esp, ebp
	pop	ebp
	ret	0
??$construct@U_Container_proxy@std@@U12@@?$allocator_traits@V?$allocator@U_Container_proxy@std@@@std@@@std@@SAXAAV?$allocator@U_Container_proxy@std@@@1@PAU_Container_proxy@1@$$QAU31@@Z ENDP ; std::allocator_traits<std::allocator<std::_Container_proxy> >::construct<std::_Container_proxy,std::_Container_proxy>
_TEXT	ENDS
; Function compile flags: /Odtp /RTCsu /ZI
; File c:\program files (x86)\microsoft visual studio 14.0\vc\include\type_traits
;	COMDAT ??$forward@U_Container_proxy@std@@@std@@YA$$QAU_Container_proxy@0@AAU10@@Z
_TEXT	SEGMENT
__Arg$ = 8						; size = 4
??$forward@U_Container_proxy@std@@@std@@YA$$QAU_Container_proxy@0@AAU10@@Z PROC ; std::forward<std::_Container_proxy>, COMDAT

; 1298 : 	{	// forward an lvalue as either an lvalue or an rvalue

	push	ebp
	mov	ebp, esp
	sub	esp, 192				; 000000c0H
	push	ebx
	push	esi
	push	edi
	lea	edi, DWORD PTR [ebp-192]
	mov	ecx, 48					; 00000030H
	mov	eax, -858993460				; ccccccccH
	rep stosd

; 1299 : 	return (static_cast<_Ty&&>(_Arg));

	mov	eax, DWORD PTR __Arg$[ebp]

; 1300 : 	}

	pop	edi
	pop	esi
	pop	ebx
	mov	esp, ebp
	pop	ebp
	ret	0
??$forward@U_Container_proxy@std@@@std@@YA$$QAU_Container_proxy@0@AAU10@@Z ENDP ; std::forward<std::_Container_proxy>
_TEXT	ENDS
; Function compile flags: /Odtp /RTCsu /ZI
; File c:\program files (x86)\microsoft visual studio 14.0\vc\include\xmemory0
;	COMDAT ??$destroy@U_Container_proxy@std@@@?$allocator_traits@V?$allocator@U_Container_proxy@std@@@std@@@std@@SAXAAV?$allocator@U_Container_proxy@std@@@1@PAU_Container_proxy@1@@Z
_TEXT	SEGMENT
__Al$ = 8						; size = 4
__Ptr$ = 12						; size = 4
??$destroy@U_Container_proxy@std@@@?$allocator_traits@V?$allocator@U_Container_proxy@std@@@std@@@std@@SAXAAV?$allocator@U_Container_proxy@std@@@1@PAU_Container_proxy@1@@Z PROC ; std::allocator_traits<std::allocator<std::_Container_proxy> >::destroy<std::_Container_proxy>, COMDAT

; 761  : 		{	// destroy object at _Ptr

	push	ebp
	mov	ebp, esp
	sub	esp, 192				; 000000c0H
	push	ebx
	push	esi
	push	edi
	lea	edi, DWORD PTR [ebp-192]
	mov	ecx, 48					; 00000030H
	mov	eax, -858993460				; ccccccccH
	rep stosd

; 762  : 		_Al.destroy(_Ptr);

	mov	eax, DWORD PTR __Ptr$[ebp]
	push	eax
	mov	ecx, DWORD PTR __Al$[ebp]
	call	??$destroy@U_Container_proxy@std@@@?$allocator@U_Container_proxy@std@@@std@@QAEXPAU_Container_proxy@1@@Z ; std::allocator<std::_Container_proxy>::destroy<std::_Container_proxy>

; 763  : 		}

	pop	edi
	pop	esi
	pop	ebx
	add	esp, 192				; 000000c0H
	cmp	ebp, esp
	call	__RTC_CheckEsp
	mov	esp, ebp
	pop	ebp
	ret	0
??$destroy@U_Container_proxy@std@@@?$allocator_traits@V?$allocator@U_Container_proxy@std@@@std@@@std@@SAXAAV?$allocator@U_Container_proxy@std@@@1@PAU_Container_proxy@1@@Z ENDP ; std::allocator_traits<std::allocator<std::_Container_proxy> >::destroy<std::_Container_proxy>
_TEXT	ENDS
; Function compile flags: /Odtp /RTCsu /ZI
; File c:\program files (x86)\microsoft visual studio 14.0\vc\include\xmemory0
;	COMDAT ??$?0UMovingTile@@@?$allocator@U_Container_proxy@std@@@std@@QAE@ABV?$allocator@UMovingTile@@@1@@Z
_TEXT	SEGMENT
_this$ = -8						; size = 4
___formal$ = 8						; size = 4
??$?0UMovingTile@@@?$allocator@U_Container_proxy@std@@@std@@QAE@ABV?$allocator@UMovingTile@@@1@@Z PROC ; std::allocator<std::_Container_proxy>::allocator<std::_Container_proxy><MovingTile>, COMDAT
; _this$ = ecx

; 609  : 		{	// construct from a related allocator (do nothing)

	push	ebp
	mov	ebp, esp
	sub	esp, 204				; 000000ccH
	push	ebx
	push	esi
	push	edi
	push	ecx
	lea	edi, DWORD PTR [ebp-204]
	mov	ecx, 51					; 00000033H
	mov	eax, -858993460				; ccccccccH
	rep stosd
	pop	ecx
	mov	DWORD PTR _this$[ebp], ecx

; 610  : 		}

	mov	eax, DWORD PTR _this$[ebp]
	pop	edi
	pop	esi
	pop	ebx
	mov	esp, ebp
	pop	ebp
	ret	4
??$?0UMovingTile@@@?$allocator@U_Container_proxy@std@@@std@@QAE@ABV?$allocator@UMovingTile@@@1@@Z ENDP ; std::allocator<std::_Container_proxy>::allocator<std::_Container_proxy><MovingTile>
_TEXT	ENDS
; Function compile flags: /Odtp /RTCsu /ZI
; File c:\program files (x86)\microsoft visual studio 14.0\vc\include\type_traits
;	COMDAT ??$forward@AAU?$_Wrap_alloc@V?$allocator@UMovingTile@@@std@@@std@@@std@@YAAAU?$_Wrap_alloc@V?$allocator@UMovingTile@@@std@@@0@AAU10@@Z
_TEXT	SEGMENT
__Arg$ = 8						; size = 4
??$forward@AAU?$_Wrap_alloc@V?$allocator@UMovingTile@@@std@@@std@@@std@@YAAAU?$_Wrap_alloc@V?$allocator@UMovingTile@@@std@@@0@AAU10@@Z PROC ; std::forward<std::_Wrap_alloc<std::allocator<MovingTile> > &>, COMDAT

; 1298 : 	{	// forward an lvalue as either an lvalue or an rvalue

	push	ebp
	mov	ebp, esp
	sub	esp, 192				; 000000c0H
	push	ebx
	push	esi
	push	edi
	lea	edi, DWORD PTR [ebp-192]
	mov	ecx, 48					; 00000030H
	mov	eax, -858993460				; ccccccccH
	rep stosd

; 1299 : 	return (static_cast<_Ty&&>(_Arg));

	mov	eax, DWORD PTR __Arg$[ebp]

; 1300 : 	}

	pop	edi
	pop	esi
	pop	ebx
	mov	esp, ebp
	pop	ebp
	ret	0
??$forward@AAU?$_Wrap_alloc@V?$allocator@UMovingTile@@@std@@@std@@@std@@YAAAU?$_Wrap_alloc@V?$allocator@UMovingTile@@@std@@@0@AAU10@@Z ENDP ; std::forward<std::_Wrap_alloc<std::allocator<MovingTile> > &>
_TEXT	ENDS
; Function compile flags: /Odtp /RTCsu /ZI
; File c:\program files (x86)\microsoft visual studio 14.0\vc\include\xmemory0
;	COMDAT ??$construct@UPushTile@@ABU1@@?$allocator_traits@V?$allocator@UPushTile@@@std@@@std@@SAXAAV?$allocator@UPushTile@@@1@PAUPushTile@@ABU3@@Z
_TEXT	SEGMENT
__Al$ = 8						; size = 4
__Ptr$ = 12						; size = 4
_<_Args_0>$ = 16					; size = 4
??$construct@UPushTile@@ABU1@@?$allocator_traits@V?$allocator@UPushTile@@@std@@@std@@SAXAAV?$allocator@UPushTile@@@1@PAUPushTile@@ABU3@@Z PROC ; std::allocator_traits<std::allocator<PushTile> >::construct<PushTile,PushTile const &>, COMDAT

; 754  : 		{	// construct _Objty(_Types...) at _Ptr

	push	ebp
	mov	ebp, esp
	sub	esp, 192				; 000000c0H
	push	ebx
	push	esi
	push	edi
	lea	edi, DWORD PTR [ebp-192]
	mov	ecx, 48					; 00000030H
	mov	eax, -858993460				; ccccccccH
	rep stosd

; 755  : 		_Al.construct(_Ptr, _STD forward<_Types>(_Args)...);

	mov	eax, DWORD PTR _<_Args_0>$[ebp]
	push	eax
	call	??$forward@ABUPushTile@@@std@@YAABUPushTile@@ABU1@@Z ; std::forward<PushTile const &>
	add	esp, 4
	push	eax
	mov	ecx, DWORD PTR __Ptr$[ebp]
	push	ecx
	mov	ecx, DWORD PTR __Al$[ebp]
	call	??$construct@UPushTile@@ABU1@@?$allocator@UPushTile@@@std@@QAEXPAUPushTile@@ABU2@@Z ; std::allocator<PushTile>::construct<PushTile,PushTile const &>

; 756  : 		}

	pop	edi
	pop	esi
	pop	ebx
	add	esp, 192				; 000000c0H
	cmp	ebp, esp
	call	__RTC_CheckEsp
	mov	esp, ebp
	pop	ebp
	ret	0
??$construct@UPushTile@@ABU1@@?$allocator_traits@V?$allocator@UPushTile@@@std@@@std@@SAXAAV?$allocator@UPushTile@@@1@PAUPushTile@@ABU3@@Z ENDP ; std::allocator_traits<std::allocator<PushTile> >::construct<PushTile,PushTile const &>
_TEXT	ENDS
; Function compile flags: /Odtp /RTCsu /ZI
; File c:\program files (x86)\microsoft visual studio 14.0\vc\include\type_traits
;	COMDAT ??$forward@ABUPushTile@@@std@@YAABUPushTile@@ABU1@@Z
_TEXT	SEGMENT
__Arg$ = 8						; size = 4
??$forward@ABUPushTile@@@std@@YAABUPushTile@@ABU1@@Z PROC ; std::forward<PushTile const &>, COMDAT

; 1298 : 	{	// forward an lvalue as either an lvalue or an rvalue

	push	ebp
	mov	ebp, esp
	sub	esp, 192				; 000000c0H
	push	ebx
	push	esi
	push	edi
	lea	edi, DWORD PTR [ebp-192]
	mov	ecx, 48					; 00000030H
	mov	eax, -858993460				; ccccccccH
	rep stosd

; 1299 : 	return (static_cast<_Ty&&>(_Arg));

	mov	eax, DWORD PTR __Arg$[ebp]

; 1300 : 	}

	pop	edi
	pop	esi
	pop	ebx
	mov	esp, ebp
	pop	ebp
	ret	0
??$forward@ABUPushTile@@@std@@YAABUPushTile@@ABU1@@Z ENDP ; std::forward<PushTile const &>
_TEXT	ENDS
; Function compile flags: /Odtp /RTCsu /ZI
; File c:\program files (x86)\microsoft visual studio 14.0\vc\include\xmemory0
;	COMDAT ??$construct@UPushTile@@AAU1@@?$allocator_traits@V?$allocator@UPushTile@@@std@@@std@@SAXAAV?$allocator@UPushTile@@@1@PAUPushTile@@AAU3@@Z
_TEXT	SEGMENT
__Al$ = 8						; size = 4
__Ptr$ = 12						; size = 4
_<_Args_0>$ = 16					; size = 4
??$construct@UPushTile@@AAU1@@?$allocator_traits@V?$allocator@UPushTile@@@std@@@std@@SAXAAV?$allocator@UPushTile@@@1@PAUPushTile@@AAU3@@Z PROC ; std::allocator_traits<std::allocator<PushTile> >::construct<PushTile,PushTile &>, COMDAT

; 754  : 		{	// construct _Objty(_Types...) at _Ptr

	push	ebp
	mov	ebp, esp
	sub	esp, 192				; 000000c0H
	push	ebx
	push	esi
	push	edi
	lea	edi, DWORD PTR [ebp-192]
	mov	ecx, 48					; 00000030H
	mov	eax, -858993460				; ccccccccH
	rep stosd

; 755  : 		_Al.construct(_Ptr, _STD forward<_Types>(_Args)...);

	mov	eax, DWORD PTR _<_Args_0>$[ebp]
	push	eax
	call	??$forward@AAUPushTile@@@std@@YAAAUPushTile@@AAU1@@Z ; std::forward<PushTile &>
	add	esp, 4
	push	eax
	mov	ecx, DWORD PTR __Ptr$[ebp]
	push	ecx
	mov	ecx, DWORD PTR __Al$[ebp]
	call	??$construct@UPushTile@@AAU1@@?$allocator@UPushTile@@@std@@QAEXPAUPushTile@@AAU2@@Z ; std::allocator<PushTile>::construct<PushTile,PushTile &>

; 756  : 		}

	pop	edi
	pop	esi
	pop	ebx
	add	esp, 192				; 000000c0H
	cmp	ebp, esp
	call	__RTC_CheckEsp
	mov	esp, ebp
	pop	ebp
	ret	0
??$construct@UPushTile@@AAU1@@?$allocator_traits@V?$allocator@UPushTile@@@std@@@std@@SAXAAV?$allocator@UPushTile@@@1@PAUPushTile@@AAU3@@Z ENDP ; std::allocator_traits<std::allocator<PushTile> >::construct<PushTile,PushTile &>
_TEXT	ENDS
; Function compile flags: /Odtp /RTCsu /ZI
; File c:\program files (x86)\microsoft visual studio 14.0\vc\include\type_traits
;	COMDAT ??$forward@AAUPushTile@@@std@@YAAAUPushTile@@AAU1@@Z
_TEXT	SEGMENT
__Arg$ = 8						; size = 4
??$forward@AAUPushTile@@@std@@YAAAUPushTile@@AAU1@@Z PROC ; std::forward<PushTile &>, COMDAT

; 1298 : 	{	// forward an lvalue as either an lvalue or an rvalue

	push	ebp
	mov	ebp, esp
	sub	esp, 192				; 000000c0H
	push	ebx
	push	esi
	push	edi
	lea	edi, DWORD PTR [ebp-192]
	mov	ecx, 48					; 00000030H
	mov	eax, -858993460				; ccccccccH
	rep stosd

; 1299 : 	return (static_cast<_Ty&&>(_Arg));

	mov	eax, DWORD PTR __Arg$[ebp]

; 1300 : 	}

	pop	edi
	pop	esi
	pop	ebx
	mov	esp, ebp
	pop	ebp
	ret	0
??$forward@AAUPushTile@@@std@@YAAAUPushTile@@AAU1@@Z ENDP ; std::forward<PushTile &>
_TEXT	ENDS
; Function compile flags: /Odtp /RTCsu /ZI
; File c:\program files (x86)\microsoft visual studio 14.0\vc\include\xstddef
;	COMDAT ??$_Addressof@$$CBUPushTile@@@std@@YAPBUPushTile@@ABU1@U?$integral_constant@_N$0A@@0@@Z
_TEXT	SEGMENT
__Val$ = 8						; size = 4
___formal$ = 12						; size = 1
??$_Addressof@$$CBUPushTile@@@std@@YAPBUPushTile@@ABU1@U?$integral_constant@_N$0A@@0@@Z PROC ; std::_Addressof<PushTile const >, COMDAT

; 707  : 	{	// return address of object _Val

	push	ebp
	mov	ebp, esp
	sub	esp, 192				; 000000c0H
	push	ebx
	push	esi
	push	edi
	lea	edi, DWORD PTR [ebp-192]
	mov	ecx, 48					; 00000030H
	mov	eax, -858993460				; ccccccccH
	rep stosd

; 708  : 	return (reinterpret_cast<_Ty *>(

	mov	eax, DWORD PTR __Val$[ebp]

; 709  : 		&const_cast<char&>(
; 710  : 		reinterpret_cast<const volatile char&>(_Val))));
; 711  : 	}

	pop	edi
	pop	esi
	pop	ebx
	mov	esp, ebp
	pop	ebp
	ret	0
??$_Addressof@$$CBUPushTile@@@std@@YAPBUPushTile@@ABU1@U?$integral_constant@_N$0A@@0@@Z ENDP ; std::_Addressof<PushTile const >
_TEXT	ENDS
; Function compile flags: /Odtp /RTCsu /ZI
; File c:\program files (x86)\microsoft visual studio 14.0\vc\include\xmemory0
;	COMDAT ??$construct@UTile@@ABU1@@?$allocator_traits@V?$allocator@UTile@@@std@@@std@@SAXAAV?$allocator@UTile@@@1@PAUTile@@ABU3@@Z
_TEXT	SEGMENT
__Al$ = 8						; size = 4
__Ptr$ = 12						; size = 4
_<_Args_0>$ = 16					; size = 4
??$construct@UTile@@ABU1@@?$allocator_traits@V?$allocator@UTile@@@std@@@std@@SAXAAV?$allocator@UTile@@@1@PAUTile@@ABU3@@Z PROC ; std::allocator_traits<std::allocator<Tile> >::construct<Tile,Tile const &>, COMDAT

; 754  : 		{	// construct _Objty(_Types...) at _Ptr

	push	ebp
	mov	ebp, esp
	sub	esp, 192				; 000000c0H
	push	ebx
	push	esi
	push	edi
	lea	edi, DWORD PTR [ebp-192]
	mov	ecx, 48					; 00000030H
	mov	eax, -858993460				; ccccccccH
	rep stosd

; 755  : 		_Al.construct(_Ptr, _STD forward<_Types>(_Args)...);

	mov	eax, DWORD PTR _<_Args_0>$[ebp]
	push	eax
	call	??$forward@ABUTile@@@std@@YAABUTile@@ABU1@@Z ; std::forward<Tile const &>
	add	esp, 4
	push	eax
	mov	ecx, DWORD PTR __Ptr$[ebp]
	push	ecx
	mov	ecx, DWORD PTR __Al$[ebp]
	call	??$construct@UTile@@ABU1@@?$allocator@UTile@@@std@@QAEXPAUTile@@ABU2@@Z ; std::allocator<Tile>::construct<Tile,Tile const &>

; 756  : 		}

	pop	edi
	pop	esi
	pop	ebx
	add	esp, 192				; 000000c0H
	cmp	ebp, esp
	call	__RTC_CheckEsp
	mov	esp, ebp
	pop	ebp
	ret	0
??$construct@UTile@@ABU1@@?$allocator_traits@V?$allocator@UTile@@@std@@@std@@SAXAAV?$allocator@UTile@@@1@PAUTile@@ABU3@@Z ENDP ; std::allocator_traits<std::allocator<Tile> >::construct<Tile,Tile const &>
_TEXT	ENDS
; Function compile flags: /Odtp /RTCsu /ZI
; File c:\program files (x86)\microsoft visual studio 14.0\vc\include\type_traits
;	COMDAT ??$forward@ABUTile@@@std@@YAABUTile@@ABU1@@Z
_TEXT	SEGMENT
__Arg$ = 8						; size = 4
??$forward@ABUTile@@@std@@YAABUTile@@ABU1@@Z PROC	; std::forward<Tile const &>, COMDAT

; 1298 : 	{	// forward an lvalue as either an lvalue or an rvalue

	push	ebp
	mov	ebp, esp
	sub	esp, 192				; 000000c0H
	push	ebx
	push	esi
	push	edi
	lea	edi, DWORD PTR [ebp-192]
	mov	ecx, 48					; 00000030H
	mov	eax, -858993460				; ccccccccH
	rep stosd

; 1299 : 	return (static_cast<_Ty&&>(_Arg));

	mov	eax, DWORD PTR __Arg$[ebp]

; 1300 : 	}

	pop	edi
	pop	esi
	pop	ebx
	mov	esp, ebp
	pop	ebp
	ret	0
??$forward@ABUTile@@@std@@YAABUTile@@ABU1@@Z ENDP	; std::forward<Tile const &>
_TEXT	ENDS
; Function compile flags: /Odtp /RTCsu /ZI
; File c:\program files (x86)\microsoft visual studio 14.0\vc\include\xmemory0
;	COMDAT ??$construct@UTile@@AAU1@@?$allocator_traits@V?$allocator@UTile@@@std@@@std@@SAXAAV?$allocator@UTile@@@1@PAUTile@@AAU3@@Z
_TEXT	SEGMENT
__Al$ = 8						; size = 4
__Ptr$ = 12						; size = 4
_<_Args_0>$ = 16					; size = 4
??$construct@UTile@@AAU1@@?$allocator_traits@V?$allocator@UTile@@@std@@@std@@SAXAAV?$allocator@UTile@@@1@PAUTile@@AAU3@@Z PROC ; std::allocator_traits<std::allocator<Tile> >::construct<Tile,Tile &>, COMDAT

; 754  : 		{	// construct _Objty(_Types...) at _Ptr

	push	ebp
	mov	ebp, esp
	sub	esp, 192				; 000000c0H
	push	ebx
	push	esi
	push	edi
	lea	edi, DWORD PTR [ebp-192]
	mov	ecx, 48					; 00000030H
	mov	eax, -858993460				; ccccccccH
	rep stosd

; 755  : 		_Al.construct(_Ptr, _STD forward<_Types>(_Args)...);

	mov	eax, DWORD PTR _<_Args_0>$[ebp]
	push	eax
	call	??$forward@AAUTile@@@std@@YAAAUTile@@AAU1@@Z ; std::forward<Tile &>
	add	esp, 4
	push	eax
	mov	ecx, DWORD PTR __Ptr$[ebp]
	push	ecx
	mov	ecx, DWORD PTR __Al$[ebp]
	call	??$construct@UTile@@AAU1@@?$allocator@UTile@@@std@@QAEXPAUTile@@AAU2@@Z ; std::allocator<Tile>::construct<Tile,Tile &>

; 756  : 		}

	pop	edi
	pop	esi
	pop	ebx
	add	esp, 192				; 000000c0H
	cmp	ebp, esp
	call	__RTC_CheckEsp
	mov	esp, ebp
	pop	ebp
	ret	0
??$construct@UTile@@AAU1@@?$allocator_traits@V?$allocator@UTile@@@std@@@std@@SAXAAV?$allocator@UTile@@@1@PAUTile@@AAU3@@Z ENDP ; std::allocator_traits<std::allocator<Tile> >::construct<Tile,Tile &>
_TEXT	ENDS
; Function compile flags: /Odtp /RTCsu /ZI
; File c:\program files (x86)\microsoft visual studio 14.0\vc\include\type_traits
;	COMDAT ??$forward@AAUTile@@@std@@YAAAUTile@@AAU1@@Z
_TEXT	SEGMENT
__Arg$ = 8						; size = 4
??$forward@AAUTile@@@std@@YAAAUTile@@AAU1@@Z PROC	; std::forward<Tile &>, COMDAT

; 1298 : 	{	// forward an lvalue as either an lvalue or an rvalue

	push	ebp
	mov	ebp, esp
	sub	esp, 192				; 000000c0H
	push	ebx
	push	esi
	push	edi
	lea	edi, DWORD PTR [ebp-192]
	mov	ecx, 48					; 00000030H
	mov	eax, -858993460				; ccccccccH
	rep stosd

; 1299 : 	return (static_cast<_Ty&&>(_Arg));

	mov	eax, DWORD PTR __Arg$[ebp]

; 1300 : 	}

	pop	edi
	pop	esi
	pop	ebx
	mov	esp, ebp
	pop	ebp
	ret	0
??$forward@AAUTile@@@std@@YAAAUTile@@AAU1@@Z ENDP	; std::forward<Tile &>
_TEXT	ENDS
; Function compile flags: /Odtp /RTCsu /ZI
; File c:\program files (x86)\microsoft visual studio 14.0\vc\include\xstddef
;	COMDAT ??$_Addressof@$$CBUTile@@@std@@YAPBUTile@@ABU1@U?$integral_constant@_N$0A@@0@@Z
_TEXT	SEGMENT
__Val$ = 8						; size = 4
___formal$ = 12						; size = 1
??$_Addressof@$$CBUTile@@@std@@YAPBUTile@@ABU1@U?$integral_constant@_N$0A@@0@@Z PROC ; std::_Addressof<Tile const >, COMDAT

; 707  : 	{	// return address of object _Val

	push	ebp
	mov	ebp, esp
	sub	esp, 192				; 000000c0H
	push	ebx
	push	esi
	push	edi
	lea	edi, DWORD PTR [ebp-192]
	mov	ecx, 48					; 00000030H
	mov	eax, -858993460				; ccccccccH
	rep stosd

; 708  : 	return (reinterpret_cast<_Ty *>(

	mov	eax, DWORD PTR __Val$[ebp]

; 709  : 		&const_cast<char&>(
; 710  : 		reinterpret_cast<const volatile char&>(_Val))));
; 711  : 	}

	pop	edi
	pop	esi
	pop	ebx
	mov	esp, ebp
	pop	ebp
	ret	0
??$_Addressof@$$CBUTile@@@std@@YAPBUTile@@ABU1@U?$integral_constant@_N$0A@@0@@Z ENDP ; std::_Addressof<Tile const >
_TEXT	ENDS
; Function compile flags: /Odtp /RTCsu /ZI
; File c:\program files (x86)\microsoft visual studio 14.0\vc\include\xmemory0
;	COMDAT ??$construct@UMovingTile@@ABU1@@?$allocator_traits@V?$allocator@UMovingTile@@@std@@@std@@SAXAAV?$allocator@UMovingTile@@@1@PAUMovingTile@@ABU3@@Z
_TEXT	SEGMENT
__Al$ = 8						; size = 4
__Ptr$ = 12						; size = 4
_<_Args_0>$ = 16					; size = 4
??$construct@UMovingTile@@ABU1@@?$allocator_traits@V?$allocator@UMovingTile@@@std@@@std@@SAXAAV?$allocator@UMovingTile@@@1@PAUMovingTile@@ABU3@@Z PROC ; std::allocator_traits<std::allocator<MovingTile> >::construct<MovingTile,MovingTile const &>, COMDAT

; 754  : 		{	// construct _Objty(_Types...) at _Ptr

	push	ebp
	mov	ebp, esp
	sub	esp, 192				; 000000c0H
	push	ebx
	push	esi
	push	edi
	lea	edi, DWORD PTR [ebp-192]
	mov	ecx, 48					; 00000030H
	mov	eax, -858993460				; ccccccccH
	rep stosd

; 755  : 		_Al.construct(_Ptr, _STD forward<_Types>(_Args)...);

	mov	eax, DWORD PTR _<_Args_0>$[ebp]
	push	eax
	call	??$forward@ABUMovingTile@@@std@@YAABUMovingTile@@ABU1@@Z ; std::forward<MovingTile const &>
	add	esp, 4
	push	eax
	mov	ecx, DWORD PTR __Ptr$[ebp]
	push	ecx
	mov	ecx, DWORD PTR __Al$[ebp]
	call	??$construct@UMovingTile@@ABU1@@?$allocator@UMovingTile@@@std@@QAEXPAUMovingTile@@ABU2@@Z ; std::allocator<MovingTile>::construct<MovingTile,MovingTile const &>

; 756  : 		}

	pop	edi
	pop	esi
	pop	ebx
	add	esp, 192				; 000000c0H
	cmp	ebp, esp
	call	__RTC_CheckEsp
	mov	esp, ebp
	pop	ebp
	ret	0
??$construct@UMovingTile@@ABU1@@?$allocator_traits@V?$allocator@UMovingTile@@@std@@@std@@SAXAAV?$allocator@UMovingTile@@@1@PAUMovingTile@@ABU3@@Z ENDP ; std::allocator_traits<std::allocator<MovingTile> >::construct<MovingTile,MovingTile const &>
_TEXT	ENDS
; Function compile flags: /Odtp /RTCsu /ZI
; File c:\program files (x86)\microsoft visual studio 14.0\vc\include\type_traits
;	COMDAT ??$forward@ABUMovingTile@@@std@@YAABUMovingTile@@ABU1@@Z
_TEXT	SEGMENT
__Arg$ = 8						; size = 4
??$forward@ABUMovingTile@@@std@@YAABUMovingTile@@ABU1@@Z PROC ; std::forward<MovingTile const &>, COMDAT

; 1298 : 	{	// forward an lvalue as either an lvalue or an rvalue

	push	ebp
	mov	ebp, esp
	sub	esp, 192				; 000000c0H
	push	ebx
	push	esi
	push	edi
	lea	edi, DWORD PTR [ebp-192]
	mov	ecx, 48					; 00000030H
	mov	eax, -858993460				; ccccccccH
	rep stosd

; 1299 : 	return (static_cast<_Ty&&>(_Arg));

	mov	eax, DWORD PTR __Arg$[ebp]

; 1300 : 	}

	pop	edi
	pop	esi
	pop	ebx
	mov	esp, ebp
	pop	ebp
	ret	0
??$forward@ABUMovingTile@@@std@@YAABUMovingTile@@ABU1@@Z ENDP ; std::forward<MovingTile const &>
_TEXT	ENDS
; Function compile flags: /Odtp /RTCsu /ZI
; File c:\program files (x86)\microsoft visual studio 14.0\vc\include\xmemory0
;	COMDAT ??$construct@UMovingTile@@AAU1@@?$allocator_traits@V?$allocator@UMovingTile@@@std@@@std@@SAXAAV?$allocator@UMovingTile@@@1@PAUMovingTile@@AAU3@@Z
_TEXT	SEGMENT
__Al$ = 8						; size = 4
__Ptr$ = 12						; size = 4
_<_Args_0>$ = 16					; size = 4
??$construct@UMovingTile@@AAU1@@?$allocator_traits@V?$allocator@UMovingTile@@@std@@@std@@SAXAAV?$allocator@UMovingTile@@@1@PAUMovingTile@@AAU3@@Z PROC ; std::allocator_traits<std::allocator<MovingTile> >::construct<MovingTile,MovingTile &>, COMDAT

; 754  : 		{	// construct _Objty(_Types...) at _Ptr

	push	ebp
	mov	ebp, esp
	sub	esp, 192				; 000000c0H
	push	ebx
	push	esi
	push	edi
	lea	edi, DWORD PTR [ebp-192]
	mov	ecx, 48					; 00000030H
	mov	eax, -858993460				; ccccccccH
	rep stosd

; 755  : 		_Al.construct(_Ptr, _STD forward<_Types>(_Args)...);

	mov	eax, DWORD PTR _<_Args_0>$[ebp]
	push	eax
	call	??$forward@AAUMovingTile@@@std@@YAAAUMovingTile@@AAU1@@Z ; std::forward<MovingTile &>
	add	esp, 4
	push	eax
	mov	ecx, DWORD PTR __Ptr$[ebp]
	push	ecx
	mov	ecx, DWORD PTR __Al$[ebp]
	call	??$construct@UMovingTile@@AAU1@@?$allocator@UMovingTile@@@std@@QAEXPAUMovingTile@@AAU2@@Z ; std::allocator<MovingTile>::construct<MovingTile,MovingTile &>

; 756  : 		}

	pop	edi
	pop	esi
	pop	ebx
	add	esp, 192				; 000000c0H
	cmp	ebp, esp
	call	__RTC_CheckEsp
	mov	esp, ebp
	pop	ebp
	ret	0
??$construct@UMovingTile@@AAU1@@?$allocator_traits@V?$allocator@UMovingTile@@@std@@@std@@SAXAAV?$allocator@UMovingTile@@@1@PAUMovingTile@@AAU3@@Z ENDP ; std::allocator_traits<std::allocator<MovingTile> >::construct<MovingTile,MovingTile &>
_TEXT	ENDS
; Function compile flags: /Odtp /RTCsu /ZI
; File c:\program files (x86)\microsoft visual studio 14.0\vc\include\type_traits
;	COMDAT ??$forward@AAUMovingTile@@@std@@YAAAUMovingTile@@AAU1@@Z
_TEXT	SEGMENT
__Arg$ = 8						; size = 4
??$forward@AAUMovingTile@@@std@@YAAAUMovingTile@@AAU1@@Z PROC ; std::forward<MovingTile &>, COMDAT

; 1298 : 	{	// forward an lvalue as either an lvalue or an rvalue

	push	ebp
	mov	ebp, esp
	sub	esp, 192				; 000000c0H
	push	ebx
	push	esi
	push	edi
	lea	edi, DWORD PTR [ebp-192]
	mov	ecx, 48					; 00000030H
	mov	eax, -858993460				; ccccccccH
	rep stosd

; 1299 : 	return (static_cast<_Ty&&>(_Arg));

	mov	eax, DWORD PTR __Arg$[ebp]

; 1300 : 	}

	pop	edi
	pop	esi
	pop	ebx
	mov	esp, ebp
	pop	ebp
	ret	0
??$forward@AAUMovingTile@@@std@@YAAAUMovingTile@@AAU1@@Z ENDP ; std::forward<MovingTile &>
_TEXT	ENDS
; Function compile flags: /Odtp /RTCsu /ZI
; File c:\program files (x86)\microsoft visual studio 14.0\vc\include\xstddef
;	COMDAT ??$_Addressof@$$CBUMovingTile@@@std@@YAPBUMovingTile@@ABU1@U?$integral_constant@_N$0A@@0@@Z
_TEXT	SEGMENT
__Val$ = 8						; size = 4
___formal$ = 12						; size = 1
??$_Addressof@$$CBUMovingTile@@@std@@YAPBUMovingTile@@ABU1@U?$integral_constant@_N$0A@@0@@Z PROC ; std::_Addressof<MovingTile const >, COMDAT

; 707  : 	{	// return address of object _Val

	push	ebp
	mov	ebp, esp
	sub	esp, 192				; 000000c0H
	push	ebx
	push	esi
	push	edi
	lea	edi, DWORD PTR [ebp-192]
	mov	ecx, 48					; 00000030H
	mov	eax, -858993460				; ccccccccH
	rep stosd

; 708  : 	return (reinterpret_cast<_Ty *>(

	mov	eax, DWORD PTR __Val$[ebp]

; 709  : 		&const_cast<char&>(
; 710  : 		reinterpret_cast<const volatile char&>(_Val))));
; 711  : 	}

	pop	edi
	pop	esi
	pop	ebx
	mov	esp, ebp
	pop	ebp
	ret	0
??$_Addressof@$$CBUMovingTile@@@std@@YAPBUMovingTile@@ABU1@U?$integral_constant@_N$0A@@0@@Z ENDP ; std::_Addressof<MovingTile const >
_TEXT	ENDS
; Function compile flags: /Odtp /RTCsu /ZI
; File c:\program files (x86)\microsoft visual studio 14.0\vc\include\xmemory0
;	COMDAT ??$_Destroy_range@U?$_Wrap_alloc@V?$allocator@UPushTile@@@std@@@std@@@std@@YAXPAUPushTile@@0AAU?$_Wrap_alloc@V?$allocator@UPushTile@@@std@@@0@@Z
_TEXT	SEGMENT
__First$ = 8						; size = 4
__Last$ = 12						; size = 4
__Al$ = 16						; size = 4
??$_Destroy_range@U?$_Wrap_alloc@V?$allocator@UPushTile@@@std@@@std@@@std@@YAXPAUPushTile@@0AAU?$_Wrap_alloc@V?$allocator@UPushTile@@@std@@@0@@Z PROC ; std::_Destroy_range<std::_Wrap_alloc<std::allocator<PushTile> > >, COMDAT

; 163  : 	{	// destroy [_First, _Last)

	push	ebp
	mov	ebp, esp
	sub	esp, 192				; 000000c0H
	push	ebx
	push	esi
	push	edi
	lea	edi, DWORD PTR [ebp-192]
	mov	ecx, 48					; 00000030H
	mov	eax, -858993460				; ccccccccH
	rep stosd

; 164  : 	for (; _First != _Last; ++_First)

	jmp	SHORT $LN4@Destroy_ra
$LN2@Destroy_ra:
	mov	eax, DWORD PTR __First$[ebp]
	add	eax, 48					; 00000030H
	mov	DWORD PTR __First$[ebp], eax
$LN4@Destroy_ra:
	mov	eax, DWORD PTR __First$[ebp]
	cmp	eax, DWORD PTR __Last$[ebp]
	je	SHORT $LN1@Destroy_ra

; 165  : 		_Al.destroy(_STD addressof(*_First));

	mov	eax, DWORD PTR __First$[ebp]
	push	eax
	call	??$addressof@UPushTile@@@std@@YAPAUPushTile@@AAU1@@Z ; std::addressof<PushTile>
	add	esp, 4
	push	eax
	mov	ecx, DWORD PTR __Al$[ebp]
	call	??$destroy@UPushTile@@@?$_Wrap_alloc@V?$allocator@UPushTile@@@std@@@std@@QAEXPAUPushTile@@@Z ; std::_Wrap_alloc<std::allocator<PushTile> >::destroy<PushTile>
	jmp	SHORT $LN2@Destroy_ra
$LN1@Destroy_ra:

; 166  : 	}

	pop	edi
	pop	esi
	pop	ebx
	add	esp, 192				; 000000c0H
	cmp	ebp, esp
	call	__RTC_CheckEsp
	mov	esp, ebp
	pop	ebp
	ret	0
??$_Destroy_range@U?$_Wrap_alloc@V?$allocator@UPushTile@@@std@@@std@@@std@@YAXPAUPushTile@@0AAU?$_Wrap_alloc@V?$allocator@UPushTile@@@std@@@0@@Z ENDP ; std::_Destroy_range<std::_Wrap_alloc<std::allocator<PushTile> > >
_TEXT	ENDS
; Function compile flags: /Odtp /RTCsu /ZI
; File c:\program files (x86)\microsoft visual studio 14.0\vc\include\vector
;	COMDAT ??$_Umove@PAUPushTile@@@?$vector@UPushTile@@V?$allocator@UPushTile@@@std@@@std@@IAEPAUPushTile@@PAU2@00@Z
_TEXT	SEGMENT
_this$ = -8						; size = 4
__First$ = 8						; size = 4
__Last$ = 12						; size = 4
__Ptr$ = 16						; size = 4
??$_Umove@PAUPushTile@@@?$vector@UPushTile@@V?$allocator@UPushTile@@@std@@@std@@IAEPAUPushTile@@PAU2@00@Z PROC ; std::vector<PushTile,std::allocator<PushTile> >::_Umove<PushTile *>, COMDAT
; _this$ = ecx

; 1681 : 		{	// move initializing [_First, _Last), using allocator

	push	ebp
	mov	ebp, esp
	sub	esp, 204				; 000000ccH
	push	ebx
	push	esi
	push	edi
	push	ecx
	lea	edi, DWORD PTR [ebp-204]
	mov	ecx, 51					; 00000033H
	mov	eax, -858993460				; ccccccccH
	rep stosd
	pop	ecx
	mov	DWORD PTR _this$[ebp], ecx

; 1682 : 		return (_Uninitialized_move(_First, _Last,

	mov	ecx, DWORD PTR _this$[ebp]
	call	?_Getal@?$_Vector_alloc@U?$_Vec_base_types@UPushTile@@V?$allocator@UPushTile@@@std@@@std@@@std@@QAEAAU?$_Wrap_alloc@V?$allocator@UPushTile@@@std@@@2@XZ ; std::_Vector_alloc<std::_Vec_base_types<PushTile,std::allocator<PushTile> > >::_Getal
	push	eax
	mov	eax, DWORD PTR __Ptr$[ebp]
	push	eax
	mov	ecx, DWORD PTR __Last$[ebp]
	push	ecx
	mov	edx, DWORD PTR __First$[ebp]
	push	edx
	call	??$_Uninitialized_move@PAUPushTile@@PAU1@U?$_Wrap_alloc@V?$allocator@UPushTile@@@std@@@std@@@std@@YAPAUPushTile@@PAU1@00AAU?$_Wrap_alloc@V?$allocator@UPushTile@@@std@@@0@@Z ; std::_Uninitialized_move<PushTile *,PushTile *,std::_Wrap_alloc<std::allocator<PushTile> > >
	add	esp, 16					; 00000010H

; 1683 : 			_Ptr, this->_Getal()));
; 1684 : 		}

	pop	edi
	pop	esi
	pop	ebx
	add	esp, 204				; 000000ccH
	cmp	ebp, esp
	call	__RTC_CheckEsp
	mov	esp, ebp
	pop	ebp
	ret	12					; 0000000cH
??$_Umove@PAUPushTile@@@?$vector@UPushTile@@V?$allocator@UPushTile@@@std@@@std@@IAEPAUPushTile@@PAU2@00@Z ENDP ; std::vector<PushTile,std::allocator<PushTile> >::_Umove<PushTile *>
_TEXT	ENDS
; Function compile flags: /Odtp /RTCsu /ZI
; File c:\program files (x86)\microsoft visual studio 14.0\vc\include\xmemory0
;	COMDAT ??$?0AAU?$_Wrap_alloc@V?$allocator@UPushTile@@@std@@@std@@@?$_Wrap_alloc@V?$allocator@U_Container_proxy@std@@@std@@@std@@QAE@AAU?$_Wrap_alloc@V?$allocator@UPushTile@@@std@@@1@@Z
_TEXT	SEGMENT
_this$ = -8						; size = 4
__Right$ = 8						; size = 4
??$?0AAU?$_Wrap_alloc@V?$allocator@UPushTile@@@std@@@std@@@?$_Wrap_alloc@V?$allocator@U_Container_proxy@std@@@std@@@std@@QAE@AAU?$_Wrap_alloc@V?$allocator@UPushTile@@@std@@@1@@Z PROC ; std::_Wrap_alloc<std::allocator<std::_Container_proxy> >::_Wrap_alloc<std::allocator<std::_Container_proxy> ><std::_Wrap_alloc<std::allocator<PushTile> > &>, COMDAT
; _this$ = ecx

; 850  : 		{	// construct from a related allocator

	push	ebp
	mov	ebp, esp
	sub	esp, 204				; 000000ccH
	push	ebx
	push	esi
	push	edi
	push	ecx
	lea	edi, DWORD PTR [ebp-204]
	mov	ecx, 51					; 00000033H
	mov	eax, -858993460				; ccccccccH
	rep stosd
	pop	ecx
	mov	DWORD PTR _this$[ebp], ecx

; 849  : 		: _Mybase(_STD forward<_Other>(_Right))

	mov	eax, DWORD PTR __Right$[ebp]
	push	eax
	call	??$forward@AAU?$_Wrap_alloc@V?$allocator@UPushTile@@@std@@@std@@@std@@YAAAU?$_Wrap_alloc@V?$allocator@UPushTile@@@std@@@0@AAU10@@Z ; std::forward<std::_Wrap_alloc<std::allocator<PushTile> > &>
	add	esp, 4
	push	eax
	mov	ecx, DWORD PTR _this$[ebp]
	call	??$?0UPushTile@@@?$allocator@U_Container_proxy@std@@@std@@QAE@ABV?$allocator@UPushTile@@@1@@Z ; std::allocator<std::_Container_proxy>::allocator<std::_Container_proxy><PushTile>

; 851  : 		}

	mov	eax, DWORD PTR _this$[ebp]
	pop	edi
	pop	esi
	pop	ebx
	add	esp, 204				; 000000ccH
	cmp	ebp, esp
	call	__RTC_CheckEsp
	mov	esp, ebp
	pop	ebp
	ret	4
??$?0AAU?$_Wrap_alloc@V?$allocator@UPushTile@@@std@@@std@@@?$_Wrap_alloc@V?$allocator@U_Container_proxy@std@@@std@@@std@@QAE@AAU?$_Wrap_alloc@V?$allocator@UPushTile@@@std@@@1@@Z ENDP ; std::_Wrap_alloc<std::allocator<std::_Container_proxy> >::_Wrap_alloc<std::allocator<std::_Container_proxy> ><std::_Wrap_alloc<std::allocator<PushTile> > &>
_TEXT	ENDS
; Function compile flags: /Odtp /RTCsu /ZI
; File c:\program files (x86)\microsoft visual studio 14.0\vc\include\xmemory0
;	COMDAT ??$_Destroy_range@U?$_Wrap_alloc@V?$allocator@UTile@@@std@@@std@@@std@@YAXPAUTile@@0AAU?$_Wrap_alloc@V?$allocator@UTile@@@std@@@0@@Z
_TEXT	SEGMENT
__First$ = 8						; size = 4
__Last$ = 12						; size = 4
__Al$ = 16						; size = 4
??$_Destroy_range@U?$_Wrap_alloc@V?$allocator@UTile@@@std@@@std@@@std@@YAXPAUTile@@0AAU?$_Wrap_alloc@V?$allocator@UTile@@@std@@@0@@Z PROC ; std::_Destroy_range<std::_Wrap_alloc<std::allocator<Tile> > >, COMDAT

; 163  : 	{	// destroy [_First, _Last)

	push	ebp
	mov	ebp, esp
	sub	esp, 192				; 000000c0H
	push	ebx
	push	esi
	push	edi
	lea	edi, DWORD PTR [ebp-192]
	mov	ecx, 48					; 00000030H
	mov	eax, -858993460				; ccccccccH
	rep stosd

; 164  : 	for (; _First != _Last; ++_First)

	jmp	SHORT $LN4@Destroy_ra
$LN2@Destroy_ra:
	mov	eax, DWORD PTR __First$[ebp]
	add	eax, 32					; 00000020H
	mov	DWORD PTR __First$[ebp], eax
$LN4@Destroy_ra:
	mov	eax, DWORD PTR __First$[ebp]
	cmp	eax, DWORD PTR __Last$[ebp]
	je	SHORT $LN1@Destroy_ra

; 165  : 		_Al.destroy(_STD addressof(*_First));

	mov	eax, DWORD PTR __First$[ebp]
	push	eax
	call	??$addressof@UTile@@@std@@YAPAUTile@@AAU1@@Z ; std::addressof<Tile>
	add	esp, 4
	push	eax
	mov	ecx, DWORD PTR __Al$[ebp]
	call	??$destroy@UTile@@@?$_Wrap_alloc@V?$allocator@UTile@@@std@@@std@@QAEXPAUTile@@@Z ; std::_Wrap_alloc<std::allocator<Tile> >::destroy<Tile>
	jmp	SHORT $LN2@Destroy_ra
$LN1@Destroy_ra:

; 166  : 	}

	pop	edi
	pop	esi
	pop	ebx
	add	esp, 192				; 000000c0H
	cmp	ebp, esp
	call	__RTC_CheckEsp
	mov	esp, ebp
	pop	ebp
	ret	0
??$_Destroy_range@U?$_Wrap_alloc@V?$allocator@UTile@@@std@@@std@@@std@@YAXPAUTile@@0AAU?$_Wrap_alloc@V?$allocator@UTile@@@std@@@0@@Z ENDP ; std::_Destroy_range<std::_Wrap_alloc<std::allocator<Tile> > >
_TEXT	ENDS
; Function compile flags: /Odtp /RTCsu /ZI
; File c:\program files (x86)\microsoft visual studio 14.0\vc\include\vector
;	COMDAT ??$_Umove@PAUTile@@@?$vector@UTile@@V?$allocator@UTile@@@std@@@std@@IAEPAUTile@@PAU2@00@Z
_TEXT	SEGMENT
_this$ = -8						; size = 4
__First$ = 8						; size = 4
__Last$ = 12						; size = 4
__Ptr$ = 16						; size = 4
??$_Umove@PAUTile@@@?$vector@UTile@@V?$allocator@UTile@@@std@@@std@@IAEPAUTile@@PAU2@00@Z PROC ; std::vector<Tile,std::allocator<Tile> >::_Umove<Tile *>, COMDAT
; _this$ = ecx

; 1681 : 		{	// move initializing [_First, _Last), using allocator

	push	ebp
	mov	ebp, esp
	sub	esp, 204				; 000000ccH
	push	ebx
	push	esi
	push	edi
	push	ecx
	lea	edi, DWORD PTR [ebp-204]
	mov	ecx, 51					; 00000033H
	mov	eax, -858993460				; ccccccccH
	rep stosd
	pop	ecx
	mov	DWORD PTR _this$[ebp], ecx

; 1682 : 		return (_Uninitialized_move(_First, _Last,

	mov	ecx, DWORD PTR _this$[ebp]
	call	?_Getal@?$_Vector_alloc@U?$_Vec_base_types@UTile@@V?$allocator@UTile@@@std@@@std@@@std@@QAEAAU?$_Wrap_alloc@V?$allocator@UTile@@@std@@@2@XZ ; std::_Vector_alloc<std::_Vec_base_types<Tile,std::allocator<Tile> > >::_Getal
	push	eax
	mov	eax, DWORD PTR __Ptr$[ebp]
	push	eax
	mov	ecx, DWORD PTR __Last$[ebp]
	push	ecx
	mov	edx, DWORD PTR __First$[ebp]
	push	edx
	call	??$_Uninitialized_move@PAUTile@@PAU1@U?$_Wrap_alloc@V?$allocator@UTile@@@std@@@std@@@std@@YAPAUTile@@PAU1@00AAU?$_Wrap_alloc@V?$allocator@UTile@@@std@@@0@@Z ; std::_Uninitialized_move<Tile *,Tile *,std::_Wrap_alloc<std::allocator<Tile> > >
	add	esp, 16					; 00000010H

; 1683 : 			_Ptr, this->_Getal()));
; 1684 : 		}

	pop	edi
	pop	esi
	pop	ebx
	add	esp, 204				; 000000ccH
	cmp	ebp, esp
	call	__RTC_CheckEsp
	mov	esp, ebp
	pop	ebp
	ret	12					; 0000000cH
??$_Umove@PAUTile@@@?$vector@UTile@@V?$allocator@UTile@@@std@@@std@@IAEPAUTile@@PAU2@00@Z ENDP ; std::vector<Tile,std::allocator<Tile> >::_Umove<Tile *>
_TEXT	ENDS
; Function compile flags: /Odtp /RTCsu /ZI
; File c:\program files (x86)\microsoft visual studio 14.0\vc\include\xmemory0
;	COMDAT ??$_Destroy_range@U?$_Wrap_alloc@V?$allocator@UMovingTile@@@std@@@std@@@std@@YAXPAUMovingTile@@0AAU?$_Wrap_alloc@V?$allocator@UMovingTile@@@std@@@0@@Z
_TEXT	SEGMENT
__First$ = 8						; size = 4
__Last$ = 12						; size = 4
__Al$ = 16						; size = 4
??$_Destroy_range@U?$_Wrap_alloc@V?$allocator@UMovingTile@@@std@@@std@@@std@@YAXPAUMovingTile@@0AAU?$_Wrap_alloc@V?$allocator@UMovingTile@@@std@@@0@@Z PROC ; std::_Destroy_range<std::_Wrap_alloc<std::allocator<MovingTile> > >, COMDAT

; 163  : 	{	// destroy [_First, _Last)

	push	ebp
	mov	ebp, esp
	sub	esp, 192				; 000000c0H
	push	ebx
	push	esi
	push	edi
	lea	edi, DWORD PTR [ebp-192]
	mov	ecx, 48					; 00000030H
	mov	eax, -858993460				; ccccccccH
	rep stosd

; 164  : 	for (; _First != _Last; ++_First)

	jmp	SHORT $LN4@Destroy_ra
$LN2@Destroy_ra:
	mov	eax, DWORD PTR __First$[ebp]
	add	eax, 48					; 00000030H
	mov	DWORD PTR __First$[ebp], eax
$LN4@Destroy_ra:
	mov	eax, DWORD PTR __First$[ebp]
	cmp	eax, DWORD PTR __Last$[ebp]
	je	SHORT $LN1@Destroy_ra

; 165  : 		_Al.destroy(_STD addressof(*_First));

	mov	eax, DWORD PTR __First$[ebp]
	push	eax
	call	??$addressof@UMovingTile@@@std@@YAPAUMovingTile@@AAU1@@Z ; std::addressof<MovingTile>
	add	esp, 4
	push	eax
	mov	ecx, DWORD PTR __Al$[ebp]
	call	??$destroy@UMovingTile@@@?$_Wrap_alloc@V?$allocator@UMovingTile@@@std@@@std@@QAEXPAUMovingTile@@@Z ; std::_Wrap_alloc<std::allocator<MovingTile> >::destroy<MovingTile>
	jmp	SHORT $LN2@Destroy_ra
$LN1@Destroy_ra:

; 166  : 	}

	pop	edi
	pop	esi
	pop	ebx
	add	esp, 192				; 000000c0H
	cmp	ebp, esp
	call	__RTC_CheckEsp
	mov	esp, ebp
	pop	ebp
	ret	0
??$_Destroy_range@U?$_Wrap_alloc@V?$allocator@UMovingTile@@@std@@@std@@@std@@YAXPAUMovingTile@@0AAU?$_Wrap_alloc@V?$allocator@UMovingTile@@@std@@@0@@Z ENDP ; std::_Destroy_range<std::_Wrap_alloc<std::allocator<MovingTile> > >
_TEXT	ENDS
; Function compile flags: /Odtp /RTCsu /ZI
; File c:\program files (x86)\microsoft visual studio 14.0\vc\include\vector
;	COMDAT ??$_Umove@PAUMovingTile@@@?$vector@UMovingTile@@V?$allocator@UMovingTile@@@std@@@std@@IAEPAUMovingTile@@PAU2@00@Z
_TEXT	SEGMENT
_this$ = -8						; size = 4
__First$ = 8						; size = 4
__Last$ = 12						; size = 4
__Ptr$ = 16						; size = 4
??$_Umove@PAUMovingTile@@@?$vector@UMovingTile@@V?$allocator@UMovingTile@@@std@@@std@@IAEPAUMovingTile@@PAU2@00@Z PROC ; std::vector<MovingTile,std::allocator<MovingTile> >::_Umove<MovingTile *>, COMDAT
; _this$ = ecx

; 1681 : 		{	// move initializing [_First, _Last), using allocator

	push	ebp
	mov	ebp, esp
	sub	esp, 204				; 000000ccH
	push	ebx
	push	esi
	push	edi
	push	ecx
	lea	edi, DWORD PTR [ebp-204]
	mov	ecx, 51					; 00000033H
	mov	eax, -858993460				; ccccccccH
	rep stosd
	pop	ecx
	mov	DWORD PTR _this$[ebp], ecx

; 1682 : 		return (_Uninitialized_move(_First, _Last,

	mov	ecx, DWORD PTR _this$[ebp]
	call	?_Getal@?$_Vector_alloc@U?$_Vec_base_types@UMovingTile@@V?$allocator@UMovingTile@@@std@@@std@@@std@@QAEAAU?$_Wrap_alloc@V?$allocator@UMovingTile@@@std@@@2@XZ ; std::_Vector_alloc<std::_Vec_base_types<MovingTile,std::allocator<MovingTile> > >::_Getal
	push	eax
	mov	eax, DWORD PTR __Ptr$[ebp]
	push	eax
	mov	ecx, DWORD PTR __Last$[ebp]
	push	ecx
	mov	edx, DWORD PTR __First$[ebp]
	push	edx
	call	??$_Uninitialized_move@PAUMovingTile@@PAU1@U?$_Wrap_alloc@V?$allocator@UMovingTile@@@std@@@std@@@std@@YAPAUMovingTile@@PAU1@00AAU?$_Wrap_alloc@V?$allocator@UMovingTile@@@std@@@0@@Z ; std::_Uninitialized_move<MovingTile *,MovingTile *,std::_Wrap_alloc<std::allocator<MovingTile> > >
	add	esp, 16					; 00000010H

; 1683 : 			_Ptr, this->_Getal()));
; 1684 : 		}

	pop	edi
	pop	esi
	pop	ebx
	add	esp, 204				; 000000ccH
	cmp	ebp, esp
	call	__RTC_CheckEsp
	mov	esp, ebp
	pop	ebp
	ret	12					; 0000000cH
??$_Umove@PAUMovingTile@@@?$vector@UMovingTile@@V?$allocator@UMovingTile@@@std@@@std@@IAEPAUMovingTile@@PAU2@00@Z ENDP ; std::vector<MovingTile,std::allocator<MovingTile> >::_Umove<MovingTile *>
_TEXT	ENDS
; Function compile flags: /Odtp /RTCsu /ZI
; File c:\program files (x86)\microsoft visual studio 14.0\vc\include\xmemory0
;	COMDAT ??$?0AAU?$_Wrap_alloc@V?$allocator@UTile@@@std@@@std@@@?$_Wrap_alloc@V?$allocator@U_Container_proxy@std@@@std@@@std@@QAE@AAU?$_Wrap_alloc@V?$allocator@UTile@@@std@@@1@@Z
_TEXT	SEGMENT
_this$ = -8						; size = 4
__Right$ = 8						; size = 4
??$?0AAU?$_Wrap_alloc@V?$allocator@UTile@@@std@@@std@@@?$_Wrap_alloc@V?$allocator@U_Container_proxy@std@@@std@@@std@@QAE@AAU?$_Wrap_alloc@V?$allocator@UTile@@@std@@@1@@Z PROC ; std::_Wrap_alloc<std::allocator<std::_Container_proxy> >::_Wrap_alloc<std::allocator<std::_Container_proxy> ><std::_Wrap_alloc<std::allocator<Tile> > &>, COMDAT
; _this$ = ecx

; 850  : 		{	// construct from a related allocator

	push	ebp
	mov	ebp, esp
	sub	esp, 204				; 000000ccH
	push	ebx
	push	esi
	push	edi
	push	ecx
	lea	edi, DWORD PTR [ebp-204]
	mov	ecx, 51					; 00000033H
	mov	eax, -858993460				; ccccccccH
	rep stosd
	pop	ecx
	mov	DWORD PTR _this$[ebp], ecx

; 849  : 		: _Mybase(_STD forward<_Other>(_Right))

	mov	eax, DWORD PTR __Right$[ebp]
	push	eax
	call	??$forward@AAU?$_Wrap_alloc@V?$allocator@UTile@@@std@@@std@@@std@@YAAAU?$_Wrap_alloc@V?$allocator@UTile@@@std@@@0@AAU10@@Z ; std::forward<std::_Wrap_alloc<std::allocator<Tile> > &>
	add	esp, 4
	push	eax
	mov	ecx, DWORD PTR _this$[ebp]
	call	??$?0UTile@@@?$allocator@U_Container_proxy@std@@@std@@QAE@ABV?$allocator@UTile@@@1@@Z ; std::allocator<std::_Container_proxy>::allocator<std::_Container_proxy><Tile>

; 851  : 		}

	mov	eax, DWORD PTR _this$[ebp]
	pop	edi
	pop	esi
	pop	ebx
	add	esp, 204				; 000000ccH
	cmp	ebp, esp
	call	__RTC_CheckEsp
	mov	esp, ebp
	pop	ebp
	ret	4
??$?0AAU?$_Wrap_alloc@V?$allocator@UTile@@@std@@@std@@@?$_Wrap_alloc@V?$allocator@U_Container_proxy@std@@@std@@@std@@QAE@AAU?$_Wrap_alloc@V?$allocator@UTile@@@std@@@1@@Z ENDP ; std::_Wrap_alloc<std::allocator<std::_Container_proxy> >::_Wrap_alloc<std::allocator<std::_Container_proxy> ><std::_Wrap_alloc<std::allocator<Tile> > &>
_TEXT	ENDS
; Function compile flags: /Odtp /RTCsu /ZI
; File c:\program files (x86)\microsoft visual studio 14.0\vc\include\xmemory0
;	COMDAT ??$construct@U_Container_proxy@std@@U12@@?$_Wrap_alloc@V?$allocator@U_Container_proxy@std@@@std@@@std@@QAEXPAU_Container_proxy@1@$$QAU21@@Z
_TEXT	SEGMENT
_this$ = -8						; size = 4
__Ptr$ = 8						; size = 4
_<_Args_0>$ = 12					; size = 4
??$construct@U_Container_proxy@std@@U12@@?$_Wrap_alloc@V?$allocator@U_Container_proxy@std@@@std@@@std@@QAEXPAU_Container_proxy@1@$$QAU21@@Z PROC ; std::_Wrap_alloc<std::allocator<std::_Container_proxy> >::construct<std::_Container_proxy,std::_Container_proxy>, COMDAT
; _this$ = ecx

; 892  : 		{	// construct _Ty(_Types...) at _Ptr

	push	ebp
	mov	ebp, esp
	sub	esp, 204				; 000000ccH
	push	ebx
	push	esi
	push	edi
	push	ecx
	lea	edi, DWORD PTR [ebp-204]
	mov	ecx, 51					; 00000033H
	mov	eax, -858993460				; ccccccccH
	rep stosd
	pop	ecx
	mov	DWORD PTR _this$[ebp], ecx

; 893  : 		_Mytraits::construct(*this, _Ptr,

	mov	eax, DWORD PTR _<_Args_0>$[ebp]
	push	eax
	call	??$forward@U_Container_proxy@std@@@std@@YA$$QAU_Container_proxy@0@AAU10@@Z ; std::forward<std::_Container_proxy>
	add	esp, 4
	push	eax
	mov	ecx, DWORD PTR __Ptr$[ebp]
	push	ecx
	mov	edx, DWORD PTR _this$[ebp]
	push	edx
	call	??$construct@U_Container_proxy@std@@U12@@?$allocator_traits@V?$allocator@U_Container_proxy@std@@@std@@@std@@SAXAAV?$allocator@U_Container_proxy@std@@@1@PAU_Container_proxy@1@$$QAU31@@Z ; std::allocator_traits<std::allocator<std::_Container_proxy> >::construct<std::_Container_proxy,std::_Container_proxy>
	add	esp, 12					; 0000000cH

; 894  : 			_STD forward<_Types>(_Args)...);
; 895  : 		}

	pop	edi
	pop	esi
	pop	ebx
	add	esp, 204				; 000000ccH
	cmp	ebp, esp
	call	__RTC_CheckEsp
	mov	esp, ebp
	pop	ebp
	ret	8
??$construct@U_Container_proxy@std@@U12@@?$_Wrap_alloc@V?$allocator@U_Container_proxy@std@@@std@@@std@@QAEXPAU_Container_proxy@1@$$QAU21@@Z ENDP ; std::_Wrap_alloc<std::allocator<std::_Container_proxy> >::construct<std::_Container_proxy,std::_Container_proxy>
_TEXT	ENDS
; Function compile flags: /Odtp /RTCsu /ZI
; File c:\program files (x86)\microsoft visual studio 14.0\vc\include\xmemory0
;	COMDAT ??$destroy@U_Container_proxy@std@@@?$_Wrap_alloc@V?$allocator@U_Container_proxy@std@@@std@@@std@@QAEXPAU_Container_proxy@1@@Z
_TEXT	SEGMENT
_this$ = -8						; size = 4
__Ptr$ = 8						; size = 4
??$destroy@U_Container_proxy@std@@@?$_Wrap_alloc@V?$allocator@U_Container_proxy@std@@@std@@@std@@QAEXPAU_Container_proxy@1@@Z PROC ; std::_Wrap_alloc<std::allocator<std::_Container_proxy> >::destroy<std::_Container_proxy>, COMDAT
; _this$ = ecx

; 900  : 		{	// destroy object at _Ptr

	push	ebp
	mov	ebp, esp
	sub	esp, 204				; 000000ccH
	push	ebx
	push	esi
	push	edi
	push	ecx
	lea	edi, DWORD PTR [ebp-204]
	mov	ecx, 51					; 00000033H
	mov	eax, -858993460				; ccccccccH
	rep stosd
	pop	ecx
	mov	DWORD PTR _this$[ebp], ecx

; 901  : 		_Mytraits::destroy(*this, _Ptr);

	mov	eax, DWORD PTR __Ptr$[ebp]
	push	eax
	mov	ecx, DWORD PTR _this$[ebp]
	push	ecx
	call	??$destroy@U_Container_proxy@std@@@?$allocator_traits@V?$allocator@U_Container_proxy@std@@@std@@@std@@SAXAAV?$allocator@U_Container_proxy@std@@@1@PAU_Container_proxy@1@@Z ; std::allocator_traits<std::allocator<std::_Container_proxy> >::destroy<std::_Container_proxy>
	add	esp, 8

; 902  : 		}

	pop	edi
	pop	esi
	pop	ebx
	add	esp, 204				; 000000ccH
	cmp	ebp, esp
	call	__RTC_CheckEsp
	mov	esp, ebp
	pop	ebp
	ret	4
??$destroy@U_Container_proxy@std@@@?$_Wrap_alloc@V?$allocator@U_Container_proxy@std@@@std@@@std@@QAEXPAU_Container_proxy@1@@Z ENDP ; std::_Wrap_alloc<std::allocator<std::_Container_proxy> >::destroy<std::_Container_proxy>
_TEXT	ENDS
; Function compile flags: /Odtp /RTCsu /ZI
; File c:\program files (x86)\microsoft visual studio 14.0\vc\include\xmemory0
;	COMDAT ??$?0AAU?$_Wrap_alloc@V?$allocator@UMovingTile@@@std@@@std@@@?$_Wrap_alloc@V?$allocator@U_Container_proxy@std@@@std@@@std@@QAE@AAU?$_Wrap_alloc@V?$allocator@UMovingTile@@@std@@@1@@Z
_TEXT	SEGMENT
_this$ = -8						; size = 4
__Right$ = 8						; size = 4
??$?0AAU?$_Wrap_alloc@V?$allocator@UMovingTile@@@std@@@std@@@?$_Wrap_alloc@V?$allocator@U_Container_proxy@std@@@std@@@std@@QAE@AAU?$_Wrap_alloc@V?$allocator@UMovingTile@@@std@@@1@@Z PROC ; std::_Wrap_alloc<std::allocator<std::_Container_proxy> >::_Wrap_alloc<std::allocator<std::_Container_proxy> ><std::_Wrap_alloc<std::allocator<MovingTile> > &>, COMDAT
; _this$ = ecx

; 850  : 		{	// construct from a related allocator

	push	ebp
	mov	ebp, esp
	sub	esp, 204				; 000000ccH
	push	ebx
	push	esi
	push	edi
	push	ecx
	lea	edi, DWORD PTR [ebp-204]
	mov	ecx, 51					; 00000033H
	mov	eax, -858993460				; ccccccccH
	rep stosd
	pop	ecx
	mov	DWORD PTR _this$[ebp], ecx

; 849  : 		: _Mybase(_STD forward<_Other>(_Right))

	mov	eax, DWORD PTR __Right$[ebp]
	push	eax
	call	??$forward@AAU?$_Wrap_alloc@V?$allocator@UMovingTile@@@std@@@std@@@std@@YAAAU?$_Wrap_alloc@V?$allocator@UMovingTile@@@std@@@0@AAU10@@Z ; std::forward<std::_Wrap_alloc<std::allocator<MovingTile> > &>
	add	esp, 4
	push	eax
	mov	ecx, DWORD PTR _this$[ebp]
	call	??$?0UMovingTile@@@?$allocator@U_Container_proxy@std@@@std@@QAE@ABV?$allocator@UMovingTile@@@1@@Z ; std::allocator<std::_Container_proxy>::allocator<std::_Container_proxy><MovingTile>

; 851  : 		}

	mov	eax, DWORD PTR _this$[ebp]
	pop	edi
	pop	esi
	pop	ebx
	add	esp, 204				; 000000ccH
	cmp	ebp, esp
	call	__RTC_CheckEsp
	mov	esp, ebp
	pop	ebp
	ret	4
??$?0AAU?$_Wrap_alloc@V?$allocator@UMovingTile@@@std@@@std@@@?$_Wrap_alloc@V?$allocator@U_Container_proxy@std@@@std@@@std@@QAE@AAU?$_Wrap_alloc@V?$allocator@UMovingTile@@@std@@@1@@Z ENDP ; std::_Wrap_alloc<std::allocator<std::_Container_proxy> >::_Wrap_alloc<std::allocator<std::_Container_proxy> ><std::_Wrap_alloc<std::allocator<MovingTile> > &>
_TEXT	ENDS
; Function compile flags: /Odtp /RTCsu /ZI
; File c:\program files (x86)\microsoft visual studio 14.0\vc\include\xmemory0
;	COMDAT ?deallocate@?$_Wrap_alloc@V?$allocator@U_Container_proxy@std@@@std@@@std@@QAEXPAU_Container_proxy@2@I@Z
_TEXT	SEGMENT
_this$ = -8						; size = 4
__Ptr$ = 8						; size = 4
__Count$ = 12						; size = 4
?deallocate@?$_Wrap_alloc@V?$allocator@U_Container_proxy@std@@@std@@@std@@QAEXPAU_Container_proxy@2@I@Z PROC ; std::_Wrap_alloc<std::allocator<std::_Container_proxy> >::deallocate, COMDAT
; _this$ = ecx

; 884  : 		{	// deallocate object at _Ptr, ignore size

	push	ebp
	mov	ebp, esp
	sub	esp, 204				; 000000ccH
	push	ebx
	push	esi
	push	edi
	push	ecx
	lea	edi, DWORD PTR [ebp-204]
	mov	ecx, 51					; 00000033H
	mov	eax, -858993460				; ccccccccH
	rep stosd
	pop	ecx
	mov	DWORD PTR _this$[ebp], ecx

; 885  : 		_Mybase::deallocate(_Ptr, _Count);

	mov	eax, DWORD PTR __Count$[ebp]
	push	eax
	mov	ecx, DWORD PTR __Ptr$[ebp]
	push	ecx
	mov	ecx, DWORD PTR _this$[ebp]
	call	?deallocate@?$allocator@U_Container_proxy@std@@@std@@QAEXPAU_Container_proxy@2@I@Z ; std::allocator<std::_Container_proxy>::deallocate

; 886  : 		}

	pop	edi
	pop	esi
	pop	ebx
	add	esp, 204				; 000000ccH
	cmp	ebp, esp
	call	__RTC_CheckEsp
	mov	esp, ebp
	pop	ebp
	ret	8
?deallocate@?$_Wrap_alloc@V?$allocator@U_Container_proxy@std@@@std@@@std@@QAEXPAU_Container_proxy@2@I@Z ENDP ; std::_Wrap_alloc<std::allocator<std::_Container_proxy> >::deallocate
_TEXT	ENDS
; Function compile flags: /Odtp /RTCsu /ZI
; File c:\program files (x86)\microsoft visual studio 14.0\vc\include\xmemory0
;	COMDAT ?allocate@?$_Wrap_alloc@V?$allocator@U_Container_proxy@std@@@std@@@std@@QAEPAU_Container_proxy@2@I@Z
_TEXT	SEGMENT
_this$ = -8						; size = 4
__Count$ = 8						; size = 4
?allocate@?$_Wrap_alloc@V?$allocator@U_Container_proxy@std@@@std@@@std@@QAEPAU_Container_proxy@2@I@Z PROC ; std::_Wrap_alloc<std::allocator<std::_Container_proxy> >::allocate, COMDAT
; _this$ = ecx

; 873  : 		{	// allocate array of _Count elements

	push	ebp
	mov	ebp, esp
	sub	esp, 204				; 000000ccH
	push	ebx
	push	esi
	push	edi
	push	ecx
	lea	edi, DWORD PTR [ebp-204]
	mov	ecx, 51					; 00000033H
	mov	eax, -858993460				; ccccccccH
	rep stosd
	pop	ecx
	mov	DWORD PTR _this$[ebp], ecx

; 874  : 		return (_Mybase::allocate(_Count));

	mov	eax, DWORD PTR __Count$[ebp]
	push	eax
	mov	ecx, DWORD PTR _this$[ebp]
	call	?allocate@?$allocator@U_Container_proxy@std@@@std@@QAEPAU_Container_proxy@2@I@Z ; std::allocator<std::_Container_proxy>::allocate

; 875  : 		}

	pop	edi
	pop	esi
	pop	ebx
	add	esp, 204				; 000000ccH
	cmp	ebp, esp
	call	__RTC_CheckEsp
	mov	esp, ebp
	pop	ebp
	ret	4
?allocate@?$_Wrap_alloc@V?$allocator@U_Container_proxy@std@@@std@@@std@@QAEPAU_Container_proxy@2@I@Z ENDP ; std::_Wrap_alloc<std::allocator<std::_Container_proxy> >::allocate
_TEXT	ENDS
; Function compile flags: /Odtp /RTCsu /ZI
; File c:\program files (x86)\microsoft visual studio 14.0\vc\include\xmemory0
;	COMDAT ?allocate@?$allocator@U_Container_proxy@std@@@std@@QAEPAU_Container_proxy@2@I@Z
_TEXT	SEGMENT
_this$ = -8						; size = 4
__Count$ = 8						; size = 4
?allocate@?$allocator@U_Container_proxy@std@@@std@@QAEPAU_Container_proxy@2@I@Z PROC ; std::allocator<std::_Container_proxy>::allocate, COMDAT
; _this$ = ecx

; 624  : 		{	// allocate array of _Count elements

	push	ebp
	mov	ebp, esp
	sub	esp, 204				; 000000ccH
	push	ebx
	push	esi
	push	edi
	push	ecx
	lea	edi, DWORD PTR [ebp-204]
	mov	ecx, 51					; 00000033H
	mov	eax, -858993460				; ccccccccH
	rep stosd
	pop	ecx
	mov	DWORD PTR _this$[ebp], ecx

; 625  : 		return (static_cast<pointer>(_Allocate(_Count, sizeof (_Ty))));

	push	1
	push	8
	mov	eax, DWORD PTR __Count$[ebp]
	push	eax
	call	?_Allocate@std@@YAPAXII_N@Z		; std::_Allocate
	add	esp, 12					; 0000000cH

; 626  : 		}

	pop	edi
	pop	esi
	pop	ebx
	add	esp, 204				; 000000ccH
	cmp	ebp, esp
	call	__RTC_CheckEsp
	mov	esp, ebp
	pop	ebp
	ret	4
?allocate@?$allocator@U_Container_proxy@std@@@std@@QAEPAU_Container_proxy@2@I@Z ENDP ; std::allocator<std::_Container_proxy>::allocate
_TEXT	ENDS
; Function compile flags: /Odtp /RTCsu /ZI
; File c:\program files (x86)\microsoft visual studio 14.0\vc\include\xmemory0
;	COMDAT ?deallocate@?$allocator@U_Container_proxy@std@@@std@@QAEXPAU_Container_proxy@2@I@Z
_TEXT	SEGMENT
_this$ = -8						; size = 4
__Ptr$ = 8						; size = 4
__Count$ = 12						; size = 4
?deallocate@?$allocator@U_Container_proxy@std@@@std@@QAEXPAU_Container_proxy@2@I@Z PROC ; std::allocator<std::_Container_proxy>::deallocate, COMDAT
; _this$ = ecx

; 619  : 		{	// deallocate object at _Ptr

	push	ebp
	mov	ebp, esp
	sub	esp, 204				; 000000ccH
	push	ebx
	push	esi
	push	edi
	push	ecx
	lea	edi, DWORD PTR [ebp-204]
	mov	ecx, 51					; 00000033H
	mov	eax, -858993460				; ccccccccH
	rep stosd
	pop	ecx
	mov	DWORD PTR _this$[ebp], ecx

; 620  : 		_Deallocate(_Ptr, _Count, sizeof (_Ty));

	push	8
	mov	eax, DWORD PTR __Count$[ebp]
	push	eax
	mov	ecx, DWORD PTR __Ptr$[ebp]
	push	ecx
	call	?_Deallocate@std@@YAXPAXII@Z		; std::_Deallocate
	add	esp, 12					; 0000000cH

; 621  : 		}

	pop	edi
	pop	esi
	pop	ebx
	add	esp, 204				; 000000ccH
	cmp	ebp, esp
	call	__RTC_CheckEsp
	mov	esp, ebp
	pop	ebp
	ret	8
?deallocate@?$allocator@U_Container_proxy@std@@@std@@QAEXPAU_Container_proxy@2@I@Z ENDP ; std::allocator<std::_Container_proxy>::deallocate
_TEXT	ENDS
; Function compile flags: /Odtp /RTCsu /ZI
; File c:\program files (x86)\microsoft visual studio 14.0\vc\include\xutility
;	COMDAT ??$?0$$V@?$_Compressed_pair@U?$_Wrap_alloc@V?$allocator@UPushTile@@@std@@@std@@V?$_Vector_val@U?$_Simple_types@UPushTile@@@std@@@2@$00@std@@QAE@U_Zero_then_variadic_args_t@1@@Z
_TEXT	SEGMENT
_this$ = -8						; size = 4
___formal$ = 8						; size = 1
??$?0$$V@?$_Compressed_pair@U?$_Wrap_alloc@V?$allocator@UPushTile@@@std@@@std@@V?$_Vector_val@U?$_Simple_types@UPushTile@@@std@@@2@$00@std@@QAE@U_Zero_then_variadic_args_t@1@@Z PROC ; std::_Compressed_pair<std::_Wrap_alloc<std::allocator<PushTile> >,std::_Vector_val<std::_Simple_types<PushTile> >,1>::_Compressed_pair<std::_Wrap_alloc<std::allocator<PushTile> >,std::_Vector_val<std::_Simple_types<PushTile> >,1><>, COMDAT
; _this$ = ecx

; 279  : 		{	// construct from forwarded values

	push	ebp
	mov	ebp, esp
	sub	esp, 204				; 000000ccH
	push	ebx
	push	esi
	push	edi
	push	ecx
	lea	edi, DWORD PTR [ebp-204]
	mov	ecx, 51					; 00000033H
	mov	eax, -858993460				; ccccccccH
	rep stosd
	pop	ecx
	mov	DWORD PTR _this$[ebp], ecx

; 278  : 		: _Ty1(), _Myval2(_STD forward<_Other2>(_Val2)...)

	mov	ecx, DWORD PTR _this$[ebp]
	call	??0?$_Wrap_alloc@V?$allocator@UPushTile@@@std@@@std@@QAE@XZ ; std::_Wrap_alloc<std::allocator<PushTile> >::_Wrap_alloc<std::allocator<PushTile> >
	mov	ecx, DWORD PTR _this$[ebp]
	call	??0?$_Vector_val@U?$_Simple_types@UPushTile@@@std@@@std@@QAE@XZ ; std::_Vector_val<std::_Simple_types<PushTile> >::_Vector_val<std::_Simple_types<PushTile> >

; 280  : 		}

	mov	eax, DWORD PTR _this$[ebp]
	pop	edi
	pop	esi
	pop	ebx
	add	esp, 204				; 000000ccH
	cmp	ebp, esp
	call	__RTC_CheckEsp
	mov	esp, ebp
	pop	ebp
	ret	4
??$?0$$V@?$_Compressed_pair@U?$_Wrap_alloc@V?$allocator@UPushTile@@@std@@@std@@V?$_Vector_val@U?$_Simple_types@UPushTile@@@std@@@2@$00@std@@QAE@U_Zero_then_variadic_args_t@1@@Z ENDP ; std::_Compressed_pair<std::_Wrap_alloc<std::allocator<PushTile> >,std::_Vector_val<std::_Simple_types<PushTile> >,1>::_Compressed_pair<std::_Wrap_alloc<std::allocator<PushTile> >,std::_Vector_val<std::_Simple_types<PushTile> >,1><>
_TEXT	ENDS
; Function compile flags: /Odtp /RTCsu /ZI
; File c:\program files (x86)\microsoft visual studio 14.0\vc\include\xutility
;	COMDAT ??$?0$$V@?$_Compressed_pair@U?$_Wrap_alloc@V?$allocator@UTile@@@std@@@std@@V?$_Vector_val@U?$_Simple_types@UTile@@@std@@@2@$00@std@@QAE@U_Zero_then_variadic_args_t@1@@Z
_TEXT	SEGMENT
_this$ = -8						; size = 4
___formal$ = 8						; size = 1
??$?0$$V@?$_Compressed_pair@U?$_Wrap_alloc@V?$allocator@UTile@@@std@@@std@@V?$_Vector_val@U?$_Simple_types@UTile@@@std@@@2@$00@std@@QAE@U_Zero_then_variadic_args_t@1@@Z PROC ; std::_Compressed_pair<std::_Wrap_alloc<std::allocator<Tile> >,std::_Vector_val<std::_Simple_types<Tile> >,1>::_Compressed_pair<std::_Wrap_alloc<std::allocator<Tile> >,std::_Vector_val<std::_Simple_types<Tile> >,1><>, COMDAT
; _this$ = ecx

; 279  : 		{	// construct from forwarded values

	push	ebp
	mov	ebp, esp
	sub	esp, 204				; 000000ccH
	push	ebx
	push	esi
	push	edi
	push	ecx
	lea	edi, DWORD PTR [ebp-204]
	mov	ecx, 51					; 00000033H
	mov	eax, -858993460				; ccccccccH
	rep stosd
	pop	ecx
	mov	DWORD PTR _this$[ebp], ecx

; 278  : 		: _Ty1(), _Myval2(_STD forward<_Other2>(_Val2)...)

	mov	ecx, DWORD PTR _this$[ebp]
	call	??0?$_Wrap_alloc@V?$allocator@UTile@@@std@@@std@@QAE@XZ ; std::_Wrap_alloc<std::allocator<Tile> >::_Wrap_alloc<std::allocator<Tile> >
	mov	ecx, DWORD PTR _this$[ebp]
	call	??0?$_Vector_val@U?$_Simple_types@UTile@@@std@@@std@@QAE@XZ ; std::_Vector_val<std::_Simple_types<Tile> >::_Vector_val<std::_Simple_types<Tile> >

; 280  : 		}

	mov	eax, DWORD PTR _this$[ebp]
	pop	edi
	pop	esi
	pop	ebx
	add	esp, 204				; 000000ccH
	cmp	ebp, esp
	call	__RTC_CheckEsp
	mov	esp, ebp
	pop	ebp
	ret	4
??$?0$$V@?$_Compressed_pair@U?$_Wrap_alloc@V?$allocator@UTile@@@std@@@std@@V?$_Vector_val@U?$_Simple_types@UTile@@@std@@@2@$00@std@@QAE@U_Zero_then_variadic_args_t@1@@Z ENDP ; std::_Compressed_pair<std::_Wrap_alloc<std::allocator<Tile> >,std::_Vector_val<std::_Simple_types<Tile> >,1>::_Compressed_pair<std::_Wrap_alloc<std::allocator<Tile> >,std::_Vector_val<std::_Simple_types<Tile> >,1><>
_TEXT	ENDS
; Function compile flags: /Odtp /RTCsu /ZI
; File c:\program files (x86)\microsoft visual studio 14.0\vc\include\xutility
;	COMDAT ??$?0$$V@?$_Compressed_pair@U?$_Wrap_alloc@V?$allocator@UMovingTile@@@std@@@std@@V?$_Vector_val@U?$_Simple_types@UMovingTile@@@std@@@2@$00@std@@QAE@U_Zero_then_variadic_args_t@1@@Z
_TEXT	SEGMENT
_this$ = -8						; size = 4
___formal$ = 8						; size = 1
??$?0$$V@?$_Compressed_pair@U?$_Wrap_alloc@V?$allocator@UMovingTile@@@std@@@std@@V?$_Vector_val@U?$_Simple_types@UMovingTile@@@std@@@2@$00@std@@QAE@U_Zero_then_variadic_args_t@1@@Z PROC ; std::_Compressed_pair<std::_Wrap_alloc<std::allocator<MovingTile> >,std::_Vector_val<std::_Simple_types<MovingTile> >,1>::_Compressed_pair<std::_Wrap_alloc<std::allocator<MovingTile> >,std::_Vector_val<std::_Simple_types<MovingTile> >,1><>, COMDAT
; _this$ = ecx

; 279  : 		{	// construct from forwarded values

	push	ebp
	mov	ebp, esp
	sub	esp, 204				; 000000ccH
	push	ebx
	push	esi
	push	edi
	push	ecx
	lea	edi, DWORD PTR [ebp-204]
	mov	ecx, 51					; 00000033H
	mov	eax, -858993460				; ccccccccH
	rep stosd
	pop	ecx
	mov	DWORD PTR _this$[ebp], ecx

; 278  : 		: _Ty1(), _Myval2(_STD forward<_Other2>(_Val2)...)

	mov	ecx, DWORD PTR _this$[ebp]
	call	??0?$_Wrap_alloc@V?$allocator@UMovingTile@@@std@@@std@@QAE@XZ ; std::_Wrap_alloc<std::allocator<MovingTile> >::_Wrap_alloc<std::allocator<MovingTile> >
	mov	ecx, DWORD PTR _this$[ebp]
	call	??0?$_Vector_val@U?$_Simple_types@UMovingTile@@@std@@@std@@QAE@XZ ; std::_Vector_val<std::_Simple_types<MovingTile> >::_Vector_val<std::_Simple_types<MovingTile> >

; 280  : 		}

	mov	eax, DWORD PTR _this$[ebp]
	pop	edi
	pop	esi
	pop	ebx
	add	esp, 204				; 000000ccH
	cmp	ebp, esp
	call	__RTC_CheckEsp
	mov	esp, ebp
	pop	ebp
	ret	4
??$?0$$V@?$_Compressed_pair@U?$_Wrap_alloc@V?$allocator@UMovingTile@@@std@@@std@@V?$_Vector_val@U?$_Simple_types@UMovingTile@@@std@@@2@$00@std@@QAE@U_Zero_then_variadic_args_t@1@@Z ENDP ; std::_Compressed_pair<std::_Wrap_alloc<std::allocator<MovingTile> >,std::_Vector_val<std::_Simple_types<MovingTile> >,1>::_Compressed_pair<std::_Wrap_alloc<std::allocator<MovingTile> >,std::_Vector_val<std::_Simple_types<MovingTile> >,1><>
_TEXT	ENDS
; Function compile flags: /Odtp /RTCsu /ZI
; File c:\program files (x86)\microsoft visual studio 14.0\vc\include\xmemory0
;	COMDAT ??$construct@UPushTile@@ABU1@@?$_Wrap_alloc@V?$allocator@UPushTile@@@std@@@std@@QAEXPAUPushTile@@ABU2@@Z
_TEXT	SEGMENT
_this$ = -8						; size = 4
__Ptr$ = 8						; size = 4
_<_Args_0>$ = 12					; size = 4
??$construct@UPushTile@@ABU1@@?$_Wrap_alloc@V?$allocator@UPushTile@@@std@@@std@@QAEXPAUPushTile@@ABU2@@Z PROC ; std::_Wrap_alloc<std::allocator<PushTile> >::construct<PushTile,PushTile const &>, COMDAT
; _this$ = ecx

; 892  : 		{	// construct _Ty(_Types...) at _Ptr

	push	ebp
	mov	ebp, esp
	sub	esp, 204				; 000000ccH
	push	ebx
	push	esi
	push	edi
	push	ecx
	lea	edi, DWORD PTR [ebp-204]
	mov	ecx, 51					; 00000033H
	mov	eax, -858993460				; ccccccccH
	rep stosd
	pop	ecx
	mov	DWORD PTR _this$[ebp], ecx

; 893  : 		_Mytraits::construct(*this, _Ptr,

	mov	eax, DWORD PTR _<_Args_0>$[ebp]
	push	eax
	call	??$forward@ABUPushTile@@@std@@YAABUPushTile@@ABU1@@Z ; std::forward<PushTile const &>
	add	esp, 4
	push	eax
	mov	ecx, DWORD PTR __Ptr$[ebp]
	push	ecx
	mov	edx, DWORD PTR _this$[ebp]
	push	edx
	call	??$construct@UPushTile@@ABU1@@?$allocator_traits@V?$allocator@UPushTile@@@std@@@std@@SAXAAV?$allocator@UPushTile@@@1@PAUPushTile@@ABU3@@Z ; std::allocator_traits<std::allocator<PushTile> >::construct<PushTile,PushTile const &>
	add	esp, 12					; 0000000cH

; 894  : 			_STD forward<_Types>(_Args)...);
; 895  : 		}

	pop	edi
	pop	esi
	pop	ebx
	add	esp, 204				; 000000ccH
	cmp	ebp, esp
	call	__RTC_CheckEsp
	mov	esp, ebp
	pop	ebp
	ret	8
??$construct@UPushTile@@ABU1@@?$_Wrap_alloc@V?$allocator@UPushTile@@@std@@@std@@QAEXPAUPushTile@@ABU2@@Z ENDP ; std::_Wrap_alloc<std::allocator<PushTile> >::construct<PushTile,PushTile const &>
_TEXT	ENDS
; Function compile flags: /Odtp /RTCsu /ZI
; File c:\program files (x86)\microsoft visual studio 14.0\vc\include\xmemory0
;	COMDAT ??$construct@UPushTile@@AAU1@@?$_Wrap_alloc@V?$allocator@UPushTile@@@std@@@std@@QAEXPAUPushTile@@AAU2@@Z
_TEXT	SEGMENT
_this$ = -8						; size = 4
__Ptr$ = 8						; size = 4
_<_Args_0>$ = 12					; size = 4
??$construct@UPushTile@@AAU1@@?$_Wrap_alloc@V?$allocator@UPushTile@@@std@@@std@@QAEXPAUPushTile@@AAU2@@Z PROC ; std::_Wrap_alloc<std::allocator<PushTile> >::construct<PushTile,PushTile &>, COMDAT
; _this$ = ecx

; 892  : 		{	// construct _Ty(_Types...) at _Ptr

	push	ebp
	mov	ebp, esp
	sub	esp, 204				; 000000ccH
	push	ebx
	push	esi
	push	edi
	push	ecx
	lea	edi, DWORD PTR [ebp-204]
	mov	ecx, 51					; 00000033H
	mov	eax, -858993460				; ccccccccH
	rep stosd
	pop	ecx
	mov	DWORD PTR _this$[ebp], ecx

; 893  : 		_Mytraits::construct(*this, _Ptr,

	mov	eax, DWORD PTR _<_Args_0>$[ebp]
	push	eax
	call	??$forward@AAUPushTile@@@std@@YAAAUPushTile@@AAU1@@Z ; std::forward<PushTile &>
	add	esp, 4
	push	eax
	mov	ecx, DWORD PTR __Ptr$[ebp]
	push	ecx
	mov	edx, DWORD PTR _this$[ebp]
	push	edx
	call	??$construct@UPushTile@@AAU1@@?$allocator_traits@V?$allocator@UPushTile@@@std@@@std@@SAXAAV?$allocator@UPushTile@@@1@PAUPushTile@@AAU3@@Z ; std::allocator_traits<std::allocator<PushTile> >::construct<PushTile,PushTile &>
	add	esp, 12					; 0000000cH

; 894  : 			_STD forward<_Types>(_Args)...);
; 895  : 		}

	pop	edi
	pop	esi
	pop	ebx
	add	esp, 204				; 000000ccH
	cmp	ebp, esp
	call	__RTC_CheckEsp
	mov	esp, ebp
	pop	ebp
	ret	8
??$construct@UPushTile@@AAU1@@?$_Wrap_alloc@V?$allocator@UPushTile@@@std@@@std@@QAEXPAUPushTile@@AAU2@@Z ENDP ; std::_Wrap_alloc<std::allocator<PushTile> >::construct<PushTile,PushTile &>
_TEXT	ENDS
; Function compile flags: /Odtp /RTCsu /ZI
; File c:\program files (x86)\microsoft visual studio 14.0\vc\include\xstddef
;	COMDAT ??$addressof@$$CBUPushTile@@@std@@YAPBUPushTile@@ABU1@@Z
_TEXT	SEGMENT
$T1 = -209						; size = 1
__Val$ = 8						; size = 4
??$addressof@$$CBUPushTile@@@std@@YAPBUPushTile@@ABU1@@Z PROC ; std::addressof<PushTile const >, COMDAT

; 715  : 	{	// return address of _Val

	push	ebp
	mov	ebp, esp
	sub	esp, 216				; 000000d8H
	push	ebx
	push	esi
	push	edi
	lea	edi, DWORD PTR [ebp-216]
	mov	ecx, 54					; 00000036H
	mov	eax, -858993460				; ccccccccH
	rep stosd

; 716  : 	return (_Addressof(_Val, is_function<_Ty>()));

	movzx	eax, BYTE PTR $T1[ebp]
	push	eax
	mov	ecx, DWORD PTR __Val$[ebp]
	push	ecx
	call	??$_Addressof@$$CBUPushTile@@@std@@YAPBUPushTile@@ABU1@U?$integral_constant@_N$0A@@0@@Z ; std::_Addressof<PushTile const >
	add	esp, 8

; 717  : 	}

	pop	edi
	pop	esi
	pop	ebx
	add	esp, 216				; 000000d8H
	cmp	ebp, esp
	call	__RTC_CheckEsp
	mov	esp, ebp
	pop	ebp
	ret	0
??$addressof@$$CBUPushTile@@@std@@YAPBUPushTile@@ABU1@@Z ENDP ; std::addressof<PushTile const >
_TEXT	ENDS
; Function compile flags: /Odtp /RTCsu /ZI
; File c:\program files (x86)\microsoft visual studio 14.0\vc\include\xmemory0
;	COMDAT ??$construct@UTile@@ABU1@@?$_Wrap_alloc@V?$allocator@UTile@@@std@@@std@@QAEXPAUTile@@ABU2@@Z
_TEXT	SEGMENT
_this$ = -8						; size = 4
__Ptr$ = 8						; size = 4
_<_Args_0>$ = 12					; size = 4
??$construct@UTile@@ABU1@@?$_Wrap_alloc@V?$allocator@UTile@@@std@@@std@@QAEXPAUTile@@ABU2@@Z PROC ; std::_Wrap_alloc<std::allocator<Tile> >::construct<Tile,Tile const &>, COMDAT
; _this$ = ecx

; 892  : 		{	// construct _Ty(_Types...) at _Ptr

	push	ebp
	mov	ebp, esp
	sub	esp, 204				; 000000ccH
	push	ebx
	push	esi
	push	edi
	push	ecx
	lea	edi, DWORD PTR [ebp-204]
	mov	ecx, 51					; 00000033H
	mov	eax, -858993460				; ccccccccH
	rep stosd
	pop	ecx
	mov	DWORD PTR _this$[ebp], ecx

; 893  : 		_Mytraits::construct(*this, _Ptr,

	mov	eax, DWORD PTR _<_Args_0>$[ebp]
	push	eax
	call	??$forward@ABUTile@@@std@@YAABUTile@@ABU1@@Z ; std::forward<Tile const &>
	add	esp, 4
	push	eax
	mov	ecx, DWORD PTR __Ptr$[ebp]
	push	ecx
	mov	edx, DWORD PTR _this$[ebp]
	push	edx
	call	??$construct@UTile@@ABU1@@?$allocator_traits@V?$allocator@UTile@@@std@@@std@@SAXAAV?$allocator@UTile@@@1@PAUTile@@ABU3@@Z ; std::allocator_traits<std::allocator<Tile> >::construct<Tile,Tile const &>
	add	esp, 12					; 0000000cH

; 894  : 			_STD forward<_Types>(_Args)...);
; 895  : 		}

	pop	edi
	pop	esi
	pop	ebx
	add	esp, 204				; 000000ccH
	cmp	ebp, esp
	call	__RTC_CheckEsp
	mov	esp, ebp
	pop	ebp
	ret	8
??$construct@UTile@@ABU1@@?$_Wrap_alloc@V?$allocator@UTile@@@std@@@std@@QAEXPAUTile@@ABU2@@Z ENDP ; std::_Wrap_alloc<std::allocator<Tile> >::construct<Tile,Tile const &>
_TEXT	ENDS
; Function compile flags: /Odtp /RTCsu /ZI
; File c:\program files (x86)\microsoft visual studio 14.0\vc\include\xmemory0
;	COMDAT ??$construct@UTile@@AAU1@@?$_Wrap_alloc@V?$allocator@UTile@@@std@@@std@@QAEXPAUTile@@AAU2@@Z
_TEXT	SEGMENT
_this$ = -8						; size = 4
__Ptr$ = 8						; size = 4
_<_Args_0>$ = 12					; size = 4
??$construct@UTile@@AAU1@@?$_Wrap_alloc@V?$allocator@UTile@@@std@@@std@@QAEXPAUTile@@AAU2@@Z PROC ; std::_Wrap_alloc<std::allocator<Tile> >::construct<Tile,Tile &>, COMDAT
; _this$ = ecx

; 892  : 		{	// construct _Ty(_Types...) at _Ptr

	push	ebp
	mov	ebp, esp
	sub	esp, 204				; 000000ccH
	push	ebx
	push	esi
	push	edi
	push	ecx
	lea	edi, DWORD PTR [ebp-204]
	mov	ecx, 51					; 00000033H
	mov	eax, -858993460				; ccccccccH
	rep stosd
	pop	ecx
	mov	DWORD PTR _this$[ebp], ecx

; 893  : 		_Mytraits::construct(*this, _Ptr,

	mov	eax, DWORD PTR _<_Args_0>$[ebp]
	push	eax
	call	??$forward@AAUTile@@@std@@YAAAUTile@@AAU1@@Z ; std::forward<Tile &>
	add	esp, 4
	push	eax
	mov	ecx, DWORD PTR __Ptr$[ebp]
	push	ecx
	mov	edx, DWORD PTR _this$[ebp]
	push	edx
	call	??$construct@UTile@@AAU1@@?$allocator_traits@V?$allocator@UTile@@@std@@@std@@SAXAAV?$allocator@UTile@@@1@PAUTile@@AAU3@@Z ; std::allocator_traits<std::allocator<Tile> >::construct<Tile,Tile &>
	add	esp, 12					; 0000000cH

; 894  : 			_STD forward<_Types>(_Args)...);
; 895  : 		}

	pop	edi
	pop	esi
	pop	ebx
	add	esp, 204				; 000000ccH
	cmp	ebp, esp
	call	__RTC_CheckEsp
	mov	esp, ebp
	pop	ebp
	ret	8
??$construct@UTile@@AAU1@@?$_Wrap_alloc@V?$allocator@UTile@@@std@@@std@@QAEXPAUTile@@AAU2@@Z ENDP ; std::_Wrap_alloc<std::allocator<Tile> >::construct<Tile,Tile &>
_TEXT	ENDS
; Function compile flags: /Odtp /RTCsu /ZI
; File c:\program files (x86)\microsoft visual studio 14.0\vc\include\xstddef
;	COMDAT ??$addressof@$$CBUTile@@@std@@YAPBUTile@@ABU1@@Z
_TEXT	SEGMENT
$T1 = -209						; size = 1
__Val$ = 8						; size = 4
??$addressof@$$CBUTile@@@std@@YAPBUTile@@ABU1@@Z PROC	; std::addressof<Tile const >, COMDAT

; 715  : 	{	// return address of _Val

	push	ebp
	mov	ebp, esp
	sub	esp, 216				; 000000d8H
	push	ebx
	push	esi
	push	edi
	lea	edi, DWORD PTR [ebp-216]
	mov	ecx, 54					; 00000036H
	mov	eax, -858993460				; ccccccccH
	rep stosd

; 716  : 	return (_Addressof(_Val, is_function<_Ty>()));

	movzx	eax, BYTE PTR $T1[ebp]
	push	eax
	mov	ecx, DWORD PTR __Val$[ebp]
	push	ecx
	call	??$_Addressof@$$CBUTile@@@std@@YAPBUTile@@ABU1@U?$integral_constant@_N$0A@@0@@Z ; std::_Addressof<Tile const >
	add	esp, 8

; 717  : 	}

	pop	edi
	pop	esi
	pop	ebx
	add	esp, 216				; 000000d8H
	cmp	ebp, esp
	call	__RTC_CheckEsp
	mov	esp, ebp
	pop	ebp
	ret	0
??$addressof@$$CBUTile@@@std@@YAPBUTile@@ABU1@@Z ENDP	; std::addressof<Tile const >
_TEXT	ENDS
; Function compile flags: /Odtp /RTCsu /ZI
; File c:\program files (x86)\microsoft visual studio 14.0\vc\include\xmemory0
;	COMDAT ??$construct@UMovingTile@@ABU1@@?$_Wrap_alloc@V?$allocator@UMovingTile@@@std@@@std@@QAEXPAUMovingTile@@ABU2@@Z
_TEXT	SEGMENT
_this$ = -8						; size = 4
__Ptr$ = 8						; size = 4
_<_Args_0>$ = 12					; size = 4
??$construct@UMovingTile@@ABU1@@?$_Wrap_alloc@V?$allocator@UMovingTile@@@std@@@std@@QAEXPAUMovingTile@@ABU2@@Z PROC ; std::_Wrap_alloc<std::allocator<MovingTile> >::construct<MovingTile,MovingTile const &>, COMDAT
; _this$ = ecx

; 892  : 		{	// construct _Ty(_Types...) at _Ptr

	push	ebp
	mov	ebp, esp
	sub	esp, 204				; 000000ccH
	push	ebx
	push	esi
	push	edi
	push	ecx
	lea	edi, DWORD PTR [ebp-204]
	mov	ecx, 51					; 00000033H
	mov	eax, -858993460				; ccccccccH
	rep stosd
	pop	ecx
	mov	DWORD PTR _this$[ebp], ecx

; 893  : 		_Mytraits::construct(*this, _Ptr,

	mov	eax, DWORD PTR _<_Args_0>$[ebp]
	push	eax
	call	??$forward@ABUMovingTile@@@std@@YAABUMovingTile@@ABU1@@Z ; std::forward<MovingTile const &>
	add	esp, 4
	push	eax
	mov	ecx, DWORD PTR __Ptr$[ebp]
	push	ecx
	mov	edx, DWORD PTR _this$[ebp]
	push	edx
	call	??$construct@UMovingTile@@ABU1@@?$allocator_traits@V?$allocator@UMovingTile@@@std@@@std@@SAXAAV?$allocator@UMovingTile@@@1@PAUMovingTile@@ABU3@@Z ; std::allocator_traits<std::allocator<MovingTile> >::construct<MovingTile,MovingTile const &>
	add	esp, 12					; 0000000cH

; 894  : 			_STD forward<_Types>(_Args)...);
; 895  : 		}

	pop	edi
	pop	esi
	pop	ebx
	add	esp, 204				; 000000ccH
	cmp	ebp, esp
	call	__RTC_CheckEsp
	mov	esp, ebp
	pop	ebp
	ret	8
??$construct@UMovingTile@@ABU1@@?$_Wrap_alloc@V?$allocator@UMovingTile@@@std@@@std@@QAEXPAUMovingTile@@ABU2@@Z ENDP ; std::_Wrap_alloc<std::allocator<MovingTile> >::construct<MovingTile,MovingTile const &>
_TEXT	ENDS
; Function compile flags: /Odtp /RTCsu /ZI
; File c:\program files (x86)\microsoft visual studio 14.0\vc\include\xmemory0
;	COMDAT ??$construct@UMovingTile@@AAU1@@?$_Wrap_alloc@V?$allocator@UMovingTile@@@std@@@std@@QAEXPAUMovingTile@@AAU2@@Z
_TEXT	SEGMENT
_this$ = -8						; size = 4
__Ptr$ = 8						; size = 4
_<_Args_0>$ = 12					; size = 4
??$construct@UMovingTile@@AAU1@@?$_Wrap_alloc@V?$allocator@UMovingTile@@@std@@@std@@QAEXPAUMovingTile@@AAU2@@Z PROC ; std::_Wrap_alloc<std::allocator<MovingTile> >::construct<MovingTile,MovingTile &>, COMDAT
; _this$ = ecx

; 892  : 		{	// construct _Ty(_Types...) at _Ptr

	push	ebp
	mov	ebp, esp
	sub	esp, 204				; 000000ccH
	push	ebx
	push	esi
	push	edi
	push	ecx
	lea	edi, DWORD PTR [ebp-204]
	mov	ecx, 51					; 00000033H
	mov	eax, -858993460				; ccccccccH
	rep stosd
	pop	ecx
	mov	DWORD PTR _this$[ebp], ecx

; 893  : 		_Mytraits::construct(*this, _Ptr,

	mov	eax, DWORD PTR _<_Args_0>$[ebp]
	push	eax
	call	??$forward@AAUMovingTile@@@std@@YAAAUMovingTile@@AAU1@@Z ; std::forward<MovingTile &>
	add	esp, 4
	push	eax
	mov	ecx, DWORD PTR __Ptr$[ebp]
	push	ecx
	mov	edx, DWORD PTR _this$[ebp]
	push	edx
	call	??$construct@UMovingTile@@AAU1@@?$allocator_traits@V?$allocator@UMovingTile@@@std@@@std@@SAXAAV?$allocator@UMovingTile@@@1@PAUMovingTile@@AAU3@@Z ; std::allocator_traits<std::allocator<MovingTile> >::construct<MovingTile,MovingTile &>
	add	esp, 12					; 0000000cH

; 894  : 			_STD forward<_Types>(_Args)...);
; 895  : 		}

	pop	edi
	pop	esi
	pop	ebx
	add	esp, 204				; 000000ccH
	cmp	ebp, esp
	call	__RTC_CheckEsp
	mov	esp, ebp
	pop	ebp
	ret	8
??$construct@UMovingTile@@AAU1@@?$_Wrap_alloc@V?$allocator@UMovingTile@@@std@@@std@@QAEXPAUMovingTile@@AAU2@@Z ENDP ; std::_Wrap_alloc<std::allocator<MovingTile> >::construct<MovingTile,MovingTile &>
_TEXT	ENDS
; Function compile flags: /Odtp /RTCsu /ZI
; File c:\program files (x86)\microsoft visual studio 14.0\vc\include\xstddef
;	COMDAT ??$addressof@$$CBUMovingTile@@@std@@YAPBUMovingTile@@ABU1@@Z
_TEXT	SEGMENT
$T1 = -209						; size = 1
__Val$ = 8						; size = 4
??$addressof@$$CBUMovingTile@@@std@@YAPBUMovingTile@@ABU1@@Z PROC ; std::addressof<MovingTile const >, COMDAT

; 715  : 	{	// return address of _Val

	push	ebp
	mov	ebp, esp
	sub	esp, 216				; 000000d8H
	push	ebx
	push	esi
	push	edi
	lea	edi, DWORD PTR [ebp-216]
	mov	ecx, 54					; 00000036H
	mov	eax, -858993460				; ccccccccH
	rep stosd

; 716  : 	return (_Addressof(_Val, is_function<_Ty>()));

	movzx	eax, BYTE PTR $T1[ebp]
	push	eax
	mov	ecx, DWORD PTR __Val$[ebp]
	push	ecx
	call	??$_Addressof@$$CBUMovingTile@@@std@@YAPBUMovingTile@@ABU1@U?$integral_constant@_N$0A@@0@@Z ; std::_Addressof<MovingTile const >
	add	esp, 8

; 717  : 	}

	pop	edi
	pop	esi
	pop	ebx
	add	esp, 216				; 000000d8H
	cmp	ebp, esp
	call	__RTC_CheckEsp
	mov	esp, ebp
	pop	ebp
	ret	0
??$addressof@$$CBUMovingTile@@@std@@YAPBUMovingTile@@ABU1@@Z ENDP ; std::addressof<MovingTile const >
_TEXT	ENDS
; Function compile flags: /Odtp /RTCsu /ZI
; File g:\projects\lotion\lotion\environment.cpp
;	COMDAT ?DrawTile@@YAXUTile@@QAH@Z
_TEXT	SEGMENT
_tile$ = 8						; size = 32
_color$ = 40						; size = 4
?DrawTile@@YAXUTile@@QAH@Z PROC				; DrawTile, COMDAT

; 54   : void DrawTile(Tile tile, int color[]) {

	push	ebp
	mov	ebp, esp
	sub	esp, 192				; 000000c0H
	push	ebx
	push	esi
	push	edi
	lea	edi, DWORD PTR [ebp-192]
	mov	ecx, 48					; 00000030H
	mov	eax, -858993460				; ccccccccH
	rep stosd

; 55   : 	DrawRect(tile.position, tile.width, tile.height, color);

	mov	eax, DWORD PTR _color$[ebp]
	push	eax
	mov	ecx, DWORD PTR _tile$[ebp+20]
	push	ecx
	mov	edx, DWORD PTR _tile$[ebp+16]
	push	edx
	sub	esp, 16					; 00000010H
	mov	eax, esp
	mov	ecx, DWORD PTR _tile$[ebp]
	mov	DWORD PTR [eax], ecx
	mov	edx, DWORD PTR _tile$[ebp+4]
	mov	DWORD PTR [eax+4], edx
	mov	ecx, DWORD PTR _tile$[ebp+8]
	mov	DWORD PTR [eax+8], ecx
	mov	edx, DWORD PTR _tile$[ebp+12]
	mov	DWORD PTR [eax+12], edx
	call	?DrawRect@@YAXVVector2@@HHQAH@Z		; DrawRect
	add	esp, 28					; 0000001cH

; 56   : }

	pop	edi
	pop	esi
	pop	ebx
	add	esp, 192				; 000000c0H
	cmp	ebp, esp
	call	__RTC_CheckEsp
	mov	esp, ebp
	pop	ebp
	ret	0
?DrawTile@@YAXUTile@@QAH@Z ENDP				; DrawTile
_TEXT	ENDS
; Function compile flags: /Odtp /RTCsu /ZI
;	COMDAT ?__autoclassinit2@?$_Vector_iterator@V?$_Vector_val@U?$_Simple_types@UTile@@@std@@@std@@@std@@QAEXI@Z
_TEXT	SEGMENT
_this$ = -8						; size = 4
_classSize$ = 8						; size = 4
?__autoclassinit2@?$_Vector_iterator@V?$_Vector_val@U?$_Simple_types@UTile@@@std@@@std@@@std@@QAEXI@Z PROC ; std::_Vector_iterator<std::_Vector_val<std::_Simple_types<Tile> > >::__autoclassinit2, COMDAT
; _this$ = ecx
	push	ebp
	mov	ebp, esp
	sub	esp, 204				; 000000ccH
	push	ebx
	push	esi
	push	edi
	push	ecx
	lea	edi, DWORD PTR [ebp-204]
	mov	ecx, 51					; 00000033H
	mov	eax, -858993460				; ccccccccH
	rep stosd
	pop	ecx
	mov	DWORD PTR _this$[ebp], ecx
	mov	eax, DWORD PTR _classSize$[ebp]
	push	eax
	push	0
	mov	ecx, DWORD PTR _this$[ebp]
	push	ecx
	call	_memset
	add	esp, 12					; 0000000cH
	pop	edi
	pop	esi
	pop	ebx
	add	esp, 204				; 000000ccH
	cmp	ebp, esp
	call	__RTC_CheckEsp
	mov	esp, ebp
	pop	ebp
	ret	4
?__autoclassinit2@?$_Vector_iterator@V?$_Vector_val@U?$_Simple_types@UTile@@@std@@@std@@@std@@QAEXI@Z ENDP ; std::_Vector_iterator<std::_Vector_val<std::_Simple_types<Tile> > >::__autoclassinit2
_TEXT	ENDS
; Function compile flags: /Odtp /RTCsu /ZI
;	COMDAT ??1?$_Vector_iterator@V?$_Vector_val@U?$_Simple_types@UTile@@@std@@@std@@@std@@QAE@XZ
_TEXT	SEGMENT
_this$ = -8						; size = 4
??1?$_Vector_iterator@V?$_Vector_val@U?$_Simple_types@UTile@@@std@@@std@@@std@@QAE@XZ PROC ; std::_Vector_iterator<std::_Vector_val<std::_Simple_types<Tile> > >::~_Vector_iterator<std::_Vector_val<std::_Simple_types<Tile> > >, COMDAT
; _this$ = ecx
	push	ebp
	mov	ebp, esp
	sub	esp, 204				; 000000ccH
	push	ebx
	push	esi
	push	edi
	push	ecx
	lea	edi, DWORD PTR [ebp-204]
	mov	ecx, 51					; 00000033H
	mov	eax, -858993460				; ccccccccH
	rep stosd
	pop	ecx
	mov	DWORD PTR _this$[ebp], ecx
	mov	ecx, DWORD PTR _this$[ebp]
	call	??1?$_Vector_const_iterator@V?$_Vector_val@U?$_Simple_types@UTile@@@std@@@std@@@std@@QAE@XZ
	pop	edi
	pop	esi
	pop	ebx
	add	esp, 204				; 000000ccH
	cmp	ebp, esp
	call	__RTC_CheckEsp
	mov	esp, ebp
	pop	ebp
	ret	0
??1?$_Vector_iterator@V?$_Vector_val@U?$_Simple_types@UTile@@@std@@@std@@@std@@QAE@XZ ENDP ; std::_Vector_iterator<std::_Vector_val<std::_Simple_types<Tile> > >::~_Vector_iterator<std::_Vector_val<std::_Simple_types<Tile> > >
_TEXT	ENDS
; Function compile flags: /Odtp /RTCsu /ZI
; File c:\program files (x86)\microsoft visual studio 14.0\vc\include\vector
;	COMDAT ??E?$_Vector_iterator@V?$_Vector_val@U?$_Simple_types@UTile@@@std@@@std@@@std@@QAEAAV01@XZ
_TEXT	SEGMENT
_this$ = -8						; size = 4
??E?$_Vector_iterator@V?$_Vector_val@U?$_Simple_types@UTile@@@std@@@std@@@std@@QAEAAV01@XZ PROC ; std::_Vector_iterator<std::_Vector_val<std::_Simple_types<Tile> > >::operator++, COMDAT
; _this$ = ecx

; 334  : 		{	// preincrement

	push	ebp
	mov	ebp, esp
	sub	esp, 204				; 000000ccH
	push	ebx
	push	esi
	push	edi
	push	ecx
	lea	edi, DWORD PTR [ebp-204]
	mov	ecx, 51					; 00000033H
	mov	eax, -858993460				; ccccccccH
	rep stosd
	pop	ecx
	mov	DWORD PTR _this$[ebp], ecx

; 335  : 		++*(_Mybase *)this;

	mov	ecx, DWORD PTR _this$[ebp]
	call	??E?$_Vector_const_iterator@V?$_Vector_val@U?$_Simple_types@UTile@@@std@@@std@@@std@@QAEAAV01@XZ ; std::_Vector_const_iterator<std::_Vector_val<std::_Simple_types<Tile> > >::operator++

; 336  : 		return (*this);

	mov	eax, DWORD PTR _this$[ebp]

; 337  : 		}

	pop	edi
	pop	esi
	pop	ebx
	add	esp, 204				; 000000ccH
	cmp	ebp, esp
	call	__RTC_CheckEsp
	mov	esp, ebp
	pop	ebp
	ret	0
??E?$_Vector_iterator@V?$_Vector_val@U?$_Simple_types@UTile@@@std@@@std@@@std@@QAEAAV01@XZ ENDP ; std::_Vector_iterator<std::_Vector_val<std::_Simple_types<Tile> > >::operator++
_TEXT	ENDS
; Function compile flags: /Odtp /RTCsu /ZI
; File c:\program files (x86)\microsoft visual studio 14.0\vc\include\vector
;	COMDAT ??D?$_Vector_iterator@V?$_Vector_val@U?$_Simple_types@UTile@@@std@@@std@@@std@@QBEAAUTile@@XZ
_TEXT	SEGMENT
_this$ = -8						; size = 4
??D?$_Vector_iterator@V?$_Vector_val@U?$_Simple_types@UTile@@@std@@@std@@@std@@QBEAAUTile@@XZ PROC ; std::_Vector_iterator<std::_Vector_val<std::_Simple_types<Tile> > >::operator*, COMDAT
; _this$ = ecx

; 324  : 		{	// return designated object

	push	ebp
	mov	ebp, esp
	sub	esp, 204				; 000000ccH
	push	ebx
	push	esi
	push	edi
	push	ecx
	lea	edi, DWORD PTR [ebp-204]
	mov	ecx, 51					; 00000033H
	mov	eax, -858993460				; ccccccccH
	rep stosd
	pop	ecx
	mov	DWORD PTR _this$[ebp], ecx

; 325  : 		return ((reference)**(_Mybase *)this);

	mov	ecx, DWORD PTR _this$[ebp]
	call	??D?$_Vector_const_iterator@V?$_Vector_val@U?$_Simple_types@UTile@@@std@@@std@@@std@@QBEABUTile@@XZ ; std::_Vector_const_iterator<std::_Vector_val<std::_Simple_types<Tile> > >::operator*

; 326  : 		}

	pop	edi
	pop	esi
	pop	ebx
	add	esp, 204				; 000000ccH
	cmp	ebp, esp
	call	__RTC_CheckEsp
	mov	esp, ebp
	pop	ebp
	ret	0
??D?$_Vector_iterator@V?$_Vector_val@U?$_Simple_types@UTile@@@std@@@std@@@std@@QBEAAUTile@@XZ ENDP ; std::_Vector_iterator<std::_Vector_val<std::_Simple_types<Tile> > >::operator*
_TEXT	ENDS
; Function compile flags: /Odtp /RTCsu /ZI
; File c:\program files (x86)\microsoft visual studio 14.0\vc\include\vector
;	COMDAT ??0?$_Vector_iterator@V?$_Vector_val@U?$_Simple_types@UTile@@@std@@@std@@@std@@QAE@PAUTile@@PBU_Container_base12@1@@Z
_TEXT	SEGMENT
_this$ = -8						; size = 4
__Parg$ = 8						; size = 4
__Pvector$ = 12						; size = 4
??0?$_Vector_iterator@V?$_Vector_val@U?$_Simple_types@UTile@@@std@@@std@@@std@@QAE@PAUTile@@PBU_Container_base12@1@@Z PROC ; std::_Vector_iterator<std::_Vector_val<std::_Simple_types<Tile> > >::_Vector_iterator<std::_Vector_val<std::_Simple_types<Tile> > >, COMDAT
; _this$ = ecx

; 307  : 		{	// construct with pointer _Parg

	push	ebp
	mov	ebp, esp
	sub	esp, 204				; 000000ccH
	push	ebx
	push	esi
	push	edi
	push	ecx
	lea	edi, DWORD PTR [ebp-204]
	mov	ecx, 51					; 00000033H
	mov	eax, -858993460				; ccccccccH
	rep stosd
	pop	ecx
	mov	DWORD PTR _this$[ebp], ecx

; 306  : 		: _Mybase(_Parg, _Pvector)

	mov	eax, DWORD PTR __Pvector$[ebp]
	push	eax
	mov	ecx, DWORD PTR __Parg$[ebp]
	push	ecx
	mov	ecx, DWORD PTR _this$[ebp]
	call	??0?$_Vector_const_iterator@V?$_Vector_val@U?$_Simple_types@UTile@@@std@@@std@@@std@@QAE@PAUTile@@PBU_Container_base12@1@@Z ; std::_Vector_const_iterator<std::_Vector_val<std::_Simple_types<Tile> > >::_Vector_const_iterator<std::_Vector_val<std::_Simple_types<Tile> > >

; 308  : 		}

	mov	eax, DWORD PTR _this$[ebp]
	pop	edi
	pop	esi
	pop	ebx
	add	esp, 204				; 000000ccH
	cmp	ebp, esp
	call	__RTC_CheckEsp
	mov	esp, ebp
	pop	ebp
	ret	8
??0?$_Vector_iterator@V?$_Vector_val@U?$_Simple_types@UTile@@@std@@@std@@@std@@QAE@PAUTile@@PBU_Container_base12@1@@Z ENDP ; std::_Vector_iterator<std::_Vector_val<std::_Simple_types<Tile> > >::_Vector_iterator<std::_Vector_val<std::_Simple_types<Tile> > >
_TEXT	ENDS
; Function compile flags: /Odtp /RTCsu /ZI
;	COMDAT ??1?$_Vector_const_iterator@V?$_Vector_val@U?$_Simple_types@UTile@@@std@@@std@@@std@@QAE@XZ
_TEXT	SEGMENT
_this$ = -8						; size = 4
??1?$_Vector_const_iterator@V?$_Vector_val@U?$_Simple_types@UTile@@@std@@@std@@@std@@QAE@XZ PROC ; std::_Vector_const_iterator<std::_Vector_val<std::_Simple_types<Tile> > >::~_Vector_const_iterator<std::_Vector_val<std::_Simple_types<Tile> > >, COMDAT
; _this$ = ecx
	push	ebp
	mov	ebp, esp
	sub	esp, 204				; 000000ccH
	push	ebx
	push	esi
	push	edi
	push	ecx
	lea	edi, DWORD PTR [ebp-204]
	mov	ecx, 51					; 00000033H
	mov	eax, -858993460				; ccccccccH
	rep stosd
	pop	ecx
	mov	DWORD PTR _this$[ebp], ecx
	mov	ecx, DWORD PTR _this$[ebp]
	call	??1?$_Iterator012@Urandom_access_iterator_tag@std@@UTile@@HPBU3@ABU3@U_Iterator_base12@2@@std@@QAE@XZ
	pop	edi
	pop	esi
	pop	ebx
	add	esp, 204				; 000000ccH
	cmp	ebp, esp
	call	__RTC_CheckEsp
	mov	esp, ebp
	pop	ebp
	ret	0
??1?$_Vector_const_iterator@V?$_Vector_val@U?$_Simple_types@UTile@@@std@@@std@@@std@@QAE@XZ ENDP ; std::_Vector_const_iterator<std::_Vector_val<std::_Simple_types<Tile> > >::~_Vector_const_iterator<std::_Vector_val<std::_Simple_types<Tile> > >
_TEXT	ENDS
; Function compile flags: /Odtp /RTCsu /ZI
; File c:\program files (x86)\microsoft visual studio 14.0\vc\include\vector
;	COMDAT ?_Compat@?$_Vector_const_iterator@V?$_Vector_val@U?$_Simple_types@UTile@@@std@@@std@@@std@@QBEXABV12@@Z
_TEXT	SEGMENT
_this$ = -8						; size = 4
__Right$ = 8						; size = 4
?_Compat@?$_Vector_const_iterator@V?$_Vector_val@U?$_Simple_types@UTile@@@std@@@std@@@std@@QBEXABV12@@Z PROC ; std::_Vector_const_iterator<std::_Vector_val<std::_Simple_types<Tile> > >::_Compat, COMDAT
; _this$ = ecx

; 239  : 		{	// test for compatible iterator pair

	push	ebp
	mov	ebp, esp
	sub	esp, 204				; 000000ccH
	push	ebx
	push	esi
	push	edi
	push	ecx
	lea	edi, DWORD PTR [ebp-204]
	mov	ecx, 51					; 00000033H
	mov	eax, -858993460				; ccccccccH
	rep stosd
	pop	ecx
	mov	DWORD PTR _this$[ebp], ecx

; 240  : 		if (this->_Getcont() != _Right._Getcont())

	mov	ecx, DWORD PTR _this$[ebp]
	call	?_Getcont@_Iterator_base12@std@@QBEPBU_Container_base12@2@XZ ; std::_Iterator_base12::_Getcont
	mov	esi, eax
	mov	ecx, DWORD PTR __Right$[ebp]
	call	?_Getcont@_Iterator_base12@std@@QBEPBU_Container_base12@2@XZ ; std::_Iterator_base12::_Getcont
	cmp	esi, eax
	je	$LN1@Compat

; 241  : 			{
; 242  : 			_DEBUG_ERROR("vector iterators incompatible");

	mov	esi, esp
	push	242					; 000000f2H
	push	OFFSET ??_C@_1IM@NCODKBJH@?$AAc?$AA?3?$AA?2?$AAp?$AAr?$AAo?$AAg?$AAr?$AAa?$AAm?$AA?5?$AAf?$AAi?$AAl?$AAe?$AAs?$AA?5?$AA?$CI?$AAx?$AA8?$AA6?$AA?$CJ?$AA?2?$AAm?$AAi?$AAc?$AAr?$AAo?$AAs?$AAo?$AAf?$AAt@
	push	OFFSET ??_C@_1DM@HINDPMBP@?$AAv?$AAe?$AAc?$AAt?$AAo?$AAr?$AA?5?$AAi?$AAt?$AAe?$AAr?$AAa?$AAt?$AAo?$AAr?$AAs?$AA?5?$AAi?$AAn?$AAc?$AAo?$AAm?$AAp?$AAa?$AAt?$AAi?$AAb?$AAl?$AAe?$AA?$AA@
	call	DWORD PTR __imp_?_Debug_message@std@@YAXPB_W0I@Z
	add	esp, 12					; 0000000cH
	cmp	esi, esp
	call	__RTC_CheckEsp

; 243  : 			_SCL_SECURE_INVALID_ARGUMENT;

	mov	eax, OFFSET ??_C@_0CI@FNPHFCCM@Standard?5C?$CL?$CL?5Libraries?5Invalid?5A@
	test	eax, eax
	je	SHORT $LN4@Compat
	xor	ecx, ecx
	jne	SHORT $LN5@Compat
$LN4@Compat:
	mov	esi, esp
	push	OFFSET ??_C@_1FO@GJIHNDLM@?$AA?$CC?$AAS?$AAt?$AAa?$AAn?$AAd?$AAa?$AAr?$AAd?$AA?5?$AAC?$AA?$CL?$AA?$CL?$AA?5?$AAL?$AAi?$AAb?$AAr?$AAa?$AAr?$AAi?$AAe?$AAs?$AA?5?$AAI?$AAn?$AAv?$AAa?$AAl?$AAi?$AAd?$AA?5@
	push	OFFSET ??_C@_17CNPHIMPH@?$AA?$CF?$AAl?$AAs?$AA?$AA@
	push	0
	push	243					; 000000f3H
	push	OFFSET ??_C@_1IM@NCODKBJH@?$AAc?$AA?3?$AA?2?$AAp?$AAr?$AAo?$AAg?$AAr?$AAa?$AAm?$AA?5?$AAf?$AAi?$AAl?$AAe?$AAs?$AA?5?$AA?$CI?$AAx?$AA8?$AA6?$AA?$CJ?$AA?2?$AAm?$AAi?$AAc?$AAr?$AAo?$AAs?$AAo?$AAf?$AAt@
	push	2
	call	DWORD PTR __imp___CrtDbgReportW
	add	esp, 24					; 00000018H
	cmp	esi, esp
	call	__RTC_CheckEsp
	cmp	eax, 1
	jne	SHORT $LN5@Compat
	int	3
$LN5@Compat:
	mov	esi, esp
	push	0
	push	243					; 000000f3H
	push	OFFSET ??_C@_1IM@NCODKBJH@?$AAc?$AA?3?$AA?2?$AAp?$AAr?$AAo?$AAg?$AAr?$AAa?$AAm?$AA?5?$AAf?$AAi?$AAl?$AAe?$AAs?$AA?5?$AA?$CI?$AAx?$AA8?$AA6?$AA?$CJ?$AA?2?$AAm?$AAi?$AAc?$AAr?$AAo?$AAs?$AAo?$AAf?$AAt@
	push	OFFSET ??_C@_1MO@FIOFHBNA@?$AAs?$AAt?$AAd?$AA?3?$AA?3?$AA_?$AAV?$AAe?$AAc?$AAt?$AAo?$AAr?$AA_?$AAc?$AAo?$AAn?$AAs?$AAt?$AA_?$AAi?$AAt?$AAe?$AAr?$AAa?$AAt?$AAo?$AAr?$AA?$DM?$AAc?$AAl?$AAa?$AAs@
	push	OFFSET ??_C@_1CG@JNLFBNGN@?$AA?$CC?$AAi?$AAn?$AAv?$AAa?$AAl?$AAi?$AAd?$AA?5?$AAa?$AAr?$AAg?$AAu?$AAm?$AAe?$AAn?$AAt?$AA?$CC?$AA?$AA@
	call	DWORD PTR __imp___invalid_parameter
	add	esp, 20					; 00000014H
	cmp	esi, esp
	call	__RTC_CheckEsp
$LN1@Compat:

; 244  : 			}
; 245  : 		}

	pop	edi
	pop	esi
	pop	ebx
	add	esp, 204				; 000000ccH
	cmp	ebp, esp
	call	__RTC_CheckEsp
	mov	esp, ebp
	pop	ebp
	ret	4
?_Compat@?$_Vector_const_iterator@V?$_Vector_val@U?$_Simple_types@UTile@@@std@@@std@@@std@@QBEXABV12@@Z ENDP ; std::_Vector_const_iterator<std::_Vector_val<std::_Simple_types<Tile> > >::_Compat
_TEXT	ENDS
; Function compile flags: /Odtp /RTCsu /ZI
; File c:\program files (x86)\microsoft visual studio 14.0\vc\include\vector
;	COMDAT ??9?$_Vector_const_iterator@V?$_Vector_val@U?$_Simple_types@UTile@@@std@@@std@@@std@@QBE_NABV01@@Z
_TEXT	SEGMENT
tv69 = -208						; size = 4
_this$ = -8						; size = 4
__Right$ = 8						; size = 4
??9?$_Vector_const_iterator@V?$_Vector_val@U?$_Simple_types@UTile@@@std@@@std@@@std@@QBE_NABV01@@Z PROC ; std::_Vector_const_iterator<std::_Vector_val<std::_Simple_types<Tile> > >::operator!=, COMDAT
; _this$ = ecx

; 212  : 		{	// test for iterator inequality

	push	ebp
	mov	ebp, esp
	sub	esp, 208				; 000000d0H
	push	ebx
	push	esi
	push	edi
	push	ecx
	lea	edi, DWORD PTR [ebp-208]
	mov	ecx, 52					; 00000034H
	mov	eax, -858993460				; ccccccccH
	rep stosd
	pop	ecx
	mov	DWORD PTR _this$[ebp], ecx

; 213  : 		return (!(*this == _Right));

	mov	eax, DWORD PTR __Right$[ebp]
	push	eax
	mov	ecx, DWORD PTR _this$[ebp]
	call	??8?$_Vector_const_iterator@V?$_Vector_val@U?$_Simple_types@UTile@@@std@@@std@@@std@@QBE_NABV01@@Z ; std::_Vector_const_iterator<std::_Vector_val<std::_Simple_types<Tile> > >::operator==
	movzx	ecx, al
	test	ecx, ecx
	jne	SHORT $LN3@operator
	mov	DWORD PTR tv69[ebp], 1
	jmp	SHORT $LN4@operator
$LN3@operator:
	mov	DWORD PTR tv69[ebp], 0
$LN4@operator:
	mov	al, BYTE PTR tv69[ebp]

; 214  : 		}

	pop	edi
	pop	esi
	pop	ebx
	add	esp, 208				; 000000d0H
	cmp	ebp, esp
	call	__RTC_CheckEsp
	mov	esp, ebp
	pop	ebp
	ret	4
??9?$_Vector_const_iterator@V?$_Vector_val@U?$_Simple_types@UTile@@@std@@@std@@@std@@QBE_NABV01@@Z ENDP ; std::_Vector_const_iterator<std::_Vector_val<std::_Simple_types<Tile> > >::operator!=
_TEXT	ENDS
; Function compile flags: /Odtp /RTCsu /ZI
; File c:\program files (x86)\microsoft visual studio 14.0\vc\include\vector
;	COMDAT ??8?$_Vector_const_iterator@V?$_Vector_val@U?$_Simple_types@UTile@@@std@@@std@@@std@@QBE_NABV01@@Z
_TEXT	SEGMENT
tv69 = -208						; size = 4
_this$ = -8						; size = 4
__Right$ = 8						; size = 4
??8?$_Vector_const_iterator@V?$_Vector_val@U?$_Simple_types@UTile@@@std@@@std@@@std@@QBE_NABV01@@Z PROC ; std::_Vector_const_iterator<std::_Vector_val<std::_Simple_types<Tile> > >::operator==, COMDAT
; _this$ = ecx

; 206  : 		{	// test for iterator equality

	push	ebp
	mov	ebp, esp
	sub	esp, 208				; 000000d0H
	push	ebx
	push	esi
	push	edi
	push	ecx
	lea	edi, DWORD PTR [ebp-208]
	mov	ecx, 52					; 00000034H
	mov	eax, -858993460				; ccccccccH
	rep stosd
	pop	ecx
	mov	DWORD PTR _this$[ebp], ecx

; 207  : 		_Compat(_Right);

	mov	eax, DWORD PTR __Right$[ebp]
	push	eax
	mov	ecx, DWORD PTR _this$[ebp]
	call	?_Compat@?$_Vector_const_iterator@V?$_Vector_val@U?$_Simple_types@UTile@@@std@@@std@@@std@@QBEXABV12@@Z ; std::_Vector_const_iterator<std::_Vector_val<std::_Simple_types<Tile> > >::_Compat

; 208  : 		return (_Ptr == _Right._Ptr);

	mov	eax, DWORD PTR _this$[ebp]
	mov	ecx, DWORD PTR __Right$[ebp]
	mov	edx, DWORD PTR [eax+8]
	cmp	edx, DWORD PTR [ecx+8]
	jne	SHORT $LN3@operator
	mov	DWORD PTR tv69[ebp], 1
	jmp	SHORT $LN4@operator
$LN3@operator:
	mov	DWORD PTR tv69[ebp], 0
$LN4@operator:
	mov	al, BYTE PTR tv69[ebp]

; 209  : 		}

	pop	edi
	pop	esi
	pop	ebx
	add	esp, 208				; 000000d0H
	cmp	ebp, esp
	call	__RTC_CheckEsp
	mov	esp, ebp
	pop	ebp
	ret	4
??8?$_Vector_const_iterator@V?$_Vector_val@U?$_Simple_types@UTile@@@std@@@std@@@std@@QBE_NABV01@@Z ENDP ; std::_Vector_const_iterator<std::_Vector_val<std::_Simple_types<Tile> > >::operator==
_TEXT	ENDS
; Function compile flags: /Odtp /RTCsu /ZI
; File c:\program files (x86)\microsoft visual studio 14.0\vc\include\vector
;	COMDAT ??E?$_Vector_const_iterator@V?$_Vector_val@U?$_Simple_types@UTile@@@std@@@std@@@std@@QAEAAV01@XZ
_TEXT	SEGMENT
_this$ = -8						; size = 4
??E?$_Vector_const_iterator@V?$_Vector_val@U?$_Simple_types@UTile@@@std@@@std@@@std@@QAEAAV01@XZ PROC ; std::_Vector_const_iterator<std::_Vector_val<std::_Simple_types<Tile> > >::operator++, COMDAT
; _this$ = ecx

; 95   : 		{	// preincrement

	push	ebp
	mov	ebp, esp
	sub	esp, 204				; 000000ccH
	push	ebx
	push	esi
	push	edi
	push	ecx
	lea	edi, DWORD PTR [ebp-204]
	mov	ecx, 51					; 00000033H
	mov	eax, -858993460				; ccccccccH
	rep stosd
	pop	ecx
	mov	DWORD PTR _this$[ebp], ecx

; 96   :  #if _ITERATOR_DEBUG_LEVEL == 2
; 97   : 		if (this->_Getcont() == 0
; 98   : 			|| _Ptr == 0
; 99   : 			|| ((_Myvec *)this->_Getcont())->_Mylast <= _Ptr)

	mov	ecx, DWORD PTR _this$[ebp]
	call	?_Getcont@_Iterator_base12@std@@QBEPBU_Container_base12@2@XZ ; std::_Iterator_base12::_Getcont
	test	eax, eax
	je	SHORT $LN3@operator
	mov	eax, DWORD PTR _this$[ebp]
	cmp	DWORD PTR [eax+8], 0
	je	SHORT $LN3@operator
	mov	ecx, DWORD PTR _this$[ebp]
	call	?_Getcont@_Iterator_base12@std@@QBEPBU_Container_base12@2@XZ ; std::_Iterator_base12::_Getcont
	mov	ecx, DWORD PTR _this$[ebp]
	mov	edx, DWORD PTR [eax+8]
	cmp	edx, DWORD PTR [ecx+8]
	ja	SHORT $LN2@operator
$LN3@operator:

; 100  : 			{	// report error
; 101  : 			_DEBUG_ERROR("vector iterator not incrementable");

	mov	esi, esp
	push	101					; 00000065H
	push	OFFSET ??_C@_1IM@NCODKBJH@?$AAc?$AA?3?$AA?2?$AAp?$AAr?$AAo?$AAg?$AAr?$AAa?$AAm?$AA?5?$AAf?$AAi?$AAl?$AAe?$AAs?$AA?5?$AA?$CI?$AAx?$AA8?$AA6?$AA?$CJ?$AA?2?$AAm?$AAi?$AAc?$AAr?$AAo?$AAs?$AAo?$AAf?$AAt@
	push	OFFSET ??_C@_1EE@EJDKCLKB@?$AAv?$AAe?$AAc?$AAt?$AAo?$AAr?$AA?5?$AAi?$AAt?$AAe?$AAr?$AAa?$AAt?$AAo?$AAr?$AA?5?$AAn?$AAo?$AAt?$AA?5?$AAi?$AAn?$AAc?$AAr?$AAe?$AAm?$AAe?$AAn?$AAt?$AAa?$AAb?$AAl@
	call	DWORD PTR __imp_?_Debug_message@std@@YAXPB_W0I@Z
	add	esp, 12					; 0000000cH
	cmp	esi, esp
	call	__RTC_CheckEsp

; 102  : 			_SCL_SECURE_OUT_OF_RANGE;

	mov	eax, OFFSET ??_C@_0CE@OFMIGAMM@Standard?5C?$CL?$CL?5Libraries?5Out?5of?5Ra@
	test	eax, eax
	je	SHORT $LN5@operator
	xor	ecx, ecx
	jne	SHORT $LN6@operator
$LN5@operator:
	mov	esi, esp
	push	OFFSET ??_C@_1FG@IBPIFFN@?$AA?$CC?$AAS?$AAt?$AAa?$AAn?$AAd?$AAa?$AAr?$AAd?$AA?5?$AAC?$AA?$CL?$AA?$CL?$AA?5?$AAL?$AAi?$AAb?$AAr?$AAa?$AAr?$AAi?$AAe?$AAs?$AA?5?$AAO?$AAu?$AAt?$AA?5?$AAo?$AAf?$AA?5?$AAR@
	push	OFFSET ??_C@_17CNPHIMPH@?$AA?$CF?$AAl?$AAs?$AA?$AA@
	push	0
	push	102					; 00000066H
	push	OFFSET ??_C@_1IM@NCODKBJH@?$AAc?$AA?3?$AA?2?$AAp?$AAr?$AAo?$AAg?$AAr?$AAa?$AAm?$AA?5?$AAf?$AAi?$AAl?$AAe?$AAs?$AA?5?$AA?$CI?$AAx?$AA8?$AA6?$AA?$CJ?$AA?2?$AAm?$AAi?$AAc?$AAr?$AAo?$AAs?$AAo?$AAf?$AAt@
	push	2
	call	DWORD PTR __imp___CrtDbgReportW
	add	esp, 24					; 00000018H
	cmp	esi, esp
	call	__RTC_CheckEsp
	cmp	eax, 1
	jne	SHORT $LN6@operator
	int	3
$LN6@operator:
	mov	esi, esp
	push	0
	push	102					; 00000066H
	push	OFFSET ??_C@_1IM@NCODKBJH@?$AAc?$AA?3?$AA?2?$AAp?$AAr?$AAo?$AAg?$AAr?$AAa?$AAm?$AA?5?$AAf?$AAi?$AAl?$AAe?$AAs?$AA?5?$AA?$CI?$AAx?$AA8?$AA6?$AA?$CJ?$AA?2?$AAm?$AAi?$AAc?$AAr?$AAo?$AAs?$AAo?$AAf?$AAt@
	push	OFFSET ??_C@_1NG@NCMKFBLG@?$AAs?$AAt?$AAd?$AA?3?$AA?3?$AA_?$AAV?$AAe?$AAc?$AAt?$AAo?$AAr?$AA_?$AAc?$AAo?$AAn?$AAs?$AAt?$AA_?$AAi?$AAt?$AAe?$AAr?$AAa?$AAt?$AAo?$AAr?$AA?$DM?$AAc?$AAl?$AAa?$AAs@
	push	OFFSET ??_C@_1BO@MEPPHOO@?$AA?$CC?$AAo?$AAu?$AAt?$AA?5?$AAo?$AAf?$AA?5?$AAr?$AAa?$AAn?$AAg?$AAe?$AA?$CC?$AA?$AA@
	call	DWORD PTR __imp___invalid_parameter
	add	esp, 20					; 00000014H
	cmp	esi, esp
	call	__RTC_CheckEsp
$LN2@operator:

; 103  : 			}
; 104  : 
; 105  :  #elif _ITERATOR_DEBUG_LEVEL == 1
; 106  : 		_SCL_SECURE_VALIDATE(this->_Getcont() != 0);
; 107  : 		_SCL_SECURE_VALIDATE_RANGE(
; 108  : 			_Ptr != _Tptr()
; 109  : 			&& _Ptr < ((_Myvec *)this->_Getcont())->_Mylast);
; 110  :  #endif /* _ITERATOR_DEBUG_LEVEL */
; 111  : 
; 112  : 		++_Ptr;

	mov	eax, DWORD PTR _this$[ebp]
	mov	ecx, DWORD PTR [eax+8]
	add	ecx, 32					; 00000020H
	mov	edx, DWORD PTR _this$[ebp]
	mov	DWORD PTR [edx+8], ecx

; 113  : 		return (*this);

	mov	eax, DWORD PTR _this$[ebp]

; 114  : 		}

	pop	edi
	pop	esi
	pop	ebx
	add	esp, 204				; 000000ccH
	cmp	ebp, esp
	call	__RTC_CheckEsp
	mov	esp, ebp
	pop	ebp
	ret	0
??E?$_Vector_const_iterator@V?$_Vector_val@U?$_Simple_types@UTile@@@std@@@std@@@std@@QAEAAV01@XZ ENDP ; std::_Vector_const_iterator<std::_Vector_val<std::_Simple_types<Tile> > >::operator++
_TEXT	ENDS
; Function compile flags: /Odtp /RTCsu /ZI
; File c:\program files (x86)\microsoft visual studio 14.0\vc\include\vector
;	COMDAT ??D?$_Vector_const_iterator@V?$_Vector_val@U?$_Simple_types@UTile@@@std@@@std@@@std@@QBEABUTile@@XZ
_TEXT	SEGMENT
_this$ = -8						; size = 4
??D?$_Vector_const_iterator@V?$_Vector_val@U?$_Simple_types@UTile@@@std@@@std@@@std@@QBEABUTile@@XZ PROC ; std::_Vector_const_iterator<std::_Vector_val<std::_Simple_types<Tile> > >::operator*, COMDAT
; _this$ = ecx

; 65   : 		{	// return designated object

	push	ebp
	mov	ebp, esp
	sub	esp, 204				; 000000ccH
	push	ebx
	push	esi
	push	edi
	push	ecx
	lea	edi, DWORD PTR [ebp-204]
	mov	ecx, 51					; 00000033H
	mov	eax, -858993460				; ccccccccH
	rep stosd
	pop	ecx
	mov	DWORD PTR _this$[ebp], ecx

; 66   :  #if _ITERATOR_DEBUG_LEVEL == 2
; 67   : 		if (this->_Getcont() == 0
; 68   : 			|| _Ptr == 0
; 69   : 			|| _Ptr < ((_Myvec *)this->_Getcont())->_Myfirst
; 70   : 			|| ((_Myvec *)this->_Getcont())->_Mylast <= _Ptr)

	mov	ecx, DWORD PTR _this$[ebp]
	call	?_Getcont@_Iterator_base12@std@@QBEPBU_Container_base12@2@XZ ; std::_Iterator_base12::_Getcont
	test	eax, eax
	je	SHORT $LN3@operator
	mov	eax, DWORD PTR _this$[ebp]
	cmp	DWORD PTR [eax+8], 0
	je	SHORT $LN3@operator
	mov	ecx, DWORD PTR _this$[ebp]
	call	?_Getcont@_Iterator_base12@std@@QBEPBU_Container_base12@2@XZ ; std::_Iterator_base12::_Getcont
	mov	ecx, DWORD PTR _this$[ebp]
	mov	edx, DWORD PTR [ecx+8]
	cmp	edx, DWORD PTR [eax+4]
	jb	SHORT $LN3@operator
	mov	ecx, DWORD PTR _this$[ebp]
	call	?_Getcont@_Iterator_base12@std@@QBEPBU_Container_base12@2@XZ ; std::_Iterator_base12::_Getcont
	mov	ecx, DWORD PTR _this$[ebp]
	mov	edx, DWORD PTR [eax+8]
	cmp	edx, DWORD PTR [ecx+8]
	ja	SHORT $LN2@operator
$LN3@operator:

; 71   : 			{	// report error
; 72   : 			_DEBUG_ERROR("vector iterator not dereferencable");

	mov	esi, esp
	push	72					; 00000048H
	push	OFFSET ??_C@_1IM@NCODKBJH@?$AAc?$AA?3?$AA?2?$AAp?$AAr?$AAo?$AAg?$AAr?$AAa?$AAm?$AA?5?$AAf?$AAi?$AAl?$AAe?$AAs?$AA?5?$AA?$CI?$AAx?$AA8?$AA6?$AA?$CJ?$AA?2?$AAm?$AAi?$AAc?$AAr?$AAo?$AAs?$AAo?$AAf?$AAt@
	push	OFFSET ??_C@_1EG@FOHJJHAC@?$AAv?$AAe?$AAc?$AAt?$AAo?$AAr?$AA?5?$AAi?$AAt?$AAe?$AAr?$AAa?$AAt?$AAo?$AAr?$AA?5?$AAn?$AAo?$AAt?$AA?5?$AAd?$AAe?$AAr?$AAe?$AAf?$AAe?$AAr?$AAe?$AAn?$AAc?$AAa?$AAb@
	call	DWORD PTR __imp_?_Debug_message@std@@YAXPB_W0I@Z
	add	esp, 12					; 0000000cH
	cmp	esi, esp
	call	__RTC_CheckEsp

; 73   : 			_SCL_SECURE_OUT_OF_RANGE;

	mov	eax, OFFSET ??_C@_0CE@OFMIGAMM@Standard?5C?$CL?$CL?5Libraries?5Out?5of?5Ra@
	test	eax, eax
	je	SHORT $LN5@operator
	xor	ecx, ecx
	jne	SHORT $LN6@operator
$LN5@operator:
	mov	esi, esp
	push	OFFSET ??_C@_1FG@IBPIFFN@?$AA?$CC?$AAS?$AAt?$AAa?$AAn?$AAd?$AAa?$AAr?$AAd?$AA?5?$AAC?$AA?$CL?$AA?$CL?$AA?5?$AAL?$AAi?$AAb?$AAr?$AAa?$AAr?$AAi?$AAe?$AAs?$AA?5?$AAO?$AAu?$AAt?$AA?5?$AAo?$AAf?$AA?5?$AAR@
	push	OFFSET ??_C@_17CNPHIMPH@?$AA?$CF?$AAl?$AAs?$AA?$AA@
	push	0
	push	73					; 00000049H
	push	OFFSET ??_C@_1IM@NCODKBJH@?$AAc?$AA?3?$AA?2?$AAp?$AAr?$AAo?$AAg?$AAr?$AAa?$AAm?$AA?5?$AAf?$AAi?$AAl?$AAe?$AAs?$AA?5?$AA?$CI?$AAx?$AA8?$AA6?$AA?$CJ?$AA?2?$AAm?$AAi?$AAc?$AAr?$AAo?$AAs?$AAo?$AAf?$AAt@
	push	2
	call	DWORD PTR __imp___CrtDbgReportW
	add	esp, 24					; 00000018H
	cmp	esi, esp
	call	__RTC_CheckEsp
	cmp	eax, 1
	jne	SHORT $LN6@operator
	int	3
$LN6@operator:
	mov	esi, esp
	push	0
	push	73					; 00000049H
	push	OFFSET ??_C@_1IM@NCODKBJH@?$AAc?$AA?3?$AA?2?$AAp?$AAr?$AAo?$AAg?$AAr?$AAa?$AAm?$AA?5?$AAf?$AAi?$AAl?$AAe?$AAs?$AA?5?$AA?$CI?$AAx?$AA8?$AA6?$AA?$CJ?$AA?2?$AAm?$AAi?$AAc?$AAr?$AAo?$AAs?$AAo?$AAf?$AAt@
	push	OFFSET ??_C@_1NE@MNCPAIHH@?$AAs?$AAt?$AAd?$AA?3?$AA?3?$AA_?$AAV?$AAe?$AAc?$AAt?$AAo?$AAr?$AA_?$AAc?$AAo?$AAn?$AAs?$AAt?$AA_?$AAi?$AAt?$AAe?$AAr?$AAa?$AAt?$AAo?$AAr?$AA?$DM?$AAc?$AAl?$AAa?$AAs@
	push	OFFSET ??_C@_1BO@MEPPHOO@?$AA?$CC?$AAo?$AAu?$AAt?$AA?5?$AAo?$AAf?$AA?5?$AAr?$AAa?$AAn?$AAg?$AAe?$AA?$CC?$AA?$AA@
	call	DWORD PTR __imp___invalid_parameter
	add	esp, 20					; 00000014H
	cmp	esi, esp
	call	__RTC_CheckEsp
$LN2@operator:

; 74   : 			}
; 75   : 
; 76   :  #elif _ITERATOR_DEBUG_LEVEL == 1
; 77   : 		_SCL_SECURE_VALIDATE(this->_Getcont() != 0);
; 78   : 		_SCL_SECURE_VALIDATE_RANGE(
; 79   : 			_Ptr != _Tptr()
; 80   : 			&& ((_Myvec *)this->_Getcont())->_Myfirst <= _Ptr
; 81   : 			&& _Ptr < ((_Myvec *)this->_Getcont())->_Mylast);
; 82   :  #endif /* _ITERATOR_DEBUG_LEVEL */
; 83   : 
; 84   : 		_Analysis_assume_(_Ptr != _Tptr());
; 85   : 
; 86   : 		return (*_Ptr);

	mov	eax, DWORD PTR _this$[ebp]
	mov	eax, DWORD PTR [eax+8]

; 87   : 		}

	pop	edi
	pop	esi
	pop	ebx
	add	esp, 204				; 000000ccH
	cmp	ebp, esp
	call	__RTC_CheckEsp
	mov	esp, ebp
	pop	ebp
	ret	0
??D?$_Vector_const_iterator@V?$_Vector_val@U?$_Simple_types@UTile@@@std@@@std@@@std@@QBEABUTile@@XZ ENDP ; std::_Vector_const_iterator<std::_Vector_val<std::_Simple_types<Tile> > >::operator*
_TEXT	ENDS
; Function compile flags: /Odtp /RTCsu /ZI
; File c:\program files (x86)\microsoft visual studio 14.0\vc\include\vector
;	COMDAT ??0?$_Vector_const_iterator@V?$_Vector_val@U?$_Simple_types@UTile@@@std@@@std@@@std@@QAE@PAUTile@@PBU_Container_base12@1@@Z
_TEXT	SEGMENT
_this$ = -20						; size = 4
__$EHRec$ = -12						; size = 12
__Parg$ = 8						; size = 4
__Pvector$ = 12						; size = 4
??0?$_Vector_const_iterator@V?$_Vector_val@U?$_Simple_types@UTile@@@std@@@std@@@std@@QAE@PAUTile@@PBU_Container_base12@1@@Z PROC ; std::_Vector_const_iterator<std::_Vector_val<std::_Simple_types<Tile> > >::_Vector_const_iterator<std::_Vector_val<std::_Simple_types<Tile> > >, COMDAT
; _this$ = ecx

; 47   : 		{	// construct with pointer _Parg

	push	ebp
	mov	ebp, esp
	push	-1
	push	__ehhandler$??0?$_Vector_const_iterator@V?$_Vector_val@U?$_Simple_types@UTile@@@std@@@std@@@std@@QAE@PAUTile@@PBU_Container_base12@1@@Z
	mov	eax, DWORD PTR fs:0
	push	eax
	sub	esp, 204				; 000000ccH
	push	ebx
	push	esi
	push	edi
	push	ecx
	lea	edi, DWORD PTR [ebp-216]
	mov	ecx, 51					; 00000033H
	mov	eax, -858993460				; ccccccccH
	rep stosd
	pop	ecx
	mov	eax, DWORD PTR ___security_cookie
	xor	eax, ebp
	push	eax
	lea	eax, DWORD PTR __$EHRec$[ebp]
	mov	DWORD PTR fs:0, eax
	mov	DWORD PTR _this$[ebp], ecx
	mov	ecx, DWORD PTR _this$[ebp]
	call	??0?$_Iterator012@Urandom_access_iterator_tag@std@@UTile@@HPBU3@ABU3@U_Iterator_base12@2@@std@@QAE@XZ
	mov	DWORD PTR __$EHRec$[ebp+8], 0

; 46   : 		: _Ptr(_Parg)

	mov	eax, DWORD PTR _this$[ebp]
	mov	ecx, DWORD PTR __Parg$[ebp]
	mov	DWORD PTR [eax+8], ecx

; 48   : 		this->_Adopt(_Pvector);

	mov	eax, DWORD PTR __Pvector$[ebp]
	push	eax
	mov	ecx, DWORD PTR _this$[ebp]
	call	?_Adopt@_Iterator_base12@std@@QAEXPBU_Container_base12@2@@Z ; std::_Iterator_base12::_Adopt

; 49   : 		}

	mov	DWORD PTR __$EHRec$[ebp+8], -1
	mov	eax, DWORD PTR _this$[ebp]
	mov	ecx, DWORD PTR __$EHRec$[ebp]
	mov	DWORD PTR fs:0, ecx
	pop	ecx
	pop	edi
	pop	esi
	pop	ebx
	add	esp, 216				; 000000d8H
	cmp	ebp, esp
	call	__RTC_CheckEsp
	mov	esp, ebp
	pop	ebp
	ret	8
_TEXT	ENDS
;	COMDAT text$x
text$x	SEGMENT
__unwindfunclet$??0?$_Vector_const_iterator@V?$_Vector_val@U?$_Simple_types@UTile@@@std@@@std@@@std@@QAE@PAUTile@@PBU_Container_base12@1@@Z$0:
	mov	ecx, DWORD PTR _this$[ebp]
	jmp	??1?$_Iterator012@Urandom_access_iterator_tag@std@@UTile@@HPBU3@ABU3@U_Iterator_base12@2@@std@@QAE@XZ
__ehhandler$??0?$_Vector_const_iterator@V?$_Vector_val@U?$_Simple_types@UTile@@@std@@@std@@@std@@QAE@PAUTile@@PBU_Container_base12@1@@Z:
	mov	edx, DWORD PTR [esp+8]
	lea	eax, DWORD PTR [edx+12]
	mov	ecx, DWORD PTR [edx-220]
	xor	ecx, eax
	call	@__security_check_cookie@4
	mov	eax, OFFSET __ehfuncinfo$??0?$_Vector_const_iterator@V?$_Vector_val@U?$_Simple_types@UTile@@@std@@@std@@@std@@QAE@PAUTile@@PBU_Container_base12@1@@Z
	jmp	___CxxFrameHandler3
text$x	ENDS
??0?$_Vector_const_iterator@V?$_Vector_val@U?$_Simple_types@UTile@@@std@@@std@@@std@@QAE@PAUTile@@PBU_Container_base12@1@@Z ENDP ; std::_Vector_const_iterator<std::_Vector_val<std::_Simple_types<Tile> > >::_Vector_const_iterator<std::_Vector_val<std::_Simple_types<Tile> > >
; Function compile flags: /Odtp /RTCsu /ZI
;	COMDAT ??1?$_Iterator012@Urandom_access_iterator_tag@std@@UTile@@HPBU3@ABU3@U_Iterator_base12@2@@std@@QAE@XZ
_TEXT	SEGMENT
_this$ = -8						; size = 4
??1?$_Iterator012@Urandom_access_iterator_tag@std@@UTile@@HPBU3@ABU3@U_Iterator_base12@2@@std@@QAE@XZ PROC ; std::_Iterator012<std::random_access_iterator_tag,Tile,int,Tile const *,Tile const &,std::_Iterator_base12>::~_Iterator012<std::random_access_iterator_tag,Tile,int,Tile const *,Tile const &,std::_Iterator_base12>, COMDAT
; _this$ = ecx
	push	ebp
	mov	ebp, esp
	sub	esp, 204				; 000000ccH
	push	ebx
	push	esi
	push	edi
	push	ecx
	lea	edi, DWORD PTR [ebp-204]
	mov	ecx, 51					; 00000033H
	mov	eax, -858993460				; ccccccccH
	rep stosd
	pop	ecx
	mov	DWORD PTR _this$[ebp], ecx
	mov	ecx, DWORD PTR _this$[ebp]
	call	??1_Iterator_base12@std@@QAE@XZ		; std::_Iterator_base12::~_Iterator_base12
	pop	edi
	pop	esi
	pop	ebx
	add	esp, 204				; 000000ccH
	cmp	ebp, esp
	call	__RTC_CheckEsp
	mov	esp, ebp
	pop	ebp
	ret	0
??1?$_Iterator012@Urandom_access_iterator_tag@std@@UTile@@HPBU3@ABU3@U_Iterator_base12@2@@std@@QAE@XZ ENDP ; std::_Iterator012<std::random_access_iterator_tag,Tile,int,Tile const *,Tile const &,std::_Iterator_base12>::~_Iterator012<std::random_access_iterator_tag,Tile,int,Tile const *,Tile const &,std::_Iterator_base12>
_TEXT	ENDS
; Function compile flags: /Odtp /RTCsu /ZI
;	COMDAT ??0?$_Iterator012@Urandom_access_iterator_tag@std@@UTile@@HPBU3@ABU3@U_Iterator_base12@2@@std@@QAE@XZ
_TEXT	SEGMENT
_this$ = -8						; size = 4
??0?$_Iterator012@Urandom_access_iterator_tag@std@@UTile@@HPBU3@ABU3@U_Iterator_base12@2@@std@@QAE@XZ PROC ; std::_Iterator012<std::random_access_iterator_tag,Tile,int,Tile const *,Tile const &,std::_Iterator_base12>::_Iterator012<std::random_access_iterator_tag,Tile,int,Tile const *,Tile const &,std::_Iterator_base12>, COMDAT
; _this$ = ecx
	push	ebp
	mov	ebp, esp
	sub	esp, 204				; 000000ccH
	push	ebx
	push	esi
	push	edi
	push	ecx
	lea	edi, DWORD PTR [ebp-204]
	mov	ecx, 51					; 00000033H
	mov	eax, -858993460				; ccccccccH
	rep stosd
	pop	ecx
	mov	DWORD PTR _this$[ebp], ecx
	mov	ecx, DWORD PTR _this$[ebp]
	call	??0_Iterator_base12@std@@QAE@XZ		; std::_Iterator_base12::_Iterator_base12
	mov	eax, DWORD PTR _this$[ebp]
	pop	edi
	pop	esi
	pop	ebx
	add	esp, 204				; 000000ccH
	cmp	ebp, esp
	call	__RTC_CheckEsp
	mov	esp, ebp
	pop	ebp
	ret	0
??0?$_Iterator012@Urandom_access_iterator_tag@std@@UTile@@HPBU3@ABU3@U_Iterator_base12@2@@std@@QAE@XZ ENDP ; std::_Iterator012<std::random_access_iterator_tag,Tile,int,Tile const *,Tile const &,std::_Iterator_base12>::_Iterator012<std::random_access_iterator_tag,Tile,int,Tile const *,Tile const &,std::_Iterator_base12>
_TEXT	ENDS
; Function compile flags: /Odtp /RTCsu /ZI
;	COMDAT ?__autoclassinit2@?$_Vector_iterator@V?$_Vector_val@U?$_Simple_types@UMovingTile@@@std@@@std@@@std@@QAEXI@Z
_TEXT	SEGMENT
_this$ = -8						; size = 4
_classSize$ = 8						; size = 4
?__autoclassinit2@?$_Vector_iterator@V?$_Vector_val@U?$_Simple_types@UMovingTile@@@std@@@std@@@std@@QAEXI@Z PROC ; std::_Vector_iterator<std::_Vector_val<std::_Simple_types<MovingTile> > >::__autoclassinit2, COMDAT
; _this$ = ecx
	push	ebp
	mov	ebp, esp
	sub	esp, 204				; 000000ccH
	push	ebx
	push	esi
	push	edi
	push	ecx
	lea	edi, DWORD PTR [ebp-204]
	mov	ecx, 51					; 00000033H
	mov	eax, -858993460				; ccccccccH
	rep stosd
	pop	ecx
	mov	DWORD PTR _this$[ebp], ecx
	mov	eax, DWORD PTR _classSize$[ebp]
	push	eax
	push	0
	mov	ecx, DWORD PTR _this$[ebp]
	push	ecx
	call	_memset
	add	esp, 12					; 0000000cH
	pop	edi
	pop	esi
	pop	ebx
	add	esp, 204				; 000000ccH
	cmp	ebp, esp
	call	__RTC_CheckEsp
	mov	esp, ebp
	pop	ebp
	ret	4
?__autoclassinit2@?$_Vector_iterator@V?$_Vector_val@U?$_Simple_types@UMovingTile@@@std@@@std@@@std@@QAEXI@Z ENDP ; std::_Vector_iterator<std::_Vector_val<std::_Simple_types<MovingTile> > >::__autoclassinit2
_TEXT	ENDS
; Function compile flags: /Odtp /RTCsu /ZI
;	COMDAT ??1?$_Vector_iterator@V?$_Vector_val@U?$_Simple_types@UMovingTile@@@std@@@std@@@std@@QAE@XZ
_TEXT	SEGMENT
_this$ = -8						; size = 4
??1?$_Vector_iterator@V?$_Vector_val@U?$_Simple_types@UMovingTile@@@std@@@std@@@std@@QAE@XZ PROC ; std::_Vector_iterator<std::_Vector_val<std::_Simple_types<MovingTile> > >::~_Vector_iterator<std::_Vector_val<std::_Simple_types<MovingTile> > >, COMDAT
; _this$ = ecx
	push	ebp
	mov	ebp, esp
	sub	esp, 204				; 000000ccH
	push	ebx
	push	esi
	push	edi
	push	ecx
	lea	edi, DWORD PTR [ebp-204]
	mov	ecx, 51					; 00000033H
	mov	eax, -858993460				; ccccccccH
	rep stosd
	pop	ecx
	mov	DWORD PTR _this$[ebp], ecx
	mov	ecx, DWORD PTR _this$[ebp]
	call	??1?$_Vector_const_iterator@V?$_Vector_val@U?$_Simple_types@UMovingTile@@@std@@@std@@@std@@QAE@XZ
	pop	edi
	pop	esi
	pop	ebx
	add	esp, 204				; 000000ccH
	cmp	ebp, esp
	call	__RTC_CheckEsp
	mov	esp, ebp
	pop	ebp
	ret	0
??1?$_Vector_iterator@V?$_Vector_val@U?$_Simple_types@UMovingTile@@@std@@@std@@@std@@QAE@XZ ENDP ; std::_Vector_iterator<std::_Vector_val<std::_Simple_types<MovingTile> > >::~_Vector_iterator<std::_Vector_val<std::_Simple_types<MovingTile> > >
_TEXT	ENDS
; Function compile flags: /Odtp /RTCsu /ZI
; File c:\program files (x86)\microsoft visual studio 14.0\vc\include\vector
;	COMDAT ??E?$_Vector_iterator@V?$_Vector_val@U?$_Simple_types@UMovingTile@@@std@@@std@@@std@@QAEAAV01@XZ
_TEXT	SEGMENT
_this$ = -8						; size = 4
??E?$_Vector_iterator@V?$_Vector_val@U?$_Simple_types@UMovingTile@@@std@@@std@@@std@@QAEAAV01@XZ PROC ; std::_Vector_iterator<std::_Vector_val<std::_Simple_types<MovingTile> > >::operator++, COMDAT
; _this$ = ecx

; 334  : 		{	// preincrement

	push	ebp
	mov	ebp, esp
	sub	esp, 204				; 000000ccH
	push	ebx
	push	esi
	push	edi
	push	ecx
	lea	edi, DWORD PTR [ebp-204]
	mov	ecx, 51					; 00000033H
	mov	eax, -858993460				; ccccccccH
	rep stosd
	pop	ecx
	mov	DWORD PTR _this$[ebp], ecx

; 335  : 		++*(_Mybase *)this;

	mov	ecx, DWORD PTR _this$[ebp]
	call	??E?$_Vector_const_iterator@V?$_Vector_val@U?$_Simple_types@UMovingTile@@@std@@@std@@@std@@QAEAAV01@XZ ; std::_Vector_const_iterator<std::_Vector_val<std::_Simple_types<MovingTile> > >::operator++

; 336  : 		return (*this);

	mov	eax, DWORD PTR _this$[ebp]

; 337  : 		}

	pop	edi
	pop	esi
	pop	ebx
	add	esp, 204				; 000000ccH
	cmp	ebp, esp
	call	__RTC_CheckEsp
	mov	esp, ebp
	pop	ebp
	ret	0
??E?$_Vector_iterator@V?$_Vector_val@U?$_Simple_types@UMovingTile@@@std@@@std@@@std@@QAEAAV01@XZ ENDP ; std::_Vector_iterator<std::_Vector_val<std::_Simple_types<MovingTile> > >::operator++
_TEXT	ENDS
; Function compile flags: /Odtp /RTCsu /ZI
; File c:\program files (x86)\microsoft visual studio 14.0\vc\include\vector
;	COMDAT ??D?$_Vector_iterator@V?$_Vector_val@U?$_Simple_types@UMovingTile@@@std@@@std@@@std@@QBEAAUMovingTile@@XZ
_TEXT	SEGMENT
_this$ = -8						; size = 4
??D?$_Vector_iterator@V?$_Vector_val@U?$_Simple_types@UMovingTile@@@std@@@std@@@std@@QBEAAUMovingTile@@XZ PROC ; std::_Vector_iterator<std::_Vector_val<std::_Simple_types<MovingTile> > >::operator*, COMDAT
; _this$ = ecx

; 324  : 		{	// return designated object

	push	ebp
	mov	ebp, esp
	sub	esp, 204				; 000000ccH
	push	ebx
	push	esi
	push	edi
	push	ecx
	lea	edi, DWORD PTR [ebp-204]
	mov	ecx, 51					; 00000033H
	mov	eax, -858993460				; ccccccccH
	rep stosd
	pop	ecx
	mov	DWORD PTR _this$[ebp], ecx

; 325  : 		return ((reference)**(_Mybase *)this);

	mov	ecx, DWORD PTR _this$[ebp]
	call	??D?$_Vector_const_iterator@V?$_Vector_val@U?$_Simple_types@UMovingTile@@@std@@@std@@@std@@QBEABUMovingTile@@XZ ; std::_Vector_const_iterator<std::_Vector_val<std::_Simple_types<MovingTile> > >::operator*

; 326  : 		}

	pop	edi
	pop	esi
	pop	ebx
	add	esp, 204				; 000000ccH
	cmp	ebp, esp
	call	__RTC_CheckEsp
	mov	esp, ebp
	pop	ebp
	ret	0
??D?$_Vector_iterator@V?$_Vector_val@U?$_Simple_types@UMovingTile@@@std@@@std@@@std@@QBEAAUMovingTile@@XZ ENDP ; std::_Vector_iterator<std::_Vector_val<std::_Simple_types<MovingTile> > >::operator*
_TEXT	ENDS
; Function compile flags: /Odtp /RTCsu /ZI
; File c:\program files (x86)\microsoft visual studio 14.0\vc\include\vector
;	COMDAT ??0?$_Vector_iterator@V?$_Vector_val@U?$_Simple_types@UMovingTile@@@std@@@std@@@std@@QAE@PAUMovingTile@@PBU_Container_base12@1@@Z
_TEXT	SEGMENT
_this$ = -8						; size = 4
__Parg$ = 8						; size = 4
__Pvector$ = 12						; size = 4
??0?$_Vector_iterator@V?$_Vector_val@U?$_Simple_types@UMovingTile@@@std@@@std@@@std@@QAE@PAUMovingTile@@PBU_Container_base12@1@@Z PROC ; std::_Vector_iterator<std::_Vector_val<std::_Simple_types<MovingTile> > >::_Vector_iterator<std::_Vector_val<std::_Simple_types<MovingTile> > >, COMDAT
; _this$ = ecx

; 307  : 		{	// construct with pointer _Parg

	push	ebp
	mov	ebp, esp
	sub	esp, 204				; 000000ccH
	push	ebx
	push	esi
	push	edi
	push	ecx
	lea	edi, DWORD PTR [ebp-204]
	mov	ecx, 51					; 00000033H
	mov	eax, -858993460				; ccccccccH
	rep stosd
	pop	ecx
	mov	DWORD PTR _this$[ebp], ecx

; 306  : 		: _Mybase(_Parg, _Pvector)

	mov	eax, DWORD PTR __Pvector$[ebp]
	push	eax
	mov	ecx, DWORD PTR __Parg$[ebp]
	push	ecx
	mov	ecx, DWORD PTR _this$[ebp]
	call	??0?$_Vector_const_iterator@V?$_Vector_val@U?$_Simple_types@UMovingTile@@@std@@@std@@@std@@QAE@PAUMovingTile@@PBU_Container_base12@1@@Z ; std::_Vector_const_iterator<std::_Vector_val<std::_Simple_types<MovingTile> > >::_Vector_const_iterator<std::_Vector_val<std::_Simple_types<MovingTile> > >

; 308  : 		}

	mov	eax, DWORD PTR _this$[ebp]
	pop	edi
	pop	esi
	pop	ebx
	add	esp, 204				; 000000ccH
	cmp	ebp, esp
	call	__RTC_CheckEsp
	mov	esp, ebp
	pop	ebp
	ret	8
??0?$_Vector_iterator@V?$_Vector_val@U?$_Simple_types@UMovingTile@@@std@@@std@@@std@@QAE@PAUMovingTile@@PBU_Container_base12@1@@Z ENDP ; std::_Vector_iterator<std::_Vector_val<std::_Simple_types<MovingTile> > >::_Vector_iterator<std::_Vector_val<std::_Simple_types<MovingTile> > >
_TEXT	ENDS
; Function compile flags: /Odtp /RTCsu /ZI
;	COMDAT ??1?$_Vector_const_iterator@V?$_Vector_val@U?$_Simple_types@UMovingTile@@@std@@@std@@@std@@QAE@XZ
_TEXT	SEGMENT
_this$ = -8						; size = 4
??1?$_Vector_const_iterator@V?$_Vector_val@U?$_Simple_types@UMovingTile@@@std@@@std@@@std@@QAE@XZ PROC ; std::_Vector_const_iterator<std::_Vector_val<std::_Simple_types<MovingTile> > >::~_Vector_const_iterator<std::_Vector_val<std::_Simple_types<MovingTile> > >, COMDAT
; _this$ = ecx
	push	ebp
	mov	ebp, esp
	sub	esp, 204				; 000000ccH
	push	ebx
	push	esi
	push	edi
	push	ecx
	lea	edi, DWORD PTR [ebp-204]
	mov	ecx, 51					; 00000033H
	mov	eax, -858993460				; ccccccccH
	rep stosd
	pop	ecx
	mov	DWORD PTR _this$[ebp], ecx
	mov	ecx, DWORD PTR _this$[ebp]
	call	??1?$_Iterator012@Urandom_access_iterator_tag@std@@UMovingTile@@HPBU3@ABU3@U_Iterator_base12@2@@std@@QAE@XZ
	pop	edi
	pop	esi
	pop	ebx
	add	esp, 204				; 000000ccH
	cmp	ebp, esp
	call	__RTC_CheckEsp
	mov	esp, ebp
	pop	ebp
	ret	0
??1?$_Vector_const_iterator@V?$_Vector_val@U?$_Simple_types@UMovingTile@@@std@@@std@@@std@@QAE@XZ ENDP ; std::_Vector_const_iterator<std::_Vector_val<std::_Simple_types<MovingTile> > >::~_Vector_const_iterator<std::_Vector_val<std::_Simple_types<MovingTile> > >
_TEXT	ENDS
; Function compile flags: /Odtp /RTCsu /ZI
; File c:\program files (x86)\microsoft visual studio 14.0\vc\include\vector
;	COMDAT ?_Compat@?$_Vector_const_iterator@V?$_Vector_val@U?$_Simple_types@UMovingTile@@@std@@@std@@@std@@QBEXABV12@@Z
_TEXT	SEGMENT
_this$ = -8						; size = 4
__Right$ = 8						; size = 4
?_Compat@?$_Vector_const_iterator@V?$_Vector_val@U?$_Simple_types@UMovingTile@@@std@@@std@@@std@@QBEXABV12@@Z PROC ; std::_Vector_const_iterator<std::_Vector_val<std::_Simple_types<MovingTile> > >::_Compat, COMDAT
; _this$ = ecx

; 239  : 		{	// test for compatible iterator pair

	push	ebp
	mov	ebp, esp
	sub	esp, 204				; 000000ccH
	push	ebx
	push	esi
	push	edi
	push	ecx
	lea	edi, DWORD PTR [ebp-204]
	mov	ecx, 51					; 00000033H
	mov	eax, -858993460				; ccccccccH
	rep stosd
	pop	ecx
	mov	DWORD PTR _this$[ebp], ecx

; 240  : 		if (this->_Getcont() != _Right._Getcont())

	mov	ecx, DWORD PTR _this$[ebp]
	call	?_Getcont@_Iterator_base12@std@@QBEPBU_Container_base12@2@XZ ; std::_Iterator_base12::_Getcont
	mov	esi, eax
	mov	ecx, DWORD PTR __Right$[ebp]
	call	?_Getcont@_Iterator_base12@std@@QBEPBU_Container_base12@2@XZ ; std::_Iterator_base12::_Getcont
	cmp	esi, eax
	je	$LN1@Compat

; 241  : 			{
; 242  : 			_DEBUG_ERROR("vector iterators incompatible");

	mov	esi, esp
	push	242					; 000000f2H
	push	OFFSET ??_C@_1IM@NCODKBJH@?$AAc?$AA?3?$AA?2?$AAp?$AAr?$AAo?$AAg?$AAr?$AAa?$AAm?$AA?5?$AAf?$AAi?$AAl?$AAe?$AAs?$AA?5?$AA?$CI?$AAx?$AA8?$AA6?$AA?$CJ?$AA?2?$AAm?$AAi?$AAc?$AAr?$AAo?$AAs?$AAo?$AAf?$AAt@
	push	OFFSET ??_C@_1DM@HINDPMBP@?$AAv?$AAe?$AAc?$AAt?$AAo?$AAr?$AA?5?$AAi?$AAt?$AAe?$AAr?$AAa?$AAt?$AAo?$AAr?$AAs?$AA?5?$AAi?$AAn?$AAc?$AAo?$AAm?$AAp?$AAa?$AAt?$AAi?$AAb?$AAl?$AAe?$AA?$AA@
	call	DWORD PTR __imp_?_Debug_message@std@@YAXPB_W0I@Z
	add	esp, 12					; 0000000cH
	cmp	esi, esp
	call	__RTC_CheckEsp

; 243  : 			_SCL_SECURE_INVALID_ARGUMENT;

	mov	eax, OFFSET ??_C@_0CI@FNPHFCCM@Standard?5C?$CL?$CL?5Libraries?5Invalid?5A@
	test	eax, eax
	je	SHORT $LN4@Compat
	xor	ecx, ecx
	jne	SHORT $LN5@Compat
$LN4@Compat:
	mov	esi, esp
	push	OFFSET ??_C@_1FO@GJIHNDLM@?$AA?$CC?$AAS?$AAt?$AAa?$AAn?$AAd?$AAa?$AAr?$AAd?$AA?5?$AAC?$AA?$CL?$AA?$CL?$AA?5?$AAL?$AAi?$AAb?$AAr?$AAa?$AAr?$AAi?$AAe?$AAs?$AA?5?$AAI?$AAn?$AAv?$AAa?$AAl?$AAi?$AAd?$AA?5@
	push	OFFSET ??_C@_17CNPHIMPH@?$AA?$CF?$AAl?$AAs?$AA?$AA@
	push	0
	push	243					; 000000f3H
	push	OFFSET ??_C@_1IM@NCODKBJH@?$AAc?$AA?3?$AA?2?$AAp?$AAr?$AAo?$AAg?$AAr?$AAa?$AAm?$AA?5?$AAf?$AAi?$AAl?$AAe?$AAs?$AA?5?$AA?$CI?$AAx?$AA8?$AA6?$AA?$CJ?$AA?2?$AAm?$AAi?$AAc?$AAr?$AAo?$AAs?$AAo?$AAf?$AAt@
	push	2
	call	DWORD PTR __imp___CrtDbgReportW
	add	esp, 24					; 00000018H
	cmp	esi, esp
	call	__RTC_CheckEsp
	cmp	eax, 1
	jne	SHORT $LN5@Compat
	int	3
$LN5@Compat:
	mov	esi, esp
	push	0
	push	243					; 000000f3H
	push	OFFSET ??_C@_1IM@NCODKBJH@?$AAc?$AA?3?$AA?2?$AAp?$AAr?$AAo?$AAg?$AAr?$AAa?$AAm?$AA?5?$AAf?$AAi?$AAl?$AAe?$AAs?$AA?5?$AA?$CI?$AAx?$AA8?$AA6?$AA?$CJ?$AA?2?$AAm?$AAi?$AAc?$AAr?$AAo?$AAs?$AAo?$AAf?$AAt@
	push	OFFSET ??_C@_1NK@NBKKOKHK@?$AAs?$AAt?$AAd?$AA?3?$AA?3?$AA_?$AAV?$AAe?$AAc?$AAt?$AAo?$AAr?$AA_?$AAc?$AAo?$AAn?$AAs?$AAt?$AA_?$AAi?$AAt?$AAe?$AAr?$AAa?$AAt?$AAo?$AAr?$AA?$DM?$AAc?$AAl?$AAa?$AAs@
	push	OFFSET ??_C@_1CG@JNLFBNGN@?$AA?$CC?$AAi?$AAn?$AAv?$AAa?$AAl?$AAi?$AAd?$AA?5?$AAa?$AAr?$AAg?$AAu?$AAm?$AAe?$AAn?$AAt?$AA?$CC?$AA?$AA@
	call	DWORD PTR __imp___invalid_parameter
	add	esp, 20					; 00000014H
	cmp	esi, esp
	call	__RTC_CheckEsp
$LN1@Compat:

; 244  : 			}
; 245  : 		}

	pop	edi
	pop	esi
	pop	ebx
	add	esp, 204				; 000000ccH
	cmp	ebp, esp
	call	__RTC_CheckEsp
	mov	esp, ebp
	pop	ebp
	ret	4
?_Compat@?$_Vector_const_iterator@V?$_Vector_val@U?$_Simple_types@UMovingTile@@@std@@@std@@@std@@QBEXABV12@@Z ENDP ; std::_Vector_const_iterator<std::_Vector_val<std::_Simple_types<MovingTile> > >::_Compat
_TEXT	ENDS
; Function compile flags: /Odtp /RTCsu /ZI
; File c:\program files (x86)\microsoft visual studio 14.0\vc\include\vector
;	COMDAT ??9?$_Vector_const_iterator@V?$_Vector_val@U?$_Simple_types@UMovingTile@@@std@@@std@@@std@@QBE_NABV01@@Z
_TEXT	SEGMENT
tv69 = -208						; size = 4
_this$ = -8						; size = 4
__Right$ = 8						; size = 4
??9?$_Vector_const_iterator@V?$_Vector_val@U?$_Simple_types@UMovingTile@@@std@@@std@@@std@@QBE_NABV01@@Z PROC ; std::_Vector_const_iterator<std::_Vector_val<std::_Simple_types<MovingTile> > >::operator!=, COMDAT
; _this$ = ecx

; 212  : 		{	// test for iterator inequality

	push	ebp
	mov	ebp, esp
	sub	esp, 208				; 000000d0H
	push	ebx
	push	esi
	push	edi
	push	ecx
	lea	edi, DWORD PTR [ebp-208]
	mov	ecx, 52					; 00000034H
	mov	eax, -858993460				; ccccccccH
	rep stosd
	pop	ecx
	mov	DWORD PTR _this$[ebp], ecx

; 213  : 		return (!(*this == _Right));

	mov	eax, DWORD PTR __Right$[ebp]
	push	eax
	mov	ecx, DWORD PTR _this$[ebp]
	call	??8?$_Vector_const_iterator@V?$_Vector_val@U?$_Simple_types@UMovingTile@@@std@@@std@@@std@@QBE_NABV01@@Z ; std::_Vector_const_iterator<std::_Vector_val<std::_Simple_types<MovingTile> > >::operator==
	movzx	ecx, al
	test	ecx, ecx
	jne	SHORT $LN3@operator
	mov	DWORD PTR tv69[ebp], 1
	jmp	SHORT $LN4@operator
$LN3@operator:
	mov	DWORD PTR tv69[ebp], 0
$LN4@operator:
	mov	al, BYTE PTR tv69[ebp]

; 214  : 		}

	pop	edi
	pop	esi
	pop	ebx
	add	esp, 208				; 000000d0H
	cmp	ebp, esp
	call	__RTC_CheckEsp
	mov	esp, ebp
	pop	ebp
	ret	4
??9?$_Vector_const_iterator@V?$_Vector_val@U?$_Simple_types@UMovingTile@@@std@@@std@@@std@@QBE_NABV01@@Z ENDP ; std::_Vector_const_iterator<std::_Vector_val<std::_Simple_types<MovingTile> > >::operator!=
_TEXT	ENDS
; Function compile flags: /Odtp /RTCsu /ZI
; File c:\program files (x86)\microsoft visual studio 14.0\vc\include\vector
;	COMDAT ??8?$_Vector_const_iterator@V?$_Vector_val@U?$_Simple_types@UMovingTile@@@std@@@std@@@std@@QBE_NABV01@@Z
_TEXT	SEGMENT
tv69 = -208						; size = 4
_this$ = -8						; size = 4
__Right$ = 8						; size = 4
??8?$_Vector_const_iterator@V?$_Vector_val@U?$_Simple_types@UMovingTile@@@std@@@std@@@std@@QBE_NABV01@@Z PROC ; std::_Vector_const_iterator<std::_Vector_val<std::_Simple_types<MovingTile> > >::operator==, COMDAT
; _this$ = ecx

; 206  : 		{	// test for iterator equality

	push	ebp
	mov	ebp, esp
	sub	esp, 208				; 000000d0H
	push	ebx
	push	esi
	push	edi
	push	ecx
	lea	edi, DWORD PTR [ebp-208]
	mov	ecx, 52					; 00000034H
	mov	eax, -858993460				; ccccccccH
	rep stosd
	pop	ecx
	mov	DWORD PTR _this$[ebp], ecx

; 207  : 		_Compat(_Right);

	mov	eax, DWORD PTR __Right$[ebp]
	push	eax
	mov	ecx, DWORD PTR _this$[ebp]
	call	?_Compat@?$_Vector_const_iterator@V?$_Vector_val@U?$_Simple_types@UMovingTile@@@std@@@std@@@std@@QBEXABV12@@Z ; std::_Vector_const_iterator<std::_Vector_val<std::_Simple_types<MovingTile> > >::_Compat

; 208  : 		return (_Ptr == _Right._Ptr);

	mov	eax, DWORD PTR _this$[ebp]
	mov	ecx, DWORD PTR __Right$[ebp]
	mov	edx, DWORD PTR [eax+8]
	cmp	edx, DWORD PTR [ecx+8]
	jne	SHORT $LN3@operator
	mov	DWORD PTR tv69[ebp], 1
	jmp	SHORT $LN4@operator
$LN3@operator:
	mov	DWORD PTR tv69[ebp], 0
$LN4@operator:
	mov	al, BYTE PTR tv69[ebp]

; 209  : 		}

	pop	edi
	pop	esi
	pop	ebx
	add	esp, 208				; 000000d0H
	cmp	ebp, esp
	call	__RTC_CheckEsp
	mov	esp, ebp
	pop	ebp
	ret	4
??8?$_Vector_const_iterator@V?$_Vector_val@U?$_Simple_types@UMovingTile@@@std@@@std@@@std@@QBE_NABV01@@Z ENDP ; std::_Vector_const_iterator<std::_Vector_val<std::_Simple_types<MovingTile> > >::operator==
_TEXT	ENDS
; Function compile flags: /Odtp /RTCsu /ZI
; File c:\program files (x86)\microsoft visual studio 14.0\vc\include\vector
;	COMDAT ??E?$_Vector_const_iterator@V?$_Vector_val@U?$_Simple_types@UMovingTile@@@std@@@std@@@std@@QAEAAV01@XZ
_TEXT	SEGMENT
_this$ = -8						; size = 4
??E?$_Vector_const_iterator@V?$_Vector_val@U?$_Simple_types@UMovingTile@@@std@@@std@@@std@@QAEAAV01@XZ PROC ; std::_Vector_const_iterator<std::_Vector_val<std::_Simple_types<MovingTile> > >::operator++, COMDAT
; _this$ = ecx

; 95   : 		{	// preincrement

	push	ebp
	mov	ebp, esp
	sub	esp, 204				; 000000ccH
	push	ebx
	push	esi
	push	edi
	push	ecx
	lea	edi, DWORD PTR [ebp-204]
	mov	ecx, 51					; 00000033H
	mov	eax, -858993460				; ccccccccH
	rep stosd
	pop	ecx
	mov	DWORD PTR _this$[ebp], ecx

; 96   :  #if _ITERATOR_DEBUG_LEVEL == 2
; 97   : 		if (this->_Getcont() == 0
; 98   : 			|| _Ptr == 0
; 99   : 			|| ((_Myvec *)this->_Getcont())->_Mylast <= _Ptr)

	mov	ecx, DWORD PTR _this$[ebp]
	call	?_Getcont@_Iterator_base12@std@@QBEPBU_Container_base12@2@XZ ; std::_Iterator_base12::_Getcont
	test	eax, eax
	je	SHORT $LN3@operator
	mov	eax, DWORD PTR _this$[ebp]
	cmp	DWORD PTR [eax+8], 0
	je	SHORT $LN3@operator
	mov	ecx, DWORD PTR _this$[ebp]
	call	?_Getcont@_Iterator_base12@std@@QBEPBU_Container_base12@2@XZ ; std::_Iterator_base12::_Getcont
	mov	ecx, DWORD PTR _this$[ebp]
	mov	edx, DWORD PTR [eax+8]
	cmp	edx, DWORD PTR [ecx+8]
	ja	SHORT $LN2@operator
$LN3@operator:

; 100  : 			{	// report error
; 101  : 			_DEBUG_ERROR("vector iterator not incrementable");

	mov	esi, esp
	push	101					; 00000065H
	push	OFFSET ??_C@_1IM@NCODKBJH@?$AAc?$AA?3?$AA?2?$AAp?$AAr?$AAo?$AAg?$AAr?$AAa?$AAm?$AA?5?$AAf?$AAi?$AAl?$AAe?$AAs?$AA?5?$AA?$CI?$AAx?$AA8?$AA6?$AA?$CJ?$AA?2?$AAm?$AAi?$AAc?$AAr?$AAo?$AAs?$AAo?$AAf?$AAt@
	push	OFFSET ??_C@_1EE@EJDKCLKB@?$AAv?$AAe?$AAc?$AAt?$AAo?$AAr?$AA?5?$AAi?$AAt?$AAe?$AAr?$AAa?$AAt?$AAo?$AAr?$AA?5?$AAn?$AAo?$AAt?$AA?5?$AAi?$AAn?$AAc?$AAr?$AAe?$AAm?$AAe?$AAn?$AAt?$AAa?$AAb?$AAl@
	call	DWORD PTR __imp_?_Debug_message@std@@YAXPB_W0I@Z
	add	esp, 12					; 0000000cH
	cmp	esi, esp
	call	__RTC_CheckEsp

; 102  : 			_SCL_SECURE_OUT_OF_RANGE;

	mov	eax, OFFSET ??_C@_0CE@OFMIGAMM@Standard?5C?$CL?$CL?5Libraries?5Out?5of?5Ra@
	test	eax, eax
	je	SHORT $LN5@operator
	xor	ecx, ecx
	jne	SHORT $LN6@operator
$LN5@operator:
	mov	esi, esp
	push	OFFSET ??_C@_1FG@IBPIFFN@?$AA?$CC?$AAS?$AAt?$AAa?$AAn?$AAd?$AAa?$AAr?$AAd?$AA?5?$AAC?$AA?$CL?$AA?$CL?$AA?5?$AAL?$AAi?$AAb?$AAr?$AAa?$AAr?$AAi?$AAe?$AAs?$AA?5?$AAO?$AAu?$AAt?$AA?5?$AAo?$AAf?$AA?5?$AAR@
	push	OFFSET ??_C@_17CNPHIMPH@?$AA?$CF?$AAl?$AAs?$AA?$AA@
	push	0
	push	102					; 00000066H
	push	OFFSET ??_C@_1IM@NCODKBJH@?$AAc?$AA?3?$AA?2?$AAp?$AAr?$AAo?$AAg?$AAr?$AAa?$AAm?$AA?5?$AAf?$AAi?$AAl?$AAe?$AAs?$AA?5?$AA?$CI?$AAx?$AA8?$AA6?$AA?$CJ?$AA?2?$AAm?$AAi?$AAc?$AAr?$AAo?$AAs?$AAo?$AAf?$AAt@
	push	2
	call	DWORD PTR __imp___CrtDbgReportW
	add	esp, 24					; 00000018H
	cmp	esi, esp
	call	__RTC_CheckEsp
	cmp	eax, 1
	jne	SHORT $LN6@operator
	int	3
$LN6@operator:
	mov	esi, esp
	push	0
	push	102					; 00000066H
	push	OFFSET ??_C@_1IM@NCODKBJH@?$AAc?$AA?3?$AA?2?$AAp?$AAr?$AAo?$AAg?$AAr?$AAa?$AAm?$AA?5?$AAf?$AAi?$AAl?$AAe?$AAs?$AA?5?$AA?$CI?$AAx?$AA8?$AA6?$AA?$CJ?$AA?2?$AAm?$AAi?$AAc?$AAr?$AAo?$AAs?$AAo?$AAf?$AAt@
	push	OFFSET ??_C@_1OC@EGHAOCGO@?$AAs?$AAt?$AAd?$AA?3?$AA?3?$AA_?$AAV?$AAe?$AAc?$AAt?$AAo?$AAr?$AA_?$AAc?$AAo?$AAn?$AAs?$AAt?$AA_?$AAi?$AAt?$AAe?$AAr?$AAa?$AAt?$AAo?$AAr?$AA?$DM?$AAc?$AAl?$AAa?$AAs@
	push	OFFSET ??_C@_1BO@MEPPHOO@?$AA?$CC?$AAo?$AAu?$AAt?$AA?5?$AAo?$AAf?$AA?5?$AAr?$AAa?$AAn?$AAg?$AAe?$AA?$CC?$AA?$AA@
	call	DWORD PTR __imp___invalid_parameter
	add	esp, 20					; 00000014H
	cmp	esi, esp
	call	__RTC_CheckEsp
$LN2@operator:

; 103  : 			}
; 104  : 
; 105  :  #elif _ITERATOR_DEBUG_LEVEL == 1
; 106  : 		_SCL_SECURE_VALIDATE(this->_Getcont() != 0);
; 107  : 		_SCL_SECURE_VALIDATE_RANGE(
; 108  : 			_Ptr != _Tptr()
; 109  : 			&& _Ptr < ((_Myvec *)this->_Getcont())->_Mylast);
; 110  :  #endif /* _ITERATOR_DEBUG_LEVEL */
; 111  : 
; 112  : 		++_Ptr;

	mov	eax, DWORD PTR _this$[ebp]
	mov	ecx, DWORD PTR [eax+8]
	add	ecx, 48					; 00000030H
	mov	edx, DWORD PTR _this$[ebp]
	mov	DWORD PTR [edx+8], ecx

; 113  : 		return (*this);

	mov	eax, DWORD PTR _this$[ebp]

; 114  : 		}

	pop	edi
	pop	esi
	pop	ebx
	add	esp, 204				; 000000ccH
	cmp	ebp, esp
	call	__RTC_CheckEsp
	mov	esp, ebp
	pop	ebp
	ret	0
??E?$_Vector_const_iterator@V?$_Vector_val@U?$_Simple_types@UMovingTile@@@std@@@std@@@std@@QAEAAV01@XZ ENDP ; std::_Vector_const_iterator<std::_Vector_val<std::_Simple_types<MovingTile> > >::operator++
_TEXT	ENDS
; Function compile flags: /Odtp /RTCsu /ZI
; File c:\program files (x86)\microsoft visual studio 14.0\vc\include\vector
;	COMDAT ??D?$_Vector_const_iterator@V?$_Vector_val@U?$_Simple_types@UMovingTile@@@std@@@std@@@std@@QBEABUMovingTile@@XZ
_TEXT	SEGMENT
_this$ = -8						; size = 4
??D?$_Vector_const_iterator@V?$_Vector_val@U?$_Simple_types@UMovingTile@@@std@@@std@@@std@@QBEABUMovingTile@@XZ PROC ; std::_Vector_const_iterator<std::_Vector_val<std::_Simple_types<MovingTile> > >::operator*, COMDAT
; _this$ = ecx

; 65   : 		{	// return designated object

	push	ebp
	mov	ebp, esp
	sub	esp, 204				; 000000ccH
	push	ebx
	push	esi
	push	edi
	push	ecx
	lea	edi, DWORD PTR [ebp-204]
	mov	ecx, 51					; 00000033H
	mov	eax, -858993460				; ccccccccH
	rep stosd
	pop	ecx
	mov	DWORD PTR _this$[ebp], ecx

; 66   :  #if _ITERATOR_DEBUG_LEVEL == 2
; 67   : 		if (this->_Getcont() == 0
; 68   : 			|| _Ptr == 0
; 69   : 			|| _Ptr < ((_Myvec *)this->_Getcont())->_Myfirst
; 70   : 			|| ((_Myvec *)this->_Getcont())->_Mylast <= _Ptr)

	mov	ecx, DWORD PTR _this$[ebp]
	call	?_Getcont@_Iterator_base12@std@@QBEPBU_Container_base12@2@XZ ; std::_Iterator_base12::_Getcont
	test	eax, eax
	je	SHORT $LN3@operator
	mov	eax, DWORD PTR _this$[ebp]
	cmp	DWORD PTR [eax+8], 0
	je	SHORT $LN3@operator
	mov	ecx, DWORD PTR _this$[ebp]
	call	?_Getcont@_Iterator_base12@std@@QBEPBU_Container_base12@2@XZ ; std::_Iterator_base12::_Getcont
	mov	ecx, DWORD PTR _this$[ebp]
	mov	edx, DWORD PTR [ecx+8]
	cmp	edx, DWORD PTR [eax+4]
	jb	SHORT $LN3@operator
	mov	ecx, DWORD PTR _this$[ebp]
	call	?_Getcont@_Iterator_base12@std@@QBEPBU_Container_base12@2@XZ ; std::_Iterator_base12::_Getcont
	mov	ecx, DWORD PTR _this$[ebp]
	mov	edx, DWORD PTR [eax+8]
	cmp	edx, DWORD PTR [ecx+8]
	ja	SHORT $LN2@operator
$LN3@operator:

; 71   : 			{	// report error
; 72   : 			_DEBUG_ERROR("vector iterator not dereferencable");

	mov	esi, esp
	push	72					; 00000048H
	push	OFFSET ??_C@_1IM@NCODKBJH@?$AAc?$AA?3?$AA?2?$AAp?$AAr?$AAo?$AAg?$AAr?$AAa?$AAm?$AA?5?$AAf?$AAi?$AAl?$AAe?$AAs?$AA?5?$AA?$CI?$AAx?$AA8?$AA6?$AA?$CJ?$AA?2?$AAm?$AAi?$AAc?$AAr?$AAo?$AAs?$AAo?$AAf?$AAt@
	push	OFFSET ??_C@_1EG@FOHJJHAC@?$AAv?$AAe?$AAc?$AAt?$AAo?$AAr?$AA?5?$AAi?$AAt?$AAe?$AAr?$AAa?$AAt?$AAo?$AAr?$AA?5?$AAn?$AAo?$AAt?$AA?5?$AAd?$AAe?$AAr?$AAe?$AAf?$AAe?$AAr?$AAe?$AAn?$AAc?$AAa?$AAb@
	call	DWORD PTR __imp_?_Debug_message@std@@YAXPB_W0I@Z
	add	esp, 12					; 0000000cH
	cmp	esi, esp
	call	__RTC_CheckEsp

; 73   : 			_SCL_SECURE_OUT_OF_RANGE;

	mov	eax, OFFSET ??_C@_0CE@OFMIGAMM@Standard?5C?$CL?$CL?5Libraries?5Out?5of?5Ra@
	test	eax, eax
	je	SHORT $LN5@operator
	xor	ecx, ecx
	jne	SHORT $LN6@operator
$LN5@operator:
	mov	esi, esp
	push	OFFSET ??_C@_1FG@IBPIFFN@?$AA?$CC?$AAS?$AAt?$AAa?$AAn?$AAd?$AAa?$AAr?$AAd?$AA?5?$AAC?$AA?$CL?$AA?$CL?$AA?5?$AAL?$AAi?$AAb?$AAr?$AAa?$AAr?$AAi?$AAe?$AAs?$AA?5?$AAO?$AAu?$AAt?$AA?5?$AAo?$AAf?$AA?5?$AAR@
	push	OFFSET ??_C@_17CNPHIMPH@?$AA?$CF?$AAl?$AAs?$AA?$AA@
	push	0
	push	73					; 00000049H
	push	OFFSET ??_C@_1IM@NCODKBJH@?$AAc?$AA?3?$AA?2?$AAp?$AAr?$AAo?$AAg?$AAr?$AAa?$AAm?$AA?5?$AAf?$AAi?$AAl?$AAe?$AAs?$AA?5?$AA?$CI?$AAx?$AA8?$AA6?$AA?$CJ?$AA?2?$AAm?$AAi?$AAc?$AAr?$AAo?$AAs?$AAo?$AAf?$AAt@
	push	2
	call	DWORD PTR __imp___CrtDbgReportW
	add	esp, 24					; 00000018H
	cmp	esi, esp
	call	__RTC_CheckEsp
	cmp	eax, 1
	jne	SHORT $LN6@operator
	int	3
$LN6@operator:
	mov	esi, esp
	push	0
	push	73					; 00000049H
	push	OFFSET ??_C@_1IM@NCODKBJH@?$AAc?$AA?3?$AA?2?$AAp?$AAr?$AAo?$AAg?$AAr?$AAa?$AAm?$AA?5?$AAf?$AAi?$AAl?$AAe?$AAs?$AA?5?$AA?$CI?$AAx?$AA8?$AA6?$AA?$CJ?$AA?2?$AAm?$AAi?$AAc?$AAr?$AAo?$AAs?$AAo?$AAf?$AAt@
	push	OFFSET ??_C@_1OA@POONEEJK@?$AAs?$AAt?$AAd?$AA?3?$AA?3?$AA_?$AAV?$AAe?$AAc?$AAt?$AAo?$AAr?$AA_?$AAc?$AAo?$AAn?$AAs?$AAt?$AA_?$AAi?$AAt?$AAe?$AAr?$AAa?$AAt?$AAo?$AAr?$AA?$DM?$AAc?$AAl?$AAa?$AAs@
	push	OFFSET ??_C@_1BO@MEPPHOO@?$AA?$CC?$AAo?$AAu?$AAt?$AA?5?$AAo?$AAf?$AA?5?$AAr?$AAa?$AAn?$AAg?$AAe?$AA?$CC?$AA?$AA@
	call	DWORD PTR __imp___invalid_parameter
	add	esp, 20					; 00000014H
	cmp	esi, esp
	call	__RTC_CheckEsp
$LN2@operator:

; 74   : 			}
; 75   : 
; 76   :  #elif _ITERATOR_DEBUG_LEVEL == 1
; 77   : 		_SCL_SECURE_VALIDATE(this->_Getcont() != 0);
; 78   : 		_SCL_SECURE_VALIDATE_RANGE(
; 79   : 			_Ptr != _Tptr()
; 80   : 			&& ((_Myvec *)this->_Getcont())->_Myfirst <= _Ptr
; 81   : 			&& _Ptr < ((_Myvec *)this->_Getcont())->_Mylast);
; 82   :  #endif /* _ITERATOR_DEBUG_LEVEL */
; 83   : 
; 84   : 		_Analysis_assume_(_Ptr != _Tptr());
; 85   : 
; 86   : 		return (*_Ptr);

	mov	eax, DWORD PTR _this$[ebp]
	mov	eax, DWORD PTR [eax+8]

; 87   : 		}

	pop	edi
	pop	esi
	pop	ebx
	add	esp, 204				; 000000ccH
	cmp	ebp, esp
	call	__RTC_CheckEsp
	mov	esp, ebp
	pop	ebp
	ret	0
??D?$_Vector_const_iterator@V?$_Vector_val@U?$_Simple_types@UMovingTile@@@std@@@std@@@std@@QBEABUMovingTile@@XZ ENDP ; std::_Vector_const_iterator<std::_Vector_val<std::_Simple_types<MovingTile> > >::operator*
_TEXT	ENDS
; Function compile flags: /Odtp /RTCsu /ZI
; File c:\program files (x86)\microsoft visual studio 14.0\vc\include\vector
;	COMDAT ??0?$_Vector_const_iterator@V?$_Vector_val@U?$_Simple_types@UMovingTile@@@std@@@std@@@std@@QAE@PAUMovingTile@@PBU_Container_base12@1@@Z
_TEXT	SEGMENT
_this$ = -20						; size = 4
__$EHRec$ = -12						; size = 12
__Parg$ = 8						; size = 4
__Pvector$ = 12						; size = 4
??0?$_Vector_const_iterator@V?$_Vector_val@U?$_Simple_types@UMovingTile@@@std@@@std@@@std@@QAE@PAUMovingTile@@PBU_Container_base12@1@@Z PROC ; std::_Vector_const_iterator<std::_Vector_val<std::_Simple_types<MovingTile> > >::_Vector_const_iterator<std::_Vector_val<std::_Simple_types<MovingTile> > >, COMDAT
; _this$ = ecx

; 47   : 		{	// construct with pointer _Parg

	push	ebp
	mov	ebp, esp
	push	-1
	push	__ehhandler$??0?$_Vector_const_iterator@V?$_Vector_val@U?$_Simple_types@UMovingTile@@@std@@@std@@@std@@QAE@PAUMovingTile@@PBU_Container_base12@1@@Z
	mov	eax, DWORD PTR fs:0
	push	eax
	sub	esp, 204				; 000000ccH
	push	ebx
	push	esi
	push	edi
	push	ecx
	lea	edi, DWORD PTR [ebp-216]
	mov	ecx, 51					; 00000033H
	mov	eax, -858993460				; ccccccccH
	rep stosd
	pop	ecx
	mov	eax, DWORD PTR ___security_cookie
	xor	eax, ebp
	push	eax
	lea	eax, DWORD PTR __$EHRec$[ebp]
	mov	DWORD PTR fs:0, eax
	mov	DWORD PTR _this$[ebp], ecx
	mov	ecx, DWORD PTR _this$[ebp]
	call	??0?$_Iterator012@Urandom_access_iterator_tag@std@@UMovingTile@@HPBU3@ABU3@U_Iterator_base12@2@@std@@QAE@XZ
	mov	DWORD PTR __$EHRec$[ebp+8], 0

; 46   : 		: _Ptr(_Parg)

	mov	eax, DWORD PTR _this$[ebp]
	mov	ecx, DWORD PTR __Parg$[ebp]
	mov	DWORD PTR [eax+8], ecx

; 48   : 		this->_Adopt(_Pvector);

	mov	eax, DWORD PTR __Pvector$[ebp]
	push	eax
	mov	ecx, DWORD PTR _this$[ebp]
	call	?_Adopt@_Iterator_base12@std@@QAEXPBU_Container_base12@2@@Z ; std::_Iterator_base12::_Adopt

; 49   : 		}

	mov	DWORD PTR __$EHRec$[ebp+8], -1
	mov	eax, DWORD PTR _this$[ebp]
	mov	ecx, DWORD PTR __$EHRec$[ebp]
	mov	DWORD PTR fs:0, ecx
	pop	ecx
	pop	edi
	pop	esi
	pop	ebx
	add	esp, 216				; 000000d8H
	cmp	ebp, esp
	call	__RTC_CheckEsp
	mov	esp, ebp
	pop	ebp
	ret	8
_TEXT	ENDS
;	COMDAT text$x
text$x	SEGMENT
__unwindfunclet$??0?$_Vector_const_iterator@V?$_Vector_val@U?$_Simple_types@UMovingTile@@@std@@@std@@@std@@QAE@PAUMovingTile@@PBU_Container_base12@1@@Z$0:
	mov	ecx, DWORD PTR _this$[ebp]
	jmp	??1?$_Iterator012@Urandom_access_iterator_tag@std@@UMovingTile@@HPBU3@ABU3@U_Iterator_base12@2@@std@@QAE@XZ
__ehhandler$??0?$_Vector_const_iterator@V?$_Vector_val@U?$_Simple_types@UMovingTile@@@std@@@std@@@std@@QAE@PAUMovingTile@@PBU_Container_base12@1@@Z:
	mov	edx, DWORD PTR [esp+8]
	lea	eax, DWORD PTR [edx+12]
	mov	ecx, DWORD PTR [edx-220]
	xor	ecx, eax
	call	@__security_check_cookie@4
	mov	eax, OFFSET __ehfuncinfo$??0?$_Vector_const_iterator@V?$_Vector_val@U?$_Simple_types@UMovingTile@@@std@@@std@@@std@@QAE@PAUMovingTile@@PBU_Container_base12@1@@Z
	jmp	___CxxFrameHandler3
text$x	ENDS
??0?$_Vector_const_iterator@V?$_Vector_val@U?$_Simple_types@UMovingTile@@@std@@@std@@@std@@QAE@PAUMovingTile@@PBU_Container_base12@1@@Z ENDP ; std::_Vector_const_iterator<std::_Vector_val<std::_Simple_types<MovingTile> > >::_Vector_const_iterator<std::_Vector_val<std::_Simple_types<MovingTile> > >
; Function compile flags: /Odtp /RTCsu /ZI
;	COMDAT ??1?$_Iterator012@Urandom_access_iterator_tag@std@@UMovingTile@@HPBU3@ABU3@U_Iterator_base12@2@@std@@QAE@XZ
_TEXT	SEGMENT
_this$ = -8						; size = 4
??1?$_Iterator012@Urandom_access_iterator_tag@std@@UMovingTile@@HPBU3@ABU3@U_Iterator_base12@2@@std@@QAE@XZ PROC ; std::_Iterator012<std::random_access_iterator_tag,MovingTile,int,MovingTile const *,MovingTile const &,std::_Iterator_base12>::~_Iterator012<std::random_access_iterator_tag,MovingTile,int,MovingTile const *,MovingTile const &,std::_Iterator_base12>, COMDAT
; _this$ = ecx
	push	ebp
	mov	ebp, esp
	sub	esp, 204				; 000000ccH
	push	ebx
	push	esi
	push	edi
	push	ecx
	lea	edi, DWORD PTR [ebp-204]
	mov	ecx, 51					; 00000033H
	mov	eax, -858993460				; ccccccccH
	rep stosd
	pop	ecx
	mov	DWORD PTR _this$[ebp], ecx
	mov	ecx, DWORD PTR _this$[ebp]
	call	??1_Iterator_base12@std@@QAE@XZ		; std::_Iterator_base12::~_Iterator_base12
	pop	edi
	pop	esi
	pop	ebx
	add	esp, 204				; 000000ccH
	cmp	ebp, esp
	call	__RTC_CheckEsp
	mov	esp, ebp
	pop	ebp
	ret	0
??1?$_Iterator012@Urandom_access_iterator_tag@std@@UMovingTile@@HPBU3@ABU3@U_Iterator_base12@2@@std@@QAE@XZ ENDP ; std::_Iterator012<std::random_access_iterator_tag,MovingTile,int,MovingTile const *,MovingTile const &,std::_Iterator_base12>::~_Iterator012<std::random_access_iterator_tag,MovingTile,int,MovingTile const *,MovingTile const &,std::_Iterator_base12>
_TEXT	ENDS
; Function compile flags: /Odtp /RTCsu /ZI
;	COMDAT ??0?$_Iterator012@Urandom_access_iterator_tag@std@@UMovingTile@@HPBU3@ABU3@U_Iterator_base12@2@@std@@QAE@XZ
_TEXT	SEGMENT
_this$ = -8						; size = 4
??0?$_Iterator012@Urandom_access_iterator_tag@std@@UMovingTile@@HPBU3@ABU3@U_Iterator_base12@2@@std@@QAE@XZ PROC ; std::_Iterator012<std::random_access_iterator_tag,MovingTile,int,MovingTile const *,MovingTile const &,std::_Iterator_base12>::_Iterator012<std::random_access_iterator_tag,MovingTile,int,MovingTile const *,MovingTile const &,std::_Iterator_base12>, COMDAT
; _this$ = ecx
	push	ebp
	mov	ebp, esp
	sub	esp, 204				; 000000ccH
	push	ebx
	push	esi
	push	edi
	push	ecx
	lea	edi, DWORD PTR [ebp-204]
	mov	ecx, 51					; 00000033H
	mov	eax, -858993460				; ccccccccH
	rep stosd
	pop	ecx
	mov	DWORD PTR _this$[ebp], ecx
	mov	ecx, DWORD PTR _this$[ebp]
	call	??0_Iterator_base12@std@@QAE@XZ		; std::_Iterator_base12::_Iterator_base12
	mov	eax, DWORD PTR _this$[ebp]
	pop	edi
	pop	esi
	pop	ebx
	add	esp, 204				; 000000ccH
	cmp	ebp, esp
	call	__RTC_CheckEsp
	mov	esp, ebp
	pop	ebp
	ret	0
??0?$_Iterator012@Urandom_access_iterator_tag@std@@UMovingTile@@HPBU3@ABU3@U_Iterator_base12@2@@std@@QAE@XZ ENDP ; std::_Iterator012<std::random_access_iterator_tag,MovingTile,int,MovingTile const *,MovingTile const &,std::_Iterator_base12>::_Iterator012<std::random_access_iterator_tag,MovingTile,int,MovingTile const *,MovingTile const &,std::_Iterator_base12>
_TEXT	ENDS
; Function compile flags: /Odtp /RTCsu /ZI
; File g:\projects\lotion\lotion\environment.cpp
;	COMDAT ?CheckCollision@@YA_NUTile@@0@Z
_TEXT	SEGMENT
tv154 = -216						; size = 8
tv146 = -216						; size = 8
tv138 = -216						; size = 8
tv130 = -216						; size = 8
tv164 = -208						; size = 8
tv162 = -208						; size = 8
tv160 = -208						; size = 8
tv158 = -208						; size = 8
tv150 = -200						; size = 8
tv142 = -200						; size = 8
tv134 = -200						; size = 8
tv94 = -200						; size = 8
_tileA$ = 8						; size = 32
_tileB$ = 40						; size = 32
?CheckCollision@@YA_NUTile@@0@Z PROC			; CheckCollision, COMDAT

; 31   : bool CheckCollision(Tile tileA, Tile tileB) {

	push	ebp
	mov	ebp, esp
	sub	esp, 216				; 000000d8H
	push	ebx
	push	esi
	push	edi
	lea	edi, DWORD PTR [ebp-216]
	mov	ecx, 54					; 00000036H
	mov	eax, -858993460				; ccccccccH
	rep stosd

; 32   : 	if (tileA.left() <= tileB.right() &&
; 33   : 		tileA.right() >= tileB.left() &&
; 34   : 		tileA.top() <= tileB.bottom() &&

	lea	ecx, DWORD PTR _tileA$[ebp]
	call	?left@Tile@@QAENXZ			; Tile::left
	fstp	QWORD PTR tv94[ebp]
	movsd	xmm0, QWORD PTR tv94[ebp]
	lea	ecx, DWORD PTR _tileB$[ebp]
	movsd	QWORD PTR tv158[ebp], xmm0
	call	?right@Tile@@QAENXZ			; Tile::right
	fstp	QWORD PTR tv130[ebp]
	movsd	xmm0, QWORD PTR tv130[ebp]
	movsd	xmm1, QWORD PTR tv158[ebp]
	comisd	xmm0, xmm1
	jb	$LN2@CheckColli
	lea	ecx, DWORD PTR _tileA$[ebp]
	call	?right@Tile@@QAENXZ			; Tile::right
	fstp	QWORD PTR tv134[ebp]
	movsd	xmm0, QWORD PTR tv134[ebp]
	lea	ecx, DWORD PTR _tileB$[ebp]
	movsd	QWORD PTR tv160[ebp], xmm0
	call	?left@Tile@@QAENXZ			; Tile::left
	fstp	QWORD PTR tv138[ebp]
	movsd	xmm0, QWORD PTR tv160[ebp]
	comisd	xmm0, QWORD PTR tv138[ebp]
	jb	$LN2@CheckColli
	lea	ecx, DWORD PTR _tileA$[ebp]
	call	?top@Tile@@QAENXZ			; Tile::top
	fstp	QWORD PTR tv142[ebp]
	movsd	xmm0, QWORD PTR tv142[ebp]
	lea	ecx, DWORD PTR _tileB$[ebp]
	movsd	QWORD PTR tv162[ebp], xmm0
	call	?bottom@Tile@@QAENXZ			; Tile::bottom
	fstp	QWORD PTR tv146[ebp]
	movsd	xmm0, QWORD PTR tv146[ebp]
	movsd	xmm1, QWORD PTR tv162[ebp]
	comisd	xmm0, xmm1
	jb	SHORT $LN2@CheckColli
	lea	ecx, DWORD PTR _tileA$[ebp]
	call	?bottom@Tile@@QAENXZ			; Tile::bottom
	fstp	QWORD PTR tv150[ebp]
	movsd	xmm0, QWORD PTR tv150[ebp]
	lea	ecx, DWORD PTR _tileB$[ebp]
	movsd	QWORD PTR tv164[ebp], xmm0
	call	?top@Tile@@QAENXZ			; Tile::top
	fstp	QWORD PTR tv154[ebp]
	movsd	xmm0, QWORD PTR tv164[ebp]
	comisd	xmm0, QWORD PTR tv154[ebp]
	jb	SHORT $LN2@CheckColli

; 35   : 		tileA.bottom() >= tileB.top()) {
; 36   : 		return true;

	mov	al, 1
	jmp	SHORT $LN1@CheckColli
$LN2@CheckColli:

; 37   : 	}
; 38   : 
; 39   : 	return false;

	xor	al, al
$LN1@CheckColli:

; 40   : }

	pop	edi
	pop	esi
	pop	ebx
	add	esp, 216				; 000000d8H
	cmp	ebp, esp
	call	__RTC_CheckEsp
	mov	esp, ebp
	pop	ebp
	ret	0
?CheckCollision@@YA_NUTile@@0@Z ENDP			; CheckCollision
_TEXT	ENDS
; Function compile flags: /Odtp /RTCsu /ZI
;	COMDAT ??__FmovingTileMap@@YAXXZ
text$yd	SEGMENT
??__FmovingTileMap@@YAXXZ PROC				; `dynamic atexit destructor for 'movingTileMap'', COMDAT
	push	ebp
	mov	ebp, esp
	sub	esp, 192				; 000000c0H
	push	ebx
	push	esi
	push	edi
	lea	edi, DWORD PTR [ebp-192]
	mov	ecx, 48					; 00000030H
	mov	eax, -858993460				; ccccccccH
	rep stosd
	mov	ecx, OFFSET ?movingTileMap@@3V?$vector@UMovingTile@@V?$allocator@UMovingTile@@@std@@@std@@A ; movingTileMap
	call	??1?$vector@UMovingTile@@V?$allocator@UMovingTile@@@std@@@std@@QAE@XZ ; std::vector<MovingTile,std::allocator<MovingTile> >::~vector<MovingTile,std::allocator<MovingTile> >
	pop	edi
	pop	esi
	pop	ebx
	add	esp, 192				; 000000c0H
	cmp	ebp, esp
	call	__RTC_CheckEsp
	mov	esp, ebp
	pop	ebp
	ret	0
??__FmovingTileMap@@YAXXZ ENDP				; `dynamic atexit destructor for 'movingTileMap''
text$yd	ENDS
; Function compile flags: /Odtp /RTCsu /ZI
; File g:\projects\lotion\lotion\environment.cpp
;	COMDAT ??__EmovingTileMap@@YAXXZ
text$di	SEGMENT
??__EmovingTileMap@@YAXXZ PROC				; `dynamic initializer for 'movingTileMap'', COMDAT

; 7    : std::vector<MovingTile> movingTileMap;

	push	ebp
	mov	ebp, esp
	sub	esp, 192				; 000000c0H
	push	ebx
	push	esi
	push	edi
	lea	edi, DWORD PTR [ebp-192]
	mov	ecx, 48					; 00000030H
	mov	eax, -858993460				; ccccccccH
	rep stosd
	push	16					; 00000010H
	mov	ecx, OFFSET ?movingTileMap@@3V?$vector@UMovingTile@@V?$allocator@UMovingTile@@@std@@@std@@A ; movingTileMap
	call	?__autoclassinit2@?$vector@UMovingTile@@V?$allocator@UMovingTile@@@std@@@std@@QAEXI@Z
	mov	ecx, OFFSET ?movingTileMap@@3V?$vector@UMovingTile@@V?$allocator@UMovingTile@@@std@@@std@@A ; movingTileMap
	call	??0?$vector@UMovingTile@@V?$allocator@UMovingTile@@@std@@@std@@QAE@XZ ; std::vector<MovingTile,std::allocator<MovingTile> >::vector<MovingTile,std::allocator<MovingTile> >
	push	OFFSET ??__FmovingTileMap@@YAXXZ	; `dynamic atexit destructor for 'movingTileMap''
	call	_atexit
	add	esp, 4
	pop	edi
	pop	esi
	pop	ebx
	add	esp, 192				; 000000c0H
	cmp	ebp, esp
	call	__RTC_CheckEsp
	mov	esp, ebp
	pop	ebp
	ret	0
??__EmovingTileMap@@YAXXZ ENDP				; `dynamic initializer for 'movingTileMap''
text$di	ENDS
; Function compile flags: /Odtp /RTCsu /ZI
;	COMDAT ?__autoclassinit2@?$vector@UMovingTile@@V?$allocator@UMovingTile@@@std@@@std@@QAEXI@Z
_TEXT	SEGMENT
_this$ = -8						; size = 4
_classSize$ = 8						; size = 4
?__autoclassinit2@?$vector@UMovingTile@@V?$allocator@UMovingTile@@@std@@@std@@QAEXI@Z PROC ; std::vector<MovingTile,std::allocator<MovingTile> >::__autoclassinit2, COMDAT
; _this$ = ecx
	push	ebp
	mov	ebp, esp
	sub	esp, 204				; 000000ccH
	push	ebx
	push	esi
	push	edi
	push	ecx
	lea	edi, DWORD PTR [ebp-204]
	mov	ecx, 51					; 00000033H
	mov	eax, -858993460				; ccccccccH
	rep stosd
	pop	ecx
	mov	DWORD PTR _this$[ebp], ecx
	mov	eax, DWORD PTR _classSize$[ebp]
	push	eax
	push	0
	mov	ecx, DWORD PTR _this$[ebp]
	push	ecx
	call	_memset
	add	esp, 12					; 0000000cH
	pop	edi
	pop	esi
	pop	ebx
	add	esp, 204				; 000000ccH
	cmp	ebp, esp
	call	__RTC_CheckEsp
	mov	esp, ebp
	pop	ebp
	ret	4
?__autoclassinit2@?$vector@UMovingTile@@V?$allocator@UMovingTile@@@std@@@std@@QAEXI@Z ENDP ; std::vector<MovingTile,std::allocator<MovingTile> >::__autoclassinit2
_TEXT	ENDS
; Function compile flags: /Odtp /RTCsu /ZI
; File c:\program files (x86)\microsoft visual studio 14.0\vc\include\vector
;	COMDAT ?_Orphan_range@?$vector@UMovingTile@@V?$allocator@UMovingTile@@@std@@@std@@IBEXPAUMovingTile@@0@Z
_TEXT	SEGMENT
__Pnext$ = -48						; size = 4
__Lock$ = -36						; size = 4
_this$ = -24						; size = 4
__$ArrayPad$ = -16					; size = 4
__$EHRec$ = -12						; size = 12
__First$ = 8						; size = 4
__Last$ = 12						; size = 4
?_Orphan_range@?$vector@UMovingTile@@V?$allocator@UMovingTile@@@std@@@std@@IBEXPAUMovingTile@@0@Z PROC ; std::vector<MovingTile,std::allocator<MovingTile> >::_Orphan_range, COMDAT
; _this$ = ecx

; 1798 : 		{	// orphan iterators within specified (inclusive) range

	push	ebp
	mov	ebp, esp
	push	-1
	push	__ehhandler$?_Orphan_range@?$vector@UMovingTile@@V?$allocator@UMovingTile@@@std@@@std@@IBEXPAUMovingTile@@0@Z
	mov	eax, DWORD PTR fs:0
	push	eax
	sub	esp, 232				; 000000e8H
	push	ebx
	push	esi
	push	edi
	push	ecx
	lea	edi, DWORD PTR [ebp-244]
	mov	ecx, 58					; 0000003aH
	mov	eax, -858993460				; ccccccccH
	rep stosd
	pop	ecx
	mov	eax, DWORD PTR ___security_cookie
	xor	eax, ebp
	mov	DWORD PTR __$ArrayPad$[ebp], eax
	push	eax
	lea	eax, DWORD PTR __$EHRec$[ebp]
	mov	DWORD PTR fs:0, eax
	mov	DWORD PTR _this$[ebp], ecx

; 1799 : 		_Lockit _Lock(_LOCK_DEBUG);

	mov	esi, esp
	push	3
	lea	ecx, DWORD PTR __Lock$[ebp]
	call	DWORD PTR __imp_??0_Lockit@std@@QAE@H@Z
	cmp	esi, esp
	call	__RTC_CheckEsp
	mov	DWORD PTR __$EHRec$[ebp+8], 0

; 1800 : 		const_iterator **_Pnext = (const_iterator **)this->_Getpfirst();

	mov	ecx, DWORD PTR _this$[ebp]
	call	?_Getpfirst@?$_Vector_alloc@U?$_Vec_base_types@UMovingTile@@V?$allocator@UMovingTile@@@std@@@std@@@std@@QBEPAPAU_Iterator_base12@2@XZ ; std::_Vector_alloc<std::_Vec_base_types<MovingTile,std::allocator<MovingTile> > >::_Getpfirst
	mov	DWORD PTR __Pnext$[ebp], eax

; 1801 : 		if (_Pnext != 0)

	cmp	DWORD PTR __Pnext$[ebp], 0
	je	SHORT $LN4@Orphan_ran
$LN2@Orphan_ran:

; 1802 : 			{	// test an iterator
; 1803 : 			while (*_Pnext != 0)

	mov	eax, DWORD PTR __Pnext$[ebp]
	cmp	DWORD PTR [eax], 0
	je	SHORT $LN4@Orphan_ran

; 1804 : 				if ((*_Pnext)->_Ptr < _First || _Last < (*_Pnext)->_Ptr)

	mov	eax, DWORD PTR __Pnext$[ebp]
	mov	ecx, DWORD PTR [eax]
	mov	edx, DWORD PTR [ecx+8]
	cmp	edx, DWORD PTR __First$[ebp]
	jb	SHORT $LN7@Orphan_ran
	mov	eax, DWORD PTR __Pnext$[ebp]
	mov	ecx, DWORD PTR [eax]
	mov	edx, DWORD PTR __Last$[ebp]
	cmp	edx, DWORD PTR [ecx+8]
	jae	SHORT $LN5@Orphan_ran
$LN7@Orphan_ran:

; 1805 : 					_Pnext = (const_iterator **)(*_Pnext)->_Getpnext();

	mov	eax, DWORD PTR __Pnext$[ebp]
	mov	ecx, DWORD PTR [eax]
	call	?_Getpnext@_Iterator_base12@std@@QAEPAPAU12@XZ ; std::_Iterator_base12::_Getpnext
	mov	DWORD PTR __Pnext$[ebp], eax

; 1806 : 				else

	jmp	SHORT $LN6@Orphan_ran
$LN5@Orphan_ran:

; 1807 : 					{	// orphan the iterator
; 1808 : 					(*_Pnext)->_Clrcont();

	mov	eax, DWORD PTR __Pnext$[ebp]
	mov	ecx, DWORD PTR [eax]
	call	?_Clrcont@_Iterator_base12@std@@QAEXXZ	; std::_Iterator_base12::_Clrcont

; 1809 : 					*_Pnext = *(const_iterator **)(*_Pnext)->_Getpnext();

	mov	eax, DWORD PTR __Pnext$[ebp]
	mov	ecx, DWORD PTR [eax]
	call	?_Getpnext@_Iterator_base12@std@@QAEPAPAU12@XZ ; std::_Iterator_base12::_Getpnext
	mov	ecx, DWORD PTR __Pnext$[ebp]
	mov	edx, DWORD PTR [eax]
	mov	DWORD PTR [ecx], edx
$LN6@Orphan_ran:

; 1810 : 					}

	jmp	SHORT $LN2@Orphan_ran
$LN4@Orphan_ran:

; 1811 : 			}
; 1812 : 		}

	mov	DWORD PTR __$EHRec$[ebp+8], -1
	mov	esi, esp
	lea	ecx, DWORD PTR __Lock$[ebp]
	call	DWORD PTR __imp_??1_Lockit@std@@QAE@XZ
	cmp	esi, esp
	call	__RTC_CheckEsp
	push	edx
	mov	ecx, ebp
	push	eax
	lea	edx, DWORD PTR $LN13@Orphan_ran
	call	@_RTC_CheckStackVars@8
	pop	eax
	pop	edx
	mov	ecx, DWORD PTR __$EHRec$[ebp]
	mov	DWORD PTR fs:0, ecx
	pop	ecx
	pop	edi
	pop	esi
	pop	ebx
	mov	ecx, DWORD PTR __$ArrayPad$[ebp]
	xor	ecx, ebp
	call	@__security_check_cookie@4
	add	esp, 244				; 000000f4H
	cmp	ebp, esp
	call	__RTC_CheckEsp
	mov	esp, ebp
	pop	ebp
	ret	8
$LN13@Orphan_ran:
	DD	1
	DD	$LN12@Orphan_ran
$LN12@Orphan_ran:
	DD	-36					; ffffffdcH
	DD	4
	DD	$LN10@Orphan_ran
$LN10@Orphan_ran:
	DB	95					; 0000005fH
	DB	76					; 0000004cH
	DB	111					; 0000006fH
	DB	99					; 00000063H
	DB	107					; 0000006bH
	DB	0
_TEXT	ENDS
;	COMDAT text$x
text$x	SEGMENT
__unwindfunclet$?_Orphan_range@?$vector@UMovingTile@@V?$allocator@UMovingTile@@@std@@@std@@IBEXPAUMovingTile@@0@Z$0:
	mov	esi, esp
	lea	ecx, DWORD PTR __Lock$[ebp]
	call	DWORD PTR __imp_??1_Lockit@std@@QAE@XZ
	cmp	esi, esp
	jmp	__RTC_CheckEsp
__ehhandler$?_Orphan_range@?$vector@UMovingTile@@V?$allocator@UMovingTile@@@std@@@std@@IBEXPAUMovingTile@@0@Z:
	mov	edx, DWORD PTR [esp+8]
	lea	eax, DWORD PTR [edx+12]
	mov	ecx, DWORD PTR [edx-248]
	xor	ecx, eax
	call	@__security_check_cookie@4
	mov	ecx, DWORD PTR [edx-4]
	xor	ecx, eax
	call	@__security_check_cookie@4
	mov	eax, OFFSET __ehfuncinfo$?_Orphan_range@?$vector@UMovingTile@@V?$allocator@UMovingTile@@@std@@@std@@IBEXPAUMovingTile@@0@Z
	jmp	___CxxFrameHandler3
text$x	ENDS
?_Orphan_range@?$vector@UMovingTile@@V?$allocator@UMovingTile@@@std@@@std@@IBEXPAUMovingTile@@0@Z ENDP ; std::vector<MovingTile,std::allocator<MovingTile> >::_Orphan_range
; Function compile flags: /Odtp /RTCsu /ZI
; File c:\program files (x86)\microsoft visual studio 14.0\vc\include\vector
;	COMDAT ?_Xlen@?$vector@UMovingTile@@V?$allocator@UMovingTile@@@std@@@std@@IBEXXZ
_TEXT	SEGMENT
_this$ = -8						; size = 4
?_Xlen@?$vector@UMovingTile@@V?$allocator@UMovingTile@@@std@@@std@@IBEXXZ PROC ; std::vector<MovingTile,std::allocator<MovingTile> >::_Xlen, COMDAT
; _this$ = ecx

; 1787 : 		{	// report a length_error

	push	ebp
	mov	ebp, esp
	sub	esp, 204				; 000000ccH
	push	ebx
	push	esi
	push	edi
	push	ecx
	lea	edi, DWORD PTR [ebp-204]
	mov	ecx, 51					; 00000033H
	mov	eax, -858993460				; ccccccccH
	rep stosd
	pop	ecx
	mov	DWORD PTR _this$[ebp], ecx

; 1788 : 		_Xlength_error("vector<T> too long");

	mov	esi, esp
	push	OFFSET ??_C@_0BD@OLBABOEK@vector?$DMT?$DO?5too?5long?$AA@
	call	DWORD PTR __imp_?_Xlength_error@std@@YAXPBD@Z
	cmp	esi, esp
	call	__RTC_CheckEsp
$LN2@Xlen:

; 1789 : 		}

	pop	edi
	pop	esi
	pop	ebx
	add	esp, 204				; 000000ccH
	cmp	ebp, esp
	call	__RTC_CheckEsp
	mov	esp, ebp
	pop	ebp
	ret	0
?_Xlen@?$vector@UMovingTile@@V?$allocator@UMovingTile@@@std@@@std@@IBEXXZ ENDP ; std::vector<MovingTile,std::allocator<MovingTile> >::_Xlen
_TEXT	ENDS
; Function compile flags: /Odtp /RTCsu /ZI
; File c:\program files (x86)\microsoft visual studio 14.0\vc\include\vector
;	COMDAT ?_Tidy@?$vector@UMovingTile@@V?$allocator@UMovingTile@@@std@@@std@@IAEXXZ
_TEXT	SEGMENT
_this$ = -8						; size = 4
?_Tidy@?$vector@UMovingTile@@V?$allocator@UMovingTile@@@std@@@std@@IAEXXZ PROC ; std::vector<MovingTile,std::allocator<MovingTile> >::_Tidy, COMDAT
; _this$ = ecx

; 1659 : 		{	// free all storage

	push	ebp
	mov	ebp, esp
	sub	esp, 204				; 000000ccH
	push	ebx
	push	esi
	push	edi
	push	ecx
	lea	edi, DWORD PTR [ebp-204]
	mov	ecx, 51					; 00000033H
	mov	eax, -858993460				; ccccccccH
	rep stosd
	pop	ecx
	mov	DWORD PTR _this$[ebp], ecx

; 1660 : 		if (this->_Myfirst() != pointer())

	mov	ecx, DWORD PTR _this$[ebp]
	call	?_Myfirst@?$_Vector_alloc@U?$_Vec_base_types@UMovingTile@@V?$allocator@UMovingTile@@@std@@@std@@@std@@QAEAAPAUMovingTile@@XZ ; std::_Vector_alloc<std::_Vec_base_types<MovingTile,std::allocator<MovingTile> > >::_Myfirst
	cmp	DWORD PTR [eax], 0
	je	$LN1@Tidy

; 1661 : 			{	// something to free, destroy and deallocate it
; 1662 : 			this->_Orphan_all();

	mov	ecx, DWORD PTR _this$[ebp]
	call	?_Orphan_all@?$_Vector_alloc@U?$_Vec_base_types@UMovingTile@@V?$allocator@UMovingTile@@@std@@@std@@@std@@QAEXXZ ; std::_Vector_alloc<std::_Vec_base_types<MovingTile,std::allocator<MovingTile> > >::_Orphan_all

; 1663 : 			_Destroy(this->_Myfirst(), this->_Mylast());

	mov	ecx, DWORD PTR _this$[ebp]
	call	?_Mylast@?$_Vector_alloc@U?$_Vec_base_types@UMovingTile@@V?$allocator@UMovingTile@@@std@@@std@@@std@@QAEAAPAUMovingTile@@XZ ; std::_Vector_alloc<std::_Vec_base_types<MovingTile,std::allocator<MovingTile> > >::_Mylast
	mov	eax, DWORD PTR [eax]
	push	eax
	mov	ecx, DWORD PTR _this$[ebp]
	call	?_Myfirst@?$_Vector_alloc@U?$_Vec_base_types@UMovingTile@@V?$allocator@UMovingTile@@@std@@@std@@@std@@QAEAAPAUMovingTile@@XZ ; std::_Vector_alloc<std::_Vec_base_types<MovingTile,std::allocator<MovingTile> > >::_Myfirst
	mov	ecx, DWORD PTR [eax]
	push	ecx
	mov	ecx, DWORD PTR _this$[ebp]
	call	?_Destroy@?$vector@UMovingTile@@V?$allocator@UMovingTile@@@std@@@std@@IAEXPAUMovingTile@@0@Z ; std::vector<MovingTile,std::allocator<MovingTile> >::_Destroy

; 1664 : 			this->_Getal().deallocate(this->_Myfirst(),

	mov	ecx, DWORD PTR _this$[ebp]
	call	?_Myend@?$_Vector_alloc@U?$_Vec_base_types@UMovingTile@@V?$allocator@UMovingTile@@@std@@@std@@@std@@QAEAAPAUMovingTile@@XZ ; std::_Vector_alloc<std::_Vec_base_types<MovingTile,std::allocator<MovingTile> > >::_Myend
	mov	esi, eax
	mov	ecx, DWORD PTR _this$[ebp]
	call	?_Myfirst@?$_Vector_alloc@U?$_Vec_base_types@UMovingTile@@V?$allocator@UMovingTile@@@std@@@std@@@std@@QAEAAPAUMovingTile@@XZ ; std::_Vector_alloc<std::_Vec_base_types<MovingTile,std::allocator<MovingTile> > >::_Myfirst
	mov	ecx, DWORD PTR [esi]
	sub	ecx, DWORD PTR [eax]
	mov	eax, ecx
	cdq
	mov	ecx, 48					; 00000030H
	idiv	ecx
	push	eax
	mov	ecx, DWORD PTR _this$[ebp]
	call	?_Myfirst@?$_Vector_alloc@U?$_Vec_base_types@UMovingTile@@V?$allocator@UMovingTile@@@std@@@std@@@std@@QAEAAPAUMovingTile@@XZ ; std::_Vector_alloc<std::_Vec_base_types<MovingTile,std::allocator<MovingTile> > >::_Myfirst
	mov	edx, DWORD PTR [eax]
	push	edx
	mov	ecx, DWORD PTR _this$[ebp]
	call	?_Getal@?$_Vector_alloc@U?$_Vec_base_types@UMovingTile@@V?$allocator@UMovingTile@@@std@@@std@@@std@@QAEAAU?$_Wrap_alloc@V?$allocator@UMovingTile@@@std@@@2@XZ ; std::_Vector_alloc<std::_Vec_base_types<MovingTile,std::allocator<MovingTile> > >::_Getal
	mov	ecx, eax
	call	?deallocate@?$_Wrap_alloc@V?$allocator@UMovingTile@@@std@@@std@@QAEXPAUMovingTile@@I@Z ; std::_Wrap_alloc<std::allocator<MovingTile> >::deallocate

; 1665 : 				this->_Myend() - this->_Myfirst());
; 1666 : 			this->_Myfirst() = pointer();

	mov	ecx, DWORD PTR _this$[ebp]
	call	?_Myfirst@?$_Vector_alloc@U?$_Vec_base_types@UMovingTile@@V?$allocator@UMovingTile@@@std@@@std@@@std@@QAEAAPAUMovingTile@@XZ ; std::_Vector_alloc<std::_Vec_base_types<MovingTile,std::allocator<MovingTile> > >::_Myfirst
	mov	DWORD PTR [eax], 0

; 1667 : 			this->_Mylast() = pointer();

	mov	ecx, DWORD PTR _this$[ebp]
	call	?_Mylast@?$_Vector_alloc@U?$_Vec_base_types@UMovingTile@@V?$allocator@UMovingTile@@@std@@@std@@@std@@QAEAAPAUMovingTile@@XZ ; std::_Vector_alloc<std::_Vec_base_types<MovingTile,std::allocator<MovingTile> > >::_Mylast
	mov	DWORD PTR [eax], 0

; 1668 : 			this->_Myend() = pointer();

	mov	ecx, DWORD PTR _this$[ebp]
	call	?_Myend@?$_Vector_alloc@U?$_Vec_base_types@UMovingTile@@V?$allocator@UMovingTile@@@std@@@std@@@std@@QAEAAPAUMovingTile@@XZ ; std::_Vector_alloc<std::_Vec_base_types<MovingTile,std::allocator<MovingTile> > >::_Myend
	mov	DWORD PTR [eax], 0
$LN1@Tidy:

; 1669 : 			}
; 1670 : 		}

	pop	edi
	pop	esi
	pop	ebx
	add	esp, 204				; 000000ccH
	cmp	ebp, esp
	call	__RTC_CheckEsp
	mov	esp, ebp
	pop	ebp
	ret	0
?_Tidy@?$vector@UMovingTile@@V?$allocator@UMovingTile@@@std@@@std@@IAEXXZ ENDP ; std::vector<MovingTile,std::allocator<MovingTile> >::_Tidy
_TEXT	ENDS
; Function compile flags: /Odtp /RTCsu /ZI
; File c:\program files (x86)\microsoft visual studio 14.0\vc\include\vector
;	COMDAT ?_Reserve@?$vector@UMovingTile@@V?$allocator@UMovingTile@@@std@@@std@@IAEXI@Z
_TEXT	SEGMENT
_this$ = -8						; size = 4
__Count$ = 8						; size = 4
?_Reserve@?$vector@UMovingTile@@V?$allocator@UMovingTile@@@std@@@std@@IAEXI@Z PROC ; std::vector<MovingTile,std::allocator<MovingTile> >::_Reserve, COMDAT
; _this$ = ecx

; 1649 : 		{	// ensure room for _Count new elements, grow exponentially

	push	ebp
	mov	ebp, esp
	sub	esp, 204				; 000000ccH
	push	ebx
	push	esi
	push	edi
	push	ecx
	lea	edi, DWORD PTR [ebp-204]
	mov	ecx, 51					; 00000033H
	mov	eax, -858993460				; ccccccccH
	rep stosd
	pop	ecx
	mov	DWORD PTR _this$[ebp], ecx

; 1650 : 		if (_Unused_capacity() < _Count)

	mov	ecx, DWORD PTR _this$[ebp]
	call	?_Unused_capacity@?$vector@UMovingTile@@V?$allocator@UMovingTile@@@std@@@std@@QBEIXZ ; std::vector<MovingTile,std::allocator<MovingTile> >::_Unused_capacity
	cmp	eax, DWORD PTR __Count$[ebp]
	jae	SHORT $LN4@Reserve

; 1651 : 			{	// need more room, try to get it
; 1652 : 			if (max_size() - size() < _Count)

	mov	ecx, DWORD PTR _this$[ebp]
	call	?max_size@?$vector@UMovingTile@@V?$allocator@UMovingTile@@@std@@@std@@QBEIXZ ; std::vector<MovingTile,std::allocator<MovingTile> >::max_size
	mov	esi, eax
	mov	ecx, DWORD PTR _this$[ebp]
	call	?size@?$vector@UMovingTile@@V?$allocator@UMovingTile@@@std@@@std@@QBEIXZ ; std::vector<MovingTile,std::allocator<MovingTile> >::size
	sub	esi, eax
	cmp	esi, DWORD PTR __Count$[ebp]
	jae	SHORT $LN3@Reserve

; 1653 : 				_Xlen();

	mov	ecx, DWORD PTR _this$[ebp]
	call	?_Xlen@?$vector@UMovingTile@@V?$allocator@UMovingTile@@@std@@@std@@IBEXXZ ; std::vector<MovingTile,std::allocator<MovingTile> >::_Xlen
$LN3@Reserve:

; 1654 : 			_Reallocate(_Grow_to(size() + _Count));

	mov	ecx, DWORD PTR _this$[ebp]
	call	?size@?$vector@UMovingTile@@V?$allocator@UMovingTile@@@std@@@std@@QBEIXZ ; std::vector<MovingTile,std::allocator<MovingTile> >::size
	add	eax, DWORD PTR __Count$[ebp]
	push	eax
	mov	ecx, DWORD PTR _this$[ebp]
	call	?_Grow_to@?$vector@UMovingTile@@V?$allocator@UMovingTile@@@std@@@std@@IBEII@Z ; std::vector<MovingTile,std::allocator<MovingTile> >::_Grow_to
	push	eax
	mov	ecx, DWORD PTR _this$[ebp]
	call	?_Reallocate@?$vector@UMovingTile@@V?$allocator@UMovingTile@@@std@@@std@@IAEXI@Z ; std::vector<MovingTile,std::allocator<MovingTile> >::_Reallocate
$LN4@Reserve:

; 1655 : 			}
; 1656 : 		}

	pop	edi
	pop	esi
	pop	ebx
	add	esp, 204				; 000000ccH
	cmp	ebp, esp
	call	__RTC_CheckEsp
	mov	esp, ebp
	pop	ebp
	ret	4
?_Reserve@?$vector@UMovingTile@@V?$allocator@UMovingTile@@@std@@@std@@IAEXI@Z ENDP ; std::vector<MovingTile,std::allocator<MovingTile> >::_Reserve
_TEXT	ENDS
; Function compile flags: /Odtp /RTCsu /ZI
; File c:\program files (x86)\microsoft visual studio 14.0\vc\include\vector
;	COMDAT ?_Reallocate@?$vector@UMovingTile@@V?$allocator@UMovingTile@@@std@@@std@@IAEXI@Z
_TEXT	SEGMENT
__Size$ = -48						; size = 4
__Ptr$ = -36						; size = 4
_this$ = -24						; size = 4
__$EHRec$ = -16						; size = 16
__Count$ = 8						; size = 4
?_Reallocate@?$vector@UMovingTile@@V?$allocator@UMovingTile@@@std@@@std@@IAEXI@Z PROC ; std::vector<MovingTile,std::allocator<MovingTile> >::_Reallocate, COMDAT
; _this$ = ecx

; 1624 : 		{	// move to array of exactly _Count elements

	push	ebp
	mov	ebp, esp
	push	-1
	push	__ehhandler$?_Reallocate@?$vector@UMovingTile@@V?$allocator@UMovingTile@@@std@@@std@@IAEXI@Z
	mov	eax, DWORD PTR fs:0
	push	eax
	push	ecx
	sub	esp, 228				; 000000e4H
	push	ebx
	push	esi
	push	edi
	push	ecx
	lea	edi, DWORD PTR [ebp-244]
	mov	ecx, 57					; 00000039H
	mov	eax, -858993460				; ccccccccH
	rep stosd
	pop	ecx
	mov	eax, DWORD PTR ___security_cookie
	xor	eax, ebp
	push	eax
	lea	eax, DWORD PTR __$EHRec$[ebp+4]
	mov	DWORD PTR fs:0, eax
	mov	DWORD PTR __$EHRec$[ebp], esp
	mov	DWORD PTR _this$[ebp], ecx

; 1625 : 		pointer _Ptr = this->_Getal().allocate(_Count);

	mov	eax, DWORD PTR __Count$[ebp]
	push	eax
	mov	ecx, DWORD PTR _this$[ebp]
	call	?_Getal@?$_Vector_alloc@U?$_Vec_base_types@UMovingTile@@V?$allocator@UMovingTile@@@std@@@std@@@std@@QAEAAU?$_Wrap_alloc@V?$allocator@UMovingTile@@@std@@@2@XZ ; std::_Vector_alloc<std::_Vec_base_types<MovingTile,std::allocator<MovingTile> > >::_Getal
	mov	ecx, eax
	call	?allocate@?$_Wrap_alloc@V?$allocator@UMovingTile@@@std@@@std@@QAEPAUMovingTile@@I@Z ; std::_Wrap_alloc<std::allocator<MovingTile> >::allocate
	mov	DWORD PTR __Ptr$[ebp], eax

; 1626 : 
; 1627 : 		_TRY_BEGIN

	mov	DWORD PTR __$EHRec$[ebp+12], 0

; 1628 : 		_Umove(this->_Myfirst(), this->_Mylast(), _Ptr);

	mov	eax, DWORD PTR __Ptr$[ebp]
	push	eax
	mov	ecx, DWORD PTR _this$[ebp]
	call	?_Mylast@?$_Vector_alloc@U?$_Vec_base_types@UMovingTile@@V?$allocator@UMovingTile@@@std@@@std@@@std@@QAEAAPAUMovingTile@@XZ ; std::_Vector_alloc<std::_Vec_base_types<MovingTile,std::allocator<MovingTile> > >::_Mylast
	mov	ecx, DWORD PTR [eax]
	push	ecx
	mov	ecx, DWORD PTR _this$[ebp]
	call	?_Myfirst@?$_Vector_alloc@U?$_Vec_base_types@UMovingTile@@V?$allocator@UMovingTile@@@std@@@std@@@std@@QAEAAPAUMovingTile@@XZ ; std::_Vector_alloc<std::_Vec_base_types<MovingTile,std::allocator<MovingTile> > >::_Myfirst
	mov	edx, DWORD PTR [eax]
	push	edx
	mov	ecx, DWORD PTR _this$[ebp]
	call	??$_Umove@PAUMovingTile@@@?$vector@UMovingTile@@V?$allocator@UMovingTile@@@std@@@std@@IAEPAUMovingTile@@PAU2@00@Z ; std::vector<MovingTile,std::allocator<MovingTile> >::_Umove<MovingTile *>
	jmp	SHORT $LN5@Reallocate
__catch$?_Reallocate@?$vector@UMovingTile@@V?$allocator@UMovingTile@@@std@@@std@@IAEXI@Z$0:

; 1629 : 		_CATCH_ALL
; 1630 : 		this->_Getal().deallocate(_Ptr, _Count);

	mov	eax, DWORD PTR __Count$[ebp]
	push	eax
	mov	ecx, DWORD PTR __Ptr$[ebp]
	push	ecx
	mov	ecx, DWORD PTR _this$[ebp]
	call	?_Getal@?$_Vector_alloc@U?$_Vec_base_types@UMovingTile@@V?$allocator@UMovingTile@@@std@@@std@@@std@@QAEAAU?$_Wrap_alloc@V?$allocator@UMovingTile@@@std@@@2@XZ ; std::_Vector_alloc<std::_Vec_base_types<MovingTile,std::allocator<MovingTile> > >::_Getal
	mov	ecx, eax
	call	?deallocate@?$_Wrap_alloc@V?$allocator@UMovingTile@@@std@@@std@@QAEXPAUMovingTile@@I@Z ; std::_Wrap_alloc<std::allocator<MovingTile> >::deallocate

; 1631 : 		_RERAISE;

	push	0
	push	0
	call	__CxxThrowException@8

; 1632 : 		_CATCH_END

	mov	eax, $LN8@Reallocate
	ret	0
$LN5@Reallocate:
	mov	DWORD PTR __$EHRec$[ebp+12], -1
	jmp	SHORT __tryend$?_Reallocate@?$vector@UMovingTile@@V?$allocator@UMovingTile@@@std@@@std@@IAEXI@Z$1
$LN8@Reallocate:
	mov	DWORD PTR __$EHRec$[ebp+12], -1
__tryend$?_Reallocate@?$vector@UMovingTile@@V?$allocator@UMovingTile@@@std@@@std@@IAEXI@Z$1:

; 1633 : 
; 1634 : 		size_type _Size = size();

	mov	ecx, DWORD PTR _this$[ebp]
	call	?size@?$vector@UMovingTile@@V?$allocator@UMovingTile@@@std@@@std@@QBEIXZ ; std::vector<MovingTile,std::allocator<MovingTile> >::size
	mov	DWORD PTR __Size$[ebp], eax

; 1635 : 		if (this->_Myfirst() != pointer())

	mov	ecx, DWORD PTR _this$[ebp]
	call	?_Myfirst@?$_Vector_alloc@U?$_Vec_base_types@UMovingTile@@V?$allocator@UMovingTile@@@std@@@std@@@std@@QAEAAPAUMovingTile@@XZ ; std::_Vector_alloc<std::_Vec_base_types<MovingTile,std::allocator<MovingTile> > >::_Myfirst
	cmp	DWORD PTR [eax], 0
	je	SHORT $LN3@Reallocate

; 1636 : 			{	// destroy and deallocate old array
; 1637 : 			_Destroy(this->_Myfirst(), this->_Mylast());

	mov	ecx, DWORD PTR _this$[ebp]
	call	?_Mylast@?$_Vector_alloc@U?$_Vec_base_types@UMovingTile@@V?$allocator@UMovingTile@@@std@@@std@@@std@@QAEAAPAUMovingTile@@XZ ; std::_Vector_alloc<std::_Vec_base_types<MovingTile,std::allocator<MovingTile> > >::_Mylast
	mov	eax, DWORD PTR [eax]
	push	eax
	mov	ecx, DWORD PTR _this$[ebp]
	call	?_Myfirst@?$_Vector_alloc@U?$_Vec_base_types@UMovingTile@@V?$allocator@UMovingTile@@@std@@@std@@@std@@QAEAAPAUMovingTile@@XZ ; std::_Vector_alloc<std::_Vec_base_types<MovingTile,std::allocator<MovingTile> > >::_Myfirst
	mov	ecx, DWORD PTR [eax]
	push	ecx
	mov	ecx, DWORD PTR _this$[ebp]
	call	?_Destroy@?$vector@UMovingTile@@V?$allocator@UMovingTile@@@std@@@std@@IAEXPAUMovingTile@@0@Z ; std::vector<MovingTile,std::allocator<MovingTile> >::_Destroy

; 1638 : 			this->_Getal().deallocate(this->_Myfirst(),

	mov	ecx, DWORD PTR _this$[ebp]
	call	?_Myfirst@?$_Vector_alloc@U?$_Vec_base_types@UMovingTile@@V?$allocator@UMovingTile@@@std@@@std@@@std@@QAEAAPAUMovingTile@@XZ ; std::_Vector_alloc<std::_Vec_base_types<MovingTile,std::allocator<MovingTile> > >::_Myfirst
	mov	esi, eax
	mov	ecx, DWORD PTR _this$[ebp]
	call	?_Myend@?$_Vector_alloc@U?$_Vec_base_types@UMovingTile@@V?$allocator@UMovingTile@@@std@@@std@@@std@@QAEAAPAUMovingTile@@XZ ; std::_Vector_alloc<std::_Vec_base_types<MovingTile,std::allocator<MovingTile> > >::_Myend
	mov	eax, DWORD PTR [eax]
	sub	eax, DWORD PTR [esi]
	cdq
	mov	ecx, 48					; 00000030H
	idiv	ecx
	push	eax
	mov	ecx, DWORD PTR _this$[ebp]
	call	?_Myfirst@?$_Vector_alloc@U?$_Vec_base_types@UMovingTile@@V?$allocator@UMovingTile@@@std@@@std@@@std@@QAEAAPAUMovingTile@@XZ ; std::_Vector_alloc<std::_Vec_base_types<MovingTile,std::allocator<MovingTile> > >::_Myfirst
	mov	edx, DWORD PTR [eax]
	push	edx
	mov	ecx, DWORD PTR _this$[ebp]
	call	?_Getal@?$_Vector_alloc@U?$_Vec_base_types@UMovingTile@@V?$allocator@UMovingTile@@@std@@@std@@@std@@QAEAAU?$_Wrap_alloc@V?$allocator@UMovingTile@@@std@@@2@XZ ; std::_Vector_alloc<std::_Vec_base_types<MovingTile,std::allocator<MovingTile> > >::_Getal
	mov	ecx, eax
	call	?deallocate@?$_Wrap_alloc@V?$allocator@UMovingTile@@@std@@@std@@QAEXPAUMovingTile@@I@Z ; std::_Wrap_alloc<std::allocator<MovingTile> >::deallocate
$LN3@Reallocate:

; 1639 : 				this->_Myend() - this->_Myfirst());
; 1640 : 			}
; 1641 : 
; 1642 : 		this->_Orphan_all();

	mov	ecx, DWORD PTR _this$[ebp]
	call	?_Orphan_all@?$_Vector_alloc@U?$_Vec_base_types@UMovingTile@@V?$allocator@UMovingTile@@@std@@@std@@@std@@QAEXXZ ; std::_Vector_alloc<std::_Vec_base_types<MovingTile,std::allocator<MovingTile> > >::_Orphan_all

; 1643 : 		this->_Myend() = _Ptr + _Count;

	imul	esi, DWORD PTR __Count$[ebp], 48
	add	esi, DWORD PTR __Ptr$[ebp]
	mov	ecx, DWORD PTR _this$[ebp]
	call	?_Myend@?$_Vector_alloc@U?$_Vec_base_types@UMovingTile@@V?$allocator@UMovingTile@@@std@@@std@@@std@@QAEAAPAUMovingTile@@XZ ; std::_Vector_alloc<std::_Vec_base_types<MovingTile,std::allocator<MovingTile> > >::_Myend
	mov	DWORD PTR [eax], esi

; 1644 : 		this->_Mylast() = _Ptr + _Size;

	imul	esi, DWORD PTR __Size$[ebp], 48
	add	esi, DWORD PTR __Ptr$[ebp]
	mov	ecx, DWORD PTR _this$[ebp]
	call	?_Mylast@?$_Vector_alloc@U?$_Vec_base_types@UMovingTile@@V?$allocator@UMovingTile@@@std@@@std@@@std@@QAEAAPAUMovingTile@@XZ ; std::_Vector_alloc<std::_Vec_base_types<MovingTile,std::allocator<MovingTile> > >::_Mylast
	mov	DWORD PTR [eax], esi

; 1645 : 		this->_Myfirst() = _Ptr;

	mov	ecx, DWORD PTR _this$[ebp]
	call	?_Myfirst@?$_Vector_alloc@U?$_Vec_base_types@UMovingTile@@V?$allocator@UMovingTile@@@std@@@std@@@std@@QAEAAPAUMovingTile@@XZ ; std::_Vector_alloc<std::_Vec_base_types<MovingTile,std::allocator<MovingTile> > >::_Myfirst
	mov	ecx, DWORD PTR __Ptr$[ebp]
	mov	DWORD PTR [eax], ecx
$LN4@Reallocate:

; 1646 : 		}

	mov	ecx, DWORD PTR __$EHRec$[ebp+4]
	mov	DWORD PTR fs:0, ecx
	pop	ecx
	pop	edi
	pop	esi
	pop	ebx
	add	esp, 244				; 000000f4H
	cmp	ebp, esp
	call	__RTC_CheckEsp
	mov	esp, ebp
	pop	ebp
	ret	4
_TEXT	ENDS
;	COMDAT text$x
text$x	SEGMENT
__ehhandler$?_Reallocate@?$vector@UMovingTile@@V?$allocator@UMovingTile@@@std@@@std@@IAEXI@Z:
	mov	edx, DWORD PTR [esp+8]
	lea	eax, DWORD PTR [edx+12]
	mov	ecx, DWORD PTR [edx-248]
	xor	ecx, eax
	call	@__security_check_cookie@4
	mov	eax, OFFSET __ehfuncinfo$?_Reallocate@?$vector@UMovingTile@@V?$allocator@UMovingTile@@@std@@@std@@IAEXI@Z
	jmp	___CxxFrameHandler3
text$x	ENDS
?_Reallocate@?$vector@UMovingTile@@V?$allocator@UMovingTile@@@std@@@std@@IAEXI@Z ENDP ; std::vector<MovingTile,std::allocator<MovingTile> >::_Reallocate
; Function compile flags: /Odtp /RTCsu /ZI
; File c:\program files (x86)\microsoft visual studio 14.0\vc\include\vector
;	COMDAT ?_Inside@?$vector@UMovingTile@@V?$allocator@UMovingTile@@@std@@@std@@IBE_NPBUMovingTile@@@Z
_TEXT	SEGMENT
tv78 = -208						; size = 4
_this$ = -8						; size = 4
__Ptr$ = 8						; size = 4
?_Inside@?$vector@UMovingTile@@V?$allocator@UMovingTile@@@std@@@std@@IBE_NPBUMovingTile@@@Z PROC ; std::vector<MovingTile,std::allocator<MovingTile> >::_Inside, COMDAT
; _this$ = ecx

; 1619 : 		{	// test if _Ptr points inside vector

	push	ebp
	mov	ebp, esp
	sub	esp, 208				; 000000d0H
	push	ebx
	push	esi
	push	edi
	push	ecx
	lea	edi, DWORD PTR [ebp-208]
	mov	ecx, 52					; 00000034H
	mov	eax, -858993460				; ccccccccH
	rep stosd
	pop	ecx
	mov	DWORD PTR _this$[ebp], ecx

; 1620 : 		return (_Ptr < this->_Mylast() && this->_Myfirst() <= _Ptr);

	mov	ecx, DWORD PTR _this$[ebp]
	call	?_Mylast@?$_Vector_alloc@U?$_Vec_base_types@UMovingTile@@V?$allocator@UMovingTile@@@std@@@std@@@std@@QBEABQAUMovingTile@@XZ ; std::_Vector_alloc<std::_Vec_base_types<MovingTile,std::allocator<MovingTile> > >::_Mylast
	mov	ecx, DWORD PTR __Ptr$[ebp]
	cmp	ecx, DWORD PTR [eax]
	jae	SHORT $LN3@Inside
	mov	ecx, DWORD PTR _this$[ebp]
	call	?_Myfirst@?$_Vector_alloc@U?$_Vec_base_types@UMovingTile@@V?$allocator@UMovingTile@@@std@@@std@@@std@@QBEABQAUMovingTile@@XZ ; std::_Vector_alloc<std::_Vec_base_types<MovingTile,std::allocator<MovingTile> > >::_Myfirst
	mov	edx, DWORD PTR [eax]
	cmp	edx, DWORD PTR __Ptr$[ebp]
	ja	SHORT $LN3@Inside
	mov	DWORD PTR tv78[ebp], 1
	jmp	SHORT $LN4@Inside
$LN3@Inside:
	mov	DWORD PTR tv78[ebp], 0
$LN4@Inside:
	mov	al, BYTE PTR tv78[ebp]

; 1621 : 		}

	pop	edi
	pop	esi
	pop	ebx
	add	esp, 208				; 000000d0H
	cmp	ebp, esp
	call	__RTC_CheckEsp
	mov	esp, ebp
	pop	ebp
	ret	4
?_Inside@?$vector@UMovingTile@@V?$allocator@UMovingTile@@@std@@@std@@IBE_NPBUMovingTile@@@Z ENDP ; std::vector<MovingTile,std::allocator<MovingTile> >::_Inside
_TEXT	ENDS
; Function compile flags: /Odtp /RTCsu /ZI
; File c:\program files (x86)\microsoft visual studio 14.0\vc\include\vector
;	COMDAT ?_Grow_to@?$vector@UMovingTile@@V?$allocator@UMovingTile@@@std@@@std@@IBEII@Z
_TEXT	SEGMENT
tv73 = -220						; size = 4
__Capacity$ = -20					; size = 4
_this$ = -8						; size = 4
__Count$ = 8						; size = 4
?_Grow_to@?$vector@UMovingTile@@V?$allocator@UMovingTile@@@std@@@std@@IBEII@Z PROC ; std::vector<MovingTile,std::allocator<MovingTile> >::_Grow_to, COMDAT
; _this$ = ecx

; 1608 : 		{	// grow by 50% or at least to _Count

	push	ebp
	mov	ebp, esp
	sub	esp, 220				; 000000dcH
	push	ebx
	push	esi
	push	edi
	push	ecx
	lea	edi, DWORD PTR [ebp-220]
	mov	ecx, 55					; 00000037H
	mov	eax, -858993460				; ccccccccH
	rep stosd
	pop	ecx
	mov	DWORD PTR _this$[ebp], ecx

; 1609 : 		size_type _Capacity = capacity();

	mov	ecx, DWORD PTR _this$[ebp]
	call	?capacity@?$vector@UMovingTile@@V?$allocator@UMovingTile@@@std@@@std@@QBEIXZ ; std::vector<MovingTile,std::allocator<MovingTile> >::capacity
	mov	DWORD PTR __Capacity$[ebp], eax

; 1610 : 
; 1611 : 		_Capacity = max_size() - _Capacity / 2 < _Capacity

	mov	ecx, DWORD PTR _this$[ebp]
	call	?max_size@?$vector@UMovingTile@@V?$allocator@UMovingTile@@@std@@@std@@QBEIXZ ; std::vector<MovingTile,std::allocator<MovingTile> >::max_size
	mov	ecx, DWORD PTR __Capacity$[ebp]
	shr	ecx, 1
	sub	eax, ecx
	cmp	eax, DWORD PTR __Capacity$[ebp]
	jae	SHORT $LN4@Grow_to
	mov	DWORD PTR tv73[ebp], 0
	jmp	SHORT $LN5@Grow_to
$LN4@Grow_to:
	mov	edx, DWORD PTR __Capacity$[ebp]
	shr	edx, 1
	add	edx, DWORD PTR __Capacity$[ebp]
	mov	DWORD PTR tv73[ebp], edx
$LN5@Grow_to:
	mov	eax, DWORD PTR tv73[ebp]
	mov	DWORD PTR __Capacity$[ebp], eax

; 1612 : 			? 0 : _Capacity + _Capacity / 2;	// try to grow by 50%
; 1613 : 		if (_Capacity < _Count)

	mov	eax, DWORD PTR __Capacity$[ebp]
	cmp	eax, DWORD PTR __Count$[ebp]
	jae	SHORT $LN2@Grow_to

; 1614 : 			_Capacity = _Count;

	mov	eax, DWORD PTR __Count$[ebp]
	mov	DWORD PTR __Capacity$[ebp], eax
$LN2@Grow_to:

; 1615 : 		return (_Capacity);

	mov	eax, DWORD PTR __Capacity$[ebp]

; 1616 : 		}

	pop	edi
	pop	esi
	pop	ebx
	add	esp, 220				; 000000dcH
	cmp	ebp, esp
	call	__RTC_CheckEsp
	mov	esp, ebp
	pop	ebp
	ret	4
?_Grow_to@?$vector@UMovingTile@@V?$allocator@UMovingTile@@@std@@@std@@IBEII@Z ENDP ; std::vector<MovingTile,std::allocator<MovingTile> >::_Grow_to
_TEXT	ENDS
; Function compile flags: /Odtp /RTCsu /ZI
; File c:\program files (x86)\microsoft visual studio 14.0\vc\include\vector
;	COMDAT ?_Destroy@?$vector@UMovingTile@@V?$allocator@UMovingTile@@@std@@@std@@IAEXPAUMovingTile@@0@Z
_TEXT	SEGMENT
_this$ = -8						; size = 4
__First$ = 8						; size = 4
__Last$ = 12						; size = 4
?_Destroy@?$vector@UMovingTile@@V?$allocator@UMovingTile@@@std@@@std@@IAEXPAUMovingTile@@0@Z PROC ; std::vector<MovingTile,std::allocator<MovingTile> >::_Destroy, COMDAT
; _this$ = ecx

; 1603 : 		{	// destroy [_First, _Last) using allocator

	push	ebp
	mov	ebp, esp
	sub	esp, 204				; 000000ccH
	push	ebx
	push	esi
	push	edi
	push	ecx
	lea	edi, DWORD PTR [ebp-204]
	mov	ecx, 51					; 00000033H
	mov	eax, -858993460				; ccccccccH
	rep stosd
	pop	ecx
	mov	DWORD PTR _this$[ebp], ecx

; 1604 : 		_Destroy_range(_First, _Last, this->_Getal());

	mov	ecx, DWORD PTR _this$[ebp]
	call	?_Getal@?$_Vector_alloc@U?$_Vec_base_types@UMovingTile@@V?$allocator@UMovingTile@@@std@@@std@@@std@@QAEAAU?$_Wrap_alloc@V?$allocator@UMovingTile@@@std@@@2@XZ ; std::_Vector_alloc<std::_Vec_base_types<MovingTile,std::allocator<MovingTile> > >::_Getal
	push	eax
	mov	eax, DWORD PTR __Last$[ebp]
	push	eax
	mov	ecx, DWORD PTR __First$[ebp]
	push	ecx
	call	??$_Destroy_range@U?$_Wrap_alloc@V?$allocator@UMovingTile@@@std@@@std@@@std@@YAXPAUMovingTile@@0AAU?$_Wrap_alloc@V?$allocator@UMovingTile@@@std@@@0@@Z ; std::_Destroy_range<std::_Wrap_alloc<std::allocator<MovingTile> > >
	add	esp, 12					; 0000000cH

; 1605 : 		}

	pop	edi
	pop	esi
	pop	ebx
	add	esp, 204				; 000000ccH
	cmp	ebp, esp
	call	__RTC_CheckEsp
	mov	esp, ebp
	pop	ebp
	ret	8
?_Destroy@?$vector@UMovingTile@@V?$allocator@UMovingTile@@@std@@@std@@IAEXPAUMovingTile@@0@Z ENDP ; std::vector<MovingTile,std::allocator<MovingTile> >::_Destroy
_TEXT	ENDS
; Function compile flags: /Odtp /RTCsu /ZI
; File c:\program files (x86)\microsoft visual studio 14.0\vc\include\vector
;	COMDAT ?push_back@?$vector@UMovingTile@@V?$allocator@UMovingTile@@@std@@@std@@QAEXABUMovingTile@@@Z
_TEXT	SEGMENT
tv225 = -220						; size = 4
tv172 = -220						; size = 4
__Idx$1 = -20						; size = 4
_this$ = -8						; size = 4
__Val$ = 8						; size = 4
?push_back@?$vector@UMovingTile@@V?$allocator@UMovingTile@@@std@@@std@@QAEXABUMovingTile@@@Z PROC ; std::vector<MovingTile,std::allocator<MovingTile> >::push_back, COMDAT
; _this$ = ecx

; 1278 : 		{	// insert element at end

	push	ebp
	mov	ebp, esp
	sub	esp, 220				; 000000dcH
	push	ebx
	push	esi
	push	edi
	push	ecx
	lea	edi, DWORD PTR [ebp-220]
	mov	ecx, 55					; 00000037H
	mov	eax, -858993460				; ccccccccH
	rep stosd
	pop	ecx
	mov	DWORD PTR _this$[ebp], ecx

; 1279 : 		if (_Inside(_STD addressof(_Val)))

	mov	eax, DWORD PTR __Val$[ebp]
	push	eax
	call	??$addressof@$$CBUMovingTile@@@std@@YAPBUMovingTile@@ABU1@@Z ; std::addressof<MovingTile const >
	add	esp, 4
	push	eax
	mov	ecx, DWORD PTR _this$[ebp]
	call	?_Inside@?$vector@UMovingTile@@V?$allocator@UMovingTile@@@std@@@std@@IBE_NPBUMovingTile@@@Z ; std::vector<MovingTile,std::allocator<MovingTile> >::_Inside
	movzx	ecx, al
	test	ecx, ecx
	je	$LN2@push_back

; 1280 : 			{	// push back an element
; 1281 : 			size_type _Idx = _STD addressof(_Val) - this->_Myfirst();

	mov	eax, DWORD PTR __Val$[ebp]
	push	eax
	call	??$addressof@$$CBUMovingTile@@@std@@YAPBUMovingTile@@ABU1@@Z ; std::addressof<MovingTile const >
	add	esp, 4
	mov	esi, eax
	mov	ecx, DWORD PTR _this$[ebp]
	call	?_Myfirst@?$_Vector_alloc@U?$_Vec_base_types@UMovingTile@@V?$allocator@UMovingTile@@@std@@@std@@@std@@QAEAAPAUMovingTile@@XZ ; std::_Vector_alloc<std::_Vec_base_types<MovingTile,std::allocator<MovingTile> > >::_Myfirst
	sub	esi, DWORD PTR [eax]
	mov	eax, esi
	cdq
	mov	ecx, 48					; 00000030H
	idiv	ecx
	mov	DWORD PTR __Idx$1[ebp], eax

; 1282 : 			if (this->_Mylast() == this->_Myend())

	mov	ecx, DWORD PTR _this$[ebp]
	call	?_Mylast@?$_Vector_alloc@U?$_Vec_base_types@UMovingTile@@V?$allocator@UMovingTile@@@std@@@std@@@std@@QAEAAPAUMovingTile@@XZ ; std::_Vector_alloc<std::_Vec_base_types<MovingTile,std::allocator<MovingTile> > >::_Mylast
	mov	esi, eax
	mov	ecx, DWORD PTR _this$[ebp]
	call	?_Myend@?$_Vector_alloc@U?$_Vec_base_types@UMovingTile@@V?$allocator@UMovingTile@@@std@@@std@@@std@@QAEAAPAUMovingTile@@XZ ; std::_Vector_alloc<std::_Vec_base_types<MovingTile,std::allocator<MovingTile> > >::_Myend
	mov	ecx, DWORD PTR [esi]
	cmp	ecx, DWORD PTR [eax]
	jne	SHORT $LN4@push_back

; 1283 : 				_Reserve(1);

	push	1
	mov	ecx, DWORD PTR _this$[ebp]
	call	?_Reserve@?$vector@UMovingTile@@V?$allocator@UMovingTile@@@std@@@std@@IAEXI@Z ; std::vector<MovingTile,std::allocator<MovingTile> >::_Reserve
$LN4@push_back:

; 1284 : 			_Orphan_range(this->_Mylast(), this->_Mylast());

	mov	ecx, DWORD PTR _this$[ebp]
	call	?_Mylast@?$_Vector_alloc@U?$_Vec_base_types@UMovingTile@@V?$allocator@UMovingTile@@@std@@@std@@@std@@QAEAAPAUMovingTile@@XZ ; std::_Vector_alloc<std::_Vec_base_types<MovingTile,std::allocator<MovingTile> > >::_Mylast
	mov	eax, DWORD PTR [eax]
	push	eax
	mov	ecx, DWORD PTR _this$[ebp]
	call	?_Mylast@?$_Vector_alloc@U?$_Vec_base_types@UMovingTile@@V?$allocator@UMovingTile@@@std@@@std@@@std@@QAEAAPAUMovingTile@@XZ ; std::_Vector_alloc<std::_Vec_base_types<MovingTile,std::allocator<MovingTile> > >::_Mylast
	mov	ecx, DWORD PTR [eax]
	push	ecx
	mov	ecx, DWORD PTR _this$[ebp]
	call	?_Orphan_range@?$vector@UMovingTile@@V?$allocator@UMovingTile@@@std@@@std@@IBEXPAUMovingTile@@0@Z ; std::vector<MovingTile,std::allocator<MovingTile> >::_Orphan_range

; 1285 : 			this->_Getal().construct(this->_Mylast(),

	mov	ecx, DWORD PTR _this$[ebp]
	call	?_Myfirst@?$_Vector_alloc@U?$_Vec_base_types@UMovingTile@@V?$allocator@UMovingTile@@@std@@@std@@@std@@QAEAAPAUMovingTile@@XZ ; std::_Vector_alloc<std::_Vec_base_types<MovingTile,std::allocator<MovingTile> > >::_Myfirst
	imul	ecx, DWORD PTR __Idx$1[ebp], 48
	add	ecx, DWORD PTR [eax]
	push	ecx
	mov	ecx, DWORD PTR _this$[ebp]
	call	?_Mylast@?$_Vector_alloc@U?$_Vec_base_types@UMovingTile@@V?$allocator@UMovingTile@@@std@@@std@@@std@@QAEAAPAUMovingTile@@XZ ; std::_Vector_alloc<std::_Vec_base_types<MovingTile,std::allocator<MovingTile> > >::_Mylast
	mov	edx, DWORD PTR [eax]
	push	edx
	mov	ecx, DWORD PTR _this$[ebp]
	call	?_Getal@?$_Vector_alloc@U?$_Vec_base_types@UMovingTile@@V?$allocator@UMovingTile@@@std@@@std@@@std@@QAEAAU?$_Wrap_alloc@V?$allocator@UMovingTile@@@std@@@2@XZ ; std::_Vector_alloc<std::_Vec_base_types<MovingTile,std::allocator<MovingTile> > >::_Getal
	mov	ecx, eax
	call	??$construct@UMovingTile@@AAU1@@?$_Wrap_alloc@V?$allocator@UMovingTile@@@std@@@std@@QAEXPAUMovingTile@@AAU2@@Z ; std::_Wrap_alloc<std::allocator<MovingTile> >::construct<MovingTile,MovingTile &>

; 1286 : 				this->_Myfirst()[_Idx]);
; 1287 : 			++this->_Mylast();

	mov	ecx, DWORD PTR _this$[ebp]
	call	?_Mylast@?$_Vector_alloc@U?$_Vec_base_types@UMovingTile@@V?$allocator@UMovingTile@@@std@@@std@@@std@@QAEAAPAUMovingTile@@XZ ; std::_Vector_alloc<std::_Vec_base_types<MovingTile,std::allocator<MovingTile> > >::_Mylast
	mov	DWORD PTR tv172[ebp], eax
	mov	eax, DWORD PTR tv172[ebp]
	mov	ecx, DWORD PTR [eax]
	add	ecx, 48					; 00000030H
	mov	edx, DWORD PTR tv172[ebp]
	mov	DWORD PTR [edx], ecx

; 1288 : 			}
; 1289 : 		else

	jmp	SHORT $LN1@push_back
$LN2@push_back:

; 1290 : 			{	// push back a non-element
; 1291 : 			if (this->_Mylast() == this->_Myend())

	mov	ecx, DWORD PTR _this$[ebp]
	call	?_Mylast@?$_Vector_alloc@U?$_Vec_base_types@UMovingTile@@V?$allocator@UMovingTile@@@std@@@std@@@std@@QAEAAPAUMovingTile@@XZ ; std::_Vector_alloc<std::_Vec_base_types<MovingTile,std::allocator<MovingTile> > >::_Mylast
	mov	esi, eax
	mov	ecx, DWORD PTR _this$[ebp]
	call	?_Myend@?$_Vector_alloc@U?$_Vec_base_types@UMovingTile@@V?$allocator@UMovingTile@@@std@@@std@@@std@@QAEAAPAUMovingTile@@XZ ; std::_Vector_alloc<std::_Vec_base_types<MovingTile,std::allocator<MovingTile> > >::_Myend
	mov	ecx, DWORD PTR [esi]
	cmp	ecx, DWORD PTR [eax]
	jne	SHORT $LN5@push_back

; 1292 : 				_Reserve(1);

	push	1
	mov	ecx, DWORD PTR _this$[ebp]
	call	?_Reserve@?$vector@UMovingTile@@V?$allocator@UMovingTile@@@std@@@std@@IAEXI@Z ; std::vector<MovingTile,std::allocator<MovingTile> >::_Reserve
$LN5@push_back:

; 1293 : 			_Orphan_range(this->_Mylast(), this->_Mylast());

	mov	ecx, DWORD PTR _this$[ebp]
	call	?_Mylast@?$_Vector_alloc@U?$_Vec_base_types@UMovingTile@@V?$allocator@UMovingTile@@@std@@@std@@@std@@QAEAAPAUMovingTile@@XZ ; std::_Vector_alloc<std::_Vec_base_types<MovingTile,std::allocator<MovingTile> > >::_Mylast
	mov	eax, DWORD PTR [eax]
	push	eax
	mov	ecx, DWORD PTR _this$[ebp]
	call	?_Mylast@?$_Vector_alloc@U?$_Vec_base_types@UMovingTile@@V?$allocator@UMovingTile@@@std@@@std@@@std@@QAEAAPAUMovingTile@@XZ ; std::_Vector_alloc<std::_Vec_base_types<MovingTile,std::allocator<MovingTile> > >::_Mylast
	mov	ecx, DWORD PTR [eax]
	push	ecx
	mov	ecx, DWORD PTR _this$[ebp]
	call	?_Orphan_range@?$vector@UMovingTile@@V?$allocator@UMovingTile@@@std@@@std@@IBEXPAUMovingTile@@0@Z ; std::vector<MovingTile,std::allocator<MovingTile> >::_Orphan_range

; 1294 : 			this->_Getal().construct(this->_Mylast(),

	mov	eax, DWORD PTR __Val$[ebp]
	push	eax
	mov	ecx, DWORD PTR _this$[ebp]
	call	?_Mylast@?$_Vector_alloc@U?$_Vec_base_types@UMovingTile@@V?$allocator@UMovingTile@@@std@@@std@@@std@@QAEAAPAUMovingTile@@XZ ; std::_Vector_alloc<std::_Vec_base_types<MovingTile,std::allocator<MovingTile> > >::_Mylast
	mov	ecx, DWORD PTR [eax]
	push	ecx
	mov	ecx, DWORD PTR _this$[ebp]
	call	?_Getal@?$_Vector_alloc@U?$_Vec_base_types@UMovingTile@@V?$allocator@UMovingTile@@@std@@@std@@@std@@QAEAAU?$_Wrap_alloc@V?$allocator@UMovingTile@@@std@@@2@XZ ; std::_Vector_alloc<std::_Vec_base_types<MovingTile,std::allocator<MovingTile> > >::_Getal
	mov	ecx, eax
	call	??$construct@UMovingTile@@ABU1@@?$_Wrap_alloc@V?$allocator@UMovingTile@@@std@@@std@@QAEXPAUMovingTile@@ABU2@@Z ; std::_Wrap_alloc<std::allocator<MovingTile> >::construct<MovingTile,MovingTile const &>

; 1295 : 				_Val);
; 1296 : 			++this->_Mylast();

	mov	ecx, DWORD PTR _this$[ebp]
	call	?_Mylast@?$_Vector_alloc@U?$_Vec_base_types@UMovingTile@@V?$allocator@UMovingTile@@@std@@@std@@@std@@QAEAAPAUMovingTile@@XZ ; std::_Vector_alloc<std::_Vec_base_types<MovingTile,std::allocator<MovingTile> > >::_Mylast
	mov	DWORD PTR tv225[ebp], eax
	mov	eax, DWORD PTR tv225[ebp]
	mov	ecx, DWORD PTR [eax]
	add	ecx, 48					; 00000030H
	mov	edx, DWORD PTR tv225[ebp]
	mov	DWORD PTR [edx], ecx
$LN1@push_back:

; 1297 : 			}
; 1298 : 		}

	pop	edi
	pop	esi
	pop	ebx
	add	esp, 220				; 000000dcH
	cmp	ebp, esp
	call	__RTC_CheckEsp
	mov	esp, ebp
	pop	ebp
	ret	4
?push_back@?$vector@UMovingTile@@V?$allocator@UMovingTile@@@std@@@std@@QAEXABUMovingTile@@@Z ENDP ; std::vector<MovingTile,std::allocator<MovingTile> >::push_back
_TEXT	ENDS
; Function compile flags: /Odtp /RTCsu /ZI
; File c:\program files (x86)\microsoft visual studio 14.0\vc\include\vector
;	COMDAT ?max_size@?$vector@UMovingTile@@V?$allocator@UMovingTile@@@std@@@std@@QBEIXZ
_TEXT	SEGMENT
$T1 = -209						; size = 1
_this$ = -8						; size = 4
?max_size@?$vector@UMovingTile@@V?$allocator@UMovingTile@@@std@@@std@@QBEIXZ PROC ; std::vector<MovingTile,std::allocator<MovingTile> >::max_size, COMDAT
; _this$ = ecx

; 1187 : 		{	// return maximum possible length of sequence

	push	ebp
	mov	ebp, esp
	sub	esp, 216				; 000000d8H
	push	ebx
	push	esi
	push	edi
	push	ecx
	lea	edi, DWORD PTR [ebp-216]
	mov	ecx, 54					; 00000036H
	mov	eax, -858993460				; ccccccccH
	rep stosd
	pop	ecx
	mov	DWORD PTR _this$[ebp], ecx

; 1188 : 		return (this->_Getal().max_size());

	movzx	eax, BYTE PTR $T1[ebp]
	push	eax
	mov	ecx, DWORD PTR _this$[ebp]
	call	?_Getal@?$_Vector_alloc@U?$_Vec_base_types@UMovingTile@@V?$allocator@UMovingTile@@@std@@@std@@@std@@QBEABU?$_Wrap_alloc@V?$allocator@UMovingTile@@@std@@@2@XZ ; std::_Vector_alloc<std::_Vec_base_types<MovingTile,std::allocator<MovingTile> > >::_Getal
	mov	ecx, eax
	call	?max_size@?$_Wrap_alloc@V?$allocator@UMovingTile@@@std@@@std@@QBEIU_Nil@2@@Z ; std::_Wrap_alloc<std::allocator<MovingTile> >::max_size

; 1189 : 		}

	pop	edi
	pop	esi
	pop	ebx
	add	esp, 216				; 000000d8H
	cmp	ebp, esp
	call	__RTC_CheckEsp
	mov	esp, ebp
	pop	ebp
	ret	0
?max_size@?$vector@UMovingTile@@V?$allocator@UMovingTile@@@std@@@std@@QBEIXZ ENDP ; std::vector<MovingTile,std::allocator<MovingTile> >::max_size
_TEXT	ENDS
; Function compile flags: /Odtp /RTCsu /ZI
; File c:\program files (x86)\microsoft visual studio 14.0\vc\include\vector
;	COMDAT ?size@?$vector@UMovingTile@@V?$allocator@UMovingTile@@@std@@@std@@QBEIXZ
_TEXT	SEGMENT
_this$ = -8						; size = 4
?size@?$vector@UMovingTile@@V?$allocator@UMovingTile@@@std@@@std@@QBEIXZ PROC ; std::vector<MovingTile,std::allocator<MovingTile> >::size, COMDAT
; _this$ = ecx

; 1182 : 		{	// return length of sequence

	push	ebp
	mov	ebp, esp
	sub	esp, 204				; 000000ccH
	push	ebx
	push	esi
	push	edi
	push	ecx
	lea	edi, DWORD PTR [ebp-204]
	mov	ecx, 51					; 00000033H
	mov	eax, -858993460				; ccccccccH
	rep stosd
	pop	ecx
	mov	DWORD PTR _this$[ebp], ecx

; 1183 : 		return (this->_Mylast() - this->_Myfirst());

	mov	ecx, DWORD PTR _this$[ebp]
	call	?_Mylast@?$_Vector_alloc@U?$_Vec_base_types@UMovingTile@@V?$allocator@UMovingTile@@@std@@@std@@@std@@QBEABQAUMovingTile@@XZ ; std::_Vector_alloc<std::_Vec_base_types<MovingTile,std::allocator<MovingTile> > >::_Mylast
	mov	esi, eax
	mov	ecx, DWORD PTR _this$[ebp]
	call	?_Myfirst@?$_Vector_alloc@U?$_Vec_base_types@UMovingTile@@V?$allocator@UMovingTile@@@std@@@std@@@std@@QBEABQAUMovingTile@@XZ ; std::_Vector_alloc<std::_Vec_base_types<MovingTile,std::allocator<MovingTile> > >::_Myfirst
	mov	ecx, DWORD PTR [esi]
	sub	ecx, DWORD PTR [eax]
	mov	eax, ecx
	cdq
	mov	ecx, 48					; 00000030H
	idiv	ecx

; 1184 : 		}

	pop	edi
	pop	esi
	pop	ebx
	add	esp, 204				; 000000ccH
	cmp	ebp, esp
	call	__RTC_CheckEsp
	mov	esp, ebp
	pop	ebp
	ret	0
?size@?$vector@UMovingTile@@V?$allocator@UMovingTile@@@std@@@std@@QBEIXZ ENDP ; std::vector<MovingTile,std::allocator<MovingTile> >::size
_TEXT	ENDS
; Function compile flags: /Odtp /RTCsu /ZI
; File c:\program files (x86)\microsoft visual studio 14.0\vc\include\vector
;	COMDAT ?end@?$vector@UMovingTile@@V?$allocator@UMovingTile@@@std@@@std@@QAE?AV?$_Vector_iterator@V?$_Vector_val@U?$_Simple_types@UMovingTile@@@std@@@std@@@2@XZ
_TEXT	SEGMENT
_this$ = -20						; size = 4
__$EHRec$ = -12						; size = 12
___$ReturnUdt$ = 8					; size = 4
?end@?$vector@UMovingTile@@V?$allocator@UMovingTile@@@std@@@std@@QAE?AV?$_Vector_iterator@V?$_Vector_val@U?$_Simple_types@UMovingTile@@@std@@@std@@@2@XZ PROC ; std::vector<MovingTile,std::allocator<MovingTile> >::end, COMDAT
; _this$ = ecx

; 1070 : 		{	// return iterator for end of mutable sequence

	push	ebp
	mov	ebp, esp
	push	-1
	push	__ehhandler$?end@?$vector@UMovingTile@@V?$allocator@UMovingTile@@@std@@@std@@QAE?AV?$_Vector_iterator@V?$_Vector_val@U?$_Simple_types@UMovingTile@@@std@@@std@@@2@XZ
	mov	eax, DWORD PTR fs:0
	push	eax
	sub	esp, 204				; 000000ccH
	push	ebx
	push	esi
	push	edi
	push	ecx
	lea	edi, DWORD PTR [ebp-216]
	mov	ecx, 51					; 00000033H
	mov	eax, -858993460				; ccccccccH
	rep stosd
	pop	ecx
	mov	eax, DWORD PTR ___security_cookie
	xor	eax, ebp
	push	eax
	lea	eax, DWORD PTR __$EHRec$[ebp]
	mov	DWORD PTR fs:0, eax
	mov	DWORD PTR _this$[ebp], ecx

; 1071 : 		return (iterator(this->_Mylast(), &this->_Get_data()));

	mov	ecx, DWORD PTR _this$[ebp]
	call	?_Get_data@?$_Vector_alloc@U?$_Vec_base_types@UMovingTile@@V?$allocator@UMovingTile@@@std@@@std@@@std@@QAEAAV?$_Vector_val@U?$_Simple_types@UMovingTile@@@std@@@2@XZ ; std::_Vector_alloc<std::_Vec_base_types<MovingTile,std::allocator<MovingTile> > >::_Get_data
	push	eax
	mov	ecx, DWORD PTR _this$[ebp]
	call	?_Mylast@?$_Vector_alloc@U?$_Vec_base_types@UMovingTile@@V?$allocator@UMovingTile@@@std@@@std@@@std@@QAEAAPAUMovingTile@@XZ ; std::_Vector_alloc<std::_Vec_base_types<MovingTile,std::allocator<MovingTile> > >::_Mylast
	mov	eax, DWORD PTR [eax]
	push	eax
	mov	ecx, DWORD PTR ___$ReturnUdt$[ebp]
	call	??0?$_Vector_iterator@V?$_Vector_val@U?$_Simple_types@UMovingTile@@@std@@@std@@@std@@QAE@PAUMovingTile@@PBU_Container_base12@1@@Z ; std::_Vector_iterator<std::_Vector_val<std::_Simple_types<MovingTile> > >::_Vector_iterator<std::_Vector_val<std::_Simple_types<MovingTile> > >
	mov	eax, DWORD PTR ___$ReturnUdt$[ebp]

; 1072 : 		}

	mov	ecx, DWORD PTR __$EHRec$[ebp]
	mov	DWORD PTR fs:0, ecx
	pop	ecx
	pop	edi
	pop	esi
	pop	ebx
	add	esp, 216				; 000000d8H
	cmp	ebp, esp
	call	__RTC_CheckEsp
	mov	esp, ebp
	pop	ebp
	ret	4
_TEXT	ENDS
;	COMDAT text$x
text$x	SEGMENT
__ehhandler$?end@?$vector@UMovingTile@@V?$allocator@UMovingTile@@@std@@@std@@QAE?AV?$_Vector_iterator@V?$_Vector_val@U?$_Simple_types@UMovingTile@@@std@@@std@@@2@XZ:
	mov	edx, DWORD PTR [esp+8]
	lea	eax, DWORD PTR [edx+12]
	mov	ecx, DWORD PTR [edx-220]
	xor	ecx, eax
	call	@__security_check_cookie@4
	mov	eax, OFFSET __ehfuncinfo$?end@?$vector@UMovingTile@@V?$allocator@UMovingTile@@@std@@@std@@QAE?AV?$_Vector_iterator@V?$_Vector_val@U?$_Simple_types@UMovingTile@@@std@@@std@@@2@XZ
	jmp	___CxxFrameHandler3
text$x	ENDS
?end@?$vector@UMovingTile@@V?$allocator@UMovingTile@@@std@@@std@@QAE?AV?$_Vector_iterator@V?$_Vector_val@U?$_Simple_types@UMovingTile@@@std@@@std@@@2@XZ ENDP ; std::vector<MovingTile,std::allocator<MovingTile> >::end
; Function compile flags: /Odtp /RTCsu /ZI
; File c:\program files (x86)\microsoft visual studio 14.0\vc\include\vector
;	COMDAT ?begin@?$vector@UMovingTile@@V?$allocator@UMovingTile@@@std@@@std@@QAE?AV?$_Vector_iterator@V?$_Vector_val@U?$_Simple_types@UMovingTile@@@std@@@std@@@2@XZ
_TEXT	SEGMENT
_this$ = -20						; size = 4
__$EHRec$ = -12						; size = 12
___$ReturnUdt$ = 8					; size = 4
?begin@?$vector@UMovingTile@@V?$allocator@UMovingTile@@@std@@@std@@QAE?AV?$_Vector_iterator@V?$_Vector_val@U?$_Simple_types@UMovingTile@@@std@@@std@@@2@XZ PROC ; std::vector<MovingTile,std::allocator<MovingTile> >::begin, COMDAT
; _this$ = ecx

; 1060 : 		{	// return iterator for beginning of mutable sequence

	push	ebp
	mov	ebp, esp
	push	-1
	push	__ehhandler$?begin@?$vector@UMovingTile@@V?$allocator@UMovingTile@@@std@@@std@@QAE?AV?$_Vector_iterator@V?$_Vector_val@U?$_Simple_types@UMovingTile@@@std@@@std@@@2@XZ
	mov	eax, DWORD PTR fs:0
	push	eax
	sub	esp, 204				; 000000ccH
	push	ebx
	push	esi
	push	edi
	push	ecx
	lea	edi, DWORD PTR [ebp-216]
	mov	ecx, 51					; 00000033H
	mov	eax, -858993460				; ccccccccH
	rep stosd
	pop	ecx
	mov	eax, DWORD PTR ___security_cookie
	xor	eax, ebp
	push	eax
	lea	eax, DWORD PTR __$EHRec$[ebp]
	mov	DWORD PTR fs:0, eax
	mov	DWORD PTR _this$[ebp], ecx

; 1061 : 		return (iterator(this->_Myfirst(), &this->_Get_data()));

	mov	ecx, DWORD PTR _this$[ebp]
	call	?_Get_data@?$_Vector_alloc@U?$_Vec_base_types@UMovingTile@@V?$allocator@UMovingTile@@@std@@@std@@@std@@QAEAAV?$_Vector_val@U?$_Simple_types@UMovingTile@@@std@@@2@XZ ; std::_Vector_alloc<std::_Vec_base_types<MovingTile,std::allocator<MovingTile> > >::_Get_data
	push	eax
	mov	ecx, DWORD PTR _this$[ebp]
	call	?_Myfirst@?$_Vector_alloc@U?$_Vec_base_types@UMovingTile@@V?$allocator@UMovingTile@@@std@@@std@@@std@@QAEAAPAUMovingTile@@XZ ; std::_Vector_alloc<std::_Vec_base_types<MovingTile,std::allocator<MovingTile> > >::_Myfirst
	mov	eax, DWORD PTR [eax]
	push	eax
	mov	ecx, DWORD PTR ___$ReturnUdt$[ebp]
	call	??0?$_Vector_iterator@V?$_Vector_val@U?$_Simple_types@UMovingTile@@@std@@@std@@@std@@QAE@PAUMovingTile@@PBU_Container_base12@1@@Z ; std::_Vector_iterator<std::_Vector_val<std::_Simple_types<MovingTile> > >::_Vector_iterator<std::_Vector_val<std::_Simple_types<MovingTile> > >
	mov	eax, DWORD PTR ___$ReturnUdt$[ebp]

; 1062 : 		}

	mov	ecx, DWORD PTR __$EHRec$[ebp]
	mov	DWORD PTR fs:0, ecx
	pop	ecx
	pop	edi
	pop	esi
	pop	ebx
	add	esp, 216				; 000000d8H
	cmp	ebp, esp
	call	__RTC_CheckEsp
	mov	esp, ebp
	pop	ebp
	ret	4
_TEXT	ENDS
;	COMDAT text$x
text$x	SEGMENT
__ehhandler$?begin@?$vector@UMovingTile@@V?$allocator@UMovingTile@@@std@@@std@@QAE?AV?$_Vector_iterator@V?$_Vector_val@U?$_Simple_types@UMovingTile@@@std@@@std@@@2@XZ:
	mov	edx, DWORD PTR [esp+8]
	lea	eax, DWORD PTR [edx+12]
	mov	ecx, DWORD PTR [edx-220]
	xor	ecx, eax
	call	@__security_check_cookie@4
	mov	eax, OFFSET __ehfuncinfo$?begin@?$vector@UMovingTile@@V?$allocator@UMovingTile@@@std@@@std@@QAE?AV?$_Vector_iterator@V?$_Vector_val@U?$_Simple_types@UMovingTile@@@std@@@std@@@2@XZ
	jmp	___CxxFrameHandler3
text$x	ENDS
?begin@?$vector@UMovingTile@@V?$allocator@UMovingTile@@@std@@@std@@QAE?AV?$_Vector_iterator@V?$_Vector_val@U?$_Simple_types@UMovingTile@@@std@@@std@@@2@XZ ENDP ; std::vector<MovingTile,std::allocator<MovingTile> >::begin
; Function compile flags: /Odtp /RTCsu /ZI
; File c:\program files (x86)\microsoft visual studio 14.0\vc\include\vector
;	COMDAT ?_Unused_capacity@?$vector@UMovingTile@@V?$allocator@UMovingTile@@@std@@@std@@QBEIXZ
_TEXT	SEGMENT
_this$ = -8						; size = 4
?_Unused_capacity@?$vector@UMovingTile@@V?$allocator@UMovingTile@@@std@@@std@@QBEIXZ PROC ; std::vector<MovingTile,std::allocator<MovingTile> >::_Unused_capacity, COMDAT
; _this$ = ecx

; 1050 : 		{	// micro-optimization for capacity() - size()

	push	ebp
	mov	ebp, esp
	sub	esp, 204				; 000000ccH
	push	ebx
	push	esi
	push	edi
	push	ecx
	lea	edi, DWORD PTR [ebp-204]
	mov	ecx, 51					; 00000033H
	mov	eax, -858993460				; ccccccccH
	rep stosd
	pop	ecx
	mov	DWORD PTR _this$[ebp], ecx

; 1051 : 		return (this->_Myend() - this->_Mylast());

	mov	ecx, DWORD PTR _this$[ebp]
	call	?_Myend@?$_Vector_alloc@U?$_Vec_base_types@UMovingTile@@V?$allocator@UMovingTile@@@std@@@std@@@std@@QBEABQAUMovingTile@@XZ ; std::_Vector_alloc<std::_Vec_base_types<MovingTile,std::allocator<MovingTile> > >::_Myend
	mov	esi, eax
	mov	ecx, DWORD PTR _this$[ebp]
	call	?_Mylast@?$_Vector_alloc@U?$_Vec_base_types@UMovingTile@@V?$allocator@UMovingTile@@@std@@@std@@@std@@QBEABQAUMovingTile@@XZ ; std::_Vector_alloc<std::_Vec_base_types<MovingTile,std::allocator<MovingTile> > >::_Mylast
	mov	ecx, DWORD PTR [esi]
	sub	ecx, DWORD PTR [eax]
	mov	eax, ecx
	cdq
	mov	ecx, 48					; 00000030H
	idiv	ecx

; 1052 : 		}

	pop	edi
	pop	esi
	pop	ebx
	add	esp, 204				; 000000ccH
	cmp	ebp, esp
	call	__RTC_CheckEsp
	mov	esp, ebp
	pop	ebp
	ret	0
?_Unused_capacity@?$vector@UMovingTile@@V?$allocator@UMovingTile@@@std@@@std@@QBEIXZ ENDP ; std::vector<MovingTile,std::allocator<MovingTile> >::_Unused_capacity
_TEXT	ENDS
; Function compile flags: /Odtp /RTCsu /ZI
; File c:\program files (x86)\microsoft visual studio 14.0\vc\include\vector
;	COMDAT ?capacity@?$vector@UMovingTile@@V?$allocator@UMovingTile@@@std@@@std@@QBEIXZ
_TEXT	SEGMENT
_this$ = -8						; size = 4
?capacity@?$vector@UMovingTile@@V?$allocator@UMovingTile@@@std@@@std@@QBEIXZ PROC ; std::vector<MovingTile,std::allocator<MovingTile> >::capacity, COMDAT
; _this$ = ecx

; 1045 : 		{	// return current length of allocated storage

	push	ebp
	mov	ebp, esp
	sub	esp, 204				; 000000ccH
	push	ebx
	push	esi
	push	edi
	push	ecx
	lea	edi, DWORD PTR [ebp-204]
	mov	ecx, 51					; 00000033H
	mov	eax, -858993460				; ccccccccH
	rep stosd
	pop	ecx
	mov	DWORD PTR _this$[ebp], ecx

; 1046 : 		return (this->_Myend() - this->_Myfirst());

	mov	ecx, DWORD PTR _this$[ebp]
	call	?_Myend@?$_Vector_alloc@U?$_Vec_base_types@UMovingTile@@V?$allocator@UMovingTile@@@std@@@std@@@std@@QBEABQAUMovingTile@@XZ ; std::_Vector_alloc<std::_Vec_base_types<MovingTile,std::allocator<MovingTile> > >::_Myend
	mov	esi, eax
	mov	ecx, DWORD PTR _this$[ebp]
	call	?_Myfirst@?$_Vector_alloc@U?$_Vec_base_types@UMovingTile@@V?$allocator@UMovingTile@@@std@@@std@@@std@@QBEABQAUMovingTile@@XZ ; std::_Vector_alloc<std::_Vec_base_types<MovingTile,std::allocator<MovingTile> > >::_Myfirst
	mov	ecx, DWORD PTR [esi]
	sub	ecx, DWORD PTR [eax]
	mov	eax, ecx
	cdq
	mov	ecx, 48					; 00000030H
	idiv	ecx

; 1047 : 		}

	pop	edi
	pop	esi
	pop	ebx
	add	esp, 204				; 000000ccH
	cmp	ebp, esp
	call	__RTC_CheckEsp
	mov	esp, ebp
	pop	ebp
	ret	0
?capacity@?$vector@UMovingTile@@V?$allocator@UMovingTile@@@std@@@std@@QBEIXZ ENDP ; std::vector<MovingTile,std::allocator<MovingTile> >::capacity
_TEXT	ENDS
; Function compile flags: /Odtp /RTCsu /ZI
; File c:\program files (x86)\microsoft visual studio 14.0\vc\include\vector
;	COMDAT ??1?$vector@UMovingTile@@V?$allocator@UMovingTile@@@std@@@std@@QAE@XZ
_TEXT	SEGMENT
_this$ = -20						; size = 4
__$EHRec$ = -12						; size = 12
??1?$vector@UMovingTile@@V?$allocator@UMovingTile@@@std@@@std@@QAE@XZ PROC ; std::vector<MovingTile,std::allocator<MovingTile> >::~vector<MovingTile,std::allocator<MovingTile> >, COMDAT
; _this$ = ecx

; 978  : 		{	// destroy the object

	push	ebp
	mov	ebp, esp
	push	-1
	push	__ehhandler$??1?$vector@UMovingTile@@V?$allocator@UMovingTile@@@std@@@std@@QAE@XZ
	mov	eax, DWORD PTR fs:0
	push	eax
	sub	esp, 204				; 000000ccH
	push	ebx
	push	esi
	push	edi
	push	ecx
	lea	edi, DWORD PTR [ebp-216]
	mov	ecx, 51					; 00000033H
	mov	eax, -858993460				; ccccccccH
	rep stosd
	pop	ecx
	mov	eax, DWORD PTR ___security_cookie
	xor	eax, ebp
	push	eax
	lea	eax, DWORD PTR __$EHRec$[ebp]
	mov	DWORD PTR fs:0, eax
	mov	DWORD PTR _this$[ebp], ecx

; 979  : 		_Tidy();

	mov	ecx, DWORD PTR _this$[ebp]
	call	?_Tidy@?$vector@UMovingTile@@V?$allocator@UMovingTile@@@std@@@std@@IAEXXZ ; std::vector<MovingTile,std::allocator<MovingTile> >::_Tidy

; 980  : 		}

	mov	ecx, DWORD PTR _this$[ebp]
	call	??1?$_Vector_alloc@U?$_Vec_base_types@UMovingTile@@V?$allocator@UMovingTile@@@std@@@std@@@std@@QAE@XZ ; std::_Vector_alloc<std::_Vec_base_types<MovingTile,std::allocator<MovingTile> > >::~_Vector_alloc<std::_Vec_base_types<MovingTile,std::allocator<MovingTile> > >
	mov	ecx, DWORD PTR __$EHRec$[ebp]
	mov	DWORD PTR fs:0, ecx
	pop	ecx
	pop	edi
	pop	esi
	pop	ebx
	add	esp, 216				; 000000d8H
	cmp	ebp, esp
	call	__RTC_CheckEsp
	mov	esp, ebp
	pop	ebp
	ret	0
_TEXT	ENDS
;	COMDAT text$x
text$x	SEGMENT
__ehhandler$??1?$vector@UMovingTile@@V?$allocator@UMovingTile@@@std@@@std@@QAE@XZ:
	mov	edx, DWORD PTR [esp+8]
	lea	eax, DWORD PTR [edx+12]
	mov	ecx, DWORD PTR [edx-220]
	xor	ecx, eax
	call	@__security_check_cookie@4
	mov	eax, OFFSET __ehfuncinfo$??1?$vector@UMovingTile@@V?$allocator@UMovingTile@@@std@@@std@@QAE@XZ
	jmp	___CxxFrameHandler3
text$x	ENDS
??1?$vector@UMovingTile@@V?$allocator@UMovingTile@@@std@@@std@@QAE@XZ ENDP ; std::vector<MovingTile,std::allocator<MovingTile> >::~vector<MovingTile,std::allocator<MovingTile> >
; Function compile flags: /Odtp /RTCsu /ZI
; File c:\program files (x86)\microsoft visual studio 14.0\vc\include\vector
;	COMDAT ??0?$vector@UMovingTile@@V?$allocator@UMovingTile@@@std@@@std@@QAE@XZ
_TEXT	SEGMENT
_this$ = -20						; size = 4
__$EHRec$ = -12						; size = 12
??0?$vector@UMovingTile@@V?$allocator@UMovingTile@@@std@@@std@@QAE@XZ PROC ; std::vector<MovingTile,std::allocator<MovingTile> >::vector<MovingTile,std::allocator<MovingTile> >, COMDAT
; _this$ = ecx

; 710  : 		{	// construct empty vector

	push	ebp
	mov	ebp, esp
	push	-1
	push	__ehhandler$??0?$vector@UMovingTile@@V?$allocator@UMovingTile@@@std@@@std@@QAE@XZ
	mov	eax, DWORD PTR fs:0
	push	eax
	sub	esp, 204				; 000000ccH
	push	ebx
	push	esi
	push	edi
	push	ecx
	lea	edi, DWORD PTR [ebp-216]
	mov	ecx, 51					; 00000033H
	mov	eax, -858993460				; ccccccccH
	rep stosd
	pop	ecx
	mov	eax, DWORD PTR ___security_cookie
	xor	eax, ebp
	push	eax
	lea	eax, DWORD PTR __$EHRec$[ebp]
	mov	DWORD PTR fs:0, eax
	mov	DWORD PTR _this$[ebp], ecx

; 709  : 		: _Mybase()

	mov	ecx, DWORD PTR _this$[ebp]
	call	??0?$_Vector_alloc@U?$_Vec_base_types@UMovingTile@@V?$allocator@UMovingTile@@@std@@@std@@@std@@QAE@XZ ; std::_Vector_alloc<std::_Vec_base_types<MovingTile,std::allocator<MovingTile> > >::_Vector_alloc<std::_Vec_base_types<MovingTile,std::allocator<MovingTile> > >

; 711  : 		}

	mov	eax, DWORD PTR _this$[ebp]
	mov	ecx, DWORD PTR __$EHRec$[ebp]
	mov	DWORD PTR fs:0, ecx
	pop	ecx
	pop	edi
	pop	esi
	pop	ebx
	add	esp, 216				; 000000d8H
	cmp	ebp, esp
	call	__RTC_CheckEsp
	mov	esp, ebp
	pop	ebp
	ret	0
_TEXT	ENDS
;	COMDAT text$x
text$x	SEGMENT
__ehhandler$??0?$vector@UMovingTile@@V?$allocator@UMovingTile@@@std@@@std@@QAE@XZ:
	mov	edx, DWORD PTR [esp+8]
	lea	eax, DWORD PTR [edx+12]
	mov	ecx, DWORD PTR [edx-220]
	xor	ecx, eax
	call	@__security_check_cookie@4
	mov	eax, OFFSET __ehfuncinfo$??0?$vector@UMovingTile@@V?$allocator@UMovingTile@@@std@@@std@@QAE@XZ
	jmp	___CxxFrameHandler3
text$x	ENDS
??0?$vector@UMovingTile@@V?$allocator@UMovingTile@@@std@@@std@@QAE@XZ ENDP ; std::vector<MovingTile,std::allocator<MovingTile> >::vector<MovingTile,std::allocator<MovingTile> >
; Function compile flags: /Odtp /RTCsu /ZI
;	COMDAT ??1?$_Compressed_pair@U?$_Wrap_alloc@V?$allocator@UMovingTile@@@std@@@std@@V?$_Vector_val@U?$_Simple_types@UMovingTile@@@std@@@2@$00@std@@QAE@XZ
_TEXT	SEGMENT
_this$ = -8						; size = 4
??1?$_Compressed_pair@U?$_Wrap_alloc@V?$allocator@UMovingTile@@@std@@@std@@V?$_Vector_val@U?$_Simple_types@UMovingTile@@@std@@@2@$00@std@@QAE@XZ PROC ; std::_Compressed_pair<std::_Wrap_alloc<std::allocator<MovingTile> >,std::_Vector_val<std::_Simple_types<MovingTile> >,1>::~_Compressed_pair<std::_Wrap_alloc<std::allocator<MovingTile> >,std::_Vector_val<std::_Simple_types<MovingTile> >,1>, COMDAT
; _this$ = ecx
	push	ebp
	mov	ebp, esp
	sub	esp, 204				; 000000ccH
	push	ebx
	push	esi
	push	edi
	push	ecx
	lea	edi, DWORD PTR [ebp-204]
	mov	ecx, 51					; 00000033H
	mov	eax, -858993460				; ccccccccH
	rep stosd
	pop	ecx
	mov	DWORD PTR _this$[ebp], ecx
	mov	ecx, DWORD PTR _this$[ebp]
	call	??1?$_Vector_val@U?$_Simple_types@UMovingTile@@@std@@@std@@QAE@XZ
	pop	edi
	pop	esi
	pop	ebx
	add	esp, 204				; 000000ccH
	cmp	ebp, esp
	call	__RTC_CheckEsp
	mov	esp, ebp
	pop	ebp
	ret	0
??1?$_Compressed_pair@U?$_Wrap_alloc@V?$allocator@UMovingTile@@@std@@@std@@V?$_Vector_val@U?$_Simple_types@UMovingTile@@@std@@@2@$00@std@@QAE@XZ ENDP ; std::_Compressed_pair<std::_Wrap_alloc<std::allocator<MovingTile> >,std::_Vector_val<std::_Simple_types<MovingTile> >,1>::~_Compressed_pair<std::_Wrap_alloc<std::allocator<MovingTile> >,std::_Vector_val<std::_Simple_types<MovingTile> >,1>
_TEXT	ENDS
; Function compile flags: /Odtp /RTCsu /ZI
; File c:\program files (x86)\microsoft visual studio 14.0\vc\include\xutility
;	COMDAT ?_Get_second@?$_Compressed_pair@U?$_Wrap_alloc@V?$allocator@UMovingTile@@@std@@@std@@V?$_Vector_val@U?$_Simple_types@UMovingTile@@@std@@@2@$00@std@@QBEABV?$_Vector_val@U?$_Simple_types@UMovingTile@@@std@@@2@XZ
_TEXT	SEGMENT
_this$ = -8						; size = 4
?_Get_second@?$_Compressed_pair@U?$_Wrap_alloc@V?$allocator@UMovingTile@@@std@@@std@@V?$_Vector_val@U?$_Simple_types@UMovingTile@@@std@@@2@$00@std@@QBEABV?$_Vector_val@U?$_Simple_types@UMovingTile@@@std@@@2@XZ PROC ; std::_Compressed_pair<std::_Wrap_alloc<std::allocator<MovingTile> >,std::_Vector_val<std::_Simple_types<MovingTile> >,1>::_Get_second, COMDAT
; _this$ = ecx

; 318  : 		{	// return const reference to second

	push	ebp
	mov	ebp, esp
	sub	esp, 204				; 000000ccH
	push	ebx
	push	esi
	push	edi
	push	ecx
	lea	edi, DWORD PTR [ebp-204]
	mov	ecx, 51					; 00000033H
	mov	eax, -858993460				; ccccccccH
	rep stosd
	pop	ecx
	mov	DWORD PTR _this$[ebp], ecx

; 319  : 		return (_Myval2);

	mov	eax, DWORD PTR _this$[ebp]

; 320  : 		}

	pop	edi
	pop	esi
	pop	ebx
	mov	esp, ebp
	pop	ebp
	ret	0
?_Get_second@?$_Compressed_pair@U?$_Wrap_alloc@V?$allocator@UMovingTile@@@std@@@std@@V?$_Vector_val@U?$_Simple_types@UMovingTile@@@std@@@2@$00@std@@QBEABV?$_Vector_val@U?$_Simple_types@UMovingTile@@@std@@@2@XZ ENDP ; std::_Compressed_pair<std::_Wrap_alloc<std::allocator<MovingTile> >,std::_Vector_val<std::_Simple_types<MovingTile> >,1>::_Get_second
_TEXT	ENDS
; Function compile flags: /Odtp /RTCsu /ZI
; File c:\program files (x86)\microsoft visual studio 14.0\vc\include\xutility
;	COMDAT ?_Get_second@?$_Compressed_pair@U?$_Wrap_alloc@V?$allocator@UMovingTile@@@std@@@std@@V?$_Vector_val@U?$_Simple_types@UMovingTile@@@std@@@2@$00@std@@QAEAAV?$_Vector_val@U?$_Simple_types@UMovingTile@@@std@@@2@XZ
_TEXT	SEGMENT
_this$ = -8						; size = 4
?_Get_second@?$_Compressed_pair@U?$_Wrap_alloc@V?$allocator@UMovingTile@@@std@@@std@@V?$_Vector_val@U?$_Simple_types@UMovingTile@@@std@@@2@$00@std@@QAEAAV?$_Vector_val@U?$_Simple_types@UMovingTile@@@std@@@2@XZ PROC ; std::_Compressed_pair<std::_Wrap_alloc<std::allocator<MovingTile> >,std::_Vector_val<std::_Simple_types<MovingTile> >,1>::_Get_second, COMDAT
; _this$ = ecx

; 313  : 		{	// return reference to second

	push	ebp
	mov	ebp, esp
	sub	esp, 204				; 000000ccH
	push	ebx
	push	esi
	push	edi
	push	ecx
	lea	edi, DWORD PTR [ebp-204]
	mov	ecx, 51					; 00000033H
	mov	eax, -858993460				; ccccccccH
	rep stosd
	pop	ecx
	mov	DWORD PTR _this$[ebp], ecx

; 314  : 		return (_Myval2);

	mov	eax, DWORD PTR _this$[ebp]

; 315  : 		}

	pop	edi
	pop	esi
	pop	ebx
	mov	esp, ebp
	pop	ebp
	ret	0
?_Get_second@?$_Compressed_pair@U?$_Wrap_alloc@V?$allocator@UMovingTile@@@std@@@std@@V?$_Vector_val@U?$_Simple_types@UMovingTile@@@std@@@2@$00@std@@QAEAAV?$_Vector_val@U?$_Simple_types@UMovingTile@@@std@@@2@XZ ENDP ; std::_Compressed_pair<std::_Wrap_alloc<std::allocator<MovingTile> >,std::_Vector_val<std::_Simple_types<MovingTile> >,1>::_Get_second
_TEXT	ENDS
; Function compile flags: /Odtp /RTCsu /ZI
; File c:\program files (x86)\microsoft visual studio 14.0\vc\include\xutility
;	COMDAT ?_Get_first@?$_Compressed_pair@U?$_Wrap_alloc@V?$allocator@UMovingTile@@@std@@@std@@V?$_Vector_val@U?$_Simple_types@UMovingTile@@@std@@@2@$00@std@@QBEABU?$_Wrap_alloc@V?$allocator@UMovingTile@@@std@@@2@XZ
_TEXT	SEGMENT
_this$ = -8						; size = 4
?_Get_first@?$_Compressed_pair@U?$_Wrap_alloc@V?$allocator@UMovingTile@@@std@@@std@@V?$_Vector_val@U?$_Simple_types@UMovingTile@@@std@@@2@$00@std@@QBEABU?$_Wrap_alloc@V?$allocator@UMovingTile@@@std@@@2@XZ PROC ; std::_Compressed_pair<std::_Wrap_alloc<std::allocator<MovingTile> >,std::_Vector_val<std::_Simple_types<MovingTile> >,1>::_Get_first, COMDAT
; _this$ = ecx

; 298  : 		{	// return const reference to first

	push	ebp
	mov	ebp, esp
	sub	esp, 204				; 000000ccH
	push	ebx
	push	esi
	push	edi
	push	ecx
	lea	edi, DWORD PTR [ebp-204]
	mov	ecx, 51					; 00000033H
	mov	eax, -858993460				; ccccccccH
	rep stosd
	pop	ecx
	mov	DWORD PTR _this$[ebp], ecx

; 299  : 		return (*this);

	mov	eax, DWORD PTR _this$[ebp]

; 300  : 		}

	pop	edi
	pop	esi
	pop	ebx
	mov	esp, ebp
	pop	ebp
	ret	0
?_Get_first@?$_Compressed_pair@U?$_Wrap_alloc@V?$allocator@UMovingTile@@@std@@@std@@V?$_Vector_val@U?$_Simple_types@UMovingTile@@@std@@@2@$00@std@@QBEABU?$_Wrap_alloc@V?$allocator@UMovingTile@@@std@@@2@XZ ENDP ; std::_Compressed_pair<std::_Wrap_alloc<std::allocator<MovingTile> >,std::_Vector_val<std::_Simple_types<MovingTile> >,1>::_Get_first
_TEXT	ENDS
; Function compile flags: /Odtp /RTCsu /ZI
; File c:\program files (x86)\microsoft visual studio 14.0\vc\include\xutility
;	COMDAT ?_Get_first@?$_Compressed_pair@U?$_Wrap_alloc@V?$allocator@UMovingTile@@@std@@@std@@V?$_Vector_val@U?$_Simple_types@UMovingTile@@@std@@@2@$00@std@@QAEAAU?$_Wrap_alloc@V?$allocator@UMovingTile@@@std@@@2@XZ
_TEXT	SEGMENT
_this$ = -8						; size = 4
?_Get_first@?$_Compressed_pair@U?$_Wrap_alloc@V?$allocator@UMovingTile@@@std@@@std@@V?$_Vector_val@U?$_Simple_types@UMovingTile@@@std@@@2@$00@std@@QAEAAU?$_Wrap_alloc@V?$allocator@UMovingTile@@@std@@@2@XZ PROC ; std::_Compressed_pair<std::_Wrap_alloc<std::allocator<MovingTile> >,std::_Vector_val<std::_Simple_types<MovingTile> >,1>::_Get_first, COMDAT
; _this$ = ecx

; 293  : 		{	// return reference to first

	push	ebp
	mov	ebp, esp
	sub	esp, 204				; 000000ccH
	push	ebx
	push	esi
	push	edi
	push	ecx
	lea	edi, DWORD PTR [ebp-204]
	mov	ecx, 51					; 00000033H
	mov	eax, -858993460				; ccccccccH
	rep stosd
	pop	ecx
	mov	DWORD PTR _this$[ebp], ecx

; 294  : 		return (*this);

	mov	eax, DWORD PTR _this$[ebp]

; 295  : 		}

	pop	edi
	pop	esi
	pop	ebx
	mov	esp, ebp
	pop	ebp
	ret	0
?_Get_first@?$_Compressed_pair@U?$_Wrap_alloc@V?$allocator@UMovingTile@@@std@@@std@@V?$_Vector_val@U?$_Simple_types@UMovingTile@@@std@@@2@$00@std@@QAEAAU?$_Wrap_alloc@V?$allocator@UMovingTile@@@std@@@2@XZ ENDP ; std::_Compressed_pair<std::_Wrap_alloc<std::allocator<MovingTile> >,std::_Vector_val<std::_Simple_types<MovingTile> >,1>::_Get_first
_TEXT	ENDS
; Function compile flags: /Odtp /RTCsu /ZI
;	COMDAT ??1?$_Vector_val@U?$_Simple_types@UMovingTile@@@std@@@std@@QAE@XZ
_TEXT	SEGMENT
_this$ = -8						; size = 4
??1?$_Vector_val@U?$_Simple_types@UMovingTile@@@std@@@std@@QAE@XZ PROC ; std::_Vector_val<std::_Simple_types<MovingTile> >::~_Vector_val<std::_Simple_types<MovingTile> >, COMDAT
; _this$ = ecx
	push	ebp
	mov	ebp, esp
	sub	esp, 204				; 000000ccH
	push	ebx
	push	esi
	push	edi
	push	ecx
	lea	edi, DWORD PTR [ebp-204]
	mov	ecx, 51					; 00000033H
	mov	eax, -858993460				; ccccccccH
	rep stosd
	pop	ecx
	mov	DWORD PTR _this$[ebp], ecx
	mov	ecx, DWORD PTR _this$[ebp]
	call	??1_Container_base12@std@@QAE@XZ	; std::_Container_base12::~_Container_base12
	pop	edi
	pop	esi
	pop	ebx
	add	esp, 204				; 000000ccH
	cmp	ebp, esp
	call	__RTC_CheckEsp
	mov	esp, ebp
	pop	ebp
	ret	0
??1?$_Vector_val@U?$_Simple_types@UMovingTile@@@std@@@std@@QAE@XZ ENDP ; std::_Vector_val<std::_Simple_types<MovingTile> >::~_Vector_val<std::_Simple_types<MovingTile> >
_TEXT	ENDS
; Function compile flags: /Odtp /RTCsu /ZI
; File c:\program files (x86)\microsoft visual studio 14.0\vc\include\vector
;	COMDAT ??0?$_Vector_val@U?$_Simple_types@UMovingTile@@@std@@@std@@QAE@XZ
_TEXT	SEGMENT
_this$ = -8						; size = 4
??0?$_Vector_val@U?$_Simple_types@UMovingTile@@@std@@@std@@QAE@XZ PROC ; std::_Vector_val<std::_Simple_types<MovingTile> >::_Vector_val<std::_Simple_types<MovingTile> >, COMDAT
; _this$ = ecx

; 478  : 	_Vector_val()

	push	ebp
	mov	ebp, esp
	sub	esp, 204				; 000000ccH
	push	ebx
	push	esi
	push	edi
	push	ecx
	lea	edi, DWORD PTR [ebp-204]
	mov	ecx, 51					; 00000033H
	mov	eax, -858993460				; ccccccccH
	rep stosd
	pop	ecx
	mov	DWORD PTR _this$[ebp], ecx

; 479  : 		{	// initialize values

	mov	ecx, DWORD PTR _this$[ebp]
	call	??0_Container_base12@std@@QAE@XZ	; std::_Container_base12::_Container_base12

; 480  : 		_Myfirst = pointer();

	mov	eax, DWORD PTR _this$[ebp]
	mov	DWORD PTR [eax+4], 0

; 481  : 		_Mylast = pointer();

	mov	eax, DWORD PTR _this$[ebp]
	mov	DWORD PTR [eax+8], 0

; 482  : 		_Myend = pointer();

	mov	eax, DWORD PTR _this$[ebp]
	mov	DWORD PTR [eax+12], 0

; 483  : 		}

	mov	eax, DWORD PTR _this$[ebp]
	pop	edi
	pop	esi
	pop	ebx
	add	esp, 204				; 000000ccH
	cmp	ebp, esp
	call	__RTC_CheckEsp
	mov	esp, ebp
	pop	ebp
	ret	0
??0?$_Vector_val@U?$_Simple_types@UMovingTile@@@std@@@std@@QAE@XZ ENDP ; std::_Vector_val<std::_Simple_types<MovingTile> >::_Vector_val<std::_Simple_types<MovingTile> >
_TEXT	ENDS
; Function compile flags: /Odtp /RTCsu /ZI
; File c:\program files (x86)\microsoft visual studio 14.0\vc\include\vector
;	COMDAT ?_Myend@?$_Vector_alloc@U?$_Vec_base_types@UMovingTile@@V?$allocator@UMovingTile@@@std@@@std@@@std@@QBEABQAUMovingTile@@XZ
_TEXT	SEGMENT
_this$ = -8						; size = 4
?_Myend@?$_Vector_alloc@U?$_Vec_base_types@UMovingTile@@V?$allocator@UMovingTile@@@std@@@std@@@std@@QBEABQAUMovingTile@@XZ PROC ; std::_Vector_alloc<std::_Vec_base_types<MovingTile,std::allocator<MovingTile> > >::_Myend, COMDAT
; _this$ = ecx

; 670  : 		{	// return const reference to _Myend

	push	ebp
	mov	ebp, esp
	sub	esp, 204				; 000000ccH
	push	ebx
	push	esi
	push	edi
	push	ecx
	lea	edi, DWORD PTR [ebp-204]
	mov	ecx, 51					; 00000033H
	mov	eax, -858993460				; ccccccccH
	rep stosd
	pop	ecx
	mov	DWORD PTR _this$[ebp], ecx

; 671  : 		return (_Get_data()._Myend);

	mov	ecx, DWORD PTR _this$[ebp]
	call	?_Get_data@?$_Vector_alloc@U?$_Vec_base_types@UMovingTile@@V?$allocator@UMovingTile@@@std@@@std@@@std@@QBEABV?$_Vector_val@U?$_Simple_types@UMovingTile@@@std@@@2@XZ ; std::_Vector_alloc<std::_Vec_base_types<MovingTile,std::allocator<MovingTile> > >::_Get_data
	add	eax, 12					; 0000000cH

; 672  : 		}

	pop	edi
	pop	esi
	pop	ebx
	add	esp, 204				; 000000ccH
	cmp	ebp, esp
	call	__RTC_CheckEsp
	mov	esp, ebp
	pop	ebp
	ret	0
?_Myend@?$_Vector_alloc@U?$_Vec_base_types@UMovingTile@@V?$allocator@UMovingTile@@@std@@@std@@@std@@QBEABQAUMovingTile@@XZ ENDP ; std::_Vector_alloc<std::_Vec_base_types<MovingTile,std::allocator<MovingTile> > >::_Myend
_TEXT	ENDS
; Function compile flags: /Odtp /RTCsu /ZI
; File c:\program files (x86)\microsoft visual studio 14.0\vc\include\vector
;	COMDAT ?_Myend@?$_Vector_alloc@U?$_Vec_base_types@UMovingTile@@V?$allocator@UMovingTile@@@std@@@std@@@std@@QAEAAPAUMovingTile@@XZ
_TEXT	SEGMENT
_this$ = -8						; size = 4
?_Myend@?$_Vector_alloc@U?$_Vec_base_types@UMovingTile@@V?$allocator@UMovingTile@@@std@@@std@@@std@@QAEAAPAUMovingTile@@XZ PROC ; std::_Vector_alloc<std::_Vec_base_types<MovingTile,std::allocator<MovingTile> > >::_Myend, COMDAT
; _this$ = ecx

; 665  : 		{	// return reference to _Myend

	push	ebp
	mov	ebp, esp
	sub	esp, 204				; 000000ccH
	push	ebx
	push	esi
	push	edi
	push	ecx
	lea	edi, DWORD PTR [ebp-204]
	mov	ecx, 51					; 00000033H
	mov	eax, -858993460				; ccccccccH
	rep stosd
	pop	ecx
	mov	DWORD PTR _this$[ebp], ecx

; 666  : 		return (_Get_data()._Myend);

	mov	ecx, DWORD PTR _this$[ebp]
	call	?_Get_data@?$_Vector_alloc@U?$_Vec_base_types@UMovingTile@@V?$allocator@UMovingTile@@@std@@@std@@@std@@QAEAAV?$_Vector_val@U?$_Simple_types@UMovingTile@@@std@@@2@XZ ; std::_Vector_alloc<std::_Vec_base_types<MovingTile,std::allocator<MovingTile> > >::_Get_data
	add	eax, 12					; 0000000cH

; 667  : 		}

	pop	edi
	pop	esi
	pop	ebx
	add	esp, 204				; 000000ccH
	cmp	ebp, esp
	call	__RTC_CheckEsp
	mov	esp, ebp
	pop	ebp
	ret	0
?_Myend@?$_Vector_alloc@U?$_Vec_base_types@UMovingTile@@V?$allocator@UMovingTile@@@std@@@std@@@std@@QAEAAPAUMovingTile@@XZ ENDP ; std::_Vector_alloc<std::_Vec_base_types<MovingTile,std::allocator<MovingTile> > >::_Myend
_TEXT	ENDS
; Function compile flags: /Odtp /RTCsu /ZI
; File c:\program files (x86)\microsoft visual studio 14.0\vc\include\vector
;	COMDAT ?_Mylast@?$_Vector_alloc@U?$_Vec_base_types@UMovingTile@@V?$allocator@UMovingTile@@@std@@@std@@@std@@QBEABQAUMovingTile@@XZ
_TEXT	SEGMENT
_this$ = -8						; size = 4
?_Mylast@?$_Vector_alloc@U?$_Vec_base_types@UMovingTile@@V?$allocator@UMovingTile@@@std@@@std@@@std@@QBEABQAUMovingTile@@XZ PROC ; std::_Vector_alloc<std::_Vec_base_types<MovingTile,std::allocator<MovingTile> > >::_Mylast, COMDAT
; _this$ = ecx

; 660  : 		{	// return const reference to _Mylast

	push	ebp
	mov	ebp, esp
	sub	esp, 204				; 000000ccH
	push	ebx
	push	esi
	push	edi
	push	ecx
	lea	edi, DWORD PTR [ebp-204]
	mov	ecx, 51					; 00000033H
	mov	eax, -858993460				; ccccccccH
	rep stosd
	pop	ecx
	mov	DWORD PTR _this$[ebp], ecx

; 661  : 		return (_Get_data()._Mylast);

	mov	ecx, DWORD PTR _this$[ebp]
	call	?_Get_data@?$_Vector_alloc@U?$_Vec_base_types@UMovingTile@@V?$allocator@UMovingTile@@@std@@@std@@@std@@QBEABV?$_Vector_val@U?$_Simple_types@UMovingTile@@@std@@@2@XZ ; std::_Vector_alloc<std::_Vec_base_types<MovingTile,std::allocator<MovingTile> > >::_Get_data
	add	eax, 8

; 662  : 		}

	pop	edi
	pop	esi
	pop	ebx
	add	esp, 204				; 000000ccH
	cmp	ebp, esp
	call	__RTC_CheckEsp
	mov	esp, ebp
	pop	ebp
	ret	0
?_Mylast@?$_Vector_alloc@U?$_Vec_base_types@UMovingTile@@V?$allocator@UMovingTile@@@std@@@std@@@std@@QBEABQAUMovingTile@@XZ ENDP ; std::_Vector_alloc<std::_Vec_base_types<MovingTile,std::allocator<MovingTile> > >::_Mylast
_TEXT	ENDS
; Function compile flags: /Odtp /RTCsu /ZI
; File c:\program files (x86)\microsoft visual studio 14.0\vc\include\vector
;	COMDAT ?_Mylast@?$_Vector_alloc@U?$_Vec_base_types@UMovingTile@@V?$allocator@UMovingTile@@@std@@@std@@@std@@QAEAAPAUMovingTile@@XZ
_TEXT	SEGMENT
_this$ = -8						; size = 4
?_Mylast@?$_Vector_alloc@U?$_Vec_base_types@UMovingTile@@V?$allocator@UMovingTile@@@std@@@std@@@std@@QAEAAPAUMovingTile@@XZ PROC ; std::_Vector_alloc<std::_Vec_base_types<MovingTile,std::allocator<MovingTile> > >::_Mylast, COMDAT
; _this$ = ecx

; 655  : 		{	// return reference to _Mylast

	push	ebp
	mov	ebp, esp
	sub	esp, 204				; 000000ccH
	push	ebx
	push	esi
	push	edi
	push	ecx
	lea	edi, DWORD PTR [ebp-204]
	mov	ecx, 51					; 00000033H
	mov	eax, -858993460				; ccccccccH
	rep stosd
	pop	ecx
	mov	DWORD PTR _this$[ebp], ecx

; 656  : 		return (_Get_data()._Mylast);

	mov	ecx, DWORD PTR _this$[ebp]
	call	?_Get_data@?$_Vector_alloc@U?$_Vec_base_types@UMovingTile@@V?$allocator@UMovingTile@@@std@@@std@@@std@@QAEAAV?$_Vector_val@U?$_Simple_types@UMovingTile@@@std@@@2@XZ ; std::_Vector_alloc<std::_Vec_base_types<MovingTile,std::allocator<MovingTile> > >::_Get_data
	add	eax, 8

; 657  : 		}

	pop	edi
	pop	esi
	pop	ebx
	add	esp, 204				; 000000ccH
	cmp	ebp, esp
	call	__RTC_CheckEsp
	mov	esp, ebp
	pop	ebp
	ret	0
?_Mylast@?$_Vector_alloc@U?$_Vec_base_types@UMovingTile@@V?$allocator@UMovingTile@@@std@@@std@@@std@@QAEAAPAUMovingTile@@XZ ENDP ; std::_Vector_alloc<std::_Vec_base_types<MovingTile,std::allocator<MovingTile> > >::_Mylast
_TEXT	ENDS
; Function compile flags: /Odtp /RTCsu /ZI
; File c:\program files (x86)\microsoft visual studio 14.0\vc\include\vector
;	COMDAT ?_Myfirst@?$_Vector_alloc@U?$_Vec_base_types@UMovingTile@@V?$allocator@UMovingTile@@@std@@@std@@@std@@QBEABQAUMovingTile@@XZ
_TEXT	SEGMENT
_this$ = -8						; size = 4
?_Myfirst@?$_Vector_alloc@U?$_Vec_base_types@UMovingTile@@V?$allocator@UMovingTile@@@std@@@std@@@std@@QBEABQAUMovingTile@@XZ PROC ; std::_Vector_alloc<std::_Vec_base_types<MovingTile,std::allocator<MovingTile> > >::_Myfirst, COMDAT
; _this$ = ecx

; 650  : 		{	// return const reference to _Myfirst

	push	ebp
	mov	ebp, esp
	sub	esp, 204				; 000000ccH
	push	ebx
	push	esi
	push	edi
	push	ecx
	lea	edi, DWORD PTR [ebp-204]
	mov	ecx, 51					; 00000033H
	mov	eax, -858993460				; ccccccccH
	rep stosd
	pop	ecx
	mov	DWORD PTR _this$[ebp], ecx

; 651  : 		return (_Get_data()._Myfirst);

	mov	ecx, DWORD PTR _this$[ebp]
	call	?_Get_data@?$_Vector_alloc@U?$_Vec_base_types@UMovingTile@@V?$allocator@UMovingTile@@@std@@@std@@@std@@QBEABV?$_Vector_val@U?$_Simple_types@UMovingTile@@@std@@@2@XZ ; std::_Vector_alloc<std::_Vec_base_types<MovingTile,std::allocator<MovingTile> > >::_Get_data
	add	eax, 4

; 652  : 		}

	pop	edi
	pop	esi
	pop	ebx
	add	esp, 204				; 000000ccH
	cmp	ebp, esp
	call	__RTC_CheckEsp
	mov	esp, ebp
	pop	ebp
	ret	0
?_Myfirst@?$_Vector_alloc@U?$_Vec_base_types@UMovingTile@@V?$allocator@UMovingTile@@@std@@@std@@@std@@QBEABQAUMovingTile@@XZ ENDP ; std::_Vector_alloc<std::_Vec_base_types<MovingTile,std::allocator<MovingTile> > >::_Myfirst
_TEXT	ENDS
; Function compile flags: /Odtp /RTCsu /ZI
; File c:\program files (x86)\microsoft visual studio 14.0\vc\include\vector
;	COMDAT ?_Myfirst@?$_Vector_alloc@U?$_Vec_base_types@UMovingTile@@V?$allocator@UMovingTile@@@std@@@std@@@std@@QAEAAPAUMovingTile@@XZ
_TEXT	SEGMENT
_this$ = -8						; size = 4
?_Myfirst@?$_Vector_alloc@U?$_Vec_base_types@UMovingTile@@V?$allocator@UMovingTile@@@std@@@std@@@std@@QAEAAPAUMovingTile@@XZ PROC ; std::_Vector_alloc<std::_Vec_base_types<MovingTile,std::allocator<MovingTile> > >::_Myfirst, COMDAT
; _this$ = ecx

; 645  : 		{	// return reference to _Myfirst

	push	ebp
	mov	ebp, esp
	sub	esp, 204				; 000000ccH
	push	ebx
	push	esi
	push	edi
	push	ecx
	lea	edi, DWORD PTR [ebp-204]
	mov	ecx, 51					; 00000033H
	mov	eax, -858993460				; ccccccccH
	rep stosd
	pop	ecx
	mov	DWORD PTR _this$[ebp], ecx

; 646  : 		return (_Get_data()._Myfirst);

	mov	ecx, DWORD PTR _this$[ebp]
	call	?_Get_data@?$_Vector_alloc@U?$_Vec_base_types@UMovingTile@@V?$allocator@UMovingTile@@@std@@@std@@@std@@QAEAAV?$_Vector_val@U?$_Simple_types@UMovingTile@@@std@@@2@XZ ; std::_Vector_alloc<std::_Vec_base_types<MovingTile,std::allocator<MovingTile> > >::_Get_data
	add	eax, 4

; 647  : 		}

	pop	edi
	pop	esi
	pop	ebx
	add	esp, 204				; 000000ccH
	cmp	ebp, esp
	call	__RTC_CheckEsp
	mov	esp, ebp
	pop	ebp
	ret	0
?_Myfirst@?$_Vector_alloc@U?$_Vec_base_types@UMovingTile@@V?$allocator@UMovingTile@@@std@@@std@@@std@@QAEAAPAUMovingTile@@XZ ENDP ; std::_Vector_alloc<std::_Vec_base_types<MovingTile,std::allocator<MovingTile> > >::_Myfirst
_TEXT	ENDS
; Function compile flags: /Odtp /RTCsu /ZI
; File c:\program files (x86)\microsoft visual studio 14.0\vc\include\vector
;	COMDAT ?_Get_data@?$_Vector_alloc@U?$_Vec_base_types@UMovingTile@@V?$allocator@UMovingTile@@@std@@@std@@@std@@QBEABV?$_Vector_val@U?$_Simple_types@UMovingTile@@@std@@@2@XZ
_TEXT	SEGMENT
_this$ = -8						; size = 4
?_Get_data@?$_Vector_alloc@U?$_Vec_base_types@UMovingTile@@V?$allocator@UMovingTile@@@std@@@std@@@std@@QBEABV?$_Vector_val@U?$_Simple_types@UMovingTile@@@std@@@2@XZ PROC ; std::_Vector_alloc<std::_Vec_base_types<MovingTile,std::allocator<MovingTile> > >::_Get_data, COMDAT
; _this$ = ecx

; 640  : 		{	// return const reference to _Vector_val

	push	ebp
	mov	ebp, esp
	sub	esp, 204				; 000000ccH
	push	ebx
	push	esi
	push	edi
	push	ecx
	lea	edi, DWORD PTR [ebp-204]
	mov	ecx, 51					; 00000033H
	mov	eax, -858993460				; ccccccccH
	rep stosd
	pop	ecx
	mov	DWORD PTR _this$[ebp], ecx

; 641  : 		return (_Mypair._Get_second());

	mov	ecx, DWORD PTR _this$[ebp]
	call	?_Get_second@?$_Compressed_pair@U?$_Wrap_alloc@V?$allocator@UMovingTile@@@std@@@std@@V?$_Vector_val@U?$_Simple_types@UMovingTile@@@std@@@2@$00@std@@QBEABV?$_Vector_val@U?$_Simple_types@UMovingTile@@@std@@@2@XZ ; std::_Compressed_pair<std::_Wrap_alloc<std::allocator<MovingTile> >,std::_Vector_val<std::_Simple_types<MovingTile> >,1>::_Get_second

; 642  : 		}

	pop	edi
	pop	esi
	pop	ebx
	add	esp, 204				; 000000ccH
	cmp	ebp, esp
	call	__RTC_CheckEsp
	mov	esp, ebp
	pop	ebp
	ret	0
?_Get_data@?$_Vector_alloc@U?$_Vec_base_types@UMovingTile@@V?$allocator@UMovingTile@@@std@@@std@@@std@@QBEABV?$_Vector_val@U?$_Simple_types@UMovingTile@@@std@@@2@XZ ENDP ; std::_Vector_alloc<std::_Vec_base_types<MovingTile,std::allocator<MovingTile> > >::_Get_data
_TEXT	ENDS
; Function compile flags: /Odtp /RTCsu /ZI
; File c:\program files (x86)\microsoft visual studio 14.0\vc\include\vector
;	COMDAT ?_Get_data@?$_Vector_alloc@U?$_Vec_base_types@UMovingTile@@V?$allocator@UMovingTile@@@std@@@std@@@std@@QAEAAV?$_Vector_val@U?$_Simple_types@UMovingTile@@@std@@@2@XZ
_TEXT	SEGMENT
_this$ = -8						; size = 4
?_Get_data@?$_Vector_alloc@U?$_Vec_base_types@UMovingTile@@V?$allocator@UMovingTile@@@std@@@std@@@std@@QAEAAV?$_Vector_val@U?$_Simple_types@UMovingTile@@@std@@@2@XZ PROC ; std::_Vector_alloc<std::_Vec_base_types<MovingTile,std::allocator<MovingTile> > >::_Get_data, COMDAT
; _this$ = ecx

; 635  : 		{	// return reference to _Vector_val

	push	ebp
	mov	ebp, esp
	sub	esp, 204				; 000000ccH
	push	ebx
	push	esi
	push	edi
	push	ecx
	lea	edi, DWORD PTR [ebp-204]
	mov	ecx, 51					; 00000033H
	mov	eax, -858993460				; ccccccccH
	rep stosd
	pop	ecx
	mov	DWORD PTR _this$[ebp], ecx

; 636  : 		return (_Mypair._Get_second());

	mov	ecx, DWORD PTR _this$[ebp]
	call	?_Get_second@?$_Compressed_pair@U?$_Wrap_alloc@V?$allocator@UMovingTile@@@std@@@std@@V?$_Vector_val@U?$_Simple_types@UMovingTile@@@std@@@2@$00@std@@QAEAAV?$_Vector_val@U?$_Simple_types@UMovingTile@@@std@@@2@XZ ; std::_Compressed_pair<std::_Wrap_alloc<std::allocator<MovingTile> >,std::_Vector_val<std::_Simple_types<MovingTile> >,1>::_Get_second

; 637  : 		}

	pop	edi
	pop	esi
	pop	ebx
	add	esp, 204				; 000000ccH
	cmp	ebp, esp
	call	__RTC_CheckEsp
	mov	esp, ebp
	pop	ebp
	ret	0
?_Get_data@?$_Vector_alloc@U?$_Vec_base_types@UMovingTile@@V?$allocator@UMovingTile@@@std@@@std@@@std@@QAEAAV?$_Vector_val@U?$_Simple_types@UMovingTile@@@std@@@2@XZ ENDP ; std::_Vector_alloc<std::_Vec_base_types<MovingTile,std::allocator<MovingTile> > >::_Get_data
_TEXT	ENDS
; Function compile flags: /Odtp /RTCsu /ZI
; File c:\program files (x86)\microsoft visual studio 14.0\vc\include\vector
;	COMDAT ?_Getal@?$_Vector_alloc@U?$_Vec_base_types@UMovingTile@@V?$allocator@UMovingTile@@@std@@@std@@@std@@QBEABU?$_Wrap_alloc@V?$allocator@UMovingTile@@@std@@@2@XZ
_TEXT	SEGMENT
_this$ = -8						; size = 4
?_Getal@?$_Vector_alloc@U?$_Vec_base_types@UMovingTile@@V?$allocator@UMovingTile@@@std@@@std@@@std@@QBEABU?$_Wrap_alloc@V?$allocator@UMovingTile@@@std@@@2@XZ PROC ; std::_Vector_alloc<std::_Vec_base_types<MovingTile,std::allocator<MovingTile> > >::_Getal, COMDAT
; _this$ = ecx

; 630  : 		{	// return const reference to allocator

	push	ebp
	mov	ebp, esp
	sub	esp, 204				; 000000ccH
	push	ebx
	push	esi
	push	edi
	push	ecx
	lea	edi, DWORD PTR [ebp-204]
	mov	ecx, 51					; 00000033H
	mov	eax, -858993460				; ccccccccH
	rep stosd
	pop	ecx
	mov	DWORD PTR _this$[ebp], ecx

; 631  : 		return (_Mypair._Get_first());

	mov	ecx, DWORD PTR _this$[ebp]
	call	?_Get_first@?$_Compressed_pair@U?$_Wrap_alloc@V?$allocator@UMovingTile@@@std@@@std@@V?$_Vector_val@U?$_Simple_types@UMovingTile@@@std@@@2@$00@std@@QBEABU?$_Wrap_alloc@V?$allocator@UMovingTile@@@std@@@2@XZ ; std::_Compressed_pair<std::_Wrap_alloc<std::allocator<MovingTile> >,std::_Vector_val<std::_Simple_types<MovingTile> >,1>::_Get_first

; 632  : 		}

	pop	edi
	pop	esi
	pop	ebx
	add	esp, 204				; 000000ccH
	cmp	ebp, esp
	call	__RTC_CheckEsp
	mov	esp, ebp
	pop	ebp
	ret	0
?_Getal@?$_Vector_alloc@U?$_Vec_base_types@UMovingTile@@V?$allocator@UMovingTile@@@std@@@std@@@std@@QBEABU?$_Wrap_alloc@V?$allocator@UMovingTile@@@std@@@2@XZ ENDP ; std::_Vector_alloc<std::_Vec_base_types<MovingTile,std::allocator<MovingTile> > >::_Getal
_TEXT	ENDS
; Function compile flags: /Odtp /RTCsu /ZI
; File c:\program files (x86)\microsoft visual studio 14.0\vc\include\vector
;	COMDAT ?_Getal@?$_Vector_alloc@U?$_Vec_base_types@UMovingTile@@V?$allocator@UMovingTile@@@std@@@std@@@std@@QAEAAU?$_Wrap_alloc@V?$allocator@UMovingTile@@@std@@@2@XZ
_TEXT	SEGMENT
_this$ = -8						; size = 4
?_Getal@?$_Vector_alloc@U?$_Vec_base_types@UMovingTile@@V?$allocator@UMovingTile@@@std@@@std@@@std@@QAEAAU?$_Wrap_alloc@V?$allocator@UMovingTile@@@std@@@2@XZ PROC ; std::_Vector_alloc<std::_Vec_base_types<MovingTile,std::allocator<MovingTile> > >::_Getal, COMDAT
; _this$ = ecx

; 625  : 		{	// return reference to allocator

	push	ebp
	mov	ebp, esp
	sub	esp, 204				; 000000ccH
	push	ebx
	push	esi
	push	edi
	push	ecx
	lea	edi, DWORD PTR [ebp-204]
	mov	ecx, 51					; 00000033H
	mov	eax, -858993460				; ccccccccH
	rep stosd
	pop	ecx
	mov	DWORD PTR _this$[ebp], ecx

; 626  : 		return (_Mypair._Get_first());

	mov	ecx, DWORD PTR _this$[ebp]
	call	?_Get_first@?$_Compressed_pair@U?$_Wrap_alloc@V?$allocator@UMovingTile@@@std@@@std@@V?$_Vector_val@U?$_Simple_types@UMovingTile@@@std@@@2@$00@std@@QAEAAU?$_Wrap_alloc@V?$allocator@UMovingTile@@@std@@@2@XZ ; std::_Compressed_pair<std::_Wrap_alloc<std::allocator<MovingTile> >,std::_Vector_val<std::_Simple_types<MovingTile> >,1>::_Get_first

; 627  : 		}

	pop	edi
	pop	esi
	pop	ebx
	add	esp, 204				; 000000ccH
	cmp	ebp, esp
	call	__RTC_CheckEsp
	mov	esp, ebp
	pop	ebp
	ret	0
?_Getal@?$_Vector_alloc@U?$_Vec_base_types@UMovingTile@@V?$allocator@UMovingTile@@@std@@@std@@@std@@QAEAAU?$_Wrap_alloc@V?$allocator@UMovingTile@@@std@@@2@XZ ENDP ; std::_Vector_alloc<std::_Vec_base_types<MovingTile,std::allocator<MovingTile> > >::_Getal
_TEXT	ENDS
; Function compile flags: /Odtp /RTCsu /ZI
; File c:\program files (x86)\microsoft visual studio 14.0\vc\include\vector
;	COMDAT ?_Orphan_all@?$_Vector_alloc@U?$_Vec_base_types@UMovingTile@@V?$allocator@UMovingTile@@@std@@@std@@@std@@QAEXXZ
_TEXT	SEGMENT
_this$ = -8						; size = 4
?_Orphan_all@?$_Vector_alloc@U?$_Vec_base_types@UMovingTile@@V?$allocator@UMovingTile@@@std@@@std@@@std@@QAEXXZ PROC ; std::_Vector_alloc<std::_Vec_base_types<MovingTile,std::allocator<MovingTile> > >::_Orphan_all, COMDAT
; _this$ = ecx

; 615  : 		{	// orphan all iterators

	push	ebp
	mov	ebp, esp
	sub	esp, 204				; 000000ccH
	push	ebx
	push	esi
	push	edi
	push	ecx
	lea	edi, DWORD PTR [ebp-204]
	mov	ecx, 51					; 00000033H
	mov	eax, -858993460				; ccccccccH
	rep stosd
	pop	ecx
	mov	DWORD PTR _this$[ebp], ecx

; 616  : 		_Get_data()._Orphan_all();

	mov	ecx, DWORD PTR _this$[ebp]
	call	?_Get_data@?$_Vector_alloc@U?$_Vec_base_types@UMovingTile@@V?$allocator@UMovingTile@@@std@@@std@@@std@@QAEAAV?$_Vector_val@U?$_Simple_types@UMovingTile@@@std@@@2@XZ ; std::_Vector_alloc<std::_Vec_base_types<MovingTile,std::allocator<MovingTile> > >::_Get_data
	mov	ecx, eax
	call	?_Orphan_all@_Container_base12@std@@QAEXXZ ; std::_Container_base12::_Orphan_all

; 617  : 		}

	pop	edi
	pop	esi
	pop	ebx
	add	esp, 204				; 000000ccH
	cmp	ebp, esp
	call	__RTC_CheckEsp
	mov	esp, ebp
	pop	ebp
	ret	0
?_Orphan_all@?$_Vector_alloc@U?$_Vec_base_types@UMovingTile@@V?$allocator@UMovingTile@@@std@@@std@@@std@@QAEXXZ ENDP ; std::_Vector_alloc<std::_Vec_base_types<MovingTile,std::allocator<MovingTile> > >::_Orphan_all
_TEXT	ENDS
; Function compile flags: /Odtp /RTCsu /ZI
; File c:\program files (x86)\microsoft visual studio 14.0\vc\include\vector
;	COMDAT ?_Myproxy@?$_Vector_alloc@U?$_Vec_base_types@UMovingTile@@V?$allocator@UMovingTile@@@std@@@std@@@std@@QAEAAPAU_Container_proxy@2@XZ
_TEXT	SEGMENT
_this$ = -8						; size = 4
?_Myproxy@?$_Vector_alloc@U?$_Vec_base_types@UMovingTile@@V?$allocator@UMovingTile@@@std@@@std@@@std@@QAEAAPAU_Container_proxy@2@XZ PROC ; std::_Vector_alloc<std::_Vec_base_types<MovingTile,std::allocator<MovingTile> > >::_Myproxy, COMDAT
; _this$ = ecx

; 604  : 		{	// return reference to _Myproxy

	push	ebp
	mov	ebp, esp
	sub	esp, 204				; 000000ccH
	push	ebx
	push	esi
	push	edi
	push	ecx
	lea	edi, DWORD PTR [ebp-204]
	mov	ecx, 51					; 00000033H
	mov	eax, -858993460				; ccccccccH
	rep stosd
	pop	ecx
	mov	DWORD PTR _this$[ebp], ecx

; 605  : 		return (_Get_data()._Myproxy);

	mov	ecx, DWORD PTR _this$[ebp]
	call	?_Get_data@?$_Vector_alloc@U?$_Vec_base_types@UMovingTile@@V?$allocator@UMovingTile@@@std@@@std@@@std@@QAEAAV?$_Vector_val@U?$_Simple_types@UMovingTile@@@std@@@2@XZ ; std::_Vector_alloc<std::_Vec_base_types<MovingTile,std::allocator<MovingTile> > >::_Get_data

; 606  : 		}

	pop	edi
	pop	esi
	pop	ebx
	add	esp, 204				; 000000ccH
	cmp	ebp, esp
	call	__RTC_CheckEsp
	mov	esp, ebp
	pop	ebp
	ret	0
?_Myproxy@?$_Vector_alloc@U?$_Vec_base_types@UMovingTile@@V?$allocator@UMovingTile@@@std@@@std@@@std@@QAEAAPAU_Container_proxy@2@XZ ENDP ; std::_Vector_alloc<std::_Vec_base_types<MovingTile,std::allocator<MovingTile> > >::_Myproxy
_TEXT	ENDS
; Function compile flags: /Odtp /RTCsu /ZI
; File c:\program files (x86)\microsoft visual studio 14.0\vc\include\vector
;	COMDAT ?_Getpfirst@?$_Vector_alloc@U?$_Vec_base_types@UMovingTile@@V?$allocator@UMovingTile@@@std@@@std@@@std@@QBEPAPAU_Iterator_base12@2@XZ
_TEXT	SEGMENT
_this$ = -8						; size = 4
?_Getpfirst@?$_Vector_alloc@U?$_Vec_base_types@UMovingTile@@V?$allocator@UMovingTile@@@std@@@std@@@std@@QBEPAPAU_Iterator_base12@2@XZ PROC ; std::_Vector_alloc<std::_Vec_base_types<MovingTile,std::allocator<MovingTile> > >::_Getpfirst, COMDAT
; _this$ = ecx

; 599  : 		{	// get address of iterator chain

	push	ebp
	mov	ebp, esp
	sub	esp, 204				; 000000ccH
	push	ebx
	push	esi
	push	edi
	push	ecx
	lea	edi, DWORD PTR [ebp-204]
	mov	ecx, 51					; 00000033H
	mov	eax, -858993460				; ccccccccH
	rep stosd
	pop	ecx
	mov	DWORD PTR _this$[ebp], ecx

; 600  : 		return (_Get_data()._Getpfirst());

	mov	ecx, DWORD PTR _this$[ebp]
	call	?_Get_data@?$_Vector_alloc@U?$_Vec_base_types@UMovingTile@@V?$allocator@UMovingTile@@@std@@@std@@@std@@QBEABV?$_Vector_val@U?$_Simple_types@UMovingTile@@@std@@@2@XZ ; std::_Vector_alloc<std::_Vec_base_types<MovingTile,std::allocator<MovingTile> > >::_Get_data
	mov	ecx, eax
	call	?_Getpfirst@_Container_base12@std@@QBEPAPAU_Iterator_base12@2@XZ ; std::_Container_base12::_Getpfirst

; 601  : 		}

	pop	edi
	pop	esi
	pop	ebx
	add	esp, 204				; 000000ccH
	cmp	ebp, esp
	call	__RTC_CheckEsp
	mov	esp, ebp
	pop	ebp
	ret	0
?_Getpfirst@?$_Vector_alloc@U?$_Vec_base_types@UMovingTile@@V?$allocator@UMovingTile@@@std@@@std@@@std@@QBEPAPAU_Iterator_base12@2@XZ ENDP ; std::_Vector_alloc<std::_Vec_base_types<MovingTile,std::allocator<MovingTile> > >::_Getpfirst
_TEXT	ENDS
; Function compile flags: /Odtp /RTCsu /ZI
; File c:\program files (x86)\microsoft visual studio 14.0\vc\include\vector
;	COMDAT ?_Free_proxy@?$_Vector_alloc@U?$_Vec_base_types@UMovingTile@@V?$allocator@UMovingTile@@@std@@@std@@@std@@QAEXXZ
_TEXT	SEGMENT
__Alproxy$ = -21					; size = 1
_this$ = -12						; size = 4
__$ArrayPad$ = -4					; size = 4
?_Free_proxy@?$_Vector_alloc@U?$_Vec_base_types@UMovingTile@@V?$allocator@UMovingTile@@@std@@@std@@@std@@QAEXXZ PROC ; std::_Vector_alloc<std::_Vec_base_types<MovingTile,std::allocator<MovingTile> > >::_Free_proxy, COMDAT
; _this$ = ecx

; 589  : 		{	// destroy proxy

	push	ebp
	mov	ebp, esp
	sub	esp, 220				; 000000dcH
	push	ebx
	push	esi
	push	edi
	push	ecx
	lea	edi, DWORD PTR [ebp-220]
	mov	ecx, 55					; 00000037H
	mov	eax, -858993460				; ccccccccH
	rep stosd
	pop	ecx
	mov	eax, DWORD PTR ___security_cookie
	xor	eax, ebp
	mov	DWORD PTR __$ArrayPad$[ebp], eax
	mov	DWORD PTR _this$[ebp], ecx

; 590  : 		typename _Alty::template rebind<_Container_proxy>::other
; 591  : 			_Alproxy(_Getal());

	mov	ecx, DWORD PTR _this$[ebp]
	call	?_Getal@?$_Vector_alloc@U?$_Vec_base_types@UMovingTile@@V?$allocator@UMovingTile@@@std@@@std@@@std@@QAEAAU?$_Wrap_alloc@V?$allocator@UMovingTile@@@std@@@2@XZ ; std::_Vector_alloc<std::_Vec_base_types<MovingTile,std::allocator<MovingTile> > >::_Getal
	push	eax
	lea	ecx, DWORD PTR __Alproxy$[ebp]
	call	??$?0AAU?$_Wrap_alloc@V?$allocator@UMovingTile@@@std@@@std@@@?$_Wrap_alloc@V?$allocator@U_Container_proxy@std@@@std@@@std@@QAE@AAU?$_Wrap_alloc@V?$allocator@UMovingTile@@@std@@@1@@Z ; std::_Wrap_alloc<std::allocator<std::_Container_proxy> >::_Wrap_alloc<std::allocator<std::_Container_proxy> ><std::_Wrap_alloc<std::allocator<MovingTile> > &>

; 592  : 		_Orphan_all();

	mov	ecx, DWORD PTR _this$[ebp]
	call	?_Orphan_all@?$_Vector_alloc@U?$_Vec_base_types@UMovingTile@@V?$allocator@UMovingTile@@@std@@@std@@@std@@QAEXXZ ; std::_Vector_alloc<std::_Vec_base_types<MovingTile,std::allocator<MovingTile> > >::_Orphan_all

; 593  : 		_Alproxy.destroy(_Myproxy());

	mov	ecx, DWORD PTR _this$[ebp]
	call	?_Myproxy@?$_Vector_alloc@U?$_Vec_base_types@UMovingTile@@V?$allocator@UMovingTile@@@std@@@std@@@std@@QAEAAPAU_Container_proxy@2@XZ ; std::_Vector_alloc<std::_Vec_base_types<MovingTile,std::allocator<MovingTile> > >::_Myproxy
	mov	eax, DWORD PTR [eax]
	push	eax
	lea	ecx, DWORD PTR __Alproxy$[ebp]
	call	??$destroy@U_Container_proxy@std@@@?$_Wrap_alloc@V?$allocator@U_Container_proxy@std@@@std@@@std@@QAEXPAU_Container_proxy@1@@Z ; std::_Wrap_alloc<std::allocator<std::_Container_proxy> >::destroy<std::_Container_proxy>

; 594  : 		_Alproxy.deallocate(_Myproxy(), 1);

	push	1
	mov	ecx, DWORD PTR _this$[ebp]
	call	?_Myproxy@?$_Vector_alloc@U?$_Vec_base_types@UMovingTile@@V?$allocator@UMovingTile@@@std@@@std@@@std@@QAEAAPAU_Container_proxy@2@XZ ; std::_Vector_alloc<std::_Vec_base_types<MovingTile,std::allocator<MovingTile> > >::_Myproxy
	mov	eax, DWORD PTR [eax]
	push	eax
	lea	ecx, DWORD PTR __Alproxy$[ebp]
	call	?deallocate@?$_Wrap_alloc@V?$allocator@U_Container_proxy@std@@@std@@@std@@QAEXPAU_Container_proxy@2@I@Z ; std::_Wrap_alloc<std::allocator<std::_Container_proxy> >::deallocate

; 595  : 		_Myproxy() = 0;

	mov	ecx, DWORD PTR _this$[ebp]
	call	?_Myproxy@?$_Vector_alloc@U?$_Vec_base_types@UMovingTile@@V?$allocator@UMovingTile@@@std@@@std@@@std@@QAEAAPAU_Container_proxy@2@XZ ; std::_Vector_alloc<std::_Vec_base_types<MovingTile,std::allocator<MovingTile> > >::_Myproxy
	mov	DWORD PTR [eax], 0

; 596  : 		}

	push	edx
	mov	ecx, ebp
	push	eax
	lea	edx, DWORD PTR $LN5@Free_proxy
	call	@_RTC_CheckStackVars@8
	pop	eax
	pop	edx
	pop	edi
	pop	esi
	pop	ebx
	mov	ecx, DWORD PTR __$ArrayPad$[ebp]
	xor	ecx, ebp
	call	@__security_check_cookie@4
	add	esp, 220				; 000000dcH
	cmp	ebp, esp
	call	__RTC_CheckEsp
	mov	esp, ebp
	pop	ebp
	ret	0
	npad	1
$LN5@Free_proxy:
	DD	1
	DD	$LN4@Free_proxy
$LN4@Free_proxy:
	DD	-21					; ffffffebH
	DD	1
	DD	$LN3@Free_proxy
$LN3@Free_proxy:
	DB	95					; 0000005fH
	DB	65					; 00000041H
	DB	108					; 0000006cH
	DB	112					; 00000070H
	DB	114					; 00000072H
	DB	111					; 0000006fH
	DB	120					; 00000078H
	DB	121					; 00000079H
	DB	0
?_Free_proxy@?$_Vector_alloc@U?$_Vec_base_types@UMovingTile@@V?$allocator@UMovingTile@@@std@@@std@@@std@@QAEXXZ ENDP ; std::_Vector_alloc<std::_Vec_base_types<MovingTile,std::allocator<MovingTile> > >::_Free_proxy
_TEXT	ENDS
; Function compile flags: /Odtp /RTCsu /ZI
; File c:\program files (x86)\microsoft visual studio 14.0\vc\include\vector
;	COMDAT ?_Alloc_proxy@?$_Vector_alloc@U?$_Vec_base_types@UMovingTile@@V?$allocator@UMovingTile@@@std@@@std@@@std@@QAEXXZ
_TEXT	SEGMENT
$T1 = -232						; size = 8
__Alproxy$ = -21					; size = 1
_this$ = -12						; size = 4
__$ArrayPad$ = -4					; size = 4
?_Alloc_proxy@?$_Vector_alloc@U?$_Vec_base_types@UMovingTile@@V?$allocator@UMovingTile@@@std@@@std@@@std@@QAEXXZ PROC ; std::_Vector_alloc<std::_Vec_base_types<MovingTile,std::allocator<MovingTile> > >::_Alloc_proxy, COMDAT
; _this$ = ecx

; 580  : 		{	// construct proxy

	push	ebp
	mov	ebp, esp
	sub	esp, 236				; 000000ecH
	push	ebx
	push	esi
	push	edi
	push	ecx
	lea	edi, DWORD PTR [ebp-236]
	mov	ecx, 59					; 0000003bH
	mov	eax, -858993460				; ccccccccH
	rep stosd
	pop	ecx
	mov	eax, DWORD PTR ___security_cookie
	xor	eax, ebp
	mov	DWORD PTR __$ArrayPad$[ebp], eax
	mov	DWORD PTR _this$[ebp], ecx

; 581  : 		typename _Alty::template rebind<_Container_proxy>::other
; 582  : 			_Alproxy(_Getal());

	mov	ecx, DWORD PTR _this$[ebp]
	call	?_Getal@?$_Vector_alloc@U?$_Vec_base_types@UMovingTile@@V?$allocator@UMovingTile@@@std@@@std@@@std@@QAEAAU?$_Wrap_alloc@V?$allocator@UMovingTile@@@std@@@2@XZ ; std::_Vector_alloc<std::_Vec_base_types<MovingTile,std::allocator<MovingTile> > >::_Getal
	push	eax
	lea	ecx, DWORD PTR __Alproxy$[ebp]
	call	??$?0AAU?$_Wrap_alloc@V?$allocator@UMovingTile@@@std@@@std@@@?$_Wrap_alloc@V?$allocator@U_Container_proxy@std@@@std@@@std@@QAE@AAU?$_Wrap_alloc@V?$allocator@UMovingTile@@@std@@@1@@Z ; std::_Wrap_alloc<std::allocator<std::_Container_proxy> >::_Wrap_alloc<std::allocator<std::_Container_proxy> ><std::_Wrap_alloc<std::allocator<MovingTile> > &>

; 583  : 		_Myproxy() = _Alproxy.allocate(1);

	push	1
	lea	ecx, DWORD PTR __Alproxy$[ebp]
	call	?allocate@?$_Wrap_alloc@V?$allocator@U_Container_proxy@std@@@std@@@std@@QAEPAU_Container_proxy@2@I@Z ; std::_Wrap_alloc<std::allocator<std::_Container_proxy> >::allocate
	mov	esi, eax
	mov	ecx, DWORD PTR _this$[ebp]
	call	?_Myproxy@?$_Vector_alloc@U?$_Vec_base_types@UMovingTile@@V?$allocator@UMovingTile@@@std@@@std@@@std@@QAEAAPAU_Container_proxy@2@XZ ; std::_Vector_alloc<std::_Vec_base_types<MovingTile,std::allocator<MovingTile> > >::_Myproxy
	mov	DWORD PTR [eax], esi

; 584  : 		_Alproxy.construct(_Myproxy(), _Container_proxy());

	lea	ecx, DWORD PTR $T1[ebp]
	call	??0_Container_proxy@std@@QAE@XZ		; std::_Container_proxy::_Container_proxy
	push	eax
	mov	ecx, DWORD PTR _this$[ebp]
	call	?_Myproxy@?$_Vector_alloc@U?$_Vec_base_types@UMovingTile@@V?$allocator@UMovingTile@@@std@@@std@@@std@@QAEAAPAU_Container_proxy@2@XZ ; std::_Vector_alloc<std::_Vec_base_types<MovingTile,std::allocator<MovingTile> > >::_Myproxy
	mov	eax, DWORD PTR [eax]
	push	eax
	lea	ecx, DWORD PTR __Alproxy$[ebp]
	call	??$construct@U_Container_proxy@std@@U12@@?$_Wrap_alloc@V?$allocator@U_Container_proxy@std@@@std@@@std@@QAEXPAU_Container_proxy@1@$$QAU21@@Z ; std::_Wrap_alloc<std::allocator<std::_Container_proxy> >::construct<std::_Container_proxy,std::_Container_proxy>

; 585  : 		_Myproxy()->_Mycont = &_Get_data();

	mov	ecx, DWORD PTR _this$[ebp]
	call	?_Get_data@?$_Vector_alloc@U?$_Vec_base_types@UMovingTile@@V?$allocator@UMovingTile@@@std@@@std@@@std@@QAEAAV?$_Vector_val@U?$_Simple_types@UMovingTile@@@std@@@2@XZ ; std::_Vector_alloc<std::_Vec_base_types<MovingTile,std::allocator<MovingTile> > >::_Get_data
	mov	esi, eax
	mov	ecx, DWORD PTR _this$[ebp]
	call	?_Myproxy@?$_Vector_alloc@U?$_Vec_base_types@UMovingTile@@V?$allocator@UMovingTile@@@std@@@std@@@std@@QAEAAPAU_Container_proxy@2@XZ ; std::_Vector_alloc<std::_Vec_base_types<MovingTile,std::allocator<MovingTile> > >::_Myproxy
	mov	eax, DWORD PTR [eax]
	mov	DWORD PTR [eax], esi

; 586  : 		}

	push	edx
	mov	ecx, ebp
	push	eax
	lea	edx, DWORD PTR $LN5@Alloc_prox
	call	@_RTC_CheckStackVars@8
	pop	eax
	pop	edx
	pop	edi
	pop	esi
	pop	ebx
	mov	ecx, DWORD PTR __$ArrayPad$[ebp]
	xor	ecx, ebp
	call	@__security_check_cookie@4
	add	esp, 236				; 000000ecH
	cmp	ebp, esp
	call	__RTC_CheckEsp
	mov	esp, ebp
	pop	ebp
	ret	0
$LN5@Alloc_prox:
	DD	1
	DD	$LN4@Alloc_prox
$LN4@Alloc_prox:
	DD	-21					; ffffffebH
	DD	1
	DD	$LN3@Alloc_prox
$LN3@Alloc_prox:
	DB	95					; 0000005fH
	DB	65					; 00000041H
	DB	108					; 0000006cH
	DB	112					; 00000070H
	DB	114					; 00000072H
	DB	111					; 0000006fH
	DB	120					; 00000078H
	DB	121					; 00000079H
	DB	0
?_Alloc_proxy@?$_Vector_alloc@U?$_Vec_base_types@UMovingTile@@V?$allocator@UMovingTile@@@std@@@std@@@std@@QAEXXZ ENDP ; std::_Vector_alloc<std::_Vec_base_types<MovingTile,std::allocator<MovingTile> > >::_Alloc_proxy
_TEXT	ENDS
; Function compile flags: /Odtp /RTCsu /ZI
; File c:\program files (x86)\microsoft visual studio 14.0\vc\include\vector
;	COMDAT ??1?$_Vector_alloc@U?$_Vec_base_types@UMovingTile@@V?$allocator@UMovingTile@@@std@@@std@@@std@@QAE@XZ
_TEXT	SEGMENT
_this$ = -20						; size = 4
__$EHRec$ = -12						; size = 12
??1?$_Vector_alloc@U?$_Vec_base_types@UMovingTile@@V?$allocator@UMovingTile@@@std@@@std@@@std@@QAE@XZ PROC ; std::_Vector_alloc<std::_Vec_base_types<MovingTile,std::allocator<MovingTile> > >::~_Vector_alloc<std::_Vec_base_types<MovingTile,std::allocator<MovingTile> > >, COMDAT
; _this$ = ecx

; 555  : 		{	// destroy proxy

	push	ebp
	mov	ebp, esp
	push	-1
	push	__ehhandler$??1?$_Vector_alloc@U?$_Vec_base_types@UMovingTile@@V?$allocator@UMovingTile@@@std@@@std@@@std@@QAE@XZ
	mov	eax, DWORD PTR fs:0
	push	eax
	sub	esp, 204				; 000000ccH
	push	ebx
	push	esi
	push	edi
	push	ecx
	lea	edi, DWORD PTR [ebp-216]
	mov	ecx, 51					; 00000033H
	mov	eax, -858993460				; ccccccccH
	rep stosd
	pop	ecx
	mov	eax, DWORD PTR ___security_cookie
	xor	eax, ebp
	push	eax
	lea	eax, DWORD PTR __$EHRec$[ebp]
	mov	DWORD PTR fs:0, eax
	mov	DWORD PTR _this$[ebp], ecx

; 556  : 		_Free_proxy();

	mov	ecx, DWORD PTR _this$[ebp]
	call	?_Free_proxy@?$_Vector_alloc@U?$_Vec_base_types@UMovingTile@@V?$allocator@UMovingTile@@@std@@@std@@@std@@QAEXXZ ; std::_Vector_alloc<std::_Vec_base_types<MovingTile,std::allocator<MovingTile> > >::_Free_proxy

; 557  : 		}

	mov	ecx, DWORD PTR _this$[ebp]
	call	??1?$_Compressed_pair@U?$_Wrap_alloc@V?$allocator@UMovingTile@@@std@@@std@@V?$_Vector_val@U?$_Simple_types@UMovingTile@@@std@@@2@$00@std@@QAE@XZ
	mov	ecx, DWORD PTR __$EHRec$[ebp]
	mov	DWORD PTR fs:0, ecx
	pop	ecx
	pop	edi
	pop	esi
	pop	ebx
	add	esp, 216				; 000000d8H
	cmp	ebp, esp
	call	__RTC_CheckEsp
	mov	esp, ebp
	pop	ebp
	ret	0
_TEXT	ENDS
;	COMDAT text$x
text$x	SEGMENT
__ehhandler$??1?$_Vector_alloc@U?$_Vec_base_types@UMovingTile@@V?$allocator@UMovingTile@@@std@@@std@@@std@@QAE@XZ:
	mov	edx, DWORD PTR [esp+8]
	lea	eax, DWORD PTR [edx+12]
	mov	ecx, DWORD PTR [edx-220]
	xor	ecx, eax
	call	@__security_check_cookie@4
	mov	eax, OFFSET __ehfuncinfo$??1?$_Vector_alloc@U?$_Vec_base_types@UMovingTile@@V?$allocator@UMovingTile@@@std@@@std@@@std@@QAE@XZ
	jmp	___CxxFrameHandler3
text$x	ENDS
??1?$_Vector_alloc@U?$_Vec_base_types@UMovingTile@@V?$allocator@UMovingTile@@@std@@@std@@@std@@QAE@XZ ENDP ; std::_Vector_alloc<std::_Vec_base_types<MovingTile,std::allocator<MovingTile> > >::~_Vector_alloc<std::_Vec_base_types<MovingTile,std::allocator<MovingTile> > >
; Function compile flags: /Odtp /RTCsu /ZI
; File c:\program files (x86)\microsoft visual studio 14.0\vc\include\vector
;	COMDAT ??0?$_Vector_alloc@U?$_Vec_base_types@UMovingTile@@V?$allocator@UMovingTile@@@std@@@std@@@std@@QAE@XZ
_TEXT	SEGMENT
$T2 = -221						; size = 1
_this$ = -20						; size = 4
__$EHRec$ = -12						; size = 12
??0?$_Vector_alloc@U?$_Vec_base_types@UMovingTile@@V?$allocator@UMovingTile@@@std@@@std@@@std@@QAE@XZ PROC ; std::_Vector_alloc<std::_Vec_base_types<MovingTile,std::allocator<MovingTile> > >::_Vector_alloc<std::_Vec_base_types<MovingTile,std::allocator<MovingTile> > >, COMDAT
; _this$ = ecx

; 542  : 		{	// default construct allocator

	push	ebp
	mov	ebp, esp
	push	-1
	push	__ehhandler$??0?$_Vector_alloc@U?$_Vec_base_types@UMovingTile@@V?$allocator@UMovingTile@@@std@@@std@@@std@@QAE@XZ
	mov	eax, DWORD PTR fs:0
	push	eax
	sub	esp, 216				; 000000d8H
	push	ebx
	push	esi
	push	edi
	push	ecx
	lea	edi, DWORD PTR [ebp-228]
	mov	ecx, 54					; 00000036H
	mov	eax, -858993460				; ccccccccH
	rep stosd
	pop	ecx
	mov	eax, DWORD PTR ___security_cookie
	xor	eax, ebp
	push	eax
	lea	eax, DWORD PTR __$EHRec$[ebp]
	mov	DWORD PTR fs:0, eax
	mov	DWORD PTR _this$[ebp], ecx

; 541  : 		: _Mypair(_Zero_then_variadic_args_t())

	movzx	eax, BYTE PTR $T2[ebp]
	push	eax
	mov	ecx, DWORD PTR _this$[ebp]
	call	??$?0$$V@?$_Compressed_pair@U?$_Wrap_alloc@V?$allocator@UMovingTile@@@std@@@std@@V?$_Vector_val@U?$_Simple_types@UMovingTile@@@std@@@2@$00@std@@QAE@U_Zero_then_variadic_args_t@1@@Z ; std::_Compressed_pair<std::_Wrap_alloc<std::allocator<MovingTile> >,std::_Vector_val<std::_Simple_types<MovingTile> >,1>::_Compressed_pair<std::_Wrap_alloc<std::allocator<MovingTile> >,std::_Vector_val<std::_Simple_types<MovingTile> >,1><>
	mov	DWORD PTR __$EHRec$[ebp+8], 0

; 543  : 		_Alloc_proxy();

	mov	ecx, DWORD PTR _this$[ebp]
	call	?_Alloc_proxy@?$_Vector_alloc@U?$_Vec_base_types@UMovingTile@@V?$allocator@UMovingTile@@@std@@@std@@@std@@QAEXXZ ; std::_Vector_alloc<std::_Vec_base_types<MovingTile,std::allocator<MovingTile> > >::_Alloc_proxy

; 544  : 		}

	mov	DWORD PTR __$EHRec$[ebp+8], -1
	mov	eax, DWORD PTR _this$[ebp]
	mov	ecx, DWORD PTR __$EHRec$[ebp]
	mov	DWORD PTR fs:0, ecx
	pop	ecx
	pop	edi
	pop	esi
	pop	ebx
	add	esp, 228				; 000000e4H
	cmp	ebp, esp
	call	__RTC_CheckEsp
	mov	esp, ebp
	pop	ebp
	ret	0
_TEXT	ENDS
;	COMDAT text$x
text$x	SEGMENT
__unwindfunclet$??0?$_Vector_alloc@U?$_Vec_base_types@UMovingTile@@V?$allocator@UMovingTile@@@std@@@std@@@std@@QAE@XZ$0:
	mov	ecx, DWORD PTR _this$[ebp]
	jmp	??1?$_Compressed_pair@U?$_Wrap_alloc@V?$allocator@UMovingTile@@@std@@@std@@V?$_Vector_val@U?$_Simple_types@UMovingTile@@@std@@@2@$00@std@@QAE@XZ
__ehhandler$??0?$_Vector_alloc@U?$_Vec_base_types@UMovingTile@@V?$allocator@UMovingTile@@@std@@@std@@@std@@QAE@XZ:
	mov	edx, DWORD PTR [esp+8]
	lea	eax, DWORD PTR [edx+12]
	mov	ecx, DWORD PTR [edx-232]
	xor	ecx, eax
	call	@__security_check_cookie@4
	mov	eax, OFFSET __ehfuncinfo$??0?$_Vector_alloc@U?$_Vec_base_types@UMovingTile@@V?$allocator@UMovingTile@@@std@@@std@@@std@@QAE@XZ
	jmp	___CxxFrameHandler3
text$x	ENDS
??0?$_Vector_alloc@U?$_Vec_base_types@UMovingTile@@V?$allocator@UMovingTile@@@std@@@std@@@std@@QAE@XZ ENDP ; std::_Vector_alloc<std::_Vec_base_types<MovingTile,std::allocator<MovingTile> > >::_Vector_alloc<std::_Vec_base_types<MovingTile,std::allocator<MovingTile> > >
; Function compile flags: /Odtp /RTCsu /ZI
; File c:\program files (x86)\microsoft visual studio 14.0\vc\include\xmemory0
;	COMDAT ?max_size@?$_Wrap_alloc@V?$allocator@UMovingTile@@@std@@@std@@QBEIU_Nil@2@@Z
_TEXT	SEGMENT
_this$ = -8						; size = 4
___formal$ = 8						; size = 1
?max_size@?$_Wrap_alloc@V?$allocator@UMovingTile@@@std@@@std@@QBEIU_Nil@2@@Z PROC ; std::_Wrap_alloc<std::allocator<MovingTile> >::max_size, COMDAT
; _this$ = ecx

; 905  : 		{	// get maximum size

	push	ebp
	mov	ebp, esp
	sub	esp, 204				; 000000ccH
	push	ebx
	push	esi
	push	edi
	push	ecx
	lea	edi, DWORD PTR [ebp-204]
	mov	ecx, 51					; 00000033H
	mov	eax, -858993460				; ccccccccH
	rep stosd
	pop	ecx
	mov	DWORD PTR _this$[ebp], ecx

; 906  : 		return (_Mytraits::max_size(*this));

	mov	eax, DWORD PTR _this$[ebp]
	push	eax
	call	?max_size@?$allocator_traits@V?$allocator@UMovingTile@@@std@@@std@@SAIABV?$allocator@UMovingTile@@@2@@Z ; std::allocator_traits<std::allocator<MovingTile> >::max_size
	add	esp, 4

; 907  : 		}

	pop	edi
	pop	esi
	pop	ebx
	add	esp, 204				; 000000ccH
	cmp	ebp, esp
	call	__RTC_CheckEsp
	mov	esp, ebp
	pop	ebp
	ret	4
?max_size@?$_Wrap_alloc@V?$allocator@UMovingTile@@@std@@@std@@QBEIU_Nil@2@@Z ENDP ; std::_Wrap_alloc<std::allocator<MovingTile> >::max_size
_TEXT	ENDS
; Function compile flags: /Odtp /RTCsu /ZI
; File c:\program files (x86)\microsoft visual studio 14.0\vc\include\xmemory0
;	COMDAT ?deallocate@?$_Wrap_alloc@V?$allocator@UMovingTile@@@std@@@std@@QAEXPAUMovingTile@@I@Z
_TEXT	SEGMENT
_this$ = -8						; size = 4
__Ptr$ = 8						; size = 4
__Count$ = 12						; size = 4
?deallocate@?$_Wrap_alloc@V?$allocator@UMovingTile@@@std@@@std@@QAEXPAUMovingTile@@I@Z PROC ; std::_Wrap_alloc<std::allocator<MovingTile> >::deallocate, COMDAT
; _this$ = ecx

; 884  : 		{	// deallocate object at _Ptr, ignore size

	push	ebp
	mov	ebp, esp
	sub	esp, 204				; 000000ccH
	push	ebx
	push	esi
	push	edi
	push	ecx
	lea	edi, DWORD PTR [ebp-204]
	mov	ecx, 51					; 00000033H
	mov	eax, -858993460				; ccccccccH
	rep stosd
	pop	ecx
	mov	DWORD PTR _this$[ebp], ecx

; 885  : 		_Mybase::deallocate(_Ptr, _Count);

	mov	eax, DWORD PTR __Count$[ebp]
	push	eax
	mov	ecx, DWORD PTR __Ptr$[ebp]
	push	ecx
	mov	ecx, DWORD PTR _this$[ebp]
	call	?deallocate@?$allocator@UMovingTile@@@std@@QAEXPAUMovingTile@@I@Z ; std::allocator<MovingTile>::deallocate

; 886  : 		}

	pop	edi
	pop	esi
	pop	ebx
	add	esp, 204				; 000000ccH
	cmp	ebp, esp
	call	__RTC_CheckEsp
	mov	esp, ebp
	pop	ebp
	ret	8
?deallocate@?$_Wrap_alloc@V?$allocator@UMovingTile@@@std@@@std@@QAEXPAUMovingTile@@I@Z ENDP ; std::_Wrap_alloc<std::allocator<MovingTile> >::deallocate
_TEXT	ENDS
; Function compile flags: /Odtp /RTCsu /ZI
; File c:\program files (x86)\microsoft visual studio 14.0\vc\include\xmemory0
;	COMDAT ?allocate@?$_Wrap_alloc@V?$allocator@UMovingTile@@@std@@@std@@QAEPAUMovingTile@@I@Z
_TEXT	SEGMENT
_this$ = -8						; size = 4
__Count$ = 8						; size = 4
?allocate@?$_Wrap_alloc@V?$allocator@UMovingTile@@@std@@@std@@QAEPAUMovingTile@@I@Z PROC ; std::_Wrap_alloc<std::allocator<MovingTile> >::allocate, COMDAT
; _this$ = ecx

; 873  : 		{	// allocate array of _Count elements

	push	ebp
	mov	ebp, esp
	sub	esp, 204				; 000000ccH
	push	ebx
	push	esi
	push	edi
	push	ecx
	lea	edi, DWORD PTR [ebp-204]
	mov	ecx, 51					; 00000033H
	mov	eax, -858993460				; ccccccccH
	rep stosd
	pop	ecx
	mov	DWORD PTR _this$[ebp], ecx

; 874  : 		return (_Mybase::allocate(_Count));

	mov	eax, DWORD PTR __Count$[ebp]
	push	eax
	mov	ecx, DWORD PTR _this$[ebp]
	call	?allocate@?$allocator@UMovingTile@@@std@@QAEPAUMovingTile@@I@Z ; std::allocator<MovingTile>::allocate

; 875  : 		}

	pop	edi
	pop	esi
	pop	ebx
	add	esp, 204				; 000000ccH
	cmp	ebp, esp
	call	__RTC_CheckEsp
	mov	esp, ebp
	pop	ebp
	ret	4
?allocate@?$_Wrap_alloc@V?$allocator@UMovingTile@@@std@@@std@@QAEPAUMovingTile@@I@Z ENDP ; std::_Wrap_alloc<std::allocator<MovingTile> >::allocate
_TEXT	ENDS
; Function compile flags: /Odtp /RTCsu /ZI
; File c:\program files (x86)\microsoft visual studio 14.0\vc\include\xmemory0
;	COMDAT ??0?$_Wrap_alloc@V?$allocator@UMovingTile@@@std@@@std@@QAE@XZ
_TEXT	SEGMENT
_this$ = -8						; size = 4
??0?$_Wrap_alloc@V?$allocator@UMovingTile@@@std@@@std@@QAE@XZ PROC ; std::_Wrap_alloc<std::allocator<MovingTile> >::_Wrap_alloc<std::allocator<MovingTile> >, COMDAT
; _this$ = ecx

; 834  : 		{	// construct default allocator (do nothing)

	push	ebp
	mov	ebp, esp
	sub	esp, 204				; 000000ccH
	push	ebx
	push	esi
	push	edi
	push	ecx
	lea	edi, DWORD PTR [ebp-204]
	mov	ecx, 51					; 00000033H
	mov	eax, -858993460				; ccccccccH
	rep stosd
	pop	ecx
	mov	DWORD PTR _this$[ebp], ecx

; 833  : 		: _Mybase()

	mov	ecx, DWORD PTR _this$[ebp]
	call	??0?$allocator@UMovingTile@@@std@@QAE@XZ ; std::allocator<MovingTile>::allocator<MovingTile>

; 835  : 		}

	mov	eax, DWORD PTR _this$[ebp]
	pop	edi
	pop	esi
	pop	ebx
	add	esp, 204				; 000000ccH
	cmp	ebp, esp
	call	__RTC_CheckEsp
	mov	esp, ebp
	pop	ebp
	ret	0
??0?$_Wrap_alloc@V?$allocator@UMovingTile@@@std@@@std@@QAE@XZ ENDP ; std::_Wrap_alloc<std::allocator<MovingTile> >::_Wrap_alloc<std::allocator<MovingTile> >
_TEXT	ENDS
; Function compile flags: /Odtp /RTCsu /ZI
; File c:\program files (x86)\microsoft visual studio 14.0\vc\include\xmemory0
;	COMDAT ?max_size@?$allocator_traits@V?$allocator@UMovingTile@@@std@@@std@@SAIABV?$allocator@UMovingTile@@@2@@Z
_TEXT	SEGMENT
__Al$ = 8						; size = 4
?max_size@?$allocator_traits@V?$allocator@UMovingTile@@@std@@@std@@SAIABV?$allocator@UMovingTile@@@2@@Z PROC ; std::allocator_traits<std::allocator<MovingTile> >::max_size, COMDAT

; 766  : 		{	// get maximum size

	push	ebp
	mov	ebp, esp
	sub	esp, 192				; 000000c0H
	push	ebx
	push	esi
	push	edi
	lea	edi, DWORD PTR [ebp-192]
	mov	ecx, 48					; 00000030H
	mov	eax, -858993460				; ccccccccH
	rep stosd

; 767  : 		return (_Al.max_size());

	mov	ecx, DWORD PTR __Al$[ebp]
	call	?max_size@?$allocator@UMovingTile@@@std@@QBEIXZ ; std::allocator<MovingTile>::max_size

; 768  : 		}

	pop	edi
	pop	esi
	pop	ebx
	add	esp, 192				; 000000c0H
	cmp	ebp, esp
	call	__RTC_CheckEsp
	mov	esp, ebp
	pop	ebp
	ret	0
?max_size@?$allocator_traits@V?$allocator@UMovingTile@@@std@@@std@@SAIABV?$allocator@UMovingTile@@@2@@Z ENDP ; std::allocator_traits<std::allocator<MovingTile> >::max_size
_TEXT	ENDS
; Function compile flags: /Odtp /RTCsu /ZI
; File c:\program files (x86)\microsoft visual studio 14.0\vc\include\xmemory0
;	COMDAT ?max_size@?$allocator@UMovingTile@@@std@@QBEIXZ
_TEXT	SEGMENT
_this$ = -8						; size = 4
?max_size@?$allocator@UMovingTile@@@std@@QBEIXZ PROC	; std::allocator<MovingTile>::max_size, COMDAT
; _this$ = ecx

; 648  : 		{	// estimate maximum array size

	push	ebp
	mov	ebp, esp
	sub	esp, 204				; 000000ccH
	push	ebx
	push	esi
	push	edi
	push	ecx
	lea	edi, DWORD PTR [ebp-204]
	mov	ecx, 51					; 00000033H
	mov	eax, -858993460				; ccccccccH
	rep stosd
	pop	ecx
	mov	DWORD PTR _this$[ebp], ecx

; 649  : 		return ((size_t)(-1) / sizeof (_Ty));

	mov	eax, 89478485				; 05555555H

; 650  : 		}

	pop	edi
	pop	esi
	pop	ebx
	mov	esp, ebp
	pop	ebp
	ret	0
?max_size@?$allocator@UMovingTile@@@std@@QBEIXZ ENDP	; std::allocator<MovingTile>::max_size
_TEXT	ENDS
; Function compile flags: /Odtp /RTCsu /ZI
; File c:\program files (x86)\microsoft visual studio 14.0\vc\include\xmemory0
;	COMDAT ?allocate@?$allocator@UMovingTile@@@std@@QAEPAUMovingTile@@I@Z
_TEXT	SEGMENT
_this$ = -8						; size = 4
__Count$ = 8						; size = 4
?allocate@?$allocator@UMovingTile@@@std@@QAEPAUMovingTile@@I@Z PROC ; std::allocator<MovingTile>::allocate, COMDAT
; _this$ = ecx

; 624  : 		{	// allocate array of _Count elements

	push	ebp
	mov	ebp, esp
	sub	esp, 204				; 000000ccH
	push	ebx
	push	esi
	push	edi
	push	ecx
	lea	edi, DWORD PTR [ebp-204]
	mov	ecx, 51					; 00000033H
	mov	eax, -858993460				; ccccccccH
	rep stosd
	pop	ecx
	mov	DWORD PTR _this$[ebp], ecx

; 625  : 		return (static_cast<pointer>(_Allocate(_Count, sizeof (_Ty))));

	push	1
	push	48					; 00000030H
	mov	eax, DWORD PTR __Count$[ebp]
	push	eax
	call	?_Allocate@std@@YAPAXII_N@Z		; std::_Allocate
	add	esp, 12					; 0000000cH

; 626  : 		}

	pop	edi
	pop	esi
	pop	ebx
	add	esp, 204				; 000000ccH
	cmp	ebp, esp
	call	__RTC_CheckEsp
	mov	esp, ebp
	pop	ebp
	ret	4
?allocate@?$allocator@UMovingTile@@@std@@QAEPAUMovingTile@@I@Z ENDP ; std::allocator<MovingTile>::allocate
_TEXT	ENDS
; Function compile flags: /Odtp /RTCsu /ZI
; File c:\program files (x86)\microsoft visual studio 14.0\vc\include\xmemory0
;	COMDAT ?deallocate@?$allocator@UMovingTile@@@std@@QAEXPAUMovingTile@@I@Z
_TEXT	SEGMENT
_this$ = -8						; size = 4
__Ptr$ = 8						; size = 4
__Count$ = 12						; size = 4
?deallocate@?$allocator@UMovingTile@@@std@@QAEXPAUMovingTile@@I@Z PROC ; std::allocator<MovingTile>::deallocate, COMDAT
; _this$ = ecx

; 619  : 		{	// deallocate object at _Ptr

	push	ebp
	mov	ebp, esp
	sub	esp, 204				; 000000ccH
	push	ebx
	push	esi
	push	edi
	push	ecx
	lea	edi, DWORD PTR [ebp-204]
	mov	ecx, 51					; 00000033H
	mov	eax, -858993460				; ccccccccH
	rep stosd
	pop	ecx
	mov	DWORD PTR _this$[ebp], ecx

; 620  : 		_Deallocate(_Ptr, _Count, sizeof (_Ty));

	push	48					; 00000030H
	mov	eax, DWORD PTR __Count$[ebp]
	push	eax
	mov	ecx, DWORD PTR __Ptr$[ebp]
	push	ecx
	call	?_Deallocate@std@@YAXPAXII@Z		; std::_Deallocate
	add	esp, 12					; 0000000cH

; 621  : 		}

	pop	edi
	pop	esi
	pop	ebx
	add	esp, 204				; 000000ccH
	cmp	ebp, esp
	call	__RTC_CheckEsp
	mov	esp, ebp
	pop	ebp
	ret	8
?deallocate@?$allocator@UMovingTile@@@std@@QAEXPAUMovingTile@@I@Z ENDP ; std::allocator<MovingTile>::deallocate
_TEXT	ENDS
; Function compile flags: /Odtp /RTCsu /ZI
; File c:\program files (x86)\microsoft visual studio 14.0\vc\include\xmemory0
;	COMDAT ??0?$allocator@UMovingTile@@@std@@QAE@XZ
_TEXT	SEGMENT
_this$ = -8						; size = 4
??0?$allocator@UMovingTile@@@std@@QAE@XZ PROC		; std::allocator<MovingTile>::allocator<MovingTile>, COMDAT
; _this$ = ecx

; 599  : 	allocator() _THROW0()

	push	ebp
	mov	ebp, esp
	sub	esp, 204				; 000000ccH
	push	ebx
	push	esi
	push	edi
	push	ecx
	lea	edi, DWORD PTR [ebp-204]
	mov	ecx, 51					; 00000033H
	mov	eax, -858993460				; ccccccccH
	rep stosd
	pop	ecx
	mov	DWORD PTR _this$[ebp], ecx

; 600  : 		{	// construct default allocator (do nothing)
; 601  : 		}

	mov	eax, DWORD PTR _this$[ebp]
	pop	edi
	pop	esi
	pop	ebx
	mov	esp, ebp
	pop	ebp
	ret	0
??0?$allocator@UMovingTile@@@std@@QAE@XZ ENDP		; std::allocator<MovingTile>::allocator<MovingTile>
_TEXT	ENDS
; Function compile flags: /Odtp /RTCsu /ZI
;	COMDAT ??__FpushTileMap@@YAXXZ
text$yd	SEGMENT
??__FpushTileMap@@YAXXZ PROC				; `dynamic atexit destructor for 'pushTileMap'', COMDAT
	push	ebp
	mov	ebp, esp
	sub	esp, 192				; 000000c0H
	push	ebx
	push	esi
	push	edi
	lea	edi, DWORD PTR [ebp-192]
	mov	ecx, 48					; 00000030H
	mov	eax, -858993460				; ccccccccH
	rep stosd
	mov	ecx, OFFSET ?pushTileMap@@3V?$vector@UPushTile@@V?$allocator@UPushTile@@@std@@@std@@A ; pushTileMap
	call	??1?$vector@UPushTile@@V?$allocator@UPushTile@@@std@@@std@@QAE@XZ ; std::vector<PushTile,std::allocator<PushTile> >::~vector<PushTile,std::allocator<PushTile> >
	pop	edi
	pop	esi
	pop	ebx
	add	esp, 192				; 000000c0H
	cmp	ebp, esp
	call	__RTC_CheckEsp
	mov	esp, ebp
	pop	ebp
	ret	0
??__FpushTileMap@@YAXXZ ENDP				; `dynamic atexit destructor for 'pushTileMap''
text$yd	ENDS
; Function compile flags: /Odtp /RTCsu /ZI
; File g:\projects\lotion\lotion\environment.cpp
;	COMDAT ??__EpushTileMap@@YAXXZ
text$di	SEGMENT
??__EpushTileMap@@YAXXZ PROC				; `dynamic initializer for 'pushTileMap'', COMDAT

; 6    : std::vector<PushTile> pushTileMap;

	push	ebp
	mov	ebp, esp
	sub	esp, 192				; 000000c0H
	push	ebx
	push	esi
	push	edi
	lea	edi, DWORD PTR [ebp-192]
	mov	ecx, 48					; 00000030H
	mov	eax, -858993460				; ccccccccH
	rep stosd
	push	16					; 00000010H
	mov	ecx, OFFSET ?pushTileMap@@3V?$vector@UPushTile@@V?$allocator@UPushTile@@@std@@@std@@A ; pushTileMap
	call	?__autoclassinit2@?$vector@UPushTile@@V?$allocator@UPushTile@@@std@@@std@@QAEXI@Z
	mov	ecx, OFFSET ?pushTileMap@@3V?$vector@UPushTile@@V?$allocator@UPushTile@@@std@@@std@@A ; pushTileMap
	call	??0?$vector@UPushTile@@V?$allocator@UPushTile@@@std@@@std@@QAE@XZ ; std::vector<PushTile,std::allocator<PushTile> >::vector<PushTile,std::allocator<PushTile> >
	push	OFFSET ??__FpushTileMap@@YAXXZ		; `dynamic atexit destructor for 'pushTileMap''
	call	_atexit
	add	esp, 4
	pop	edi
	pop	esi
	pop	ebx
	add	esp, 192				; 000000c0H
	cmp	ebp, esp
	call	__RTC_CheckEsp
	mov	esp, ebp
	pop	ebp
	ret	0
??__EpushTileMap@@YAXXZ ENDP				; `dynamic initializer for 'pushTileMap''
text$di	ENDS
; Function compile flags: /Odtp /RTCsu /ZI
;	COMDAT ??__FtileMap@@YAXXZ
text$yd	SEGMENT
??__FtileMap@@YAXXZ PROC				; `dynamic atexit destructor for 'tileMap'', COMDAT
	push	ebp
	mov	ebp, esp
	sub	esp, 192				; 000000c0H
	push	ebx
	push	esi
	push	edi
	lea	edi, DWORD PTR [ebp-192]
	mov	ecx, 48					; 00000030H
	mov	eax, -858993460				; ccccccccH
	rep stosd
	mov	ecx, OFFSET ?tileMap@@3V?$vector@UTile@@V?$allocator@UTile@@@std@@@std@@A ; tileMap
	call	??1?$vector@UTile@@V?$allocator@UTile@@@std@@@std@@QAE@XZ ; std::vector<Tile,std::allocator<Tile> >::~vector<Tile,std::allocator<Tile> >
	pop	edi
	pop	esi
	pop	ebx
	add	esp, 192				; 000000c0H
	cmp	ebp, esp
	call	__RTC_CheckEsp
	mov	esp, ebp
	pop	ebp
	ret	0
??__FtileMap@@YAXXZ ENDP				; `dynamic atexit destructor for 'tileMap''
text$yd	ENDS
; Function compile flags: /Odtp /RTCsu /ZI
; File g:\projects\lotion\lotion\environment.cpp
;	COMDAT ??__EtileMap@@YAXXZ
text$di	SEGMENT
??__EtileMap@@YAXXZ PROC				; `dynamic initializer for 'tileMap'', COMDAT

; 5    : std::vector<Tile> tileMap;

	push	ebp
	mov	ebp, esp
	sub	esp, 192				; 000000c0H
	push	ebx
	push	esi
	push	edi
	lea	edi, DWORD PTR [ebp-192]
	mov	ecx, 48					; 00000030H
	mov	eax, -858993460				; ccccccccH
	rep stosd
	push	16					; 00000010H
	mov	ecx, OFFSET ?tileMap@@3V?$vector@UTile@@V?$allocator@UTile@@@std@@@std@@A ; tileMap
	call	?__autoclassinit2@?$vector@UTile@@V?$allocator@UTile@@@std@@@std@@QAEXI@Z
	mov	ecx, OFFSET ?tileMap@@3V?$vector@UTile@@V?$allocator@UTile@@@std@@@std@@A ; tileMap
	call	??0?$vector@UTile@@V?$allocator@UTile@@@std@@@std@@QAE@XZ ; std::vector<Tile,std::allocator<Tile> >::vector<Tile,std::allocator<Tile> >
	push	OFFSET ??__FtileMap@@YAXXZ		; `dynamic atexit destructor for 'tileMap''
	call	_atexit
	add	esp, 4
	pop	edi
	pop	esi
	pop	ebx
	add	esp, 192				; 000000c0H
	cmp	ebp, esp
	call	__RTC_CheckEsp
	mov	esp, ebp
	pop	ebp
	ret	0
??__EtileMap@@YAXXZ ENDP				; `dynamic initializer for 'tileMap''
text$di	ENDS
; Function compile flags: /Odtp /RTCsu /ZI
;	COMDAT ?__autoclassinit2@?$vector@UTile@@V?$allocator@UTile@@@std@@@std@@QAEXI@Z
_TEXT	SEGMENT
_this$ = -8						; size = 4
_classSize$ = 8						; size = 4
?__autoclassinit2@?$vector@UTile@@V?$allocator@UTile@@@std@@@std@@QAEXI@Z PROC ; std::vector<Tile,std::allocator<Tile> >::__autoclassinit2, COMDAT
; _this$ = ecx
	push	ebp
	mov	ebp, esp
	sub	esp, 204				; 000000ccH
	push	ebx
	push	esi
	push	edi
	push	ecx
	lea	edi, DWORD PTR [ebp-204]
	mov	ecx, 51					; 00000033H
	mov	eax, -858993460				; ccccccccH
	rep stosd
	pop	ecx
	mov	DWORD PTR _this$[ebp], ecx
	mov	eax, DWORD PTR _classSize$[ebp]
	push	eax
	push	0
	mov	ecx, DWORD PTR _this$[ebp]
	push	ecx
	call	_memset
	add	esp, 12					; 0000000cH
	pop	edi
	pop	esi
	pop	ebx
	add	esp, 204				; 000000ccH
	cmp	ebp, esp
	call	__RTC_CheckEsp
	mov	esp, ebp
	pop	ebp
	ret	4
?__autoclassinit2@?$vector@UTile@@V?$allocator@UTile@@@std@@@std@@QAEXI@Z ENDP ; std::vector<Tile,std::allocator<Tile> >::__autoclassinit2
_TEXT	ENDS
; Function compile flags: /Odtp /RTCsu /ZI
; File c:\program files (x86)\microsoft visual studio 14.0\vc\include\vector
;	COMDAT ?_Orphan_range@?$vector@UTile@@V?$allocator@UTile@@@std@@@std@@IBEXPAUTile@@0@Z
_TEXT	SEGMENT
__Pnext$ = -48						; size = 4
__Lock$ = -36						; size = 4
_this$ = -24						; size = 4
__$ArrayPad$ = -16					; size = 4
__$EHRec$ = -12						; size = 12
__First$ = 8						; size = 4
__Last$ = 12						; size = 4
?_Orphan_range@?$vector@UTile@@V?$allocator@UTile@@@std@@@std@@IBEXPAUTile@@0@Z PROC ; std::vector<Tile,std::allocator<Tile> >::_Orphan_range, COMDAT
; _this$ = ecx

; 1798 : 		{	// orphan iterators within specified (inclusive) range

	push	ebp
	mov	ebp, esp
	push	-1
	push	__ehhandler$?_Orphan_range@?$vector@UTile@@V?$allocator@UTile@@@std@@@std@@IBEXPAUTile@@0@Z
	mov	eax, DWORD PTR fs:0
	push	eax
	sub	esp, 232				; 000000e8H
	push	ebx
	push	esi
	push	edi
	push	ecx
	lea	edi, DWORD PTR [ebp-244]
	mov	ecx, 58					; 0000003aH
	mov	eax, -858993460				; ccccccccH
	rep stosd
	pop	ecx
	mov	eax, DWORD PTR ___security_cookie
	xor	eax, ebp
	mov	DWORD PTR __$ArrayPad$[ebp], eax
	push	eax
	lea	eax, DWORD PTR __$EHRec$[ebp]
	mov	DWORD PTR fs:0, eax
	mov	DWORD PTR _this$[ebp], ecx

; 1799 : 		_Lockit _Lock(_LOCK_DEBUG);

	mov	esi, esp
	push	3
	lea	ecx, DWORD PTR __Lock$[ebp]
	call	DWORD PTR __imp_??0_Lockit@std@@QAE@H@Z
	cmp	esi, esp
	call	__RTC_CheckEsp
	mov	DWORD PTR __$EHRec$[ebp+8], 0

; 1800 : 		const_iterator **_Pnext = (const_iterator **)this->_Getpfirst();

	mov	ecx, DWORD PTR _this$[ebp]
	call	?_Getpfirst@?$_Vector_alloc@U?$_Vec_base_types@UTile@@V?$allocator@UTile@@@std@@@std@@@std@@QBEPAPAU_Iterator_base12@2@XZ ; std::_Vector_alloc<std::_Vec_base_types<Tile,std::allocator<Tile> > >::_Getpfirst
	mov	DWORD PTR __Pnext$[ebp], eax

; 1801 : 		if (_Pnext != 0)

	cmp	DWORD PTR __Pnext$[ebp], 0
	je	SHORT $LN4@Orphan_ran
$LN2@Orphan_ran:

; 1802 : 			{	// test an iterator
; 1803 : 			while (*_Pnext != 0)

	mov	eax, DWORD PTR __Pnext$[ebp]
	cmp	DWORD PTR [eax], 0
	je	SHORT $LN4@Orphan_ran

; 1804 : 				if ((*_Pnext)->_Ptr < _First || _Last < (*_Pnext)->_Ptr)

	mov	eax, DWORD PTR __Pnext$[ebp]
	mov	ecx, DWORD PTR [eax]
	mov	edx, DWORD PTR [ecx+8]
	cmp	edx, DWORD PTR __First$[ebp]
	jb	SHORT $LN7@Orphan_ran
	mov	eax, DWORD PTR __Pnext$[ebp]
	mov	ecx, DWORD PTR [eax]
	mov	edx, DWORD PTR __Last$[ebp]
	cmp	edx, DWORD PTR [ecx+8]
	jae	SHORT $LN5@Orphan_ran
$LN7@Orphan_ran:

; 1805 : 					_Pnext = (const_iterator **)(*_Pnext)->_Getpnext();

	mov	eax, DWORD PTR __Pnext$[ebp]
	mov	ecx, DWORD PTR [eax]
	call	?_Getpnext@_Iterator_base12@std@@QAEPAPAU12@XZ ; std::_Iterator_base12::_Getpnext
	mov	DWORD PTR __Pnext$[ebp], eax

; 1806 : 				else

	jmp	SHORT $LN6@Orphan_ran
$LN5@Orphan_ran:

; 1807 : 					{	// orphan the iterator
; 1808 : 					(*_Pnext)->_Clrcont();

	mov	eax, DWORD PTR __Pnext$[ebp]
	mov	ecx, DWORD PTR [eax]
	call	?_Clrcont@_Iterator_base12@std@@QAEXXZ	; std::_Iterator_base12::_Clrcont

; 1809 : 					*_Pnext = *(const_iterator **)(*_Pnext)->_Getpnext();

	mov	eax, DWORD PTR __Pnext$[ebp]
	mov	ecx, DWORD PTR [eax]
	call	?_Getpnext@_Iterator_base12@std@@QAEPAPAU12@XZ ; std::_Iterator_base12::_Getpnext
	mov	ecx, DWORD PTR __Pnext$[ebp]
	mov	edx, DWORD PTR [eax]
	mov	DWORD PTR [ecx], edx
$LN6@Orphan_ran:

; 1810 : 					}

	jmp	SHORT $LN2@Orphan_ran
$LN4@Orphan_ran:

; 1811 : 			}
; 1812 : 		}

	mov	DWORD PTR __$EHRec$[ebp+8], -1
	mov	esi, esp
	lea	ecx, DWORD PTR __Lock$[ebp]
	call	DWORD PTR __imp_??1_Lockit@std@@QAE@XZ
	cmp	esi, esp
	call	__RTC_CheckEsp
	push	edx
	mov	ecx, ebp
	push	eax
	lea	edx, DWORD PTR $LN13@Orphan_ran
	call	@_RTC_CheckStackVars@8
	pop	eax
	pop	edx
	mov	ecx, DWORD PTR __$EHRec$[ebp]
	mov	DWORD PTR fs:0, ecx
	pop	ecx
	pop	edi
	pop	esi
	pop	ebx
	mov	ecx, DWORD PTR __$ArrayPad$[ebp]
	xor	ecx, ebp
	call	@__security_check_cookie@4
	add	esp, 244				; 000000f4H
	cmp	ebp, esp
	call	__RTC_CheckEsp
	mov	esp, ebp
	pop	ebp
	ret	8
$LN13@Orphan_ran:
	DD	1
	DD	$LN12@Orphan_ran
$LN12@Orphan_ran:
	DD	-36					; ffffffdcH
	DD	4
	DD	$LN10@Orphan_ran
$LN10@Orphan_ran:
	DB	95					; 0000005fH
	DB	76					; 0000004cH
	DB	111					; 0000006fH
	DB	99					; 00000063H
	DB	107					; 0000006bH
	DB	0
_TEXT	ENDS
;	COMDAT text$x
text$x	SEGMENT
__unwindfunclet$?_Orphan_range@?$vector@UTile@@V?$allocator@UTile@@@std@@@std@@IBEXPAUTile@@0@Z$0:
	mov	esi, esp
	lea	ecx, DWORD PTR __Lock$[ebp]
	call	DWORD PTR __imp_??1_Lockit@std@@QAE@XZ
	cmp	esi, esp
	jmp	__RTC_CheckEsp
__ehhandler$?_Orphan_range@?$vector@UTile@@V?$allocator@UTile@@@std@@@std@@IBEXPAUTile@@0@Z:
	mov	edx, DWORD PTR [esp+8]
	lea	eax, DWORD PTR [edx+12]
	mov	ecx, DWORD PTR [edx-248]
	xor	ecx, eax
	call	@__security_check_cookie@4
	mov	ecx, DWORD PTR [edx-4]
	xor	ecx, eax
	call	@__security_check_cookie@4
	mov	eax, OFFSET __ehfuncinfo$?_Orphan_range@?$vector@UTile@@V?$allocator@UTile@@@std@@@std@@IBEXPAUTile@@0@Z
	jmp	___CxxFrameHandler3
text$x	ENDS
?_Orphan_range@?$vector@UTile@@V?$allocator@UTile@@@std@@@std@@IBEXPAUTile@@0@Z ENDP ; std::vector<Tile,std::allocator<Tile> >::_Orphan_range
; Function compile flags: /Odtp /RTCsu /ZI
; File c:\program files (x86)\microsoft visual studio 14.0\vc\include\vector
;	COMDAT ?_Xlen@?$vector@UTile@@V?$allocator@UTile@@@std@@@std@@IBEXXZ
_TEXT	SEGMENT
_this$ = -8						; size = 4
?_Xlen@?$vector@UTile@@V?$allocator@UTile@@@std@@@std@@IBEXXZ PROC ; std::vector<Tile,std::allocator<Tile> >::_Xlen, COMDAT
; _this$ = ecx

; 1787 : 		{	// report a length_error

	push	ebp
	mov	ebp, esp
	sub	esp, 204				; 000000ccH
	push	ebx
	push	esi
	push	edi
	push	ecx
	lea	edi, DWORD PTR [ebp-204]
	mov	ecx, 51					; 00000033H
	mov	eax, -858993460				; ccccccccH
	rep stosd
	pop	ecx
	mov	DWORD PTR _this$[ebp], ecx

; 1788 : 		_Xlength_error("vector<T> too long");

	mov	esi, esp
	push	OFFSET ??_C@_0BD@OLBABOEK@vector?$DMT?$DO?5too?5long?$AA@
	call	DWORD PTR __imp_?_Xlength_error@std@@YAXPBD@Z
	cmp	esi, esp
	call	__RTC_CheckEsp
$LN2@Xlen:

; 1789 : 		}

	pop	edi
	pop	esi
	pop	ebx
	add	esp, 204				; 000000ccH
	cmp	ebp, esp
	call	__RTC_CheckEsp
	mov	esp, ebp
	pop	ebp
	ret	0
?_Xlen@?$vector@UTile@@V?$allocator@UTile@@@std@@@std@@IBEXXZ ENDP ; std::vector<Tile,std::allocator<Tile> >::_Xlen
_TEXT	ENDS
; Function compile flags: /Odtp /RTCsu /ZI
; File c:\program files (x86)\microsoft visual studio 14.0\vc\include\vector
;	COMDAT ?_Tidy@?$vector@UTile@@V?$allocator@UTile@@@std@@@std@@IAEXXZ
_TEXT	SEGMENT
_this$ = -8						; size = 4
?_Tidy@?$vector@UTile@@V?$allocator@UTile@@@std@@@std@@IAEXXZ PROC ; std::vector<Tile,std::allocator<Tile> >::_Tidy, COMDAT
; _this$ = ecx

; 1659 : 		{	// free all storage

	push	ebp
	mov	ebp, esp
	sub	esp, 204				; 000000ccH
	push	ebx
	push	esi
	push	edi
	push	ecx
	lea	edi, DWORD PTR [ebp-204]
	mov	ecx, 51					; 00000033H
	mov	eax, -858993460				; ccccccccH
	rep stosd
	pop	ecx
	mov	DWORD PTR _this$[ebp], ecx

; 1660 : 		if (this->_Myfirst() != pointer())

	mov	ecx, DWORD PTR _this$[ebp]
	call	?_Myfirst@?$_Vector_alloc@U?$_Vec_base_types@UTile@@V?$allocator@UTile@@@std@@@std@@@std@@QAEAAPAUTile@@XZ ; std::_Vector_alloc<std::_Vec_base_types<Tile,std::allocator<Tile> > >::_Myfirst
	cmp	DWORD PTR [eax], 0
	je	$LN1@Tidy

; 1661 : 			{	// something to free, destroy and deallocate it
; 1662 : 			this->_Orphan_all();

	mov	ecx, DWORD PTR _this$[ebp]
	call	?_Orphan_all@?$_Vector_alloc@U?$_Vec_base_types@UTile@@V?$allocator@UTile@@@std@@@std@@@std@@QAEXXZ ; std::_Vector_alloc<std::_Vec_base_types<Tile,std::allocator<Tile> > >::_Orphan_all

; 1663 : 			_Destroy(this->_Myfirst(), this->_Mylast());

	mov	ecx, DWORD PTR _this$[ebp]
	call	?_Mylast@?$_Vector_alloc@U?$_Vec_base_types@UTile@@V?$allocator@UTile@@@std@@@std@@@std@@QAEAAPAUTile@@XZ ; std::_Vector_alloc<std::_Vec_base_types<Tile,std::allocator<Tile> > >::_Mylast
	mov	eax, DWORD PTR [eax]
	push	eax
	mov	ecx, DWORD PTR _this$[ebp]
	call	?_Myfirst@?$_Vector_alloc@U?$_Vec_base_types@UTile@@V?$allocator@UTile@@@std@@@std@@@std@@QAEAAPAUTile@@XZ ; std::_Vector_alloc<std::_Vec_base_types<Tile,std::allocator<Tile> > >::_Myfirst
	mov	ecx, DWORD PTR [eax]
	push	ecx
	mov	ecx, DWORD PTR _this$[ebp]
	call	?_Destroy@?$vector@UTile@@V?$allocator@UTile@@@std@@@std@@IAEXPAUTile@@0@Z ; std::vector<Tile,std::allocator<Tile> >::_Destroy

; 1664 : 			this->_Getal().deallocate(this->_Myfirst(),

	mov	ecx, DWORD PTR _this$[ebp]
	call	?_Myend@?$_Vector_alloc@U?$_Vec_base_types@UTile@@V?$allocator@UTile@@@std@@@std@@@std@@QAEAAPAUTile@@XZ ; std::_Vector_alloc<std::_Vec_base_types<Tile,std::allocator<Tile> > >::_Myend
	mov	esi, eax
	mov	ecx, DWORD PTR _this$[ebp]
	call	?_Myfirst@?$_Vector_alloc@U?$_Vec_base_types@UTile@@V?$allocator@UTile@@@std@@@std@@@std@@QAEAAPAUTile@@XZ ; std::_Vector_alloc<std::_Vec_base_types<Tile,std::allocator<Tile> > >::_Myfirst
	mov	ecx, DWORD PTR [esi]
	sub	ecx, DWORD PTR [eax]
	sar	ecx, 5
	push	ecx
	mov	ecx, DWORD PTR _this$[ebp]
	call	?_Myfirst@?$_Vector_alloc@U?$_Vec_base_types@UTile@@V?$allocator@UTile@@@std@@@std@@@std@@QAEAAPAUTile@@XZ ; std::_Vector_alloc<std::_Vec_base_types<Tile,std::allocator<Tile> > >::_Myfirst
	mov	edx, DWORD PTR [eax]
	push	edx
	mov	ecx, DWORD PTR _this$[ebp]
	call	?_Getal@?$_Vector_alloc@U?$_Vec_base_types@UTile@@V?$allocator@UTile@@@std@@@std@@@std@@QAEAAU?$_Wrap_alloc@V?$allocator@UTile@@@std@@@2@XZ ; std::_Vector_alloc<std::_Vec_base_types<Tile,std::allocator<Tile> > >::_Getal
	mov	ecx, eax
	call	?deallocate@?$_Wrap_alloc@V?$allocator@UTile@@@std@@@std@@QAEXPAUTile@@I@Z ; std::_Wrap_alloc<std::allocator<Tile> >::deallocate

; 1665 : 				this->_Myend() - this->_Myfirst());
; 1666 : 			this->_Myfirst() = pointer();

	mov	ecx, DWORD PTR _this$[ebp]
	call	?_Myfirst@?$_Vector_alloc@U?$_Vec_base_types@UTile@@V?$allocator@UTile@@@std@@@std@@@std@@QAEAAPAUTile@@XZ ; std::_Vector_alloc<std::_Vec_base_types<Tile,std::allocator<Tile> > >::_Myfirst
	mov	DWORD PTR [eax], 0

; 1667 : 			this->_Mylast() = pointer();

	mov	ecx, DWORD PTR _this$[ebp]
	call	?_Mylast@?$_Vector_alloc@U?$_Vec_base_types@UTile@@V?$allocator@UTile@@@std@@@std@@@std@@QAEAAPAUTile@@XZ ; std::_Vector_alloc<std::_Vec_base_types<Tile,std::allocator<Tile> > >::_Mylast
	mov	DWORD PTR [eax], 0

; 1668 : 			this->_Myend() = pointer();

	mov	ecx, DWORD PTR _this$[ebp]
	call	?_Myend@?$_Vector_alloc@U?$_Vec_base_types@UTile@@V?$allocator@UTile@@@std@@@std@@@std@@QAEAAPAUTile@@XZ ; std::_Vector_alloc<std::_Vec_base_types<Tile,std::allocator<Tile> > >::_Myend
	mov	DWORD PTR [eax], 0
$LN1@Tidy:

; 1669 : 			}
; 1670 : 		}

	pop	edi
	pop	esi
	pop	ebx
	add	esp, 204				; 000000ccH
	cmp	ebp, esp
	call	__RTC_CheckEsp
	mov	esp, ebp
	pop	ebp
	ret	0
?_Tidy@?$vector@UTile@@V?$allocator@UTile@@@std@@@std@@IAEXXZ ENDP ; std::vector<Tile,std::allocator<Tile> >::_Tidy
_TEXT	ENDS
; Function compile flags: /Odtp /RTCsu /ZI
; File c:\program files (x86)\microsoft visual studio 14.0\vc\include\vector
;	COMDAT ?_Reserve@?$vector@UTile@@V?$allocator@UTile@@@std@@@std@@IAEXI@Z
_TEXT	SEGMENT
_this$ = -8						; size = 4
__Count$ = 8						; size = 4
?_Reserve@?$vector@UTile@@V?$allocator@UTile@@@std@@@std@@IAEXI@Z PROC ; std::vector<Tile,std::allocator<Tile> >::_Reserve, COMDAT
; _this$ = ecx

; 1649 : 		{	// ensure room for _Count new elements, grow exponentially

	push	ebp
	mov	ebp, esp
	sub	esp, 204				; 000000ccH
	push	ebx
	push	esi
	push	edi
	push	ecx
	lea	edi, DWORD PTR [ebp-204]
	mov	ecx, 51					; 00000033H
	mov	eax, -858993460				; ccccccccH
	rep stosd
	pop	ecx
	mov	DWORD PTR _this$[ebp], ecx

; 1650 : 		if (_Unused_capacity() < _Count)

	mov	ecx, DWORD PTR _this$[ebp]
	call	?_Unused_capacity@?$vector@UTile@@V?$allocator@UTile@@@std@@@std@@QBEIXZ ; std::vector<Tile,std::allocator<Tile> >::_Unused_capacity
	cmp	eax, DWORD PTR __Count$[ebp]
	jae	SHORT $LN4@Reserve

; 1651 : 			{	// need more room, try to get it
; 1652 : 			if (max_size() - size() < _Count)

	mov	ecx, DWORD PTR _this$[ebp]
	call	?max_size@?$vector@UTile@@V?$allocator@UTile@@@std@@@std@@QBEIXZ ; std::vector<Tile,std::allocator<Tile> >::max_size
	mov	esi, eax
	mov	ecx, DWORD PTR _this$[ebp]
	call	?size@?$vector@UTile@@V?$allocator@UTile@@@std@@@std@@QBEIXZ ; std::vector<Tile,std::allocator<Tile> >::size
	sub	esi, eax
	cmp	esi, DWORD PTR __Count$[ebp]
	jae	SHORT $LN3@Reserve

; 1653 : 				_Xlen();

	mov	ecx, DWORD PTR _this$[ebp]
	call	?_Xlen@?$vector@UTile@@V?$allocator@UTile@@@std@@@std@@IBEXXZ ; std::vector<Tile,std::allocator<Tile> >::_Xlen
$LN3@Reserve:

; 1654 : 			_Reallocate(_Grow_to(size() + _Count));

	mov	ecx, DWORD PTR _this$[ebp]
	call	?size@?$vector@UTile@@V?$allocator@UTile@@@std@@@std@@QBEIXZ ; std::vector<Tile,std::allocator<Tile> >::size
	add	eax, DWORD PTR __Count$[ebp]
	push	eax
	mov	ecx, DWORD PTR _this$[ebp]
	call	?_Grow_to@?$vector@UTile@@V?$allocator@UTile@@@std@@@std@@IBEII@Z ; std::vector<Tile,std::allocator<Tile> >::_Grow_to
	push	eax
	mov	ecx, DWORD PTR _this$[ebp]
	call	?_Reallocate@?$vector@UTile@@V?$allocator@UTile@@@std@@@std@@IAEXI@Z ; std::vector<Tile,std::allocator<Tile> >::_Reallocate
$LN4@Reserve:

; 1655 : 			}
; 1656 : 		}

	pop	edi
	pop	esi
	pop	ebx
	add	esp, 204				; 000000ccH
	cmp	ebp, esp
	call	__RTC_CheckEsp
	mov	esp, ebp
	pop	ebp
	ret	4
?_Reserve@?$vector@UTile@@V?$allocator@UTile@@@std@@@std@@IAEXI@Z ENDP ; std::vector<Tile,std::allocator<Tile> >::_Reserve
_TEXT	ENDS
; Function compile flags: /Odtp /RTCsu /ZI
; File c:\program files (x86)\microsoft visual studio 14.0\vc\include\vector
;	COMDAT ?_Reallocate@?$vector@UTile@@V?$allocator@UTile@@@std@@@std@@IAEXI@Z
_TEXT	SEGMENT
__Size$ = -48						; size = 4
__Ptr$ = -36						; size = 4
_this$ = -24						; size = 4
__$EHRec$ = -16						; size = 16
__Count$ = 8						; size = 4
?_Reallocate@?$vector@UTile@@V?$allocator@UTile@@@std@@@std@@IAEXI@Z PROC ; std::vector<Tile,std::allocator<Tile> >::_Reallocate, COMDAT
; _this$ = ecx

; 1624 : 		{	// move to array of exactly _Count elements

	push	ebp
	mov	ebp, esp
	push	-1
	push	__ehhandler$?_Reallocate@?$vector@UTile@@V?$allocator@UTile@@@std@@@std@@IAEXI@Z
	mov	eax, DWORD PTR fs:0
	push	eax
	push	ecx
	sub	esp, 228				; 000000e4H
	push	ebx
	push	esi
	push	edi
	push	ecx
	lea	edi, DWORD PTR [ebp-244]
	mov	ecx, 57					; 00000039H
	mov	eax, -858993460				; ccccccccH
	rep stosd
	pop	ecx
	mov	eax, DWORD PTR ___security_cookie
	xor	eax, ebp
	push	eax
	lea	eax, DWORD PTR __$EHRec$[ebp+4]
	mov	DWORD PTR fs:0, eax
	mov	DWORD PTR __$EHRec$[ebp], esp
	mov	DWORD PTR _this$[ebp], ecx

; 1625 : 		pointer _Ptr = this->_Getal().allocate(_Count);

	mov	eax, DWORD PTR __Count$[ebp]
	push	eax
	mov	ecx, DWORD PTR _this$[ebp]
	call	?_Getal@?$_Vector_alloc@U?$_Vec_base_types@UTile@@V?$allocator@UTile@@@std@@@std@@@std@@QAEAAU?$_Wrap_alloc@V?$allocator@UTile@@@std@@@2@XZ ; std::_Vector_alloc<std::_Vec_base_types<Tile,std::allocator<Tile> > >::_Getal
	mov	ecx, eax
	call	?allocate@?$_Wrap_alloc@V?$allocator@UTile@@@std@@@std@@QAEPAUTile@@I@Z ; std::_Wrap_alloc<std::allocator<Tile> >::allocate
	mov	DWORD PTR __Ptr$[ebp], eax

; 1626 : 
; 1627 : 		_TRY_BEGIN

	mov	DWORD PTR __$EHRec$[ebp+12], 0

; 1628 : 		_Umove(this->_Myfirst(), this->_Mylast(), _Ptr);

	mov	eax, DWORD PTR __Ptr$[ebp]
	push	eax
	mov	ecx, DWORD PTR _this$[ebp]
	call	?_Mylast@?$_Vector_alloc@U?$_Vec_base_types@UTile@@V?$allocator@UTile@@@std@@@std@@@std@@QAEAAPAUTile@@XZ ; std::_Vector_alloc<std::_Vec_base_types<Tile,std::allocator<Tile> > >::_Mylast
	mov	ecx, DWORD PTR [eax]
	push	ecx
	mov	ecx, DWORD PTR _this$[ebp]
	call	?_Myfirst@?$_Vector_alloc@U?$_Vec_base_types@UTile@@V?$allocator@UTile@@@std@@@std@@@std@@QAEAAPAUTile@@XZ ; std::_Vector_alloc<std::_Vec_base_types<Tile,std::allocator<Tile> > >::_Myfirst
	mov	edx, DWORD PTR [eax]
	push	edx
	mov	ecx, DWORD PTR _this$[ebp]
	call	??$_Umove@PAUTile@@@?$vector@UTile@@V?$allocator@UTile@@@std@@@std@@IAEPAUTile@@PAU2@00@Z ; std::vector<Tile,std::allocator<Tile> >::_Umove<Tile *>
	jmp	SHORT $LN5@Reallocate
__catch$?_Reallocate@?$vector@UTile@@V?$allocator@UTile@@@std@@@std@@IAEXI@Z$0:

; 1629 : 		_CATCH_ALL
; 1630 : 		this->_Getal().deallocate(_Ptr, _Count);

	mov	eax, DWORD PTR __Count$[ebp]
	push	eax
	mov	ecx, DWORD PTR __Ptr$[ebp]
	push	ecx
	mov	ecx, DWORD PTR _this$[ebp]
	call	?_Getal@?$_Vector_alloc@U?$_Vec_base_types@UTile@@V?$allocator@UTile@@@std@@@std@@@std@@QAEAAU?$_Wrap_alloc@V?$allocator@UTile@@@std@@@2@XZ ; std::_Vector_alloc<std::_Vec_base_types<Tile,std::allocator<Tile> > >::_Getal
	mov	ecx, eax
	call	?deallocate@?$_Wrap_alloc@V?$allocator@UTile@@@std@@@std@@QAEXPAUTile@@I@Z ; std::_Wrap_alloc<std::allocator<Tile> >::deallocate

; 1631 : 		_RERAISE;

	push	0
	push	0
	call	__CxxThrowException@8

; 1632 : 		_CATCH_END

	mov	eax, $LN8@Reallocate
	ret	0
$LN5@Reallocate:
	mov	DWORD PTR __$EHRec$[ebp+12], -1
	jmp	SHORT __tryend$?_Reallocate@?$vector@UTile@@V?$allocator@UTile@@@std@@@std@@IAEXI@Z$1
$LN8@Reallocate:
	mov	DWORD PTR __$EHRec$[ebp+12], -1
__tryend$?_Reallocate@?$vector@UTile@@V?$allocator@UTile@@@std@@@std@@IAEXI@Z$1:

; 1633 : 
; 1634 : 		size_type _Size = size();

	mov	ecx, DWORD PTR _this$[ebp]
	call	?size@?$vector@UTile@@V?$allocator@UTile@@@std@@@std@@QBEIXZ ; std::vector<Tile,std::allocator<Tile> >::size
	mov	DWORD PTR __Size$[ebp], eax

; 1635 : 		if (this->_Myfirst() != pointer())

	mov	ecx, DWORD PTR _this$[ebp]
	call	?_Myfirst@?$_Vector_alloc@U?$_Vec_base_types@UTile@@V?$allocator@UTile@@@std@@@std@@@std@@QAEAAPAUTile@@XZ ; std::_Vector_alloc<std::_Vec_base_types<Tile,std::allocator<Tile> > >::_Myfirst
	cmp	DWORD PTR [eax], 0
	je	SHORT $LN3@Reallocate

; 1636 : 			{	// destroy and deallocate old array
; 1637 : 			_Destroy(this->_Myfirst(), this->_Mylast());

	mov	ecx, DWORD PTR _this$[ebp]
	call	?_Mylast@?$_Vector_alloc@U?$_Vec_base_types@UTile@@V?$allocator@UTile@@@std@@@std@@@std@@QAEAAPAUTile@@XZ ; std::_Vector_alloc<std::_Vec_base_types<Tile,std::allocator<Tile> > >::_Mylast
	mov	eax, DWORD PTR [eax]
	push	eax
	mov	ecx, DWORD PTR _this$[ebp]
	call	?_Myfirst@?$_Vector_alloc@U?$_Vec_base_types@UTile@@V?$allocator@UTile@@@std@@@std@@@std@@QAEAAPAUTile@@XZ ; std::_Vector_alloc<std::_Vec_base_types<Tile,std::allocator<Tile> > >::_Myfirst
	mov	ecx, DWORD PTR [eax]
	push	ecx
	mov	ecx, DWORD PTR _this$[ebp]
	call	?_Destroy@?$vector@UTile@@V?$allocator@UTile@@@std@@@std@@IAEXPAUTile@@0@Z ; std::vector<Tile,std::allocator<Tile> >::_Destroy

; 1638 : 			this->_Getal().deallocate(this->_Myfirst(),

	mov	ecx, DWORD PTR _this$[ebp]
	call	?_Myfirst@?$_Vector_alloc@U?$_Vec_base_types@UTile@@V?$allocator@UTile@@@std@@@std@@@std@@QAEAAPAUTile@@XZ ; std::_Vector_alloc<std::_Vec_base_types<Tile,std::allocator<Tile> > >::_Myfirst
	mov	esi, eax
	mov	ecx, DWORD PTR _this$[ebp]
	call	?_Myend@?$_Vector_alloc@U?$_Vec_base_types@UTile@@V?$allocator@UTile@@@std@@@std@@@std@@QAEAAPAUTile@@XZ ; std::_Vector_alloc<std::_Vec_base_types<Tile,std::allocator<Tile> > >::_Myend
	mov	eax, DWORD PTR [eax]
	sub	eax, DWORD PTR [esi]
	sar	eax, 5
	push	eax
	mov	ecx, DWORD PTR _this$[ebp]
	call	?_Myfirst@?$_Vector_alloc@U?$_Vec_base_types@UTile@@V?$allocator@UTile@@@std@@@std@@@std@@QAEAAPAUTile@@XZ ; std::_Vector_alloc<std::_Vec_base_types<Tile,std::allocator<Tile> > >::_Myfirst
	mov	ecx, DWORD PTR [eax]
	push	ecx
	mov	ecx, DWORD PTR _this$[ebp]
	call	?_Getal@?$_Vector_alloc@U?$_Vec_base_types@UTile@@V?$allocator@UTile@@@std@@@std@@@std@@QAEAAU?$_Wrap_alloc@V?$allocator@UTile@@@std@@@2@XZ ; std::_Vector_alloc<std::_Vec_base_types<Tile,std::allocator<Tile> > >::_Getal
	mov	ecx, eax
	call	?deallocate@?$_Wrap_alloc@V?$allocator@UTile@@@std@@@std@@QAEXPAUTile@@I@Z ; std::_Wrap_alloc<std::allocator<Tile> >::deallocate
$LN3@Reallocate:

; 1639 : 				this->_Myend() - this->_Myfirst());
; 1640 : 			}
; 1641 : 
; 1642 : 		this->_Orphan_all();

	mov	ecx, DWORD PTR _this$[ebp]
	call	?_Orphan_all@?$_Vector_alloc@U?$_Vec_base_types@UTile@@V?$allocator@UTile@@@std@@@std@@@std@@QAEXXZ ; std::_Vector_alloc<std::_Vec_base_types<Tile,std::allocator<Tile> > >::_Orphan_all

; 1643 : 		this->_Myend() = _Ptr + _Count;

	mov	esi, DWORD PTR __Count$[ebp]
	shl	esi, 5
	add	esi, DWORD PTR __Ptr$[ebp]
	mov	ecx, DWORD PTR _this$[ebp]
	call	?_Myend@?$_Vector_alloc@U?$_Vec_base_types@UTile@@V?$allocator@UTile@@@std@@@std@@@std@@QAEAAPAUTile@@XZ ; std::_Vector_alloc<std::_Vec_base_types<Tile,std::allocator<Tile> > >::_Myend
	mov	DWORD PTR [eax], esi

; 1644 : 		this->_Mylast() = _Ptr + _Size;

	mov	esi, DWORD PTR __Size$[ebp]
	shl	esi, 5
	add	esi, DWORD PTR __Ptr$[ebp]
	mov	ecx, DWORD PTR _this$[ebp]
	call	?_Mylast@?$_Vector_alloc@U?$_Vec_base_types@UTile@@V?$allocator@UTile@@@std@@@std@@@std@@QAEAAPAUTile@@XZ ; std::_Vector_alloc<std::_Vec_base_types<Tile,std::allocator<Tile> > >::_Mylast
	mov	DWORD PTR [eax], esi

; 1645 : 		this->_Myfirst() = _Ptr;

	mov	ecx, DWORD PTR _this$[ebp]
	call	?_Myfirst@?$_Vector_alloc@U?$_Vec_base_types@UTile@@V?$allocator@UTile@@@std@@@std@@@std@@QAEAAPAUTile@@XZ ; std::_Vector_alloc<std::_Vec_base_types<Tile,std::allocator<Tile> > >::_Myfirst
	mov	ecx, DWORD PTR __Ptr$[ebp]
	mov	DWORD PTR [eax], ecx
$LN4@Reallocate:

; 1646 : 		}

	mov	ecx, DWORD PTR __$EHRec$[ebp+4]
	mov	DWORD PTR fs:0, ecx
	pop	ecx
	pop	edi
	pop	esi
	pop	ebx
	add	esp, 244				; 000000f4H
	cmp	ebp, esp
	call	__RTC_CheckEsp
	mov	esp, ebp
	pop	ebp
	ret	4
_TEXT	ENDS
;	COMDAT text$x
text$x	SEGMENT
__ehhandler$?_Reallocate@?$vector@UTile@@V?$allocator@UTile@@@std@@@std@@IAEXI@Z:
	mov	edx, DWORD PTR [esp+8]
	lea	eax, DWORD PTR [edx+12]
	mov	ecx, DWORD PTR [edx-248]
	xor	ecx, eax
	call	@__security_check_cookie@4
	mov	eax, OFFSET __ehfuncinfo$?_Reallocate@?$vector@UTile@@V?$allocator@UTile@@@std@@@std@@IAEXI@Z
	jmp	___CxxFrameHandler3
text$x	ENDS
?_Reallocate@?$vector@UTile@@V?$allocator@UTile@@@std@@@std@@IAEXI@Z ENDP ; std::vector<Tile,std::allocator<Tile> >::_Reallocate
; Function compile flags: /Odtp /RTCsu /ZI
; File c:\program files (x86)\microsoft visual studio 14.0\vc\include\vector
;	COMDAT ?_Inside@?$vector@UTile@@V?$allocator@UTile@@@std@@@std@@IBE_NPBUTile@@@Z
_TEXT	SEGMENT
tv78 = -208						; size = 4
_this$ = -8						; size = 4
__Ptr$ = 8						; size = 4
?_Inside@?$vector@UTile@@V?$allocator@UTile@@@std@@@std@@IBE_NPBUTile@@@Z PROC ; std::vector<Tile,std::allocator<Tile> >::_Inside, COMDAT
; _this$ = ecx

; 1619 : 		{	// test if _Ptr points inside vector

	push	ebp
	mov	ebp, esp
	sub	esp, 208				; 000000d0H
	push	ebx
	push	esi
	push	edi
	push	ecx
	lea	edi, DWORD PTR [ebp-208]
	mov	ecx, 52					; 00000034H
	mov	eax, -858993460				; ccccccccH
	rep stosd
	pop	ecx
	mov	DWORD PTR _this$[ebp], ecx

; 1620 : 		return (_Ptr < this->_Mylast() && this->_Myfirst() <= _Ptr);

	mov	ecx, DWORD PTR _this$[ebp]
	call	?_Mylast@?$_Vector_alloc@U?$_Vec_base_types@UTile@@V?$allocator@UTile@@@std@@@std@@@std@@QBEABQAUTile@@XZ ; std::_Vector_alloc<std::_Vec_base_types<Tile,std::allocator<Tile> > >::_Mylast
	mov	ecx, DWORD PTR __Ptr$[ebp]
	cmp	ecx, DWORD PTR [eax]
	jae	SHORT $LN3@Inside
	mov	ecx, DWORD PTR _this$[ebp]
	call	?_Myfirst@?$_Vector_alloc@U?$_Vec_base_types@UTile@@V?$allocator@UTile@@@std@@@std@@@std@@QBEABQAUTile@@XZ ; std::_Vector_alloc<std::_Vec_base_types<Tile,std::allocator<Tile> > >::_Myfirst
	mov	edx, DWORD PTR [eax]
	cmp	edx, DWORD PTR __Ptr$[ebp]
	ja	SHORT $LN3@Inside
	mov	DWORD PTR tv78[ebp], 1
	jmp	SHORT $LN4@Inside
$LN3@Inside:
	mov	DWORD PTR tv78[ebp], 0
$LN4@Inside:
	mov	al, BYTE PTR tv78[ebp]

; 1621 : 		}

	pop	edi
	pop	esi
	pop	ebx
	add	esp, 208				; 000000d0H
	cmp	ebp, esp
	call	__RTC_CheckEsp
	mov	esp, ebp
	pop	ebp
	ret	4
?_Inside@?$vector@UTile@@V?$allocator@UTile@@@std@@@std@@IBE_NPBUTile@@@Z ENDP ; std::vector<Tile,std::allocator<Tile> >::_Inside
_TEXT	ENDS
; Function compile flags: /Odtp /RTCsu /ZI
; File c:\program files (x86)\microsoft visual studio 14.0\vc\include\vector
;	COMDAT ?_Grow_to@?$vector@UTile@@V?$allocator@UTile@@@std@@@std@@IBEII@Z
_TEXT	SEGMENT
tv73 = -220						; size = 4
__Capacity$ = -20					; size = 4
_this$ = -8						; size = 4
__Count$ = 8						; size = 4
?_Grow_to@?$vector@UTile@@V?$allocator@UTile@@@std@@@std@@IBEII@Z PROC ; std::vector<Tile,std::allocator<Tile> >::_Grow_to, COMDAT
; _this$ = ecx

; 1608 : 		{	// grow by 50% or at least to _Count

	push	ebp
	mov	ebp, esp
	sub	esp, 220				; 000000dcH
	push	ebx
	push	esi
	push	edi
	push	ecx
	lea	edi, DWORD PTR [ebp-220]
	mov	ecx, 55					; 00000037H
	mov	eax, -858993460				; ccccccccH
	rep stosd
	pop	ecx
	mov	DWORD PTR _this$[ebp], ecx

; 1609 : 		size_type _Capacity = capacity();

	mov	ecx, DWORD PTR _this$[ebp]
	call	?capacity@?$vector@UTile@@V?$allocator@UTile@@@std@@@std@@QBEIXZ ; std::vector<Tile,std::allocator<Tile> >::capacity
	mov	DWORD PTR __Capacity$[ebp], eax

; 1610 : 
; 1611 : 		_Capacity = max_size() - _Capacity / 2 < _Capacity

	mov	ecx, DWORD PTR _this$[ebp]
	call	?max_size@?$vector@UTile@@V?$allocator@UTile@@@std@@@std@@QBEIXZ ; std::vector<Tile,std::allocator<Tile> >::max_size
	mov	ecx, DWORD PTR __Capacity$[ebp]
	shr	ecx, 1
	sub	eax, ecx
	cmp	eax, DWORD PTR __Capacity$[ebp]
	jae	SHORT $LN4@Grow_to
	mov	DWORD PTR tv73[ebp], 0
	jmp	SHORT $LN5@Grow_to
$LN4@Grow_to:
	mov	edx, DWORD PTR __Capacity$[ebp]
	shr	edx, 1
	add	edx, DWORD PTR __Capacity$[ebp]
	mov	DWORD PTR tv73[ebp], edx
$LN5@Grow_to:
	mov	eax, DWORD PTR tv73[ebp]
	mov	DWORD PTR __Capacity$[ebp], eax

; 1612 : 			? 0 : _Capacity + _Capacity / 2;	// try to grow by 50%
; 1613 : 		if (_Capacity < _Count)

	mov	eax, DWORD PTR __Capacity$[ebp]
	cmp	eax, DWORD PTR __Count$[ebp]
	jae	SHORT $LN2@Grow_to

; 1614 : 			_Capacity = _Count;

	mov	eax, DWORD PTR __Count$[ebp]
	mov	DWORD PTR __Capacity$[ebp], eax
$LN2@Grow_to:

; 1615 : 		return (_Capacity);

	mov	eax, DWORD PTR __Capacity$[ebp]

; 1616 : 		}

	pop	edi
	pop	esi
	pop	ebx
	add	esp, 220				; 000000dcH
	cmp	ebp, esp
	call	__RTC_CheckEsp
	mov	esp, ebp
	pop	ebp
	ret	4
?_Grow_to@?$vector@UTile@@V?$allocator@UTile@@@std@@@std@@IBEII@Z ENDP ; std::vector<Tile,std::allocator<Tile> >::_Grow_to
_TEXT	ENDS
; Function compile flags: /Odtp /RTCsu /ZI
; File c:\program files (x86)\microsoft visual studio 14.0\vc\include\vector
;	COMDAT ?_Destroy@?$vector@UTile@@V?$allocator@UTile@@@std@@@std@@IAEXPAUTile@@0@Z
_TEXT	SEGMENT
_this$ = -8						; size = 4
__First$ = 8						; size = 4
__Last$ = 12						; size = 4
?_Destroy@?$vector@UTile@@V?$allocator@UTile@@@std@@@std@@IAEXPAUTile@@0@Z PROC ; std::vector<Tile,std::allocator<Tile> >::_Destroy, COMDAT
; _this$ = ecx

; 1603 : 		{	// destroy [_First, _Last) using allocator

	push	ebp
	mov	ebp, esp
	sub	esp, 204				; 000000ccH
	push	ebx
	push	esi
	push	edi
	push	ecx
	lea	edi, DWORD PTR [ebp-204]
	mov	ecx, 51					; 00000033H
	mov	eax, -858993460				; ccccccccH
	rep stosd
	pop	ecx
	mov	DWORD PTR _this$[ebp], ecx

; 1604 : 		_Destroy_range(_First, _Last, this->_Getal());

	mov	ecx, DWORD PTR _this$[ebp]
	call	?_Getal@?$_Vector_alloc@U?$_Vec_base_types@UTile@@V?$allocator@UTile@@@std@@@std@@@std@@QAEAAU?$_Wrap_alloc@V?$allocator@UTile@@@std@@@2@XZ ; std::_Vector_alloc<std::_Vec_base_types<Tile,std::allocator<Tile> > >::_Getal
	push	eax
	mov	eax, DWORD PTR __Last$[ebp]
	push	eax
	mov	ecx, DWORD PTR __First$[ebp]
	push	ecx
	call	??$_Destroy_range@U?$_Wrap_alloc@V?$allocator@UTile@@@std@@@std@@@std@@YAXPAUTile@@0AAU?$_Wrap_alloc@V?$allocator@UTile@@@std@@@0@@Z ; std::_Destroy_range<std::_Wrap_alloc<std::allocator<Tile> > >
	add	esp, 12					; 0000000cH

; 1605 : 		}

	pop	edi
	pop	esi
	pop	ebx
	add	esp, 204				; 000000ccH
	cmp	ebp, esp
	call	__RTC_CheckEsp
	mov	esp, ebp
	pop	ebp
	ret	8
?_Destroy@?$vector@UTile@@V?$allocator@UTile@@@std@@@std@@IAEXPAUTile@@0@Z ENDP ; std::vector<Tile,std::allocator<Tile> >::_Destroy
_TEXT	ENDS
; Function compile flags: /Odtp /RTCsu /ZI
; File c:\program files (x86)\microsoft visual studio 14.0\vc\include\vector
;	COMDAT ?push_back@?$vector@UTile@@V?$allocator@UTile@@@std@@@std@@QAEXABUTile@@@Z
_TEXT	SEGMENT
tv225 = -220						; size = 4
tv172 = -220						; size = 4
__Idx$1 = -20						; size = 4
_this$ = -8						; size = 4
__Val$ = 8						; size = 4
?push_back@?$vector@UTile@@V?$allocator@UTile@@@std@@@std@@QAEXABUTile@@@Z PROC ; std::vector<Tile,std::allocator<Tile> >::push_back, COMDAT
; _this$ = ecx

; 1278 : 		{	// insert element at end

	push	ebp
	mov	ebp, esp
	sub	esp, 220				; 000000dcH
	push	ebx
	push	esi
	push	edi
	push	ecx
	lea	edi, DWORD PTR [ebp-220]
	mov	ecx, 55					; 00000037H
	mov	eax, -858993460				; ccccccccH
	rep stosd
	pop	ecx
	mov	DWORD PTR _this$[ebp], ecx

; 1279 : 		if (_Inside(_STD addressof(_Val)))

	mov	eax, DWORD PTR __Val$[ebp]
	push	eax
	call	??$addressof@$$CBUTile@@@std@@YAPBUTile@@ABU1@@Z ; std::addressof<Tile const >
	add	esp, 4
	push	eax
	mov	ecx, DWORD PTR _this$[ebp]
	call	?_Inside@?$vector@UTile@@V?$allocator@UTile@@@std@@@std@@IBE_NPBUTile@@@Z ; std::vector<Tile,std::allocator<Tile> >::_Inside
	movzx	ecx, al
	test	ecx, ecx
	je	$LN2@push_back

; 1280 : 			{	// push back an element
; 1281 : 			size_type _Idx = _STD addressof(_Val) - this->_Myfirst();

	mov	eax, DWORD PTR __Val$[ebp]
	push	eax
	call	??$addressof@$$CBUTile@@@std@@YAPBUTile@@ABU1@@Z ; std::addressof<Tile const >
	add	esp, 4
	mov	esi, eax
	mov	ecx, DWORD PTR _this$[ebp]
	call	?_Myfirst@?$_Vector_alloc@U?$_Vec_base_types@UTile@@V?$allocator@UTile@@@std@@@std@@@std@@QAEAAPAUTile@@XZ ; std::_Vector_alloc<std::_Vec_base_types<Tile,std::allocator<Tile> > >::_Myfirst
	sub	esi, DWORD PTR [eax]
	sar	esi, 5
	mov	DWORD PTR __Idx$1[ebp], esi

; 1282 : 			if (this->_Mylast() == this->_Myend())

	mov	ecx, DWORD PTR _this$[ebp]
	call	?_Mylast@?$_Vector_alloc@U?$_Vec_base_types@UTile@@V?$allocator@UTile@@@std@@@std@@@std@@QAEAAPAUTile@@XZ ; std::_Vector_alloc<std::_Vec_base_types<Tile,std::allocator<Tile> > >::_Mylast
	mov	esi, eax
	mov	ecx, DWORD PTR _this$[ebp]
	call	?_Myend@?$_Vector_alloc@U?$_Vec_base_types@UTile@@V?$allocator@UTile@@@std@@@std@@@std@@QAEAAPAUTile@@XZ ; std::_Vector_alloc<std::_Vec_base_types<Tile,std::allocator<Tile> > >::_Myend
	mov	ecx, DWORD PTR [esi]
	cmp	ecx, DWORD PTR [eax]
	jne	SHORT $LN4@push_back

; 1283 : 				_Reserve(1);

	push	1
	mov	ecx, DWORD PTR _this$[ebp]
	call	?_Reserve@?$vector@UTile@@V?$allocator@UTile@@@std@@@std@@IAEXI@Z ; std::vector<Tile,std::allocator<Tile> >::_Reserve
$LN4@push_back:

; 1284 : 			_Orphan_range(this->_Mylast(), this->_Mylast());

	mov	ecx, DWORD PTR _this$[ebp]
	call	?_Mylast@?$_Vector_alloc@U?$_Vec_base_types@UTile@@V?$allocator@UTile@@@std@@@std@@@std@@QAEAAPAUTile@@XZ ; std::_Vector_alloc<std::_Vec_base_types<Tile,std::allocator<Tile> > >::_Mylast
	mov	eax, DWORD PTR [eax]
	push	eax
	mov	ecx, DWORD PTR _this$[ebp]
	call	?_Mylast@?$_Vector_alloc@U?$_Vec_base_types@UTile@@V?$allocator@UTile@@@std@@@std@@@std@@QAEAAPAUTile@@XZ ; std::_Vector_alloc<std::_Vec_base_types<Tile,std::allocator<Tile> > >::_Mylast
	mov	ecx, DWORD PTR [eax]
	push	ecx
	mov	ecx, DWORD PTR _this$[ebp]
	call	?_Orphan_range@?$vector@UTile@@V?$allocator@UTile@@@std@@@std@@IBEXPAUTile@@0@Z ; std::vector<Tile,std::allocator<Tile> >::_Orphan_range

; 1285 : 			this->_Getal().construct(this->_Mylast(),

	mov	ecx, DWORD PTR _this$[ebp]
	call	?_Myfirst@?$_Vector_alloc@U?$_Vec_base_types@UTile@@V?$allocator@UTile@@@std@@@std@@@std@@QAEAAPAUTile@@XZ ; std::_Vector_alloc<std::_Vec_base_types<Tile,std::allocator<Tile> > >::_Myfirst
	mov	ecx, DWORD PTR __Idx$1[ebp]
	shl	ecx, 5
	add	ecx, DWORD PTR [eax]
	push	ecx
	mov	ecx, DWORD PTR _this$[ebp]
	call	?_Mylast@?$_Vector_alloc@U?$_Vec_base_types@UTile@@V?$allocator@UTile@@@std@@@std@@@std@@QAEAAPAUTile@@XZ ; std::_Vector_alloc<std::_Vec_base_types<Tile,std::allocator<Tile> > >::_Mylast
	mov	edx, DWORD PTR [eax]
	push	edx
	mov	ecx, DWORD PTR _this$[ebp]
	call	?_Getal@?$_Vector_alloc@U?$_Vec_base_types@UTile@@V?$allocator@UTile@@@std@@@std@@@std@@QAEAAU?$_Wrap_alloc@V?$allocator@UTile@@@std@@@2@XZ ; std::_Vector_alloc<std::_Vec_base_types<Tile,std::allocator<Tile> > >::_Getal
	mov	ecx, eax
	call	??$construct@UTile@@AAU1@@?$_Wrap_alloc@V?$allocator@UTile@@@std@@@std@@QAEXPAUTile@@AAU2@@Z ; std::_Wrap_alloc<std::allocator<Tile> >::construct<Tile,Tile &>

; 1286 : 				this->_Myfirst()[_Idx]);
; 1287 : 			++this->_Mylast();

	mov	ecx, DWORD PTR _this$[ebp]
	call	?_Mylast@?$_Vector_alloc@U?$_Vec_base_types@UTile@@V?$allocator@UTile@@@std@@@std@@@std@@QAEAAPAUTile@@XZ ; std::_Vector_alloc<std::_Vec_base_types<Tile,std::allocator<Tile> > >::_Mylast
	mov	DWORD PTR tv172[ebp], eax
	mov	eax, DWORD PTR tv172[ebp]
	mov	ecx, DWORD PTR [eax]
	add	ecx, 32					; 00000020H
	mov	edx, DWORD PTR tv172[ebp]
	mov	DWORD PTR [edx], ecx

; 1288 : 			}
; 1289 : 		else

	jmp	SHORT $LN1@push_back
$LN2@push_back:

; 1290 : 			{	// push back a non-element
; 1291 : 			if (this->_Mylast() == this->_Myend())

	mov	ecx, DWORD PTR _this$[ebp]
	call	?_Mylast@?$_Vector_alloc@U?$_Vec_base_types@UTile@@V?$allocator@UTile@@@std@@@std@@@std@@QAEAAPAUTile@@XZ ; std::_Vector_alloc<std::_Vec_base_types<Tile,std::allocator<Tile> > >::_Mylast
	mov	esi, eax
	mov	ecx, DWORD PTR _this$[ebp]
	call	?_Myend@?$_Vector_alloc@U?$_Vec_base_types@UTile@@V?$allocator@UTile@@@std@@@std@@@std@@QAEAAPAUTile@@XZ ; std::_Vector_alloc<std::_Vec_base_types<Tile,std::allocator<Tile> > >::_Myend
	mov	ecx, DWORD PTR [esi]
	cmp	ecx, DWORD PTR [eax]
	jne	SHORT $LN5@push_back

; 1292 : 				_Reserve(1);

	push	1
	mov	ecx, DWORD PTR _this$[ebp]
	call	?_Reserve@?$vector@UTile@@V?$allocator@UTile@@@std@@@std@@IAEXI@Z ; std::vector<Tile,std::allocator<Tile> >::_Reserve
$LN5@push_back:

; 1293 : 			_Orphan_range(this->_Mylast(), this->_Mylast());

	mov	ecx, DWORD PTR _this$[ebp]
	call	?_Mylast@?$_Vector_alloc@U?$_Vec_base_types@UTile@@V?$allocator@UTile@@@std@@@std@@@std@@QAEAAPAUTile@@XZ ; std::_Vector_alloc<std::_Vec_base_types<Tile,std::allocator<Tile> > >::_Mylast
	mov	eax, DWORD PTR [eax]
	push	eax
	mov	ecx, DWORD PTR _this$[ebp]
	call	?_Mylast@?$_Vector_alloc@U?$_Vec_base_types@UTile@@V?$allocator@UTile@@@std@@@std@@@std@@QAEAAPAUTile@@XZ ; std::_Vector_alloc<std::_Vec_base_types<Tile,std::allocator<Tile> > >::_Mylast
	mov	ecx, DWORD PTR [eax]
	push	ecx
	mov	ecx, DWORD PTR _this$[ebp]
	call	?_Orphan_range@?$vector@UTile@@V?$allocator@UTile@@@std@@@std@@IBEXPAUTile@@0@Z ; std::vector<Tile,std::allocator<Tile> >::_Orphan_range

; 1294 : 			this->_Getal().construct(this->_Mylast(),

	mov	eax, DWORD PTR __Val$[ebp]
	push	eax
	mov	ecx, DWORD PTR _this$[ebp]
	call	?_Mylast@?$_Vector_alloc@U?$_Vec_base_types@UTile@@V?$allocator@UTile@@@std@@@std@@@std@@QAEAAPAUTile@@XZ ; std::_Vector_alloc<std::_Vec_base_types<Tile,std::allocator<Tile> > >::_Mylast
	mov	ecx, DWORD PTR [eax]
	push	ecx
	mov	ecx, DWORD PTR _this$[ebp]
	call	?_Getal@?$_Vector_alloc@U?$_Vec_base_types@UTile@@V?$allocator@UTile@@@std@@@std@@@std@@QAEAAU?$_Wrap_alloc@V?$allocator@UTile@@@std@@@2@XZ ; std::_Vector_alloc<std::_Vec_base_types<Tile,std::allocator<Tile> > >::_Getal
	mov	ecx, eax
	call	??$construct@UTile@@ABU1@@?$_Wrap_alloc@V?$allocator@UTile@@@std@@@std@@QAEXPAUTile@@ABU2@@Z ; std::_Wrap_alloc<std::allocator<Tile> >::construct<Tile,Tile const &>

; 1295 : 				_Val);
; 1296 : 			++this->_Mylast();

	mov	ecx, DWORD PTR _this$[ebp]
	call	?_Mylast@?$_Vector_alloc@U?$_Vec_base_types@UTile@@V?$allocator@UTile@@@std@@@std@@@std@@QAEAAPAUTile@@XZ ; std::_Vector_alloc<std::_Vec_base_types<Tile,std::allocator<Tile> > >::_Mylast
	mov	DWORD PTR tv225[ebp], eax
	mov	eax, DWORD PTR tv225[ebp]
	mov	ecx, DWORD PTR [eax]
	add	ecx, 32					; 00000020H
	mov	edx, DWORD PTR tv225[ebp]
	mov	DWORD PTR [edx], ecx
$LN1@push_back:

; 1297 : 			}
; 1298 : 		}

	pop	edi
	pop	esi
	pop	ebx
	add	esp, 220				; 000000dcH
	cmp	ebp, esp
	call	__RTC_CheckEsp
	mov	esp, ebp
	pop	ebp
	ret	4
?push_back@?$vector@UTile@@V?$allocator@UTile@@@std@@@std@@QAEXABUTile@@@Z ENDP ; std::vector<Tile,std::allocator<Tile> >::push_back
_TEXT	ENDS
; Function compile flags: /Odtp /RTCsu /ZI
; File c:\program files (x86)\microsoft visual studio 14.0\vc\include\vector
;	COMDAT ?max_size@?$vector@UTile@@V?$allocator@UTile@@@std@@@std@@QBEIXZ
_TEXT	SEGMENT
$T1 = -209						; size = 1
_this$ = -8						; size = 4
?max_size@?$vector@UTile@@V?$allocator@UTile@@@std@@@std@@QBEIXZ PROC ; std::vector<Tile,std::allocator<Tile> >::max_size, COMDAT
; _this$ = ecx

; 1187 : 		{	// return maximum possible length of sequence

	push	ebp
	mov	ebp, esp
	sub	esp, 216				; 000000d8H
	push	ebx
	push	esi
	push	edi
	push	ecx
	lea	edi, DWORD PTR [ebp-216]
	mov	ecx, 54					; 00000036H
	mov	eax, -858993460				; ccccccccH
	rep stosd
	pop	ecx
	mov	DWORD PTR _this$[ebp], ecx

; 1188 : 		return (this->_Getal().max_size());

	movzx	eax, BYTE PTR $T1[ebp]
	push	eax
	mov	ecx, DWORD PTR _this$[ebp]
	call	?_Getal@?$_Vector_alloc@U?$_Vec_base_types@UTile@@V?$allocator@UTile@@@std@@@std@@@std@@QBEABU?$_Wrap_alloc@V?$allocator@UTile@@@std@@@2@XZ ; std::_Vector_alloc<std::_Vec_base_types<Tile,std::allocator<Tile> > >::_Getal
	mov	ecx, eax
	call	?max_size@?$_Wrap_alloc@V?$allocator@UTile@@@std@@@std@@QBEIU_Nil@2@@Z ; std::_Wrap_alloc<std::allocator<Tile> >::max_size

; 1189 : 		}

	pop	edi
	pop	esi
	pop	ebx
	add	esp, 216				; 000000d8H
	cmp	ebp, esp
	call	__RTC_CheckEsp
	mov	esp, ebp
	pop	ebp
	ret	0
?max_size@?$vector@UTile@@V?$allocator@UTile@@@std@@@std@@QBEIXZ ENDP ; std::vector<Tile,std::allocator<Tile> >::max_size
_TEXT	ENDS
; Function compile flags: /Odtp /RTCsu /ZI
; File c:\program files (x86)\microsoft visual studio 14.0\vc\include\vector
;	COMDAT ?size@?$vector@UTile@@V?$allocator@UTile@@@std@@@std@@QBEIXZ
_TEXT	SEGMENT
_this$ = -8						; size = 4
?size@?$vector@UTile@@V?$allocator@UTile@@@std@@@std@@QBEIXZ PROC ; std::vector<Tile,std::allocator<Tile> >::size, COMDAT
; _this$ = ecx

; 1182 : 		{	// return length of sequence

	push	ebp
	mov	ebp, esp
	sub	esp, 204				; 000000ccH
	push	ebx
	push	esi
	push	edi
	push	ecx
	lea	edi, DWORD PTR [ebp-204]
	mov	ecx, 51					; 00000033H
	mov	eax, -858993460				; ccccccccH
	rep stosd
	pop	ecx
	mov	DWORD PTR _this$[ebp], ecx

; 1183 : 		return (this->_Mylast() - this->_Myfirst());

	mov	ecx, DWORD PTR _this$[ebp]
	call	?_Mylast@?$_Vector_alloc@U?$_Vec_base_types@UTile@@V?$allocator@UTile@@@std@@@std@@@std@@QBEABQAUTile@@XZ ; std::_Vector_alloc<std::_Vec_base_types<Tile,std::allocator<Tile> > >::_Mylast
	mov	esi, eax
	mov	ecx, DWORD PTR _this$[ebp]
	call	?_Myfirst@?$_Vector_alloc@U?$_Vec_base_types@UTile@@V?$allocator@UTile@@@std@@@std@@@std@@QBEABQAUTile@@XZ ; std::_Vector_alloc<std::_Vec_base_types<Tile,std::allocator<Tile> > >::_Myfirst
	mov	ecx, DWORD PTR [esi]
	sub	ecx, DWORD PTR [eax]
	sar	ecx, 5
	mov	eax, ecx

; 1184 : 		}

	pop	edi
	pop	esi
	pop	ebx
	add	esp, 204				; 000000ccH
	cmp	ebp, esp
	call	__RTC_CheckEsp
	mov	esp, ebp
	pop	ebp
	ret	0
?size@?$vector@UTile@@V?$allocator@UTile@@@std@@@std@@QBEIXZ ENDP ; std::vector<Tile,std::allocator<Tile> >::size
_TEXT	ENDS
; Function compile flags: /Odtp /RTCsu /ZI
; File c:\program files (x86)\microsoft visual studio 14.0\vc\include\vector
;	COMDAT ?end@?$vector@UTile@@V?$allocator@UTile@@@std@@@std@@QAE?AV?$_Vector_iterator@V?$_Vector_val@U?$_Simple_types@UTile@@@std@@@std@@@2@XZ
_TEXT	SEGMENT
_this$ = -20						; size = 4
__$EHRec$ = -12						; size = 12
___$ReturnUdt$ = 8					; size = 4
?end@?$vector@UTile@@V?$allocator@UTile@@@std@@@std@@QAE?AV?$_Vector_iterator@V?$_Vector_val@U?$_Simple_types@UTile@@@std@@@std@@@2@XZ PROC ; std::vector<Tile,std::allocator<Tile> >::end, COMDAT
; _this$ = ecx

; 1070 : 		{	// return iterator for end of mutable sequence

	push	ebp
	mov	ebp, esp
	push	-1
	push	__ehhandler$?end@?$vector@UTile@@V?$allocator@UTile@@@std@@@std@@QAE?AV?$_Vector_iterator@V?$_Vector_val@U?$_Simple_types@UTile@@@std@@@std@@@2@XZ
	mov	eax, DWORD PTR fs:0
	push	eax
	sub	esp, 204				; 000000ccH
	push	ebx
	push	esi
	push	edi
	push	ecx
	lea	edi, DWORD PTR [ebp-216]
	mov	ecx, 51					; 00000033H
	mov	eax, -858993460				; ccccccccH
	rep stosd
	pop	ecx
	mov	eax, DWORD PTR ___security_cookie
	xor	eax, ebp
	push	eax
	lea	eax, DWORD PTR __$EHRec$[ebp]
	mov	DWORD PTR fs:0, eax
	mov	DWORD PTR _this$[ebp], ecx

; 1071 : 		return (iterator(this->_Mylast(), &this->_Get_data()));

	mov	ecx, DWORD PTR _this$[ebp]
	call	?_Get_data@?$_Vector_alloc@U?$_Vec_base_types@UTile@@V?$allocator@UTile@@@std@@@std@@@std@@QAEAAV?$_Vector_val@U?$_Simple_types@UTile@@@std@@@2@XZ ; std::_Vector_alloc<std::_Vec_base_types<Tile,std::allocator<Tile> > >::_Get_data
	push	eax
	mov	ecx, DWORD PTR _this$[ebp]
	call	?_Mylast@?$_Vector_alloc@U?$_Vec_base_types@UTile@@V?$allocator@UTile@@@std@@@std@@@std@@QAEAAPAUTile@@XZ ; std::_Vector_alloc<std::_Vec_base_types<Tile,std::allocator<Tile> > >::_Mylast
	mov	eax, DWORD PTR [eax]
	push	eax
	mov	ecx, DWORD PTR ___$ReturnUdt$[ebp]
	call	??0?$_Vector_iterator@V?$_Vector_val@U?$_Simple_types@UTile@@@std@@@std@@@std@@QAE@PAUTile@@PBU_Container_base12@1@@Z ; std::_Vector_iterator<std::_Vector_val<std::_Simple_types<Tile> > >::_Vector_iterator<std::_Vector_val<std::_Simple_types<Tile> > >
	mov	eax, DWORD PTR ___$ReturnUdt$[ebp]

; 1072 : 		}

	mov	ecx, DWORD PTR __$EHRec$[ebp]
	mov	DWORD PTR fs:0, ecx
	pop	ecx
	pop	edi
	pop	esi
	pop	ebx
	add	esp, 216				; 000000d8H
	cmp	ebp, esp
	call	__RTC_CheckEsp
	mov	esp, ebp
	pop	ebp
	ret	4
_TEXT	ENDS
;	COMDAT text$x
text$x	SEGMENT
__ehhandler$?end@?$vector@UTile@@V?$allocator@UTile@@@std@@@std@@QAE?AV?$_Vector_iterator@V?$_Vector_val@U?$_Simple_types@UTile@@@std@@@std@@@2@XZ:
	mov	edx, DWORD PTR [esp+8]
	lea	eax, DWORD PTR [edx+12]
	mov	ecx, DWORD PTR [edx-220]
	xor	ecx, eax
	call	@__security_check_cookie@4
	mov	eax, OFFSET __ehfuncinfo$?end@?$vector@UTile@@V?$allocator@UTile@@@std@@@std@@QAE?AV?$_Vector_iterator@V?$_Vector_val@U?$_Simple_types@UTile@@@std@@@std@@@2@XZ
	jmp	___CxxFrameHandler3
text$x	ENDS
?end@?$vector@UTile@@V?$allocator@UTile@@@std@@@std@@QAE?AV?$_Vector_iterator@V?$_Vector_val@U?$_Simple_types@UTile@@@std@@@std@@@2@XZ ENDP ; std::vector<Tile,std::allocator<Tile> >::end
; Function compile flags: /Odtp /RTCsu /ZI
; File c:\program files (x86)\microsoft visual studio 14.0\vc\include\vector
;	COMDAT ?begin@?$vector@UTile@@V?$allocator@UTile@@@std@@@std@@QAE?AV?$_Vector_iterator@V?$_Vector_val@U?$_Simple_types@UTile@@@std@@@std@@@2@XZ
_TEXT	SEGMENT
_this$ = -20						; size = 4
__$EHRec$ = -12						; size = 12
___$ReturnUdt$ = 8					; size = 4
?begin@?$vector@UTile@@V?$allocator@UTile@@@std@@@std@@QAE?AV?$_Vector_iterator@V?$_Vector_val@U?$_Simple_types@UTile@@@std@@@std@@@2@XZ PROC ; std::vector<Tile,std::allocator<Tile> >::begin, COMDAT
; _this$ = ecx

; 1060 : 		{	// return iterator for beginning of mutable sequence

	push	ebp
	mov	ebp, esp
	push	-1
	push	__ehhandler$?begin@?$vector@UTile@@V?$allocator@UTile@@@std@@@std@@QAE?AV?$_Vector_iterator@V?$_Vector_val@U?$_Simple_types@UTile@@@std@@@std@@@2@XZ
	mov	eax, DWORD PTR fs:0
	push	eax
	sub	esp, 204				; 000000ccH
	push	ebx
	push	esi
	push	edi
	push	ecx
	lea	edi, DWORD PTR [ebp-216]
	mov	ecx, 51					; 00000033H
	mov	eax, -858993460				; ccccccccH
	rep stosd
	pop	ecx
	mov	eax, DWORD PTR ___security_cookie
	xor	eax, ebp
	push	eax
	lea	eax, DWORD PTR __$EHRec$[ebp]
	mov	DWORD PTR fs:0, eax
	mov	DWORD PTR _this$[ebp], ecx

; 1061 : 		return (iterator(this->_Myfirst(), &this->_Get_data()));

	mov	ecx, DWORD PTR _this$[ebp]
	call	?_Get_data@?$_Vector_alloc@U?$_Vec_base_types@UTile@@V?$allocator@UTile@@@std@@@std@@@std@@QAEAAV?$_Vector_val@U?$_Simple_types@UTile@@@std@@@2@XZ ; std::_Vector_alloc<std::_Vec_base_types<Tile,std::allocator<Tile> > >::_Get_data
	push	eax
	mov	ecx, DWORD PTR _this$[ebp]
	call	?_Myfirst@?$_Vector_alloc@U?$_Vec_base_types@UTile@@V?$allocator@UTile@@@std@@@std@@@std@@QAEAAPAUTile@@XZ ; std::_Vector_alloc<std::_Vec_base_types<Tile,std::allocator<Tile> > >::_Myfirst
	mov	eax, DWORD PTR [eax]
	push	eax
	mov	ecx, DWORD PTR ___$ReturnUdt$[ebp]
	call	??0?$_Vector_iterator@V?$_Vector_val@U?$_Simple_types@UTile@@@std@@@std@@@std@@QAE@PAUTile@@PBU_Container_base12@1@@Z ; std::_Vector_iterator<std::_Vector_val<std::_Simple_types<Tile> > >::_Vector_iterator<std::_Vector_val<std::_Simple_types<Tile> > >
	mov	eax, DWORD PTR ___$ReturnUdt$[ebp]

; 1062 : 		}

	mov	ecx, DWORD PTR __$EHRec$[ebp]
	mov	DWORD PTR fs:0, ecx
	pop	ecx
	pop	edi
	pop	esi
	pop	ebx
	add	esp, 216				; 000000d8H
	cmp	ebp, esp
	call	__RTC_CheckEsp
	mov	esp, ebp
	pop	ebp
	ret	4
_TEXT	ENDS
;	COMDAT text$x
text$x	SEGMENT
__ehhandler$?begin@?$vector@UTile@@V?$allocator@UTile@@@std@@@std@@QAE?AV?$_Vector_iterator@V?$_Vector_val@U?$_Simple_types@UTile@@@std@@@std@@@2@XZ:
	mov	edx, DWORD PTR [esp+8]
	lea	eax, DWORD PTR [edx+12]
	mov	ecx, DWORD PTR [edx-220]
	xor	ecx, eax
	call	@__security_check_cookie@4
	mov	eax, OFFSET __ehfuncinfo$?begin@?$vector@UTile@@V?$allocator@UTile@@@std@@@std@@QAE?AV?$_Vector_iterator@V?$_Vector_val@U?$_Simple_types@UTile@@@std@@@std@@@2@XZ
	jmp	___CxxFrameHandler3
text$x	ENDS
?begin@?$vector@UTile@@V?$allocator@UTile@@@std@@@std@@QAE?AV?$_Vector_iterator@V?$_Vector_val@U?$_Simple_types@UTile@@@std@@@std@@@2@XZ ENDP ; std::vector<Tile,std::allocator<Tile> >::begin
; Function compile flags: /Odtp /RTCsu /ZI
; File c:\program files (x86)\microsoft visual studio 14.0\vc\include\vector
;	COMDAT ?_Unused_capacity@?$vector@UTile@@V?$allocator@UTile@@@std@@@std@@QBEIXZ
_TEXT	SEGMENT
_this$ = -8						; size = 4
?_Unused_capacity@?$vector@UTile@@V?$allocator@UTile@@@std@@@std@@QBEIXZ PROC ; std::vector<Tile,std::allocator<Tile> >::_Unused_capacity, COMDAT
; _this$ = ecx

; 1050 : 		{	// micro-optimization for capacity() - size()

	push	ebp
	mov	ebp, esp
	sub	esp, 204				; 000000ccH
	push	ebx
	push	esi
	push	edi
	push	ecx
	lea	edi, DWORD PTR [ebp-204]
	mov	ecx, 51					; 00000033H
	mov	eax, -858993460				; ccccccccH
	rep stosd
	pop	ecx
	mov	DWORD PTR _this$[ebp], ecx

; 1051 : 		return (this->_Myend() - this->_Mylast());

	mov	ecx, DWORD PTR _this$[ebp]
	call	?_Myend@?$_Vector_alloc@U?$_Vec_base_types@UTile@@V?$allocator@UTile@@@std@@@std@@@std@@QBEABQAUTile@@XZ ; std::_Vector_alloc<std::_Vec_base_types<Tile,std::allocator<Tile> > >::_Myend
	mov	esi, eax
	mov	ecx, DWORD PTR _this$[ebp]
	call	?_Mylast@?$_Vector_alloc@U?$_Vec_base_types@UTile@@V?$allocator@UTile@@@std@@@std@@@std@@QBEABQAUTile@@XZ ; std::_Vector_alloc<std::_Vec_base_types<Tile,std::allocator<Tile> > >::_Mylast
	mov	ecx, DWORD PTR [esi]
	sub	ecx, DWORD PTR [eax]
	sar	ecx, 5
	mov	eax, ecx

; 1052 : 		}

	pop	edi
	pop	esi
	pop	ebx
	add	esp, 204				; 000000ccH
	cmp	ebp, esp
	call	__RTC_CheckEsp
	mov	esp, ebp
	pop	ebp
	ret	0
?_Unused_capacity@?$vector@UTile@@V?$allocator@UTile@@@std@@@std@@QBEIXZ ENDP ; std::vector<Tile,std::allocator<Tile> >::_Unused_capacity
_TEXT	ENDS
; Function compile flags: /Odtp /RTCsu /ZI
; File c:\program files (x86)\microsoft visual studio 14.0\vc\include\vector
;	COMDAT ?capacity@?$vector@UTile@@V?$allocator@UTile@@@std@@@std@@QBEIXZ
_TEXT	SEGMENT
_this$ = -8						; size = 4
?capacity@?$vector@UTile@@V?$allocator@UTile@@@std@@@std@@QBEIXZ PROC ; std::vector<Tile,std::allocator<Tile> >::capacity, COMDAT
; _this$ = ecx

; 1045 : 		{	// return current length of allocated storage

	push	ebp
	mov	ebp, esp
	sub	esp, 204				; 000000ccH
	push	ebx
	push	esi
	push	edi
	push	ecx
	lea	edi, DWORD PTR [ebp-204]
	mov	ecx, 51					; 00000033H
	mov	eax, -858993460				; ccccccccH
	rep stosd
	pop	ecx
	mov	DWORD PTR _this$[ebp], ecx

; 1046 : 		return (this->_Myend() - this->_Myfirst());

	mov	ecx, DWORD PTR _this$[ebp]
	call	?_Myend@?$_Vector_alloc@U?$_Vec_base_types@UTile@@V?$allocator@UTile@@@std@@@std@@@std@@QBEABQAUTile@@XZ ; std::_Vector_alloc<std::_Vec_base_types<Tile,std::allocator<Tile> > >::_Myend
	mov	esi, eax
	mov	ecx, DWORD PTR _this$[ebp]
	call	?_Myfirst@?$_Vector_alloc@U?$_Vec_base_types@UTile@@V?$allocator@UTile@@@std@@@std@@@std@@QBEABQAUTile@@XZ ; std::_Vector_alloc<std::_Vec_base_types<Tile,std::allocator<Tile> > >::_Myfirst
	mov	ecx, DWORD PTR [esi]
	sub	ecx, DWORD PTR [eax]
	sar	ecx, 5
	mov	eax, ecx

; 1047 : 		}

	pop	edi
	pop	esi
	pop	ebx
	add	esp, 204				; 000000ccH
	cmp	ebp, esp
	call	__RTC_CheckEsp
	mov	esp, ebp
	pop	ebp
	ret	0
?capacity@?$vector@UTile@@V?$allocator@UTile@@@std@@@std@@QBEIXZ ENDP ; std::vector<Tile,std::allocator<Tile> >::capacity
_TEXT	ENDS
; Function compile flags: /Odtp /RTCsu /ZI
; File c:\program files (x86)\microsoft visual studio 14.0\vc\include\vector
;	COMDAT ??1?$vector@UTile@@V?$allocator@UTile@@@std@@@std@@QAE@XZ
_TEXT	SEGMENT
_this$ = -20						; size = 4
__$EHRec$ = -12						; size = 12
??1?$vector@UTile@@V?$allocator@UTile@@@std@@@std@@QAE@XZ PROC ; std::vector<Tile,std::allocator<Tile> >::~vector<Tile,std::allocator<Tile> >, COMDAT
; _this$ = ecx

; 978  : 		{	// destroy the object

	push	ebp
	mov	ebp, esp
	push	-1
	push	__ehhandler$??1?$vector@UTile@@V?$allocator@UTile@@@std@@@std@@QAE@XZ
	mov	eax, DWORD PTR fs:0
	push	eax
	sub	esp, 204				; 000000ccH
	push	ebx
	push	esi
	push	edi
	push	ecx
	lea	edi, DWORD PTR [ebp-216]
	mov	ecx, 51					; 00000033H
	mov	eax, -858993460				; ccccccccH
	rep stosd
	pop	ecx
	mov	eax, DWORD PTR ___security_cookie
	xor	eax, ebp
	push	eax
	lea	eax, DWORD PTR __$EHRec$[ebp]
	mov	DWORD PTR fs:0, eax
	mov	DWORD PTR _this$[ebp], ecx

; 979  : 		_Tidy();

	mov	ecx, DWORD PTR _this$[ebp]
	call	?_Tidy@?$vector@UTile@@V?$allocator@UTile@@@std@@@std@@IAEXXZ ; std::vector<Tile,std::allocator<Tile> >::_Tidy

; 980  : 		}

	mov	ecx, DWORD PTR _this$[ebp]
	call	??1?$_Vector_alloc@U?$_Vec_base_types@UTile@@V?$allocator@UTile@@@std@@@std@@@std@@QAE@XZ ; std::_Vector_alloc<std::_Vec_base_types<Tile,std::allocator<Tile> > >::~_Vector_alloc<std::_Vec_base_types<Tile,std::allocator<Tile> > >
	mov	ecx, DWORD PTR __$EHRec$[ebp]
	mov	DWORD PTR fs:0, ecx
	pop	ecx
	pop	edi
	pop	esi
	pop	ebx
	add	esp, 216				; 000000d8H
	cmp	ebp, esp
	call	__RTC_CheckEsp
	mov	esp, ebp
	pop	ebp
	ret	0
_TEXT	ENDS
;	COMDAT text$x
text$x	SEGMENT
__ehhandler$??1?$vector@UTile@@V?$allocator@UTile@@@std@@@std@@QAE@XZ:
	mov	edx, DWORD PTR [esp+8]
	lea	eax, DWORD PTR [edx+12]
	mov	ecx, DWORD PTR [edx-220]
	xor	ecx, eax
	call	@__security_check_cookie@4
	mov	eax, OFFSET __ehfuncinfo$??1?$vector@UTile@@V?$allocator@UTile@@@std@@@std@@QAE@XZ
	jmp	___CxxFrameHandler3
text$x	ENDS
??1?$vector@UTile@@V?$allocator@UTile@@@std@@@std@@QAE@XZ ENDP ; std::vector<Tile,std::allocator<Tile> >::~vector<Tile,std::allocator<Tile> >
; Function compile flags: /Odtp /RTCsu /ZI
; File c:\program files (x86)\microsoft visual studio 14.0\vc\include\vector
;	COMDAT ??0?$vector@UTile@@V?$allocator@UTile@@@std@@@std@@QAE@XZ
_TEXT	SEGMENT
_this$ = -20						; size = 4
__$EHRec$ = -12						; size = 12
??0?$vector@UTile@@V?$allocator@UTile@@@std@@@std@@QAE@XZ PROC ; std::vector<Tile,std::allocator<Tile> >::vector<Tile,std::allocator<Tile> >, COMDAT
; _this$ = ecx

; 710  : 		{	// construct empty vector

	push	ebp
	mov	ebp, esp
	push	-1
	push	__ehhandler$??0?$vector@UTile@@V?$allocator@UTile@@@std@@@std@@QAE@XZ
	mov	eax, DWORD PTR fs:0
	push	eax
	sub	esp, 204				; 000000ccH
	push	ebx
	push	esi
	push	edi
	push	ecx
	lea	edi, DWORD PTR [ebp-216]
	mov	ecx, 51					; 00000033H
	mov	eax, -858993460				; ccccccccH
	rep stosd
	pop	ecx
	mov	eax, DWORD PTR ___security_cookie
	xor	eax, ebp
	push	eax
	lea	eax, DWORD PTR __$EHRec$[ebp]
	mov	DWORD PTR fs:0, eax
	mov	DWORD PTR _this$[ebp], ecx

; 709  : 		: _Mybase()

	mov	ecx, DWORD PTR _this$[ebp]
	call	??0?$_Vector_alloc@U?$_Vec_base_types@UTile@@V?$allocator@UTile@@@std@@@std@@@std@@QAE@XZ ; std::_Vector_alloc<std::_Vec_base_types<Tile,std::allocator<Tile> > >::_Vector_alloc<std::_Vec_base_types<Tile,std::allocator<Tile> > >

; 711  : 		}

	mov	eax, DWORD PTR _this$[ebp]
	mov	ecx, DWORD PTR __$EHRec$[ebp]
	mov	DWORD PTR fs:0, ecx
	pop	ecx
	pop	edi
	pop	esi
	pop	ebx
	add	esp, 216				; 000000d8H
	cmp	ebp, esp
	call	__RTC_CheckEsp
	mov	esp, ebp
	pop	ebp
	ret	0
_TEXT	ENDS
;	COMDAT text$x
text$x	SEGMENT
__ehhandler$??0?$vector@UTile@@V?$allocator@UTile@@@std@@@std@@QAE@XZ:
	mov	edx, DWORD PTR [esp+8]
	lea	eax, DWORD PTR [edx+12]
	mov	ecx, DWORD PTR [edx-220]
	xor	ecx, eax
	call	@__security_check_cookie@4
	mov	eax, OFFSET __ehfuncinfo$??0?$vector@UTile@@V?$allocator@UTile@@@std@@@std@@QAE@XZ
	jmp	___CxxFrameHandler3
text$x	ENDS
??0?$vector@UTile@@V?$allocator@UTile@@@std@@@std@@QAE@XZ ENDP ; std::vector<Tile,std::allocator<Tile> >::vector<Tile,std::allocator<Tile> >
; Function compile flags: /Odtp /RTCsu /ZI
;	COMDAT ??1?$_Compressed_pair@U?$_Wrap_alloc@V?$allocator@UTile@@@std@@@std@@V?$_Vector_val@U?$_Simple_types@UTile@@@std@@@2@$00@std@@QAE@XZ
_TEXT	SEGMENT
_this$ = -8						; size = 4
??1?$_Compressed_pair@U?$_Wrap_alloc@V?$allocator@UTile@@@std@@@std@@V?$_Vector_val@U?$_Simple_types@UTile@@@std@@@2@$00@std@@QAE@XZ PROC ; std::_Compressed_pair<std::_Wrap_alloc<std::allocator<Tile> >,std::_Vector_val<std::_Simple_types<Tile> >,1>::~_Compressed_pair<std::_Wrap_alloc<std::allocator<Tile> >,std::_Vector_val<std::_Simple_types<Tile> >,1>, COMDAT
; _this$ = ecx
	push	ebp
	mov	ebp, esp
	sub	esp, 204				; 000000ccH
	push	ebx
	push	esi
	push	edi
	push	ecx
	lea	edi, DWORD PTR [ebp-204]
	mov	ecx, 51					; 00000033H
	mov	eax, -858993460				; ccccccccH
	rep stosd
	pop	ecx
	mov	DWORD PTR _this$[ebp], ecx
	mov	ecx, DWORD PTR _this$[ebp]
	call	??1?$_Vector_val@U?$_Simple_types@UTile@@@std@@@std@@QAE@XZ
	pop	edi
	pop	esi
	pop	ebx
	add	esp, 204				; 000000ccH
	cmp	ebp, esp
	call	__RTC_CheckEsp
	mov	esp, ebp
	pop	ebp
	ret	0
??1?$_Compressed_pair@U?$_Wrap_alloc@V?$allocator@UTile@@@std@@@std@@V?$_Vector_val@U?$_Simple_types@UTile@@@std@@@2@$00@std@@QAE@XZ ENDP ; std::_Compressed_pair<std::_Wrap_alloc<std::allocator<Tile> >,std::_Vector_val<std::_Simple_types<Tile> >,1>::~_Compressed_pair<std::_Wrap_alloc<std::allocator<Tile> >,std::_Vector_val<std::_Simple_types<Tile> >,1>
_TEXT	ENDS
; Function compile flags: /Odtp /RTCsu /ZI
; File c:\program files (x86)\microsoft visual studio 14.0\vc\include\xutility
;	COMDAT ?_Get_second@?$_Compressed_pair@U?$_Wrap_alloc@V?$allocator@UTile@@@std@@@std@@V?$_Vector_val@U?$_Simple_types@UTile@@@std@@@2@$00@std@@QBEABV?$_Vector_val@U?$_Simple_types@UTile@@@std@@@2@XZ
_TEXT	SEGMENT
_this$ = -8						; size = 4
?_Get_second@?$_Compressed_pair@U?$_Wrap_alloc@V?$allocator@UTile@@@std@@@std@@V?$_Vector_val@U?$_Simple_types@UTile@@@std@@@2@$00@std@@QBEABV?$_Vector_val@U?$_Simple_types@UTile@@@std@@@2@XZ PROC ; std::_Compressed_pair<std::_Wrap_alloc<std::allocator<Tile> >,std::_Vector_val<std::_Simple_types<Tile> >,1>::_Get_second, COMDAT
; _this$ = ecx

; 318  : 		{	// return const reference to second

	push	ebp
	mov	ebp, esp
	sub	esp, 204				; 000000ccH
	push	ebx
	push	esi
	push	edi
	push	ecx
	lea	edi, DWORD PTR [ebp-204]
	mov	ecx, 51					; 00000033H
	mov	eax, -858993460				; ccccccccH
	rep stosd
	pop	ecx
	mov	DWORD PTR _this$[ebp], ecx

; 319  : 		return (_Myval2);

	mov	eax, DWORD PTR _this$[ebp]

; 320  : 		}

	pop	edi
	pop	esi
	pop	ebx
	mov	esp, ebp
	pop	ebp
	ret	0
?_Get_second@?$_Compressed_pair@U?$_Wrap_alloc@V?$allocator@UTile@@@std@@@std@@V?$_Vector_val@U?$_Simple_types@UTile@@@std@@@2@$00@std@@QBEABV?$_Vector_val@U?$_Simple_types@UTile@@@std@@@2@XZ ENDP ; std::_Compressed_pair<std::_Wrap_alloc<std::allocator<Tile> >,std::_Vector_val<std::_Simple_types<Tile> >,1>::_Get_second
_TEXT	ENDS
; Function compile flags: /Odtp /RTCsu /ZI
; File c:\program files (x86)\microsoft visual studio 14.0\vc\include\xutility
;	COMDAT ?_Get_second@?$_Compressed_pair@U?$_Wrap_alloc@V?$allocator@UTile@@@std@@@std@@V?$_Vector_val@U?$_Simple_types@UTile@@@std@@@2@$00@std@@QAEAAV?$_Vector_val@U?$_Simple_types@UTile@@@std@@@2@XZ
_TEXT	SEGMENT
_this$ = -8						; size = 4
?_Get_second@?$_Compressed_pair@U?$_Wrap_alloc@V?$allocator@UTile@@@std@@@std@@V?$_Vector_val@U?$_Simple_types@UTile@@@std@@@2@$00@std@@QAEAAV?$_Vector_val@U?$_Simple_types@UTile@@@std@@@2@XZ PROC ; std::_Compressed_pair<std::_Wrap_alloc<std::allocator<Tile> >,std::_Vector_val<std::_Simple_types<Tile> >,1>::_Get_second, COMDAT
; _this$ = ecx

; 313  : 		{	// return reference to second

	push	ebp
	mov	ebp, esp
	sub	esp, 204				; 000000ccH
	push	ebx
	push	esi
	push	edi
	push	ecx
	lea	edi, DWORD PTR [ebp-204]
	mov	ecx, 51					; 00000033H
	mov	eax, -858993460				; ccccccccH
	rep stosd
	pop	ecx
	mov	DWORD PTR _this$[ebp], ecx

; 314  : 		return (_Myval2);

	mov	eax, DWORD PTR _this$[ebp]

; 315  : 		}

	pop	edi
	pop	esi
	pop	ebx
	mov	esp, ebp
	pop	ebp
	ret	0
?_Get_second@?$_Compressed_pair@U?$_Wrap_alloc@V?$allocator@UTile@@@std@@@std@@V?$_Vector_val@U?$_Simple_types@UTile@@@std@@@2@$00@std@@QAEAAV?$_Vector_val@U?$_Simple_types@UTile@@@std@@@2@XZ ENDP ; std::_Compressed_pair<std::_Wrap_alloc<std::allocator<Tile> >,std::_Vector_val<std::_Simple_types<Tile> >,1>::_Get_second
_TEXT	ENDS
; Function compile flags: /Odtp /RTCsu /ZI
; File c:\program files (x86)\microsoft visual studio 14.0\vc\include\xutility
;	COMDAT ?_Get_first@?$_Compressed_pair@U?$_Wrap_alloc@V?$allocator@UTile@@@std@@@std@@V?$_Vector_val@U?$_Simple_types@UTile@@@std@@@2@$00@std@@QBEABU?$_Wrap_alloc@V?$allocator@UTile@@@std@@@2@XZ
_TEXT	SEGMENT
_this$ = -8						; size = 4
?_Get_first@?$_Compressed_pair@U?$_Wrap_alloc@V?$allocator@UTile@@@std@@@std@@V?$_Vector_val@U?$_Simple_types@UTile@@@std@@@2@$00@std@@QBEABU?$_Wrap_alloc@V?$allocator@UTile@@@std@@@2@XZ PROC ; std::_Compressed_pair<std::_Wrap_alloc<std::allocator<Tile> >,std::_Vector_val<std::_Simple_types<Tile> >,1>::_Get_first, COMDAT
; _this$ = ecx

; 298  : 		{	// return const reference to first

	push	ebp
	mov	ebp, esp
	sub	esp, 204				; 000000ccH
	push	ebx
	push	esi
	push	edi
	push	ecx
	lea	edi, DWORD PTR [ebp-204]
	mov	ecx, 51					; 00000033H
	mov	eax, -858993460				; ccccccccH
	rep stosd
	pop	ecx
	mov	DWORD PTR _this$[ebp], ecx

; 299  : 		return (*this);

	mov	eax, DWORD PTR _this$[ebp]

; 300  : 		}

	pop	edi
	pop	esi
	pop	ebx
	mov	esp, ebp
	pop	ebp
	ret	0
?_Get_first@?$_Compressed_pair@U?$_Wrap_alloc@V?$allocator@UTile@@@std@@@std@@V?$_Vector_val@U?$_Simple_types@UTile@@@std@@@2@$00@std@@QBEABU?$_Wrap_alloc@V?$allocator@UTile@@@std@@@2@XZ ENDP ; std::_Compressed_pair<std::_Wrap_alloc<std::allocator<Tile> >,std::_Vector_val<std::_Simple_types<Tile> >,1>::_Get_first
_TEXT	ENDS
; Function compile flags: /Odtp /RTCsu /ZI
; File c:\program files (x86)\microsoft visual studio 14.0\vc\include\xutility
;	COMDAT ?_Get_first@?$_Compressed_pair@U?$_Wrap_alloc@V?$allocator@UTile@@@std@@@std@@V?$_Vector_val@U?$_Simple_types@UTile@@@std@@@2@$00@std@@QAEAAU?$_Wrap_alloc@V?$allocator@UTile@@@std@@@2@XZ
_TEXT	SEGMENT
_this$ = -8						; size = 4
?_Get_first@?$_Compressed_pair@U?$_Wrap_alloc@V?$allocator@UTile@@@std@@@std@@V?$_Vector_val@U?$_Simple_types@UTile@@@std@@@2@$00@std@@QAEAAU?$_Wrap_alloc@V?$allocator@UTile@@@std@@@2@XZ PROC ; std::_Compressed_pair<std::_Wrap_alloc<std::allocator<Tile> >,std::_Vector_val<std::_Simple_types<Tile> >,1>::_Get_first, COMDAT
; _this$ = ecx

; 293  : 		{	// return reference to first

	push	ebp
	mov	ebp, esp
	sub	esp, 204				; 000000ccH
	push	ebx
	push	esi
	push	edi
	push	ecx
	lea	edi, DWORD PTR [ebp-204]
	mov	ecx, 51					; 00000033H
	mov	eax, -858993460				; ccccccccH
	rep stosd
	pop	ecx
	mov	DWORD PTR _this$[ebp], ecx

; 294  : 		return (*this);

	mov	eax, DWORD PTR _this$[ebp]

; 295  : 		}

	pop	edi
	pop	esi
	pop	ebx
	mov	esp, ebp
	pop	ebp
	ret	0
?_Get_first@?$_Compressed_pair@U?$_Wrap_alloc@V?$allocator@UTile@@@std@@@std@@V?$_Vector_val@U?$_Simple_types@UTile@@@std@@@2@$00@std@@QAEAAU?$_Wrap_alloc@V?$allocator@UTile@@@std@@@2@XZ ENDP ; std::_Compressed_pair<std::_Wrap_alloc<std::allocator<Tile> >,std::_Vector_val<std::_Simple_types<Tile> >,1>::_Get_first
_TEXT	ENDS
; Function compile flags: /Odtp /RTCsu /ZI
;	COMDAT ??1?$_Vector_val@U?$_Simple_types@UTile@@@std@@@std@@QAE@XZ
_TEXT	SEGMENT
_this$ = -8						; size = 4
??1?$_Vector_val@U?$_Simple_types@UTile@@@std@@@std@@QAE@XZ PROC ; std::_Vector_val<std::_Simple_types<Tile> >::~_Vector_val<std::_Simple_types<Tile> >, COMDAT
; _this$ = ecx
	push	ebp
	mov	ebp, esp
	sub	esp, 204				; 000000ccH
	push	ebx
	push	esi
	push	edi
	push	ecx
	lea	edi, DWORD PTR [ebp-204]
	mov	ecx, 51					; 00000033H
	mov	eax, -858993460				; ccccccccH
	rep stosd
	pop	ecx
	mov	DWORD PTR _this$[ebp], ecx
	mov	ecx, DWORD PTR _this$[ebp]
	call	??1_Container_base12@std@@QAE@XZ	; std::_Container_base12::~_Container_base12
	pop	edi
	pop	esi
	pop	ebx
	add	esp, 204				; 000000ccH
	cmp	ebp, esp
	call	__RTC_CheckEsp
	mov	esp, ebp
	pop	ebp
	ret	0
??1?$_Vector_val@U?$_Simple_types@UTile@@@std@@@std@@QAE@XZ ENDP ; std::_Vector_val<std::_Simple_types<Tile> >::~_Vector_val<std::_Simple_types<Tile> >
_TEXT	ENDS
; Function compile flags: /Odtp /RTCsu /ZI
; File c:\program files (x86)\microsoft visual studio 14.0\vc\include\vector
;	COMDAT ??0?$_Vector_val@U?$_Simple_types@UTile@@@std@@@std@@QAE@XZ
_TEXT	SEGMENT
_this$ = -8						; size = 4
??0?$_Vector_val@U?$_Simple_types@UTile@@@std@@@std@@QAE@XZ PROC ; std::_Vector_val<std::_Simple_types<Tile> >::_Vector_val<std::_Simple_types<Tile> >, COMDAT
; _this$ = ecx

; 478  : 	_Vector_val()

	push	ebp
	mov	ebp, esp
	sub	esp, 204				; 000000ccH
	push	ebx
	push	esi
	push	edi
	push	ecx
	lea	edi, DWORD PTR [ebp-204]
	mov	ecx, 51					; 00000033H
	mov	eax, -858993460				; ccccccccH
	rep stosd
	pop	ecx
	mov	DWORD PTR _this$[ebp], ecx

; 479  : 		{	// initialize values

	mov	ecx, DWORD PTR _this$[ebp]
	call	??0_Container_base12@std@@QAE@XZ	; std::_Container_base12::_Container_base12

; 480  : 		_Myfirst = pointer();

	mov	eax, DWORD PTR _this$[ebp]
	mov	DWORD PTR [eax+4], 0

; 481  : 		_Mylast = pointer();

	mov	eax, DWORD PTR _this$[ebp]
	mov	DWORD PTR [eax+8], 0

; 482  : 		_Myend = pointer();

	mov	eax, DWORD PTR _this$[ebp]
	mov	DWORD PTR [eax+12], 0

; 483  : 		}

	mov	eax, DWORD PTR _this$[ebp]
	pop	edi
	pop	esi
	pop	ebx
	add	esp, 204				; 000000ccH
	cmp	ebp, esp
	call	__RTC_CheckEsp
	mov	esp, ebp
	pop	ebp
	ret	0
??0?$_Vector_val@U?$_Simple_types@UTile@@@std@@@std@@QAE@XZ ENDP ; std::_Vector_val<std::_Simple_types<Tile> >::_Vector_val<std::_Simple_types<Tile> >
_TEXT	ENDS
; Function compile flags: /Odtp /RTCsu /ZI
; File c:\program files (x86)\microsoft visual studio 14.0\vc\include\vector
;	COMDAT ?_Myend@?$_Vector_alloc@U?$_Vec_base_types@UTile@@V?$allocator@UTile@@@std@@@std@@@std@@QBEABQAUTile@@XZ
_TEXT	SEGMENT
_this$ = -8						; size = 4
?_Myend@?$_Vector_alloc@U?$_Vec_base_types@UTile@@V?$allocator@UTile@@@std@@@std@@@std@@QBEABQAUTile@@XZ PROC ; std::_Vector_alloc<std::_Vec_base_types<Tile,std::allocator<Tile> > >::_Myend, COMDAT
; _this$ = ecx

; 670  : 		{	// return const reference to _Myend

	push	ebp
	mov	ebp, esp
	sub	esp, 204				; 000000ccH
	push	ebx
	push	esi
	push	edi
	push	ecx
	lea	edi, DWORD PTR [ebp-204]
	mov	ecx, 51					; 00000033H
	mov	eax, -858993460				; ccccccccH
	rep stosd
	pop	ecx
	mov	DWORD PTR _this$[ebp], ecx

; 671  : 		return (_Get_data()._Myend);

	mov	ecx, DWORD PTR _this$[ebp]
	call	?_Get_data@?$_Vector_alloc@U?$_Vec_base_types@UTile@@V?$allocator@UTile@@@std@@@std@@@std@@QBEABV?$_Vector_val@U?$_Simple_types@UTile@@@std@@@2@XZ ; std::_Vector_alloc<std::_Vec_base_types<Tile,std::allocator<Tile> > >::_Get_data
	add	eax, 12					; 0000000cH

; 672  : 		}

	pop	edi
	pop	esi
	pop	ebx
	add	esp, 204				; 000000ccH
	cmp	ebp, esp
	call	__RTC_CheckEsp
	mov	esp, ebp
	pop	ebp
	ret	0
?_Myend@?$_Vector_alloc@U?$_Vec_base_types@UTile@@V?$allocator@UTile@@@std@@@std@@@std@@QBEABQAUTile@@XZ ENDP ; std::_Vector_alloc<std::_Vec_base_types<Tile,std::allocator<Tile> > >::_Myend
_TEXT	ENDS
; Function compile flags: /Odtp /RTCsu /ZI
; File c:\program files (x86)\microsoft visual studio 14.0\vc\include\vector
;	COMDAT ?_Myend@?$_Vector_alloc@U?$_Vec_base_types@UTile@@V?$allocator@UTile@@@std@@@std@@@std@@QAEAAPAUTile@@XZ
_TEXT	SEGMENT
_this$ = -8						; size = 4
?_Myend@?$_Vector_alloc@U?$_Vec_base_types@UTile@@V?$allocator@UTile@@@std@@@std@@@std@@QAEAAPAUTile@@XZ PROC ; std::_Vector_alloc<std::_Vec_base_types<Tile,std::allocator<Tile> > >::_Myend, COMDAT
; _this$ = ecx

; 665  : 		{	// return reference to _Myend

	push	ebp
	mov	ebp, esp
	sub	esp, 204				; 000000ccH
	push	ebx
	push	esi
	push	edi
	push	ecx
	lea	edi, DWORD PTR [ebp-204]
	mov	ecx, 51					; 00000033H
	mov	eax, -858993460				; ccccccccH
	rep stosd
	pop	ecx
	mov	DWORD PTR _this$[ebp], ecx

; 666  : 		return (_Get_data()._Myend);

	mov	ecx, DWORD PTR _this$[ebp]
	call	?_Get_data@?$_Vector_alloc@U?$_Vec_base_types@UTile@@V?$allocator@UTile@@@std@@@std@@@std@@QAEAAV?$_Vector_val@U?$_Simple_types@UTile@@@std@@@2@XZ ; std::_Vector_alloc<std::_Vec_base_types<Tile,std::allocator<Tile> > >::_Get_data
	add	eax, 12					; 0000000cH

; 667  : 		}

	pop	edi
	pop	esi
	pop	ebx
	add	esp, 204				; 000000ccH
	cmp	ebp, esp
	call	__RTC_CheckEsp
	mov	esp, ebp
	pop	ebp
	ret	0
?_Myend@?$_Vector_alloc@U?$_Vec_base_types@UTile@@V?$allocator@UTile@@@std@@@std@@@std@@QAEAAPAUTile@@XZ ENDP ; std::_Vector_alloc<std::_Vec_base_types<Tile,std::allocator<Tile> > >::_Myend
_TEXT	ENDS
; Function compile flags: /Odtp /RTCsu /ZI
; File c:\program files (x86)\microsoft visual studio 14.0\vc\include\vector
;	COMDAT ?_Mylast@?$_Vector_alloc@U?$_Vec_base_types@UTile@@V?$allocator@UTile@@@std@@@std@@@std@@QBEABQAUTile@@XZ
_TEXT	SEGMENT
_this$ = -8						; size = 4
?_Mylast@?$_Vector_alloc@U?$_Vec_base_types@UTile@@V?$allocator@UTile@@@std@@@std@@@std@@QBEABQAUTile@@XZ PROC ; std::_Vector_alloc<std::_Vec_base_types<Tile,std::allocator<Tile> > >::_Mylast, COMDAT
; _this$ = ecx

; 660  : 		{	// return const reference to _Mylast

	push	ebp
	mov	ebp, esp
	sub	esp, 204				; 000000ccH
	push	ebx
	push	esi
	push	edi
	push	ecx
	lea	edi, DWORD PTR [ebp-204]
	mov	ecx, 51					; 00000033H
	mov	eax, -858993460				; ccccccccH
	rep stosd
	pop	ecx
	mov	DWORD PTR _this$[ebp], ecx

; 661  : 		return (_Get_data()._Mylast);

	mov	ecx, DWORD PTR _this$[ebp]
	call	?_Get_data@?$_Vector_alloc@U?$_Vec_base_types@UTile@@V?$allocator@UTile@@@std@@@std@@@std@@QBEABV?$_Vector_val@U?$_Simple_types@UTile@@@std@@@2@XZ ; std::_Vector_alloc<std::_Vec_base_types<Tile,std::allocator<Tile> > >::_Get_data
	add	eax, 8

; 662  : 		}

	pop	edi
	pop	esi
	pop	ebx
	add	esp, 204				; 000000ccH
	cmp	ebp, esp
	call	__RTC_CheckEsp
	mov	esp, ebp
	pop	ebp
	ret	0
?_Mylast@?$_Vector_alloc@U?$_Vec_base_types@UTile@@V?$allocator@UTile@@@std@@@std@@@std@@QBEABQAUTile@@XZ ENDP ; std::_Vector_alloc<std::_Vec_base_types<Tile,std::allocator<Tile> > >::_Mylast
_TEXT	ENDS
; Function compile flags: /Odtp /RTCsu /ZI
; File c:\program files (x86)\microsoft visual studio 14.0\vc\include\vector
;	COMDAT ?_Mylast@?$_Vector_alloc@U?$_Vec_base_types@UTile@@V?$allocator@UTile@@@std@@@std@@@std@@QAEAAPAUTile@@XZ
_TEXT	SEGMENT
_this$ = -8						; size = 4
?_Mylast@?$_Vector_alloc@U?$_Vec_base_types@UTile@@V?$allocator@UTile@@@std@@@std@@@std@@QAEAAPAUTile@@XZ PROC ; std::_Vector_alloc<std::_Vec_base_types<Tile,std::allocator<Tile> > >::_Mylast, COMDAT
; _this$ = ecx

; 655  : 		{	// return reference to _Mylast

	push	ebp
	mov	ebp, esp
	sub	esp, 204				; 000000ccH
	push	ebx
	push	esi
	push	edi
	push	ecx
	lea	edi, DWORD PTR [ebp-204]
	mov	ecx, 51					; 00000033H
	mov	eax, -858993460				; ccccccccH
	rep stosd
	pop	ecx
	mov	DWORD PTR _this$[ebp], ecx

; 656  : 		return (_Get_data()._Mylast);

	mov	ecx, DWORD PTR _this$[ebp]
	call	?_Get_data@?$_Vector_alloc@U?$_Vec_base_types@UTile@@V?$allocator@UTile@@@std@@@std@@@std@@QAEAAV?$_Vector_val@U?$_Simple_types@UTile@@@std@@@2@XZ ; std::_Vector_alloc<std::_Vec_base_types<Tile,std::allocator<Tile> > >::_Get_data
	add	eax, 8

; 657  : 		}

	pop	edi
	pop	esi
	pop	ebx
	add	esp, 204				; 000000ccH
	cmp	ebp, esp
	call	__RTC_CheckEsp
	mov	esp, ebp
	pop	ebp
	ret	0
?_Mylast@?$_Vector_alloc@U?$_Vec_base_types@UTile@@V?$allocator@UTile@@@std@@@std@@@std@@QAEAAPAUTile@@XZ ENDP ; std::_Vector_alloc<std::_Vec_base_types<Tile,std::allocator<Tile> > >::_Mylast
_TEXT	ENDS
; Function compile flags: /Odtp /RTCsu /ZI
; File c:\program files (x86)\microsoft visual studio 14.0\vc\include\vector
;	COMDAT ?_Myfirst@?$_Vector_alloc@U?$_Vec_base_types@UTile@@V?$allocator@UTile@@@std@@@std@@@std@@QBEABQAUTile@@XZ
_TEXT	SEGMENT
_this$ = -8						; size = 4
?_Myfirst@?$_Vector_alloc@U?$_Vec_base_types@UTile@@V?$allocator@UTile@@@std@@@std@@@std@@QBEABQAUTile@@XZ PROC ; std::_Vector_alloc<std::_Vec_base_types<Tile,std::allocator<Tile> > >::_Myfirst, COMDAT
; _this$ = ecx

; 650  : 		{	// return const reference to _Myfirst

	push	ebp
	mov	ebp, esp
	sub	esp, 204				; 000000ccH
	push	ebx
	push	esi
	push	edi
	push	ecx
	lea	edi, DWORD PTR [ebp-204]
	mov	ecx, 51					; 00000033H
	mov	eax, -858993460				; ccccccccH
	rep stosd
	pop	ecx
	mov	DWORD PTR _this$[ebp], ecx

; 651  : 		return (_Get_data()._Myfirst);

	mov	ecx, DWORD PTR _this$[ebp]
	call	?_Get_data@?$_Vector_alloc@U?$_Vec_base_types@UTile@@V?$allocator@UTile@@@std@@@std@@@std@@QBEABV?$_Vector_val@U?$_Simple_types@UTile@@@std@@@2@XZ ; std::_Vector_alloc<std::_Vec_base_types<Tile,std::allocator<Tile> > >::_Get_data
	add	eax, 4

; 652  : 		}

	pop	edi
	pop	esi
	pop	ebx
	add	esp, 204				; 000000ccH
	cmp	ebp, esp
	call	__RTC_CheckEsp
	mov	esp, ebp
	pop	ebp
	ret	0
?_Myfirst@?$_Vector_alloc@U?$_Vec_base_types@UTile@@V?$allocator@UTile@@@std@@@std@@@std@@QBEABQAUTile@@XZ ENDP ; std::_Vector_alloc<std::_Vec_base_types<Tile,std::allocator<Tile> > >::_Myfirst
_TEXT	ENDS
; Function compile flags: /Odtp /RTCsu /ZI
; File c:\program files (x86)\microsoft visual studio 14.0\vc\include\vector
;	COMDAT ?_Myfirst@?$_Vector_alloc@U?$_Vec_base_types@UTile@@V?$allocator@UTile@@@std@@@std@@@std@@QAEAAPAUTile@@XZ
_TEXT	SEGMENT
_this$ = -8						; size = 4
?_Myfirst@?$_Vector_alloc@U?$_Vec_base_types@UTile@@V?$allocator@UTile@@@std@@@std@@@std@@QAEAAPAUTile@@XZ PROC ; std::_Vector_alloc<std::_Vec_base_types<Tile,std::allocator<Tile> > >::_Myfirst, COMDAT
; _this$ = ecx

; 645  : 		{	// return reference to _Myfirst

	push	ebp
	mov	ebp, esp
	sub	esp, 204				; 000000ccH
	push	ebx
	push	esi
	push	edi
	push	ecx
	lea	edi, DWORD PTR [ebp-204]
	mov	ecx, 51					; 00000033H
	mov	eax, -858993460				; ccccccccH
	rep stosd
	pop	ecx
	mov	DWORD PTR _this$[ebp], ecx

; 646  : 		return (_Get_data()._Myfirst);

	mov	ecx, DWORD PTR _this$[ebp]
	call	?_Get_data@?$_Vector_alloc@U?$_Vec_base_types@UTile@@V?$allocator@UTile@@@std@@@std@@@std@@QAEAAV?$_Vector_val@U?$_Simple_types@UTile@@@std@@@2@XZ ; std::_Vector_alloc<std::_Vec_base_types<Tile,std::allocator<Tile> > >::_Get_data
	add	eax, 4

; 647  : 		}

	pop	edi
	pop	esi
	pop	ebx
	add	esp, 204				; 000000ccH
	cmp	ebp, esp
	call	__RTC_CheckEsp
	mov	esp, ebp
	pop	ebp
	ret	0
?_Myfirst@?$_Vector_alloc@U?$_Vec_base_types@UTile@@V?$allocator@UTile@@@std@@@std@@@std@@QAEAAPAUTile@@XZ ENDP ; std::_Vector_alloc<std::_Vec_base_types<Tile,std::allocator<Tile> > >::_Myfirst
_TEXT	ENDS
; Function compile flags: /Odtp /RTCsu /ZI
; File c:\program files (x86)\microsoft visual studio 14.0\vc\include\vector
;	COMDAT ?_Get_data@?$_Vector_alloc@U?$_Vec_base_types@UTile@@V?$allocator@UTile@@@std@@@std@@@std@@QBEABV?$_Vector_val@U?$_Simple_types@UTile@@@std@@@2@XZ
_TEXT	SEGMENT
_this$ = -8						; size = 4
?_Get_data@?$_Vector_alloc@U?$_Vec_base_types@UTile@@V?$allocator@UTile@@@std@@@std@@@std@@QBEABV?$_Vector_val@U?$_Simple_types@UTile@@@std@@@2@XZ PROC ; std::_Vector_alloc<std::_Vec_base_types<Tile,std::allocator<Tile> > >::_Get_data, COMDAT
; _this$ = ecx

; 640  : 		{	// return const reference to _Vector_val

	push	ebp
	mov	ebp, esp
	sub	esp, 204				; 000000ccH
	push	ebx
	push	esi
	push	edi
	push	ecx
	lea	edi, DWORD PTR [ebp-204]
	mov	ecx, 51					; 00000033H
	mov	eax, -858993460				; ccccccccH
	rep stosd
	pop	ecx
	mov	DWORD PTR _this$[ebp], ecx

; 641  : 		return (_Mypair._Get_second());

	mov	ecx, DWORD PTR _this$[ebp]
	call	?_Get_second@?$_Compressed_pair@U?$_Wrap_alloc@V?$allocator@UTile@@@std@@@std@@V?$_Vector_val@U?$_Simple_types@UTile@@@std@@@2@$00@std@@QBEABV?$_Vector_val@U?$_Simple_types@UTile@@@std@@@2@XZ ; std::_Compressed_pair<std::_Wrap_alloc<std::allocator<Tile> >,std::_Vector_val<std::_Simple_types<Tile> >,1>::_Get_second

; 642  : 		}

	pop	edi
	pop	esi
	pop	ebx
	add	esp, 204				; 000000ccH
	cmp	ebp, esp
	call	__RTC_CheckEsp
	mov	esp, ebp
	pop	ebp
	ret	0
?_Get_data@?$_Vector_alloc@U?$_Vec_base_types@UTile@@V?$allocator@UTile@@@std@@@std@@@std@@QBEABV?$_Vector_val@U?$_Simple_types@UTile@@@std@@@2@XZ ENDP ; std::_Vector_alloc<std::_Vec_base_types<Tile,std::allocator<Tile> > >::_Get_data
_TEXT	ENDS
; Function compile flags: /Odtp /RTCsu /ZI
; File c:\program files (x86)\microsoft visual studio 14.0\vc\include\vector
;	COMDAT ?_Get_data@?$_Vector_alloc@U?$_Vec_base_types@UTile@@V?$allocator@UTile@@@std@@@std@@@std@@QAEAAV?$_Vector_val@U?$_Simple_types@UTile@@@std@@@2@XZ
_TEXT	SEGMENT
_this$ = -8						; size = 4
?_Get_data@?$_Vector_alloc@U?$_Vec_base_types@UTile@@V?$allocator@UTile@@@std@@@std@@@std@@QAEAAV?$_Vector_val@U?$_Simple_types@UTile@@@std@@@2@XZ PROC ; std::_Vector_alloc<std::_Vec_base_types<Tile,std::allocator<Tile> > >::_Get_data, COMDAT
; _this$ = ecx

; 635  : 		{	// return reference to _Vector_val

	push	ebp
	mov	ebp, esp
	sub	esp, 204				; 000000ccH
	push	ebx
	push	esi
	push	edi
	push	ecx
	lea	edi, DWORD PTR [ebp-204]
	mov	ecx, 51					; 00000033H
	mov	eax, -858993460				; ccccccccH
	rep stosd
	pop	ecx
	mov	DWORD PTR _this$[ebp], ecx

; 636  : 		return (_Mypair._Get_second());

	mov	ecx, DWORD PTR _this$[ebp]
	call	?_Get_second@?$_Compressed_pair@U?$_Wrap_alloc@V?$allocator@UTile@@@std@@@std@@V?$_Vector_val@U?$_Simple_types@UTile@@@std@@@2@$00@std@@QAEAAV?$_Vector_val@U?$_Simple_types@UTile@@@std@@@2@XZ ; std::_Compressed_pair<std::_Wrap_alloc<std::allocator<Tile> >,std::_Vector_val<std::_Simple_types<Tile> >,1>::_Get_second

; 637  : 		}

	pop	edi
	pop	esi
	pop	ebx
	add	esp, 204				; 000000ccH
	cmp	ebp, esp
	call	__RTC_CheckEsp
	mov	esp, ebp
	pop	ebp
	ret	0
?_Get_data@?$_Vector_alloc@U?$_Vec_base_types@UTile@@V?$allocator@UTile@@@std@@@std@@@std@@QAEAAV?$_Vector_val@U?$_Simple_types@UTile@@@std@@@2@XZ ENDP ; std::_Vector_alloc<std::_Vec_base_types<Tile,std::allocator<Tile> > >::_Get_data
_TEXT	ENDS
; Function compile flags: /Odtp /RTCsu /ZI
; File c:\program files (x86)\microsoft visual studio 14.0\vc\include\vector
;	COMDAT ?_Getal@?$_Vector_alloc@U?$_Vec_base_types@UTile@@V?$allocator@UTile@@@std@@@std@@@std@@QBEABU?$_Wrap_alloc@V?$allocator@UTile@@@std@@@2@XZ
_TEXT	SEGMENT
_this$ = -8						; size = 4
?_Getal@?$_Vector_alloc@U?$_Vec_base_types@UTile@@V?$allocator@UTile@@@std@@@std@@@std@@QBEABU?$_Wrap_alloc@V?$allocator@UTile@@@std@@@2@XZ PROC ; std::_Vector_alloc<std::_Vec_base_types<Tile,std::allocator<Tile> > >::_Getal, COMDAT
; _this$ = ecx

; 630  : 		{	// return const reference to allocator

	push	ebp
	mov	ebp, esp
	sub	esp, 204				; 000000ccH
	push	ebx
	push	esi
	push	edi
	push	ecx
	lea	edi, DWORD PTR [ebp-204]
	mov	ecx, 51					; 00000033H
	mov	eax, -858993460				; ccccccccH
	rep stosd
	pop	ecx
	mov	DWORD PTR _this$[ebp], ecx

; 631  : 		return (_Mypair._Get_first());

	mov	ecx, DWORD PTR _this$[ebp]
	call	?_Get_first@?$_Compressed_pair@U?$_Wrap_alloc@V?$allocator@UTile@@@std@@@std@@V?$_Vector_val@U?$_Simple_types@UTile@@@std@@@2@$00@std@@QBEABU?$_Wrap_alloc@V?$allocator@UTile@@@std@@@2@XZ ; std::_Compressed_pair<std::_Wrap_alloc<std::allocator<Tile> >,std::_Vector_val<std::_Simple_types<Tile> >,1>::_Get_first

; 632  : 		}

	pop	edi
	pop	esi
	pop	ebx
	add	esp, 204				; 000000ccH
	cmp	ebp, esp
	call	__RTC_CheckEsp
	mov	esp, ebp
	pop	ebp
	ret	0
?_Getal@?$_Vector_alloc@U?$_Vec_base_types@UTile@@V?$allocator@UTile@@@std@@@std@@@std@@QBEABU?$_Wrap_alloc@V?$allocator@UTile@@@std@@@2@XZ ENDP ; std::_Vector_alloc<std::_Vec_base_types<Tile,std::allocator<Tile> > >::_Getal
_TEXT	ENDS
; Function compile flags: /Odtp /RTCsu /ZI
; File c:\program files (x86)\microsoft visual studio 14.0\vc\include\vector
;	COMDAT ?_Getal@?$_Vector_alloc@U?$_Vec_base_types@UTile@@V?$allocator@UTile@@@std@@@std@@@std@@QAEAAU?$_Wrap_alloc@V?$allocator@UTile@@@std@@@2@XZ
_TEXT	SEGMENT
_this$ = -8						; size = 4
?_Getal@?$_Vector_alloc@U?$_Vec_base_types@UTile@@V?$allocator@UTile@@@std@@@std@@@std@@QAEAAU?$_Wrap_alloc@V?$allocator@UTile@@@std@@@2@XZ PROC ; std::_Vector_alloc<std::_Vec_base_types<Tile,std::allocator<Tile> > >::_Getal, COMDAT
; _this$ = ecx

; 625  : 		{	// return reference to allocator

	push	ebp
	mov	ebp, esp
	sub	esp, 204				; 000000ccH
	push	ebx
	push	esi
	push	edi
	push	ecx
	lea	edi, DWORD PTR [ebp-204]
	mov	ecx, 51					; 00000033H
	mov	eax, -858993460				; ccccccccH
	rep stosd
	pop	ecx
	mov	DWORD PTR _this$[ebp], ecx

; 626  : 		return (_Mypair._Get_first());

	mov	ecx, DWORD PTR _this$[ebp]
	call	?_Get_first@?$_Compressed_pair@U?$_Wrap_alloc@V?$allocator@UTile@@@std@@@std@@V?$_Vector_val@U?$_Simple_types@UTile@@@std@@@2@$00@std@@QAEAAU?$_Wrap_alloc@V?$allocator@UTile@@@std@@@2@XZ ; std::_Compressed_pair<std::_Wrap_alloc<std::allocator<Tile> >,std::_Vector_val<std::_Simple_types<Tile> >,1>::_Get_first

; 627  : 		}

	pop	edi
	pop	esi
	pop	ebx
	add	esp, 204				; 000000ccH
	cmp	ebp, esp
	call	__RTC_CheckEsp
	mov	esp, ebp
	pop	ebp
	ret	0
?_Getal@?$_Vector_alloc@U?$_Vec_base_types@UTile@@V?$allocator@UTile@@@std@@@std@@@std@@QAEAAU?$_Wrap_alloc@V?$allocator@UTile@@@std@@@2@XZ ENDP ; std::_Vector_alloc<std::_Vec_base_types<Tile,std::allocator<Tile> > >::_Getal
_TEXT	ENDS
; Function compile flags: /Odtp /RTCsu /ZI
; File c:\program files (x86)\microsoft visual studio 14.0\vc\include\vector
;	COMDAT ?_Orphan_all@?$_Vector_alloc@U?$_Vec_base_types@UTile@@V?$allocator@UTile@@@std@@@std@@@std@@QAEXXZ
_TEXT	SEGMENT
_this$ = -8						; size = 4
?_Orphan_all@?$_Vector_alloc@U?$_Vec_base_types@UTile@@V?$allocator@UTile@@@std@@@std@@@std@@QAEXXZ PROC ; std::_Vector_alloc<std::_Vec_base_types<Tile,std::allocator<Tile> > >::_Orphan_all, COMDAT
; _this$ = ecx

; 615  : 		{	// orphan all iterators

	push	ebp
	mov	ebp, esp
	sub	esp, 204				; 000000ccH
	push	ebx
	push	esi
	push	edi
	push	ecx
	lea	edi, DWORD PTR [ebp-204]
	mov	ecx, 51					; 00000033H
	mov	eax, -858993460				; ccccccccH
	rep stosd
	pop	ecx
	mov	DWORD PTR _this$[ebp], ecx

; 616  : 		_Get_data()._Orphan_all();

	mov	ecx, DWORD PTR _this$[ebp]
	call	?_Get_data@?$_Vector_alloc@U?$_Vec_base_types@UTile@@V?$allocator@UTile@@@std@@@std@@@std@@QAEAAV?$_Vector_val@U?$_Simple_types@UTile@@@std@@@2@XZ ; std::_Vector_alloc<std::_Vec_base_types<Tile,std::allocator<Tile> > >::_Get_data
	mov	ecx, eax
	call	?_Orphan_all@_Container_base12@std@@QAEXXZ ; std::_Container_base12::_Orphan_all

; 617  : 		}

	pop	edi
	pop	esi
	pop	ebx
	add	esp, 204				; 000000ccH
	cmp	ebp, esp
	call	__RTC_CheckEsp
	mov	esp, ebp
	pop	ebp
	ret	0
?_Orphan_all@?$_Vector_alloc@U?$_Vec_base_types@UTile@@V?$allocator@UTile@@@std@@@std@@@std@@QAEXXZ ENDP ; std::_Vector_alloc<std::_Vec_base_types<Tile,std::allocator<Tile> > >::_Orphan_all
_TEXT	ENDS
; Function compile flags: /Odtp /RTCsu /ZI
; File c:\program files (x86)\microsoft visual studio 14.0\vc\include\vector
;	COMDAT ?_Myproxy@?$_Vector_alloc@U?$_Vec_base_types@UTile@@V?$allocator@UTile@@@std@@@std@@@std@@QAEAAPAU_Container_proxy@2@XZ
_TEXT	SEGMENT
_this$ = -8						; size = 4
?_Myproxy@?$_Vector_alloc@U?$_Vec_base_types@UTile@@V?$allocator@UTile@@@std@@@std@@@std@@QAEAAPAU_Container_proxy@2@XZ PROC ; std::_Vector_alloc<std::_Vec_base_types<Tile,std::allocator<Tile> > >::_Myproxy, COMDAT
; _this$ = ecx

; 604  : 		{	// return reference to _Myproxy

	push	ebp
	mov	ebp, esp
	sub	esp, 204				; 000000ccH
	push	ebx
	push	esi
	push	edi
	push	ecx
	lea	edi, DWORD PTR [ebp-204]
	mov	ecx, 51					; 00000033H
	mov	eax, -858993460				; ccccccccH
	rep stosd
	pop	ecx
	mov	DWORD PTR _this$[ebp], ecx

; 605  : 		return (_Get_data()._Myproxy);

	mov	ecx, DWORD PTR _this$[ebp]
	call	?_Get_data@?$_Vector_alloc@U?$_Vec_base_types@UTile@@V?$allocator@UTile@@@std@@@std@@@std@@QAEAAV?$_Vector_val@U?$_Simple_types@UTile@@@std@@@2@XZ ; std::_Vector_alloc<std::_Vec_base_types<Tile,std::allocator<Tile> > >::_Get_data

; 606  : 		}

	pop	edi
	pop	esi
	pop	ebx
	add	esp, 204				; 000000ccH
	cmp	ebp, esp
	call	__RTC_CheckEsp
	mov	esp, ebp
	pop	ebp
	ret	0
?_Myproxy@?$_Vector_alloc@U?$_Vec_base_types@UTile@@V?$allocator@UTile@@@std@@@std@@@std@@QAEAAPAU_Container_proxy@2@XZ ENDP ; std::_Vector_alloc<std::_Vec_base_types<Tile,std::allocator<Tile> > >::_Myproxy
_TEXT	ENDS
; Function compile flags: /Odtp /RTCsu /ZI
; File c:\program files (x86)\microsoft visual studio 14.0\vc\include\vector
;	COMDAT ?_Getpfirst@?$_Vector_alloc@U?$_Vec_base_types@UTile@@V?$allocator@UTile@@@std@@@std@@@std@@QBEPAPAU_Iterator_base12@2@XZ
_TEXT	SEGMENT
_this$ = -8						; size = 4
?_Getpfirst@?$_Vector_alloc@U?$_Vec_base_types@UTile@@V?$allocator@UTile@@@std@@@std@@@std@@QBEPAPAU_Iterator_base12@2@XZ PROC ; std::_Vector_alloc<std::_Vec_base_types<Tile,std::allocator<Tile> > >::_Getpfirst, COMDAT
; _this$ = ecx

; 599  : 		{	// get address of iterator chain

	push	ebp
	mov	ebp, esp
	sub	esp, 204				; 000000ccH
	push	ebx
	push	esi
	push	edi
	push	ecx
	lea	edi, DWORD PTR [ebp-204]
	mov	ecx, 51					; 00000033H
	mov	eax, -858993460				; ccccccccH
	rep stosd
	pop	ecx
	mov	DWORD PTR _this$[ebp], ecx

; 600  : 		return (_Get_data()._Getpfirst());

	mov	ecx, DWORD PTR _this$[ebp]
	call	?_Get_data@?$_Vector_alloc@U?$_Vec_base_types@UTile@@V?$allocator@UTile@@@std@@@std@@@std@@QBEABV?$_Vector_val@U?$_Simple_types@UTile@@@std@@@2@XZ ; std::_Vector_alloc<std::_Vec_base_types<Tile,std::allocator<Tile> > >::_Get_data
	mov	ecx, eax
	call	?_Getpfirst@_Container_base12@std@@QBEPAPAU_Iterator_base12@2@XZ ; std::_Container_base12::_Getpfirst

; 601  : 		}

	pop	edi
	pop	esi
	pop	ebx
	add	esp, 204				; 000000ccH
	cmp	ebp, esp
	call	__RTC_CheckEsp
	mov	esp, ebp
	pop	ebp
	ret	0
?_Getpfirst@?$_Vector_alloc@U?$_Vec_base_types@UTile@@V?$allocator@UTile@@@std@@@std@@@std@@QBEPAPAU_Iterator_base12@2@XZ ENDP ; std::_Vector_alloc<std::_Vec_base_types<Tile,std::allocator<Tile> > >::_Getpfirst
_TEXT	ENDS
; Function compile flags: /Odtp /RTCsu /ZI
; File c:\program files (x86)\microsoft visual studio 14.0\vc\include\vector
;	COMDAT ?_Free_proxy@?$_Vector_alloc@U?$_Vec_base_types@UTile@@V?$allocator@UTile@@@std@@@std@@@std@@QAEXXZ
_TEXT	SEGMENT
__Alproxy$ = -21					; size = 1
_this$ = -12						; size = 4
__$ArrayPad$ = -4					; size = 4
?_Free_proxy@?$_Vector_alloc@U?$_Vec_base_types@UTile@@V?$allocator@UTile@@@std@@@std@@@std@@QAEXXZ PROC ; std::_Vector_alloc<std::_Vec_base_types<Tile,std::allocator<Tile> > >::_Free_proxy, COMDAT
; _this$ = ecx

; 589  : 		{	// destroy proxy

	push	ebp
	mov	ebp, esp
	sub	esp, 220				; 000000dcH
	push	ebx
	push	esi
	push	edi
	push	ecx
	lea	edi, DWORD PTR [ebp-220]
	mov	ecx, 55					; 00000037H
	mov	eax, -858993460				; ccccccccH
	rep stosd
	pop	ecx
	mov	eax, DWORD PTR ___security_cookie
	xor	eax, ebp
	mov	DWORD PTR __$ArrayPad$[ebp], eax
	mov	DWORD PTR _this$[ebp], ecx

; 590  : 		typename _Alty::template rebind<_Container_proxy>::other
; 591  : 			_Alproxy(_Getal());

	mov	ecx, DWORD PTR _this$[ebp]
	call	?_Getal@?$_Vector_alloc@U?$_Vec_base_types@UTile@@V?$allocator@UTile@@@std@@@std@@@std@@QAEAAU?$_Wrap_alloc@V?$allocator@UTile@@@std@@@2@XZ ; std::_Vector_alloc<std::_Vec_base_types<Tile,std::allocator<Tile> > >::_Getal
	push	eax
	lea	ecx, DWORD PTR __Alproxy$[ebp]
	call	??$?0AAU?$_Wrap_alloc@V?$allocator@UTile@@@std@@@std@@@?$_Wrap_alloc@V?$allocator@U_Container_proxy@std@@@std@@@std@@QAE@AAU?$_Wrap_alloc@V?$allocator@UTile@@@std@@@1@@Z ; std::_Wrap_alloc<std::allocator<std::_Container_proxy> >::_Wrap_alloc<std::allocator<std::_Container_proxy> ><std::_Wrap_alloc<std::allocator<Tile> > &>

; 592  : 		_Orphan_all();

	mov	ecx, DWORD PTR _this$[ebp]
	call	?_Orphan_all@?$_Vector_alloc@U?$_Vec_base_types@UTile@@V?$allocator@UTile@@@std@@@std@@@std@@QAEXXZ ; std::_Vector_alloc<std::_Vec_base_types<Tile,std::allocator<Tile> > >::_Orphan_all

; 593  : 		_Alproxy.destroy(_Myproxy());

	mov	ecx, DWORD PTR _this$[ebp]
	call	?_Myproxy@?$_Vector_alloc@U?$_Vec_base_types@UTile@@V?$allocator@UTile@@@std@@@std@@@std@@QAEAAPAU_Container_proxy@2@XZ ; std::_Vector_alloc<std::_Vec_base_types<Tile,std::allocator<Tile> > >::_Myproxy
	mov	eax, DWORD PTR [eax]
	push	eax
	lea	ecx, DWORD PTR __Alproxy$[ebp]
	call	??$destroy@U_Container_proxy@std@@@?$_Wrap_alloc@V?$allocator@U_Container_proxy@std@@@std@@@std@@QAEXPAU_Container_proxy@1@@Z ; std::_Wrap_alloc<std::allocator<std::_Container_proxy> >::destroy<std::_Container_proxy>

; 594  : 		_Alproxy.deallocate(_Myproxy(), 1);

	push	1
	mov	ecx, DWORD PTR _this$[ebp]
	call	?_Myproxy@?$_Vector_alloc@U?$_Vec_base_types@UTile@@V?$allocator@UTile@@@std@@@std@@@std@@QAEAAPAU_Container_proxy@2@XZ ; std::_Vector_alloc<std::_Vec_base_types<Tile,std::allocator<Tile> > >::_Myproxy
	mov	eax, DWORD PTR [eax]
	push	eax
	lea	ecx, DWORD PTR __Alproxy$[ebp]
	call	?deallocate@?$_Wrap_alloc@V?$allocator@U_Container_proxy@std@@@std@@@std@@QAEXPAU_Container_proxy@2@I@Z ; std::_Wrap_alloc<std::allocator<std::_Container_proxy> >::deallocate

; 595  : 		_Myproxy() = 0;

	mov	ecx, DWORD PTR _this$[ebp]
	call	?_Myproxy@?$_Vector_alloc@U?$_Vec_base_types@UTile@@V?$allocator@UTile@@@std@@@std@@@std@@QAEAAPAU_Container_proxy@2@XZ ; std::_Vector_alloc<std::_Vec_base_types<Tile,std::allocator<Tile> > >::_Myproxy
	mov	DWORD PTR [eax], 0

; 596  : 		}

	push	edx
	mov	ecx, ebp
	push	eax
	lea	edx, DWORD PTR $LN5@Free_proxy
	call	@_RTC_CheckStackVars@8
	pop	eax
	pop	edx
	pop	edi
	pop	esi
	pop	ebx
	mov	ecx, DWORD PTR __$ArrayPad$[ebp]
	xor	ecx, ebp
	call	@__security_check_cookie@4
	add	esp, 220				; 000000dcH
	cmp	ebp, esp
	call	__RTC_CheckEsp
	mov	esp, ebp
	pop	ebp
	ret	0
	npad	1
$LN5@Free_proxy:
	DD	1
	DD	$LN4@Free_proxy
$LN4@Free_proxy:
	DD	-21					; ffffffebH
	DD	1
	DD	$LN3@Free_proxy
$LN3@Free_proxy:
	DB	95					; 0000005fH
	DB	65					; 00000041H
	DB	108					; 0000006cH
	DB	112					; 00000070H
	DB	114					; 00000072H
	DB	111					; 0000006fH
	DB	120					; 00000078H
	DB	121					; 00000079H
	DB	0
?_Free_proxy@?$_Vector_alloc@U?$_Vec_base_types@UTile@@V?$allocator@UTile@@@std@@@std@@@std@@QAEXXZ ENDP ; std::_Vector_alloc<std::_Vec_base_types<Tile,std::allocator<Tile> > >::_Free_proxy
_TEXT	ENDS
; Function compile flags: /Odtp /RTCsu /ZI
; File c:\program files (x86)\microsoft visual studio 14.0\vc\include\vector
;	COMDAT ?_Alloc_proxy@?$_Vector_alloc@U?$_Vec_base_types@UTile@@V?$allocator@UTile@@@std@@@std@@@std@@QAEXXZ
_TEXT	SEGMENT
$T1 = -232						; size = 8
__Alproxy$ = -21					; size = 1
_this$ = -12						; size = 4
__$ArrayPad$ = -4					; size = 4
?_Alloc_proxy@?$_Vector_alloc@U?$_Vec_base_types@UTile@@V?$allocator@UTile@@@std@@@std@@@std@@QAEXXZ PROC ; std::_Vector_alloc<std::_Vec_base_types<Tile,std::allocator<Tile> > >::_Alloc_proxy, COMDAT
; _this$ = ecx

; 580  : 		{	// construct proxy

	push	ebp
	mov	ebp, esp
	sub	esp, 236				; 000000ecH
	push	ebx
	push	esi
	push	edi
	push	ecx
	lea	edi, DWORD PTR [ebp-236]
	mov	ecx, 59					; 0000003bH
	mov	eax, -858993460				; ccccccccH
	rep stosd
	pop	ecx
	mov	eax, DWORD PTR ___security_cookie
	xor	eax, ebp
	mov	DWORD PTR __$ArrayPad$[ebp], eax
	mov	DWORD PTR _this$[ebp], ecx

; 581  : 		typename _Alty::template rebind<_Container_proxy>::other
; 582  : 			_Alproxy(_Getal());

	mov	ecx, DWORD PTR _this$[ebp]
	call	?_Getal@?$_Vector_alloc@U?$_Vec_base_types@UTile@@V?$allocator@UTile@@@std@@@std@@@std@@QAEAAU?$_Wrap_alloc@V?$allocator@UTile@@@std@@@2@XZ ; std::_Vector_alloc<std::_Vec_base_types<Tile,std::allocator<Tile> > >::_Getal
	push	eax
	lea	ecx, DWORD PTR __Alproxy$[ebp]
	call	??$?0AAU?$_Wrap_alloc@V?$allocator@UTile@@@std@@@std@@@?$_Wrap_alloc@V?$allocator@U_Container_proxy@std@@@std@@@std@@QAE@AAU?$_Wrap_alloc@V?$allocator@UTile@@@std@@@1@@Z ; std::_Wrap_alloc<std::allocator<std::_Container_proxy> >::_Wrap_alloc<std::allocator<std::_Container_proxy> ><std::_Wrap_alloc<std::allocator<Tile> > &>

; 583  : 		_Myproxy() = _Alproxy.allocate(1);

	push	1
	lea	ecx, DWORD PTR __Alproxy$[ebp]
	call	?allocate@?$_Wrap_alloc@V?$allocator@U_Container_proxy@std@@@std@@@std@@QAEPAU_Container_proxy@2@I@Z ; std::_Wrap_alloc<std::allocator<std::_Container_proxy> >::allocate
	mov	esi, eax
	mov	ecx, DWORD PTR _this$[ebp]
	call	?_Myproxy@?$_Vector_alloc@U?$_Vec_base_types@UTile@@V?$allocator@UTile@@@std@@@std@@@std@@QAEAAPAU_Container_proxy@2@XZ ; std::_Vector_alloc<std::_Vec_base_types<Tile,std::allocator<Tile> > >::_Myproxy
	mov	DWORD PTR [eax], esi

; 584  : 		_Alproxy.construct(_Myproxy(), _Container_proxy());

	lea	ecx, DWORD PTR $T1[ebp]
	call	??0_Container_proxy@std@@QAE@XZ		; std::_Container_proxy::_Container_proxy
	push	eax
	mov	ecx, DWORD PTR _this$[ebp]
	call	?_Myproxy@?$_Vector_alloc@U?$_Vec_base_types@UTile@@V?$allocator@UTile@@@std@@@std@@@std@@QAEAAPAU_Container_proxy@2@XZ ; std::_Vector_alloc<std::_Vec_base_types<Tile,std::allocator<Tile> > >::_Myproxy
	mov	eax, DWORD PTR [eax]
	push	eax
	lea	ecx, DWORD PTR __Alproxy$[ebp]
	call	??$construct@U_Container_proxy@std@@U12@@?$_Wrap_alloc@V?$allocator@U_Container_proxy@std@@@std@@@std@@QAEXPAU_Container_proxy@1@$$QAU21@@Z ; std::_Wrap_alloc<std::allocator<std::_Container_proxy> >::construct<std::_Container_proxy,std::_Container_proxy>

; 585  : 		_Myproxy()->_Mycont = &_Get_data();

	mov	ecx, DWORD PTR _this$[ebp]
	call	?_Get_data@?$_Vector_alloc@U?$_Vec_base_types@UTile@@V?$allocator@UTile@@@std@@@std@@@std@@QAEAAV?$_Vector_val@U?$_Simple_types@UTile@@@std@@@2@XZ ; std::_Vector_alloc<std::_Vec_base_types<Tile,std::allocator<Tile> > >::_Get_data
	mov	esi, eax
	mov	ecx, DWORD PTR _this$[ebp]
	call	?_Myproxy@?$_Vector_alloc@U?$_Vec_base_types@UTile@@V?$allocator@UTile@@@std@@@std@@@std@@QAEAAPAU_Container_proxy@2@XZ ; std::_Vector_alloc<std::_Vec_base_types<Tile,std::allocator<Tile> > >::_Myproxy
	mov	eax, DWORD PTR [eax]
	mov	DWORD PTR [eax], esi

; 586  : 		}

	push	edx
	mov	ecx, ebp
	push	eax
	lea	edx, DWORD PTR $LN5@Alloc_prox
	call	@_RTC_CheckStackVars@8
	pop	eax
	pop	edx
	pop	edi
	pop	esi
	pop	ebx
	mov	ecx, DWORD PTR __$ArrayPad$[ebp]
	xor	ecx, ebp
	call	@__security_check_cookie@4
	add	esp, 236				; 000000ecH
	cmp	ebp, esp
	call	__RTC_CheckEsp
	mov	esp, ebp
	pop	ebp
	ret	0
$LN5@Alloc_prox:
	DD	1
	DD	$LN4@Alloc_prox
$LN4@Alloc_prox:
	DD	-21					; ffffffebH
	DD	1
	DD	$LN3@Alloc_prox
$LN3@Alloc_prox:
	DB	95					; 0000005fH
	DB	65					; 00000041H
	DB	108					; 0000006cH
	DB	112					; 00000070H
	DB	114					; 00000072H
	DB	111					; 0000006fH
	DB	120					; 00000078H
	DB	121					; 00000079H
	DB	0
?_Alloc_proxy@?$_Vector_alloc@U?$_Vec_base_types@UTile@@V?$allocator@UTile@@@std@@@std@@@std@@QAEXXZ ENDP ; std::_Vector_alloc<std::_Vec_base_types<Tile,std::allocator<Tile> > >::_Alloc_proxy
_TEXT	ENDS
; Function compile flags: /Odtp /RTCsu /ZI
; File c:\program files (x86)\microsoft visual studio 14.0\vc\include\vector
;	COMDAT ??1?$_Vector_alloc@U?$_Vec_base_types@UTile@@V?$allocator@UTile@@@std@@@std@@@std@@QAE@XZ
_TEXT	SEGMENT
_this$ = -20						; size = 4
__$EHRec$ = -12						; size = 12
??1?$_Vector_alloc@U?$_Vec_base_types@UTile@@V?$allocator@UTile@@@std@@@std@@@std@@QAE@XZ PROC ; std::_Vector_alloc<std::_Vec_base_types<Tile,std::allocator<Tile> > >::~_Vector_alloc<std::_Vec_base_types<Tile,std::allocator<Tile> > >, COMDAT
; _this$ = ecx

; 555  : 		{	// destroy proxy

	push	ebp
	mov	ebp, esp
	push	-1
	push	__ehhandler$??1?$_Vector_alloc@U?$_Vec_base_types@UTile@@V?$allocator@UTile@@@std@@@std@@@std@@QAE@XZ
	mov	eax, DWORD PTR fs:0
	push	eax
	sub	esp, 204				; 000000ccH
	push	ebx
	push	esi
	push	edi
	push	ecx
	lea	edi, DWORD PTR [ebp-216]
	mov	ecx, 51					; 00000033H
	mov	eax, -858993460				; ccccccccH
	rep stosd
	pop	ecx
	mov	eax, DWORD PTR ___security_cookie
	xor	eax, ebp
	push	eax
	lea	eax, DWORD PTR __$EHRec$[ebp]
	mov	DWORD PTR fs:0, eax
	mov	DWORD PTR _this$[ebp], ecx

; 556  : 		_Free_proxy();

	mov	ecx, DWORD PTR _this$[ebp]
	call	?_Free_proxy@?$_Vector_alloc@U?$_Vec_base_types@UTile@@V?$allocator@UTile@@@std@@@std@@@std@@QAEXXZ ; std::_Vector_alloc<std::_Vec_base_types<Tile,std::allocator<Tile> > >::_Free_proxy

; 557  : 		}

	mov	ecx, DWORD PTR _this$[ebp]
	call	??1?$_Compressed_pair@U?$_Wrap_alloc@V?$allocator@UTile@@@std@@@std@@V?$_Vector_val@U?$_Simple_types@UTile@@@std@@@2@$00@std@@QAE@XZ
	mov	ecx, DWORD PTR __$EHRec$[ebp]
	mov	DWORD PTR fs:0, ecx
	pop	ecx
	pop	edi
	pop	esi
	pop	ebx
	add	esp, 216				; 000000d8H
	cmp	ebp, esp
	call	__RTC_CheckEsp
	mov	esp, ebp
	pop	ebp
	ret	0
_TEXT	ENDS
;	COMDAT text$x
text$x	SEGMENT
__ehhandler$??1?$_Vector_alloc@U?$_Vec_base_types@UTile@@V?$allocator@UTile@@@std@@@std@@@std@@QAE@XZ:
	mov	edx, DWORD PTR [esp+8]
	lea	eax, DWORD PTR [edx+12]
	mov	ecx, DWORD PTR [edx-220]
	xor	ecx, eax
	call	@__security_check_cookie@4
	mov	eax, OFFSET __ehfuncinfo$??1?$_Vector_alloc@U?$_Vec_base_types@UTile@@V?$allocator@UTile@@@std@@@std@@@std@@QAE@XZ
	jmp	___CxxFrameHandler3
text$x	ENDS
??1?$_Vector_alloc@U?$_Vec_base_types@UTile@@V?$allocator@UTile@@@std@@@std@@@std@@QAE@XZ ENDP ; std::_Vector_alloc<std::_Vec_base_types<Tile,std::allocator<Tile> > >::~_Vector_alloc<std::_Vec_base_types<Tile,std::allocator<Tile> > >
; Function compile flags: /Odtp /RTCsu /ZI
; File c:\program files (x86)\microsoft visual studio 14.0\vc\include\vector
;	COMDAT ??0?$_Vector_alloc@U?$_Vec_base_types@UTile@@V?$allocator@UTile@@@std@@@std@@@std@@QAE@XZ
_TEXT	SEGMENT
$T2 = -221						; size = 1
_this$ = -20						; size = 4
__$EHRec$ = -12						; size = 12
??0?$_Vector_alloc@U?$_Vec_base_types@UTile@@V?$allocator@UTile@@@std@@@std@@@std@@QAE@XZ PROC ; std::_Vector_alloc<std::_Vec_base_types<Tile,std::allocator<Tile> > >::_Vector_alloc<std::_Vec_base_types<Tile,std::allocator<Tile> > >, COMDAT
; _this$ = ecx

; 542  : 		{	// default construct allocator

	push	ebp
	mov	ebp, esp
	push	-1
	push	__ehhandler$??0?$_Vector_alloc@U?$_Vec_base_types@UTile@@V?$allocator@UTile@@@std@@@std@@@std@@QAE@XZ
	mov	eax, DWORD PTR fs:0
	push	eax
	sub	esp, 216				; 000000d8H
	push	ebx
	push	esi
	push	edi
	push	ecx
	lea	edi, DWORD PTR [ebp-228]
	mov	ecx, 54					; 00000036H
	mov	eax, -858993460				; ccccccccH
	rep stosd
	pop	ecx
	mov	eax, DWORD PTR ___security_cookie
	xor	eax, ebp
	push	eax
	lea	eax, DWORD PTR __$EHRec$[ebp]
	mov	DWORD PTR fs:0, eax
	mov	DWORD PTR _this$[ebp], ecx

; 541  : 		: _Mypair(_Zero_then_variadic_args_t())

	movzx	eax, BYTE PTR $T2[ebp]
	push	eax
	mov	ecx, DWORD PTR _this$[ebp]
	call	??$?0$$V@?$_Compressed_pair@U?$_Wrap_alloc@V?$allocator@UTile@@@std@@@std@@V?$_Vector_val@U?$_Simple_types@UTile@@@std@@@2@$00@std@@QAE@U_Zero_then_variadic_args_t@1@@Z ; std::_Compressed_pair<std::_Wrap_alloc<std::allocator<Tile> >,std::_Vector_val<std::_Simple_types<Tile> >,1>::_Compressed_pair<std::_Wrap_alloc<std::allocator<Tile> >,std::_Vector_val<std::_Simple_types<Tile> >,1><>
	mov	DWORD PTR __$EHRec$[ebp+8], 0

; 543  : 		_Alloc_proxy();

	mov	ecx, DWORD PTR _this$[ebp]
	call	?_Alloc_proxy@?$_Vector_alloc@U?$_Vec_base_types@UTile@@V?$allocator@UTile@@@std@@@std@@@std@@QAEXXZ ; std::_Vector_alloc<std::_Vec_base_types<Tile,std::allocator<Tile> > >::_Alloc_proxy

; 544  : 		}

	mov	DWORD PTR __$EHRec$[ebp+8], -1
	mov	eax, DWORD PTR _this$[ebp]
	mov	ecx, DWORD PTR __$EHRec$[ebp]
	mov	DWORD PTR fs:0, ecx
	pop	ecx
	pop	edi
	pop	esi
	pop	ebx
	add	esp, 228				; 000000e4H
	cmp	ebp, esp
	call	__RTC_CheckEsp
	mov	esp, ebp
	pop	ebp
	ret	0
_TEXT	ENDS
;	COMDAT text$x
text$x	SEGMENT
__unwindfunclet$??0?$_Vector_alloc@U?$_Vec_base_types@UTile@@V?$allocator@UTile@@@std@@@std@@@std@@QAE@XZ$0:
	mov	ecx, DWORD PTR _this$[ebp]
	jmp	??1?$_Compressed_pair@U?$_Wrap_alloc@V?$allocator@UTile@@@std@@@std@@V?$_Vector_val@U?$_Simple_types@UTile@@@std@@@2@$00@std@@QAE@XZ
__ehhandler$??0?$_Vector_alloc@U?$_Vec_base_types@UTile@@V?$allocator@UTile@@@std@@@std@@@std@@QAE@XZ:
	mov	edx, DWORD PTR [esp+8]
	lea	eax, DWORD PTR [edx+12]
	mov	ecx, DWORD PTR [edx-232]
	xor	ecx, eax
	call	@__security_check_cookie@4
	mov	eax, OFFSET __ehfuncinfo$??0?$_Vector_alloc@U?$_Vec_base_types@UTile@@V?$allocator@UTile@@@std@@@std@@@std@@QAE@XZ
	jmp	___CxxFrameHandler3
text$x	ENDS
??0?$_Vector_alloc@U?$_Vec_base_types@UTile@@V?$allocator@UTile@@@std@@@std@@@std@@QAE@XZ ENDP ; std::_Vector_alloc<std::_Vec_base_types<Tile,std::allocator<Tile> > >::_Vector_alloc<std::_Vec_base_types<Tile,std::allocator<Tile> > >
; Function compile flags: /Odtp /RTCsu /ZI
; File c:\program files (x86)\microsoft visual studio 14.0\vc\include\xmemory0
;	COMDAT ?max_size@?$_Wrap_alloc@V?$allocator@UTile@@@std@@@std@@QBEIU_Nil@2@@Z
_TEXT	SEGMENT
_this$ = -8						; size = 4
___formal$ = 8						; size = 1
?max_size@?$_Wrap_alloc@V?$allocator@UTile@@@std@@@std@@QBEIU_Nil@2@@Z PROC ; std::_Wrap_alloc<std::allocator<Tile> >::max_size, COMDAT
; _this$ = ecx

; 905  : 		{	// get maximum size

	push	ebp
	mov	ebp, esp
	sub	esp, 204				; 000000ccH
	push	ebx
	push	esi
	push	edi
	push	ecx
	lea	edi, DWORD PTR [ebp-204]
	mov	ecx, 51					; 00000033H
	mov	eax, -858993460				; ccccccccH
	rep stosd
	pop	ecx
	mov	DWORD PTR _this$[ebp], ecx

; 906  : 		return (_Mytraits::max_size(*this));

	mov	eax, DWORD PTR _this$[ebp]
	push	eax
	call	?max_size@?$allocator_traits@V?$allocator@UTile@@@std@@@std@@SAIABV?$allocator@UTile@@@2@@Z ; std::allocator_traits<std::allocator<Tile> >::max_size
	add	esp, 4

; 907  : 		}

	pop	edi
	pop	esi
	pop	ebx
	add	esp, 204				; 000000ccH
	cmp	ebp, esp
	call	__RTC_CheckEsp
	mov	esp, ebp
	pop	ebp
	ret	4
?max_size@?$_Wrap_alloc@V?$allocator@UTile@@@std@@@std@@QBEIU_Nil@2@@Z ENDP ; std::_Wrap_alloc<std::allocator<Tile> >::max_size
_TEXT	ENDS
; Function compile flags: /Odtp /RTCsu /ZI
; File c:\program files (x86)\microsoft visual studio 14.0\vc\include\xmemory0
;	COMDAT ?deallocate@?$_Wrap_alloc@V?$allocator@UTile@@@std@@@std@@QAEXPAUTile@@I@Z
_TEXT	SEGMENT
_this$ = -8						; size = 4
__Ptr$ = 8						; size = 4
__Count$ = 12						; size = 4
?deallocate@?$_Wrap_alloc@V?$allocator@UTile@@@std@@@std@@QAEXPAUTile@@I@Z PROC ; std::_Wrap_alloc<std::allocator<Tile> >::deallocate, COMDAT
; _this$ = ecx

; 884  : 		{	// deallocate object at _Ptr, ignore size

	push	ebp
	mov	ebp, esp
	sub	esp, 204				; 000000ccH
	push	ebx
	push	esi
	push	edi
	push	ecx
	lea	edi, DWORD PTR [ebp-204]
	mov	ecx, 51					; 00000033H
	mov	eax, -858993460				; ccccccccH
	rep stosd
	pop	ecx
	mov	DWORD PTR _this$[ebp], ecx

; 885  : 		_Mybase::deallocate(_Ptr, _Count);

	mov	eax, DWORD PTR __Count$[ebp]
	push	eax
	mov	ecx, DWORD PTR __Ptr$[ebp]
	push	ecx
	mov	ecx, DWORD PTR _this$[ebp]
	call	?deallocate@?$allocator@UTile@@@std@@QAEXPAUTile@@I@Z ; std::allocator<Tile>::deallocate

; 886  : 		}

	pop	edi
	pop	esi
	pop	ebx
	add	esp, 204				; 000000ccH
	cmp	ebp, esp
	call	__RTC_CheckEsp
	mov	esp, ebp
	pop	ebp
	ret	8
?deallocate@?$_Wrap_alloc@V?$allocator@UTile@@@std@@@std@@QAEXPAUTile@@I@Z ENDP ; std::_Wrap_alloc<std::allocator<Tile> >::deallocate
_TEXT	ENDS
; Function compile flags: /Odtp /RTCsu /ZI
; File c:\program files (x86)\microsoft visual studio 14.0\vc\include\xmemory0
;	COMDAT ?allocate@?$_Wrap_alloc@V?$allocator@UTile@@@std@@@std@@QAEPAUTile@@I@Z
_TEXT	SEGMENT
_this$ = -8						; size = 4
__Count$ = 8						; size = 4
?allocate@?$_Wrap_alloc@V?$allocator@UTile@@@std@@@std@@QAEPAUTile@@I@Z PROC ; std::_Wrap_alloc<std::allocator<Tile> >::allocate, COMDAT
; _this$ = ecx

; 873  : 		{	// allocate array of _Count elements

	push	ebp
	mov	ebp, esp
	sub	esp, 204				; 000000ccH
	push	ebx
	push	esi
	push	edi
	push	ecx
	lea	edi, DWORD PTR [ebp-204]
	mov	ecx, 51					; 00000033H
	mov	eax, -858993460				; ccccccccH
	rep stosd
	pop	ecx
	mov	DWORD PTR _this$[ebp], ecx

; 874  : 		return (_Mybase::allocate(_Count));

	mov	eax, DWORD PTR __Count$[ebp]
	push	eax
	mov	ecx, DWORD PTR _this$[ebp]
	call	?allocate@?$allocator@UTile@@@std@@QAEPAUTile@@I@Z ; std::allocator<Tile>::allocate

; 875  : 		}

	pop	edi
	pop	esi
	pop	ebx
	add	esp, 204				; 000000ccH
	cmp	ebp, esp
	call	__RTC_CheckEsp
	mov	esp, ebp
	pop	ebp
	ret	4
?allocate@?$_Wrap_alloc@V?$allocator@UTile@@@std@@@std@@QAEPAUTile@@I@Z ENDP ; std::_Wrap_alloc<std::allocator<Tile> >::allocate
_TEXT	ENDS
; Function compile flags: /Odtp /RTCsu /ZI
; File c:\program files (x86)\microsoft visual studio 14.0\vc\include\xmemory0
;	COMDAT ??0?$_Wrap_alloc@V?$allocator@UTile@@@std@@@std@@QAE@XZ
_TEXT	SEGMENT
_this$ = -8						; size = 4
??0?$_Wrap_alloc@V?$allocator@UTile@@@std@@@std@@QAE@XZ PROC ; std::_Wrap_alloc<std::allocator<Tile> >::_Wrap_alloc<std::allocator<Tile> >, COMDAT
; _this$ = ecx

; 834  : 		{	// construct default allocator (do nothing)

	push	ebp
	mov	ebp, esp
	sub	esp, 204				; 000000ccH
	push	ebx
	push	esi
	push	edi
	push	ecx
	lea	edi, DWORD PTR [ebp-204]
	mov	ecx, 51					; 00000033H
	mov	eax, -858993460				; ccccccccH
	rep stosd
	pop	ecx
	mov	DWORD PTR _this$[ebp], ecx

; 833  : 		: _Mybase()

	mov	ecx, DWORD PTR _this$[ebp]
	call	??0?$allocator@UTile@@@std@@QAE@XZ	; std::allocator<Tile>::allocator<Tile>

; 835  : 		}

	mov	eax, DWORD PTR _this$[ebp]
	pop	edi
	pop	esi
	pop	ebx
	add	esp, 204				; 000000ccH
	cmp	ebp, esp
	call	__RTC_CheckEsp
	mov	esp, ebp
	pop	ebp
	ret	0
??0?$_Wrap_alloc@V?$allocator@UTile@@@std@@@std@@QAE@XZ ENDP ; std::_Wrap_alloc<std::allocator<Tile> >::_Wrap_alloc<std::allocator<Tile> >
_TEXT	ENDS
; Function compile flags: /Odtp /RTCsu /ZI
; File c:\program files (x86)\microsoft visual studio 14.0\vc\include\xmemory0
;	COMDAT ?max_size@?$allocator_traits@V?$allocator@UTile@@@std@@@std@@SAIABV?$allocator@UTile@@@2@@Z
_TEXT	SEGMENT
__Al$ = 8						; size = 4
?max_size@?$allocator_traits@V?$allocator@UTile@@@std@@@std@@SAIABV?$allocator@UTile@@@2@@Z PROC ; std::allocator_traits<std::allocator<Tile> >::max_size, COMDAT

; 766  : 		{	// get maximum size

	push	ebp
	mov	ebp, esp
	sub	esp, 192				; 000000c0H
	push	ebx
	push	esi
	push	edi
	lea	edi, DWORD PTR [ebp-192]
	mov	ecx, 48					; 00000030H
	mov	eax, -858993460				; ccccccccH
	rep stosd

; 767  : 		return (_Al.max_size());

	mov	ecx, DWORD PTR __Al$[ebp]
	call	?max_size@?$allocator@UTile@@@std@@QBEIXZ ; std::allocator<Tile>::max_size

; 768  : 		}

	pop	edi
	pop	esi
	pop	ebx
	add	esp, 192				; 000000c0H
	cmp	ebp, esp
	call	__RTC_CheckEsp
	mov	esp, ebp
	pop	ebp
	ret	0
?max_size@?$allocator_traits@V?$allocator@UTile@@@std@@@std@@SAIABV?$allocator@UTile@@@2@@Z ENDP ; std::allocator_traits<std::allocator<Tile> >::max_size
_TEXT	ENDS
; Function compile flags: /Odtp /RTCsu /ZI
; File c:\program files (x86)\microsoft visual studio 14.0\vc\include\xmemory0
;	COMDAT ?max_size@?$allocator@UTile@@@std@@QBEIXZ
_TEXT	SEGMENT
_this$ = -8						; size = 4
?max_size@?$allocator@UTile@@@std@@QBEIXZ PROC		; std::allocator<Tile>::max_size, COMDAT
; _this$ = ecx

; 648  : 		{	// estimate maximum array size

	push	ebp
	mov	ebp, esp
	sub	esp, 204				; 000000ccH
	push	ebx
	push	esi
	push	edi
	push	ecx
	lea	edi, DWORD PTR [ebp-204]
	mov	ecx, 51					; 00000033H
	mov	eax, -858993460				; ccccccccH
	rep stosd
	pop	ecx
	mov	DWORD PTR _this$[ebp], ecx

; 649  : 		return ((size_t)(-1) / sizeof (_Ty));

	mov	eax, 134217727				; 07ffffffH

; 650  : 		}

	pop	edi
	pop	esi
	pop	ebx
	mov	esp, ebp
	pop	ebp
	ret	0
?max_size@?$allocator@UTile@@@std@@QBEIXZ ENDP		; std::allocator<Tile>::max_size
_TEXT	ENDS
; Function compile flags: /Odtp /RTCsu /ZI
; File c:\program files (x86)\microsoft visual studio 14.0\vc\include\xmemory0
;	COMDAT ?allocate@?$allocator@UTile@@@std@@QAEPAUTile@@I@Z
_TEXT	SEGMENT
_this$ = -8						; size = 4
__Count$ = 8						; size = 4
?allocate@?$allocator@UTile@@@std@@QAEPAUTile@@I@Z PROC	; std::allocator<Tile>::allocate, COMDAT
; _this$ = ecx

; 624  : 		{	// allocate array of _Count elements

	push	ebp
	mov	ebp, esp
	sub	esp, 204				; 000000ccH
	push	ebx
	push	esi
	push	edi
	push	ecx
	lea	edi, DWORD PTR [ebp-204]
	mov	ecx, 51					; 00000033H
	mov	eax, -858993460				; ccccccccH
	rep stosd
	pop	ecx
	mov	DWORD PTR _this$[ebp], ecx

; 625  : 		return (static_cast<pointer>(_Allocate(_Count, sizeof (_Ty))));

	push	1
	push	32					; 00000020H
	mov	eax, DWORD PTR __Count$[ebp]
	push	eax
	call	?_Allocate@std@@YAPAXII_N@Z		; std::_Allocate
	add	esp, 12					; 0000000cH

; 626  : 		}

	pop	edi
	pop	esi
	pop	ebx
	add	esp, 204				; 000000ccH
	cmp	ebp, esp
	call	__RTC_CheckEsp
	mov	esp, ebp
	pop	ebp
	ret	4
?allocate@?$allocator@UTile@@@std@@QAEPAUTile@@I@Z ENDP	; std::allocator<Tile>::allocate
_TEXT	ENDS
; Function compile flags: /Odtp /RTCsu /ZI
; File c:\program files (x86)\microsoft visual studio 14.0\vc\include\xmemory0
;	COMDAT ?deallocate@?$allocator@UTile@@@std@@QAEXPAUTile@@I@Z
_TEXT	SEGMENT
_this$ = -8						; size = 4
__Ptr$ = 8						; size = 4
__Count$ = 12						; size = 4
?deallocate@?$allocator@UTile@@@std@@QAEXPAUTile@@I@Z PROC ; std::allocator<Tile>::deallocate, COMDAT
; _this$ = ecx

; 619  : 		{	// deallocate object at _Ptr

	push	ebp
	mov	ebp, esp
	sub	esp, 204				; 000000ccH
	push	ebx
	push	esi
	push	edi
	push	ecx
	lea	edi, DWORD PTR [ebp-204]
	mov	ecx, 51					; 00000033H
	mov	eax, -858993460				; ccccccccH
	rep stosd
	pop	ecx
	mov	DWORD PTR _this$[ebp], ecx

; 620  : 		_Deallocate(_Ptr, _Count, sizeof (_Ty));

	push	32					; 00000020H
	mov	eax, DWORD PTR __Count$[ebp]
	push	eax
	mov	ecx, DWORD PTR __Ptr$[ebp]
	push	ecx
	call	?_Deallocate@std@@YAXPAXII@Z		; std::_Deallocate
	add	esp, 12					; 0000000cH

; 621  : 		}

	pop	edi
	pop	esi
	pop	ebx
	add	esp, 204				; 000000ccH
	cmp	ebp, esp
	call	__RTC_CheckEsp
	mov	esp, ebp
	pop	ebp
	ret	8
?deallocate@?$allocator@UTile@@@std@@QAEXPAUTile@@I@Z ENDP ; std::allocator<Tile>::deallocate
_TEXT	ENDS
; Function compile flags: /Odtp /RTCsu /ZI
; File c:\program files (x86)\microsoft visual studio 14.0\vc\include\xmemory0
;	COMDAT ??0?$allocator@UTile@@@std@@QAE@XZ
_TEXT	SEGMENT
_this$ = -8						; size = 4
??0?$allocator@UTile@@@std@@QAE@XZ PROC			; std::allocator<Tile>::allocator<Tile>, COMDAT
; _this$ = ecx

; 599  : 	allocator() _THROW0()

	push	ebp
	mov	ebp, esp
	sub	esp, 204				; 000000ccH
	push	ebx
	push	esi
	push	edi
	push	ecx
	lea	edi, DWORD PTR [ebp-204]
	mov	ecx, 51					; 00000033H
	mov	eax, -858993460				; ccccccccH
	rep stosd
	pop	ecx
	mov	DWORD PTR _this$[ebp], ecx

; 600  : 		{	// construct default allocator (do nothing)
; 601  : 		}

	mov	eax, DWORD PTR _this$[ebp]
	pop	edi
	pop	esi
	pop	ebx
	mov	esp, ebp
	pop	ebp
	ret	0
??0?$allocator@UTile@@@std@@QAE@XZ ENDP			; std::allocator<Tile>::allocator<Tile>
_TEXT	ENDS
; Function compile flags: /Odtp /RTCsu /ZI
; File g:\projects\lotion\lotion\environment.cpp
;	COMDAT ??__EspawnTile@@YAXXZ
text$di	SEGMENT
??__EspawnTile@@YAXXZ PROC				; `dynamic initializer for 'spawnTile'', COMDAT

; 3    : SpawnTile spawnTile;

	push	ebp
	mov	ebp, esp
	sub	esp, 192				; 000000c0H
	push	ebx
	push	esi
	push	edi
	lea	edi, DWORD PTR [ebp-192]
	mov	ecx, 48					; 00000030H
	mov	eax, -858993460				; ccccccccH
	rep stosd
	mov	ecx, OFFSET ?spawnTile@@3USpawnTile@@A	; spawnTile
	call	??0SpawnTile@@QAE@XZ
	pop	edi
	pop	esi
	pop	ebx
	add	esp, 192				; 000000c0H
	cmp	ebp, esp
	call	__RTC_CheckEsp
	mov	esp, ebp
	pop	ebp
	ret	0
??__EspawnTile@@YAXXZ ENDP				; `dynamic initializer for 'spawnTile''
text$di	ENDS
; Function compile flags: /Odtp /RTCsu /ZI
; File g:\projects\lotion\lotion\environment.cpp
;	COMDAT ?DrawMap@@YAXXZ
_TEXT	SEGMENT
_tile$2 = -160						; size = 4
_<end>$L1$3 = -148					; size = 12
_<begin>$L1$4 = -128					; size = 12
_<range>$L1$5 = -108					; size = 4
_tile$6 = -96						; size = 4
_<end>$L0$7 = -84					; size = 12
_<begin>$L0$8 = -64					; size = 12
_<range>$L0$9 = -44					; size = 4
_color$ = -32						; size = 12
__$ArrayPad$ = -16					; size = 4
__$EHRec$ = -12						; size = 12
?DrawMap@@YAXXZ PROC					; DrawMap, COMDAT

; 58   : void DrawMap() {

	push	ebp
	mov	ebp, esp
	push	-1
	push	__ehhandler$?DrawMap@@YAXXZ
	mov	eax, DWORD PTR fs:0
	push	eax
	sub	esp, 344				; 00000158H
	push	ebx
	push	esi
	push	edi
	lea	edi, DWORD PTR [ebp-356]
	mov	ecx, 86					; 00000056H
	mov	eax, -858993460				; ccccccccH
	rep stosd
	mov	eax, DWORD PTR ___security_cookie
	xor	eax, ebp
	mov	DWORD PTR __$ArrayPad$[ebp], eax
	push	eax
	lea	eax, DWORD PTR __$EHRec$[ebp]
	mov	DWORD PTR fs:0, eax

; 59   : 	int color[3] = { 0, 0, 0 };

	mov	DWORD PTR _color$[ebp], 0
	mov	DWORD PTR _color$[ebp+4], 0
	mov	DWORD PTR _color$[ebp+8], 0

; 60   : 	for (auto &tile : tileMap) {

	mov	DWORD PTR _<range>$L0$9[ebp], OFFSET ?tileMap@@3V?$vector@UTile@@V?$allocator@UTile@@@std@@@std@@A ; tileMap
	push	12					; 0000000cH
	lea	ecx, DWORD PTR _<begin>$L0$8[ebp]
	call	?__autoclassinit2@?$_Vector_iterator@V?$_Vector_val@U?$_Simple_types@UTile@@@std@@@std@@@std@@QAEXI@Z
	lea	eax, DWORD PTR _<begin>$L0$8[ebp]
	push	eax
	mov	ecx, DWORD PTR _<range>$L0$9[ebp]
	call	?begin@?$vector@UTile@@V?$allocator@UTile@@@std@@@std@@QAE?AV?$_Vector_iterator@V?$_Vector_val@U?$_Simple_types@UTile@@@std@@@std@@@2@XZ ; std::vector<Tile,std::allocator<Tile> >::begin
	mov	DWORD PTR __$EHRec$[ebp+8], 0
	push	12					; 0000000cH
	lea	ecx, DWORD PTR _<end>$L0$7[ebp]
	call	?__autoclassinit2@?$_Vector_iterator@V?$_Vector_val@U?$_Simple_types@UTile@@@std@@@std@@@std@@QAEXI@Z
	lea	eax, DWORD PTR _<end>$L0$7[ebp]
	push	eax
	mov	ecx, DWORD PTR _<range>$L0$9[ebp]
	call	?end@?$vector@UTile@@V?$allocator@UTile@@@std@@@std@@QAE?AV?$_Vector_iterator@V?$_Vector_val@U?$_Simple_types@UTile@@@std@@@std@@@2@XZ ; std::vector<Tile,std::allocator<Tile> >::end
	mov	BYTE PTR __$EHRec$[ebp+8], 1
	jmp	SHORT $LN4@DrawMap
$LN2@DrawMap:
	lea	ecx, DWORD PTR _<begin>$L0$8[ebp]
	call	??E?$_Vector_iterator@V?$_Vector_val@U?$_Simple_types@UTile@@@std@@@std@@@std@@QAEAAV01@XZ ; std::_Vector_iterator<std::_Vector_val<std::_Simple_types<Tile> > >::operator++
$LN4@DrawMap:
	lea	eax, DWORD PTR _<end>$L0$7[ebp]
	push	eax
	lea	ecx, DWORD PTR _<begin>$L0$8[ebp]
	call	??9?$_Vector_const_iterator@V?$_Vector_val@U?$_Simple_types@UTile@@@std@@@std@@@std@@QBE_NABV01@@Z ; std::_Vector_const_iterator<std::_Vector_val<std::_Simple_types<Tile> > >::operator!=
	movzx	ecx, al
	test	ecx, ecx
	je	$LN3@DrawMap
	lea	ecx, DWORD PTR _<begin>$L0$8[ebp]
	call	??D?$_Vector_iterator@V?$_Vector_val@U?$_Simple_types@UTile@@@std@@@std@@@std@@QBEAAUTile@@XZ ; std::_Vector_iterator<std::_Vector_val<std::_Simple_types<Tile> > >::operator*
	mov	DWORD PTR _tile$6[ebp], eax

; 61   : 		if (tile.tileID == 1) { color[0] = 0; color[1] = 0; color[2] = 255; }

	mov	eax, DWORD PTR _tile$6[ebp]
	cmp	DWORD PTR [eax+24], 1
	jne	SHORT $LN8@DrawMap
	mov	eax, 4
	imul	ecx, eax, 0
	mov	DWORD PTR _color$[ebp+ecx], 0
	mov	eax, 4
	shl	eax, 0
	mov	DWORD PTR _color$[ebp+eax], 0
	mov	eax, 4
	shl	eax, 1
	mov	DWORD PTR _color$[ebp+eax], 255		; 000000ffH
$LN8@DrawMap:

; 62   : 		if (tile.tileID == 5) { color[0] = 255; color[1] = 0; color[2] = 0; }

	mov	eax, DWORD PTR _tile$6[ebp]
	cmp	DWORD PTR [eax+24], 5
	jne	SHORT $LN9@DrawMap
	mov	eax, 4
	imul	ecx, eax, 0
	mov	DWORD PTR _color$[ebp+ecx], 255		; 000000ffH
	mov	eax, 4
	shl	eax, 0
	mov	DWORD PTR _color$[ebp+eax], 0
	mov	eax, 4
	shl	eax, 1
	mov	DWORD PTR _color$[ebp+eax], 0
$LN9@DrawMap:

; 63   : 		if (tile.tileID == 6) { color[0] = 255; color[1] = 0; color[2] = 255; }

	mov	eax, DWORD PTR _tile$6[ebp]
	cmp	DWORD PTR [eax+24], 6
	jne	SHORT $LN10@DrawMap
	mov	eax, 4
	imul	ecx, eax, 0
	mov	DWORD PTR _color$[ebp+ecx], 255		; 000000ffH
	mov	eax, 4
	shl	eax, 0
	mov	DWORD PTR _color$[ebp+eax], 0
	mov	eax, 4
	shl	eax, 1
	mov	DWORD PTR _color$[ebp+eax], 255		; 000000ffH
$LN10@DrawMap:

; 64   : 		if (tile.tileID == 7) { color[0] = 255; color[1] = 0; color[2] = 255; }

	mov	eax, DWORD PTR _tile$6[ebp]
	cmp	DWORD PTR [eax+24], 7
	jne	SHORT $LN11@DrawMap
	mov	eax, 4
	imul	ecx, eax, 0
	mov	DWORD PTR _color$[ebp+ecx], 255		; 000000ffH
	mov	eax, 4
	shl	eax, 0
	mov	DWORD PTR _color$[ebp+eax], 0
	mov	eax, 4
	shl	eax, 1
	mov	DWORD PTR _color$[ebp+eax], 255		; 000000ffH
$LN11@DrawMap:

; 65   : 		DrawTile(tile, color);

	lea	eax, DWORD PTR _color$[ebp]
	push	eax
	mov	esi, DWORD PTR _tile$6[ebp]
	sub	esp, 32					; 00000020H
	mov	ecx, 8
	mov	edi, esp
	rep movsd
	call	?DrawTile@@YAXUTile@@QAH@Z		; DrawTile
	add	esp, 36					; 00000024H
	jmp	$LN2@DrawMap
$LN3@DrawMap:

; 66   : 	}

	mov	BYTE PTR __$EHRec$[ebp+8], 0
	lea	ecx, DWORD PTR _<end>$L0$7[ebp]
	call	??1?$_Vector_iterator@V?$_Vector_val@U?$_Simple_types@UTile@@@std@@@std@@@std@@QAE@XZ
	mov	DWORD PTR __$EHRec$[ebp+8], -1
	lea	ecx, DWORD PTR _<begin>$L0$8[ebp]
	call	??1?$_Vector_iterator@V?$_Vector_val@U?$_Simple_types@UTile@@@std@@@std@@@std@@QAE@XZ

; 67   : 
; 68   : 	for (auto &tile : movingTileMap) {

	mov	DWORD PTR _<range>$L1$5[ebp], OFFSET ?movingTileMap@@3V?$vector@UMovingTile@@V?$allocator@UMovingTile@@@std@@@std@@A ; movingTileMap
	push	12					; 0000000cH
	lea	ecx, DWORD PTR _<begin>$L1$4[ebp]
	call	?__autoclassinit2@?$_Vector_iterator@V?$_Vector_val@U?$_Simple_types@UMovingTile@@@std@@@std@@@std@@QAEXI@Z
	lea	eax, DWORD PTR _<begin>$L1$4[ebp]
	push	eax
	mov	ecx, DWORD PTR _<range>$L1$5[ebp]
	call	?begin@?$vector@UMovingTile@@V?$allocator@UMovingTile@@@std@@@std@@QAE?AV?$_Vector_iterator@V?$_Vector_val@U?$_Simple_types@UMovingTile@@@std@@@std@@@2@XZ ; std::vector<MovingTile,std::allocator<MovingTile> >::begin
	mov	DWORD PTR __$EHRec$[ebp+8], 2
	push	12					; 0000000cH
	lea	ecx, DWORD PTR _<end>$L1$3[ebp]
	call	?__autoclassinit2@?$_Vector_iterator@V?$_Vector_val@U?$_Simple_types@UMovingTile@@@std@@@std@@@std@@QAEXI@Z
	lea	eax, DWORD PTR _<end>$L1$3[ebp]
	push	eax
	mov	ecx, DWORD PTR _<range>$L1$5[ebp]
	call	?end@?$vector@UMovingTile@@V?$allocator@UMovingTile@@@std@@@std@@QAE?AV?$_Vector_iterator@V?$_Vector_val@U?$_Simple_types@UMovingTile@@@std@@@std@@@2@XZ ; std::vector<MovingTile,std::allocator<MovingTile> >::end
	mov	BYTE PTR __$EHRec$[ebp+8], 3
	jmp	SHORT $LN7@DrawMap
$LN5@DrawMap:
	lea	ecx, DWORD PTR _<begin>$L1$4[ebp]
	call	??E?$_Vector_iterator@V?$_Vector_val@U?$_Simple_types@UMovingTile@@@std@@@std@@@std@@QAEAAV01@XZ ; std::_Vector_iterator<std::_Vector_val<std::_Simple_types<MovingTile> > >::operator++
$LN7@DrawMap:
	lea	eax, DWORD PTR _<end>$L1$3[ebp]
	push	eax
	lea	ecx, DWORD PTR _<begin>$L1$4[ebp]
	call	??9?$_Vector_const_iterator@V?$_Vector_val@U?$_Simple_types@UMovingTile@@@std@@@std@@@std@@QBE_NABV01@@Z ; std::_Vector_const_iterator<std::_Vector_val<std::_Simple_types<MovingTile> > >::operator!=
	movzx	ecx, al
	test	ecx, ecx
	je	SHORT $LN6@DrawMap
	lea	ecx, DWORD PTR _<begin>$L1$4[ebp]
	call	??D?$_Vector_iterator@V?$_Vector_val@U?$_Simple_types@UMovingTile@@@std@@@std@@@std@@QBEAAUMovingTile@@XZ ; std::_Vector_iterator<std::_Vector_val<std::_Simple_types<MovingTile> > >::operator*
	mov	DWORD PTR _tile$2[ebp], eax

; 69   : 		if (tile.tile.tileID == 8) { color[0] = 255; color[1] = 255; color[2] = 0; }

	mov	eax, DWORD PTR _tile$2[ebp]
	cmp	DWORD PTR [eax+24], 8
	jne	SHORT $LN12@DrawMap
	mov	eax, 4
	imul	ecx, eax, 0
	mov	DWORD PTR _color$[ebp+ecx], 255		; 000000ffH
	mov	eax, 4
	shl	eax, 0
	mov	DWORD PTR _color$[ebp+eax], 255		; 000000ffH
	mov	eax, 4
	shl	eax, 1
	mov	DWORD PTR _color$[ebp+eax], 0
$LN12@DrawMap:

; 70   : 		DrawTile(tile.tile, color);

	lea	eax, DWORD PTR _color$[ebp]
	push	eax
	mov	esi, DWORD PTR _tile$2[ebp]
	sub	esp, 32					; 00000020H
	mov	ecx, 8
	mov	edi, esp
	rep movsd
	call	?DrawTile@@YAXUTile@@QAH@Z		; DrawTile
	add	esp, 36					; 00000024H
	jmp	$LN5@DrawMap
$LN6@DrawMap:

; 71   : 	}

	mov	BYTE PTR __$EHRec$[ebp+8], 2
	lea	ecx, DWORD PTR _<end>$L1$3[ebp]
	call	??1?$_Vector_iterator@V?$_Vector_val@U?$_Simple_types@UMovingTile@@@std@@@std@@@std@@QAE@XZ
	mov	DWORD PTR __$EHRec$[ebp+8], -1
	lea	ecx, DWORD PTR _<begin>$L1$4[ebp]
	call	??1?$_Vector_iterator@V?$_Vector_val@U?$_Simple_types@UMovingTile@@@std@@@std@@@std@@QAE@XZ

; 72   : }

	push	edx
	mov	ecx, ebp
	push	eax
	lea	edx, DWORD PTR $LN25@DrawMap
	call	@_RTC_CheckStackVars@8
	pop	eax
	pop	edx
	mov	ecx, DWORD PTR __$EHRec$[ebp]
	mov	DWORD PTR fs:0, ecx
	pop	ecx
	pop	edi
	pop	esi
	pop	ebx
	mov	ecx, DWORD PTR __$ArrayPad$[ebp]
	xor	ecx, ebp
	call	@__security_check_cookie@4
	add	esp, 356				; 00000164H
	cmp	ebp, esp
	call	__RTC_CheckEsp
	mov	esp, ebp
	pop	ebp
	ret	0
	npad	2
$LN25@DrawMap:
	DD	5
	DD	$LN24@DrawMap
$LN24@DrawMap:
	DD	-32					; ffffffe0H
	DD	12					; 0000000cH
	DD	$LN18@DrawMap
	DD	-64					; ffffffc0H
	DD	12					; 0000000cH
	DD	$LN19@DrawMap
	DD	-84					; ffffffacH
	DD	12					; 0000000cH
	DD	$LN20@DrawMap
	DD	-128					; ffffff80H
	DD	12					; 0000000cH
	DD	$LN21@DrawMap
	DD	-148					; ffffff6cH
	DD	12					; 0000000cH
	DD	$LN22@DrawMap
$LN22@DrawMap:
	DB	60					; 0000003cH
	DB	101					; 00000065H
	DB	110					; 0000006eH
	DB	100					; 00000064H
	DB	62					; 0000003eH
	DB	36					; 00000024H
	DB	76					; 0000004cH
	DB	49					; 00000031H
	DB	0
$LN21@DrawMap:
	DB	60					; 0000003cH
	DB	98					; 00000062H
	DB	101					; 00000065H
	DB	103					; 00000067H
	DB	105					; 00000069H
	DB	110					; 0000006eH
	DB	62					; 0000003eH
	DB	36					; 00000024H
	DB	76					; 0000004cH
	DB	49					; 00000031H
	DB	0
$LN20@DrawMap:
	DB	60					; 0000003cH
	DB	101					; 00000065H
	DB	110					; 0000006eH
	DB	100					; 00000064H
	DB	62					; 0000003eH
	DB	36					; 00000024H
	DB	76					; 0000004cH
	DB	48					; 00000030H
	DB	0
$LN19@DrawMap:
	DB	60					; 0000003cH
	DB	98					; 00000062H
	DB	101					; 00000065H
	DB	103					; 00000067H
	DB	105					; 00000069H
	DB	110					; 0000006eH
	DB	62					; 0000003eH
	DB	36					; 00000024H
	DB	76					; 0000004cH
	DB	48					; 00000030H
	DB	0
$LN18@DrawMap:
	DB	99					; 00000063H
	DB	111					; 0000006fH
	DB	108					; 0000006cH
	DB	111					; 0000006fH
	DB	114					; 00000072H
	DB	0
_TEXT	ENDS
;	COMDAT text$x
text$x	SEGMENT
__unwindfunclet$?DrawMap@@YAXXZ$0:
	lea	ecx, DWORD PTR _<begin>$L0$8[ebp]
	jmp	??1?$_Vector_iterator@V?$_Vector_val@U?$_Simple_types@UTile@@@std@@@std@@@std@@QAE@XZ
__unwindfunclet$?DrawMap@@YAXXZ$1:
	lea	ecx, DWORD PTR _<end>$L0$7[ebp]
	jmp	??1?$_Vector_iterator@V?$_Vector_val@U?$_Simple_types@UTile@@@std@@@std@@@std@@QAE@XZ
__unwindfunclet$?DrawMap@@YAXXZ$2:
	lea	ecx, DWORD PTR _<begin>$L1$4[ebp]
	jmp	??1?$_Vector_iterator@V?$_Vector_val@U?$_Simple_types@UMovingTile@@@std@@@std@@@std@@QAE@XZ
__unwindfunclet$?DrawMap@@YAXXZ$3:
	lea	ecx, DWORD PTR _<end>$L1$3[ebp]
	jmp	??1?$_Vector_iterator@V?$_Vector_val@U?$_Simple_types@UMovingTile@@@std@@@std@@@std@@QAE@XZ
__ehhandler$?DrawMap@@YAXXZ:
	mov	edx, DWORD PTR [esp+8]
	lea	eax, DWORD PTR [edx+12]
	mov	ecx, DWORD PTR [edx-360]
	xor	ecx, eax
	call	@__security_check_cookie@4
	mov	ecx, DWORD PTR [edx-4]
	xor	ecx, eax
	call	@__security_check_cookie@4
	mov	eax, OFFSET __ehfuncinfo$?DrawMap@@YAXXZ
	jmp	___CxxFrameHandler3
text$x	ENDS
?DrawMap@@YAXXZ ENDP					; DrawMap
; Function compile flags: /Odtp /RTCsu /ZI
; File g:\projects\lotion\lotion\environment.cpp
;	COMDAT ?UpdateTile@@YAXH@Z
_TEXT	SEGMENT
tv164 = -352						; size = 4
_tileB$2 = -152						; size = 4
_<end>$L1$3 = -140					; size = 12
_<begin>$L1$4 = -120					; size = 12
_<range>$L1$5 = -100					; size = 4
_tile$6 = -88						; size = 4
_<end>$L0$7 = -76					; size = 12
_<begin>$L0$8 = -56					; size = 12
_<range>$L0$9 = -36					; size = 4
_deltaTimeS$ = -24					; size = 4
__$ArrayPad$ = -16					; size = 4
__$EHRec$ = -12						; size = 12
_gameTime$ = 8						; size = 4
?UpdateTile@@YAXH@Z PROC				; UpdateTile, COMDAT

; 42   : void UpdateTile(int gameTime) {

	push	ebp
	mov	ebp, esp
	push	-1
	push	__ehhandler$?UpdateTile@@YAXH@Z
	mov	eax, DWORD PTR fs:0
	push	eax
	sub	esp, 340				; 00000154H
	push	ebx
	push	esi
	push	edi
	lea	edi, DWORD PTR [ebp-352]
	mov	ecx, 85					; 00000055H
	mov	eax, -858993460				; ccccccccH
	rep stosd
	mov	eax, DWORD PTR ___security_cookie
	xor	eax, ebp
	mov	DWORD PTR __$ArrayPad$[ebp], eax
	push	eax
	lea	eax, DWORD PTR __$EHRec$[ebp]
	mov	DWORD PTR fs:0, eax

; 43   : 	float deltaTimeS = (float)(gameTime) / 1000;

	cvtsi2ss xmm0, DWORD PTR _gameTime$[ebp]
	divss	xmm0, DWORD PTR __real@447a0000
	movss	DWORD PTR _deltaTimeS$[ebp], xmm0

; 44   : 
; 45   : 	for (auto &tile : movingTileMap) {

	mov	DWORD PTR _<range>$L0$9[ebp], OFFSET ?movingTileMap@@3V?$vector@UMovingTile@@V?$allocator@UMovingTile@@@std@@@std@@A ; movingTileMap
	push	12					; 0000000cH
	lea	ecx, DWORD PTR _<begin>$L0$8[ebp]
	call	?__autoclassinit2@?$_Vector_iterator@V?$_Vector_val@U?$_Simple_types@UMovingTile@@@std@@@std@@@std@@QAEXI@Z
	lea	eax, DWORD PTR _<begin>$L0$8[ebp]
	push	eax
	mov	ecx, DWORD PTR _<range>$L0$9[ebp]
	call	?begin@?$vector@UMovingTile@@V?$allocator@UMovingTile@@@std@@@std@@QAE?AV?$_Vector_iterator@V?$_Vector_val@U?$_Simple_types@UMovingTile@@@std@@@std@@@2@XZ ; std::vector<MovingTile,std::allocator<MovingTile> >::begin
	mov	DWORD PTR __$EHRec$[ebp+8], 0
	push	12					; 0000000cH
	lea	ecx, DWORD PTR _<end>$L0$7[ebp]
	call	?__autoclassinit2@?$_Vector_iterator@V?$_Vector_val@U?$_Simple_types@UMovingTile@@@std@@@std@@@std@@QAEXI@Z
	lea	eax, DWORD PTR _<end>$L0$7[ebp]
	push	eax
	mov	ecx, DWORD PTR _<range>$L0$9[ebp]
	call	?end@?$vector@UMovingTile@@V?$allocator@UMovingTile@@@std@@@std@@QAE?AV?$_Vector_iterator@V?$_Vector_val@U?$_Simple_types@UMovingTile@@@std@@@std@@@2@XZ ; std::vector<MovingTile,std::allocator<MovingTile> >::end
	mov	BYTE PTR __$EHRec$[ebp+8], 1
	jmp	SHORT $LN4@UpdateTile
$LN2@UpdateTile:
	lea	ecx, DWORD PTR _<begin>$L0$8[ebp]
	call	??E?$_Vector_iterator@V?$_Vector_val@U?$_Simple_types@UMovingTile@@@std@@@std@@@std@@QAEAAV01@XZ ; std::_Vector_iterator<std::_Vector_val<std::_Simple_types<MovingTile> > >::operator++
$LN4@UpdateTile:
	lea	eax, DWORD PTR _<end>$L0$7[ebp]
	push	eax
	lea	ecx, DWORD PTR _<begin>$L0$8[ebp]
	call	??9?$_Vector_const_iterator@V?$_Vector_val@U?$_Simple_types@UMovingTile@@@std@@@std@@@std@@QBE_NABV01@@Z ; std::_Vector_const_iterator<std::_Vector_val<std::_Simple_types<MovingTile> > >::operator!=
	movzx	ecx, al
	test	ecx, ecx
	je	$LN3@UpdateTile
	lea	ecx, DWORD PTR _<begin>$L0$8[ebp]
	call	??D?$_Vector_iterator@V?$_Vector_val@U?$_Simple_types@UMovingTile@@@std@@@std@@@std@@QBEAAUMovingTile@@XZ ; std::_Vector_iterator<std::_Vector_val<std::_Simple_types<MovingTile> > >::operator*
	mov	DWORD PTR _tile$6[ebp], eax

; 46   : 		for (auto &tileB : tileMap) {

	mov	DWORD PTR _<range>$L1$5[ebp], OFFSET ?tileMap@@3V?$vector@UTile@@V?$allocator@UTile@@@std@@@std@@A ; tileMap
	push	12					; 0000000cH
	lea	ecx, DWORD PTR _<begin>$L1$4[ebp]
	call	?__autoclassinit2@?$_Vector_iterator@V?$_Vector_val@U?$_Simple_types@UTile@@@std@@@std@@@std@@QAEXI@Z
	lea	eax, DWORD PTR _<begin>$L1$4[ebp]
	push	eax
	mov	ecx, DWORD PTR _<range>$L1$5[ebp]
	call	?begin@?$vector@UTile@@V?$allocator@UTile@@@std@@@std@@QAE?AV?$_Vector_iterator@V?$_Vector_val@U?$_Simple_types@UTile@@@std@@@std@@@2@XZ ; std::vector<Tile,std::allocator<Tile> >::begin
	mov	BYTE PTR __$EHRec$[ebp+8], 2
	push	12					; 0000000cH
	lea	ecx, DWORD PTR _<end>$L1$3[ebp]
	call	?__autoclassinit2@?$_Vector_iterator@V?$_Vector_val@U?$_Simple_types@UTile@@@std@@@std@@@std@@QAEXI@Z
	lea	eax, DWORD PTR _<end>$L1$3[ebp]
	push	eax
	mov	ecx, DWORD PTR _<range>$L1$5[ebp]
	call	?end@?$vector@UTile@@V?$allocator@UTile@@@std@@@std@@QAE?AV?$_Vector_iterator@V?$_Vector_val@U?$_Simple_types@UTile@@@std@@@std@@@2@XZ ; std::vector<Tile,std::allocator<Tile> >::end
	mov	BYTE PTR __$EHRec$[ebp+8], 3
	jmp	SHORT $LN7@UpdateTile
$LN5@UpdateTile:
	lea	ecx, DWORD PTR _<begin>$L1$4[ebp]
	call	??E?$_Vector_iterator@V?$_Vector_val@U?$_Simple_types@UTile@@@std@@@std@@@std@@QAEAAV01@XZ ; std::_Vector_iterator<std::_Vector_val<std::_Simple_types<Tile> > >::operator++
$LN7@UpdateTile:
	lea	eax, DWORD PTR _<end>$L1$3[ebp]
	push	eax
	lea	ecx, DWORD PTR _<begin>$L1$4[ebp]
	call	??9?$_Vector_const_iterator@V?$_Vector_val@U?$_Simple_types@UTile@@@std@@@std@@@std@@QBE_NABV01@@Z ; std::_Vector_const_iterator<std::_Vector_val<std::_Simple_types<Tile> > >::operator!=
	movzx	ecx, al
	test	ecx, ecx
	je	SHORT $LN6@UpdateTile
	lea	ecx, DWORD PTR _<begin>$L1$4[ebp]
	call	??D?$_Vector_iterator@V?$_Vector_val@U?$_Simple_types@UTile@@@std@@@std@@@std@@QBEAAUTile@@XZ ; std::_Vector_iterator<std::_Vector_val<std::_Simple_types<Tile> > >::operator*
	mov	DWORD PTR _tileB$2[ebp], eax

; 47   : 			if (CheckCollision(tile.tile, tileB)) { tile.movingLeft = !tile.movingLeft; }

	mov	esi, DWORD PTR _tileB$2[ebp]
	sub	esp, 32					; 00000020H
	mov	ecx, 8
	mov	edi, esp
	rep movsd
	mov	esi, DWORD PTR _tile$6[ebp]
	sub	esp, 32					; 00000020H
	mov	ecx, 8
	mov	edi, esp
	rep movsd
	call	?CheckCollision@@YA_NUTile@@0@Z		; CheckCollision
	add	esp, 64					; 00000040H
	movzx	eax, al
	test	eax, eax
	je	SHORT $LN8@UpdateTile
	mov	eax, DWORD PTR _tile$6[ebp]
	movzx	ecx, BYTE PTR [eax+40]
	test	ecx, ecx
	jne	SHORT $LN12@UpdateTile
	mov	DWORD PTR tv164[ebp], 1
	jmp	SHORT $LN13@UpdateTile
$LN12@UpdateTile:
	mov	DWORD PTR tv164[ebp], 0
$LN13@UpdateTile:
	mov	edx, DWORD PTR _tile$6[ebp]
	mov	al, BYTE PTR tv164[ebp]
	mov	BYTE PTR [edx+40], al
$LN8@UpdateTile:
	jmp	$LN5@UpdateTile
$LN6@UpdateTile:

; 48   : 		}

	mov	BYTE PTR __$EHRec$[ebp+8], 2
	lea	ecx, DWORD PTR _<end>$L1$3[ebp]
	call	??1?$_Vector_iterator@V?$_Vector_val@U?$_Simple_types@UTile@@@std@@@std@@@std@@QAE@XZ
	mov	BYTE PTR __$EHRec$[ebp+8], 1
	lea	ecx, DWORD PTR _<begin>$L1$4[ebp]
	call	??1?$_Vector_iterator@V?$_Vector_val@U?$_Simple_types@UTile@@@std@@@std@@@std@@QAE@XZ

; 49   : 		if (tile.movingLeft == true) { tile.tile.position.x -= tile.speed * deltaTimeS; }

	mov	eax, DWORD PTR _tile$6[ebp]
	movzx	ecx, BYTE PTR [eax+40]
	cmp	ecx, 1
	jne	SHORT $LN9@UpdateTile
	cvtss2sd xmm0, DWORD PTR _deltaTimeS$[ebp]
	mov	eax, DWORD PTR _tile$6[ebp]
	mulsd	xmm0, QWORD PTR [eax+32]
	mov	ecx, DWORD PTR _tile$6[ebp]
	movsd	xmm1, QWORD PTR [ecx]
	subsd	xmm1, xmm0
	mov	edx, DWORD PTR _tile$6[ebp]
	movsd	QWORD PTR [edx], xmm1
	jmp	SHORT $LN10@UpdateTile
$LN9@UpdateTile:

; 50   : 		else { tile.tile.position.x += tile.speed * deltaTimeS; }

	cvtss2sd xmm0, DWORD PTR _deltaTimeS$[ebp]
	mov	eax, DWORD PTR _tile$6[ebp]
	mulsd	xmm0, QWORD PTR [eax+32]
	mov	ecx, DWORD PTR _tile$6[ebp]
	addsd	xmm0, QWORD PTR [ecx]
	mov	edx, DWORD PTR _tile$6[ebp]
	movsd	QWORD PTR [edx], xmm0
$LN10@UpdateTile:
	jmp	$LN2@UpdateTile
$LN3@UpdateTile:

; 51   : 	}

	mov	BYTE PTR __$EHRec$[ebp+8], 0
	lea	ecx, DWORD PTR _<end>$L0$7[ebp]
	call	??1?$_Vector_iterator@V?$_Vector_val@U?$_Simple_types@UMovingTile@@@std@@@std@@@std@@QAE@XZ
	mov	DWORD PTR __$EHRec$[ebp+8], -1
	lea	ecx, DWORD PTR _<begin>$L0$8[ebp]
	call	??1?$_Vector_iterator@V?$_Vector_val@U?$_Simple_types@UMovingTile@@@std@@@std@@@std@@QAE@XZ

; 52   : }

	push	edx
	mov	ecx, ebp
	push	eax
	lea	edx, DWORD PTR $LN24@UpdateTile
	call	@_RTC_CheckStackVars@8
	pop	eax
	pop	edx
	mov	ecx, DWORD PTR __$EHRec$[ebp]
	mov	DWORD PTR fs:0, ecx
	pop	ecx
	pop	edi
	pop	esi
	pop	ebx
	mov	ecx, DWORD PTR __$ArrayPad$[ebp]
	xor	ecx, ebp
	call	@__security_check_cookie@4
	add	esp, 352				; 00000160H
	cmp	ebp, esp
	call	__RTC_CheckEsp
	mov	esp, ebp
	pop	ebp
	ret	0
	npad	2
$LN24@UpdateTile:
	DD	4
	DD	$LN23@UpdateTile
$LN23@UpdateTile:
	DD	-56					; ffffffc8H
	DD	12					; 0000000cH
	DD	$LN18@UpdateTile
	DD	-76					; ffffffb4H
	DD	12					; 0000000cH
	DD	$LN19@UpdateTile
	DD	-120					; ffffff88H
	DD	12					; 0000000cH
	DD	$LN20@UpdateTile
	DD	-140					; ffffff74H
	DD	12					; 0000000cH
	DD	$LN21@UpdateTile
$LN21@UpdateTile:
	DB	60					; 0000003cH
	DB	101					; 00000065H
	DB	110					; 0000006eH
	DB	100					; 00000064H
	DB	62					; 0000003eH
	DB	36					; 00000024H
	DB	76					; 0000004cH
	DB	49					; 00000031H
	DB	0
$LN20@UpdateTile:
	DB	60					; 0000003cH
	DB	98					; 00000062H
	DB	101					; 00000065H
	DB	103					; 00000067H
	DB	105					; 00000069H
	DB	110					; 0000006eH
	DB	62					; 0000003eH
	DB	36					; 00000024H
	DB	76					; 0000004cH
	DB	49					; 00000031H
	DB	0
$LN19@UpdateTile:
	DB	60					; 0000003cH
	DB	101					; 00000065H
	DB	110					; 0000006eH
	DB	100					; 00000064H
	DB	62					; 0000003eH
	DB	36					; 00000024H
	DB	76					; 0000004cH
	DB	48					; 00000030H
	DB	0
$LN18@UpdateTile:
	DB	60					; 0000003cH
	DB	98					; 00000062H
	DB	101					; 00000065H
	DB	103					; 00000067H
	DB	105					; 00000069H
	DB	110					; 0000006eH
	DB	62					; 0000003eH
	DB	36					; 00000024H
	DB	76					; 0000004cH
	DB	48					; 00000030H
	DB	0
_TEXT	ENDS
;	COMDAT text$x
text$x	SEGMENT
__unwindfunclet$?UpdateTile@@YAXH@Z$0:
	lea	ecx, DWORD PTR _<begin>$L0$8[ebp]
	jmp	??1?$_Vector_iterator@V?$_Vector_val@U?$_Simple_types@UMovingTile@@@std@@@std@@@std@@QAE@XZ
__unwindfunclet$?UpdateTile@@YAXH@Z$1:
	lea	ecx, DWORD PTR _<end>$L0$7[ebp]
	jmp	??1?$_Vector_iterator@V?$_Vector_val@U?$_Simple_types@UMovingTile@@@std@@@std@@@std@@QAE@XZ
__unwindfunclet$?UpdateTile@@YAXH@Z$2:
	lea	ecx, DWORD PTR _<begin>$L1$4[ebp]
	jmp	??1?$_Vector_iterator@V?$_Vector_val@U?$_Simple_types@UTile@@@std@@@std@@@std@@QAE@XZ
__unwindfunclet$?UpdateTile@@YAXH@Z$3:
	lea	ecx, DWORD PTR _<end>$L1$3[ebp]
	jmp	??1?$_Vector_iterator@V?$_Vector_val@U?$_Simple_types@UTile@@@std@@@std@@@std@@QAE@XZ
__ehhandler$?UpdateTile@@YAXH@Z:
	mov	edx, DWORD PTR [esp+8]
	lea	eax, DWORD PTR [edx+12]
	mov	ecx, DWORD PTR [edx-356]
	xor	ecx, eax
	call	@__security_check_cookie@4
	mov	ecx, DWORD PTR [edx-4]
	xor	ecx, eax
	call	@__security_check_cookie@4
	mov	eax, OFFSET __ehfuncinfo$?UpdateTile@@YAXH@Z
	jmp	___CxxFrameHandler3
text$x	ENDS
?UpdateTile@@YAXH@Z ENDP				; UpdateTile
; Function compile flags: /Odtp /RTCsu /ZI
; File g:\projects\lotion\lotion\environment.cpp
;	COMDAT ?GenerateTileMap@@YAXXZ
_TEXT	SEGMENT
$T1 = -632						; size = 16
$T2 = -608						; size = 16
$T3 = -584						; size = 16
$T4 = -560						; size = 16
$T5 = -536						; size = 16
$T6 = -512						; size = 16
$T7 = -488						; size = 16
$T8 = -464						; size = 16
$T9 = -440						; size = 16
$T10 = -416						; size = 16
$T11 = -392						; size = 16
_tempMovingTile$12 = -176				; size = 48
_tempPushTile$13 = -120					; size = 48
_tempTile$14 = -64					; size = 32
_x$15 = -24						; size = 4
_y$16 = -12						; size = 4
__$ArrayPad$ = -4					; size = 4
?GenerateTileMap@@YAXXZ PROC				; GenerateTileMap, COMDAT

; 9    : void GenerateTileMap() {

	push	ebp
	mov	ebp, esp
	sub	esp, 636				; 0000027cH
	push	ebx
	push	esi
	push	edi
	lea	edi, DWORD PTR [ebp-636]
	mov	ecx, 159				; 0000009fH
	mov	eax, -858993460				; ccccccccH
	rep stosd
	mov	eax, DWORD PTR ___security_cookie
	xor	eax, ebp
	mov	DWORD PTR __$ArrayPad$[ebp], eax

; 10   : 	for (int y = 0; y < MAPSIZEY; y++) {

	mov	DWORD PTR _y$16[ebp], 0
	jmp	SHORT $LN4@GenerateTi
$LN2@GenerateTi:
	mov	eax, DWORD PTR _y$16[ebp]
	add	eax, 1
	mov	DWORD PTR _y$16[ebp], eax
$LN4@GenerateTi:
	cmp	DWORD PTR _y$16[ebp], 60		; 0000003cH
	jge	$LN3@GenerateTi

; 11   : 		for (int x = 0; x < MAPSIZEX; x++) {

	mov	DWORD PTR _x$15[ebp], 0
	jmp	SHORT $LN7@GenerateTi
$LN5@GenerateTi:
	mov	eax, DWORD PTR _x$15[ebp]
	add	eax, 1
	mov	DWORD PTR _x$15[ebp], eax
$LN7@GenerateTi:
	cmp	DWORD PTR _x$15[ebp], 80		; 00000050H
	jge	$LN6@GenerateTi

; 12   : 			Tile tempTile;

	lea	ecx, DWORD PTR _tempTile$14[ebp]
	call	??0Tile@@QAE@XZ

; 13   : 			PushTile tempPushTile;

	lea	ecx, DWORD PTR _tempPushTile$13[ebp]
	call	??0PushTile@@QAE@XZ

; 14   : 			MovingTile tempMovingTile;

	lea	ecx, DWORD PTR _tempMovingTile$12[ebp]
	call	??0MovingTile@@QAE@XZ

; 15   : 
; 16   : 			if (tileMapGrid[y][x] == 1) { tempTile.position = Vector2(x * tempTile.width, y * tempTile.height); tempTile.tileID = 1; tileMap.push_back(tempTile); }

	imul	eax, DWORD PTR _y$16[ebp], 320
	mov	ecx, DWORD PTR _x$15[ebp]
	cmp	DWORD PTR ?tileMapGrid@@3PAY0FA@HA[eax+ecx*4], 1
	jne	SHORT $LN8@GenerateTi
	mov	eax, DWORD PTR _y$16[ebp]
	imul	eax, DWORD PTR _tempTile$14[ebp+20]
	cvtsi2sd xmm0, eax
	sub	esp, 8
	movsd	QWORD PTR [esp], xmm0
	mov	ecx, DWORD PTR _x$15[ebp]
	imul	ecx, DWORD PTR _tempTile$14[ebp+16]
	cvtsi2sd xmm0, ecx
	sub	esp, 8
	movsd	QWORD PTR [esp], xmm0
	lea	ecx, DWORD PTR $T11[ebp]
	call	??0Vector2@@QAE@NN@Z			; Vector2::Vector2
	mov	edx, DWORD PTR [eax]
	mov	DWORD PTR _tempTile$14[ebp], edx
	mov	ecx, DWORD PTR [eax+4]
	mov	DWORD PTR _tempTile$14[ebp+4], ecx
	mov	edx, DWORD PTR [eax+8]
	mov	DWORD PTR _tempTile$14[ebp+8], edx
	mov	eax, DWORD PTR [eax+12]
	mov	DWORD PTR _tempTile$14[ebp+12], eax
	mov	DWORD PTR _tempTile$14[ebp+24], 1
	lea	eax, DWORD PTR _tempTile$14[ebp]
	push	eax
	mov	ecx, OFFSET ?tileMap@@3V?$vector@UTile@@V?$allocator@UTile@@@std@@@std@@A ; tileMap
	call	?push_back@?$vector@UTile@@V?$allocator@UTile@@@std@@@std@@QAEXABUTile@@@Z ; std::vector<Tile,std::allocator<Tile> >::push_back
$LN8@GenerateTi:

; 17   : 			if (tileMapGrid[y][x] == 2) { tempPushTile.tile.position = Vector2(x * tempPushTile.tile.width, y * tempPushTile.tile.height); tempPushTile.tile.tileID = 2; tempPushTile.end = false; pushTileMap.push_back(tempPushTile); }

	imul	eax, DWORD PTR _y$16[ebp], 320
	mov	ecx, DWORD PTR _x$15[ebp]
	cmp	DWORD PTR ?tileMapGrid@@3PAY0FA@HA[eax+ecx*4], 2
	jne	SHORT $LN9@GenerateTi
	mov	eax, DWORD PTR _y$16[ebp]
	imul	eax, DWORD PTR _tempPushTile$13[ebp+20]
	cvtsi2sd xmm0, eax
	sub	esp, 8
	movsd	QWORD PTR [esp], xmm0
	mov	ecx, DWORD PTR _x$15[ebp]
	imul	ecx, DWORD PTR _tempPushTile$13[ebp+16]
	cvtsi2sd xmm0, ecx
	sub	esp, 8
	movsd	QWORD PTR [esp], xmm0
	lea	ecx, DWORD PTR $T10[ebp]
	call	??0Vector2@@QAE@NN@Z			; Vector2::Vector2
	mov	edx, DWORD PTR [eax]
	mov	DWORD PTR _tempPushTile$13[ebp], edx
	mov	ecx, DWORD PTR [eax+4]
	mov	DWORD PTR _tempPushTile$13[ebp+4], ecx
	mov	edx, DWORD PTR [eax+8]
	mov	DWORD PTR _tempPushTile$13[ebp+8], edx
	mov	eax, DWORD PTR [eax+12]
	mov	DWORD PTR _tempPushTile$13[ebp+12], eax
	mov	DWORD PTR _tempPushTile$13[ebp+24], 2
	mov	BYTE PTR _tempPushTile$13[ebp+44], 0
	lea	eax, DWORD PTR _tempPushTile$13[ebp]
	push	eax
	mov	ecx, OFFSET ?pushTileMap@@3V?$vector@UPushTile@@V?$allocator@UPushTile@@@std@@@std@@A ; pushTileMap
	call	?push_back@?$vector@UPushTile@@V?$allocator@UPushTile@@@std@@@std@@QAEXABUPushTile@@@Z ; std::vector<PushTile,std::allocator<PushTile> >::push_back
$LN9@GenerateTi:

; 18   : 			if (tileMapGrid[y][x] == 3) { tempPushTile.tile.position = Vector2(x * tempPushTile.tile.width, y * tempPushTile.tile.height); tempPushTile.tile.tileID = 2; tempPushTile.end = true; pushTileMap.push_back(tempPushTile); }

	imul	eax, DWORD PTR _y$16[ebp], 320
	mov	ecx, DWORD PTR _x$15[ebp]
	cmp	DWORD PTR ?tileMapGrid@@3PAY0FA@HA[eax+ecx*4], 3
	jne	SHORT $LN10@GenerateTi
	mov	eax, DWORD PTR _y$16[ebp]
	imul	eax, DWORD PTR _tempPushTile$13[ebp+20]
	cvtsi2sd xmm0, eax
	sub	esp, 8
	movsd	QWORD PTR [esp], xmm0
	mov	ecx, DWORD PTR _x$15[ebp]
	imul	ecx, DWORD PTR _tempPushTile$13[ebp+16]
	cvtsi2sd xmm0, ecx
	sub	esp, 8
	movsd	QWORD PTR [esp], xmm0
	lea	ecx, DWORD PTR $T9[ebp]
	call	??0Vector2@@QAE@NN@Z			; Vector2::Vector2
	mov	edx, DWORD PTR [eax]
	mov	DWORD PTR _tempPushTile$13[ebp], edx
	mov	ecx, DWORD PTR [eax+4]
	mov	DWORD PTR _tempPushTile$13[ebp+4], ecx
	mov	edx, DWORD PTR [eax+8]
	mov	DWORD PTR _tempPushTile$13[ebp+8], edx
	mov	eax, DWORD PTR [eax+12]
	mov	DWORD PTR _tempPushTile$13[ebp+12], eax
	mov	DWORD PTR _tempPushTile$13[ebp+24], 2
	mov	BYTE PTR _tempPushTile$13[ebp+44], 1
	lea	eax, DWORD PTR _tempPushTile$13[ebp]
	push	eax
	mov	ecx, OFFSET ?pushTileMap@@3V?$vector@UPushTile@@V?$allocator@UPushTile@@@std@@@std@@A ; pushTileMap
	call	?push_back@?$vector@UPushTile@@V?$allocator@UPushTile@@@std@@@std@@QAEXABUPushTile@@@Z ; std::vector<PushTile,std::allocator<PushTile> >::push_back
$LN10@GenerateTi:

; 19   : 			if (tileMapGrid[y][x] == 4) { spawnTile.position = Vector2(x * spawnTile.width, y * spawnTile.height); spawnTile.tileID = 4; }

	imul	eax, DWORD PTR _y$16[ebp], 320
	mov	ecx, DWORD PTR _x$15[ebp]
	cmp	DWORD PTR ?tileMapGrid@@3PAY0FA@HA[eax+ecx*4], 4
	jne	SHORT $LN11@GenerateTi
	mov	eax, DWORD PTR _y$16[ebp]
	imul	eax, DWORD PTR ?spawnTile@@3USpawnTile@@A+20
	cvtsi2sd xmm0, eax
	sub	esp, 8
	movsd	QWORD PTR [esp], xmm0
	mov	ecx, DWORD PTR _x$15[ebp]
	imul	ecx, DWORD PTR ?spawnTile@@3USpawnTile@@A+16
	cvtsi2sd xmm0, ecx
	sub	esp, 8
	movsd	QWORD PTR [esp], xmm0
	lea	ecx, DWORD PTR $T8[ebp]
	call	??0Vector2@@QAE@NN@Z			; Vector2::Vector2
	mov	edx, DWORD PTR [eax]
	mov	DWORD PTR ?spawnTile@@3USpawnTile@@A, edx
	mov	ecx, DWORD PTR [eax+4]
	mov	DWORD PTR ?spawnTile@@3USpawnTile@@A+4, ecx
	mov	edx, DWORD PTR [eax+8]
	mov	DWORD PTR ?spawnTile@@3USpawnTile@@A+8, edx
	mov	eax, DWORD PTR [eax+12]
	mov	DWORD PTR ?spawnTile@@3USpawnTile@@A+12, eax
	mov	DWORD PTR ?spawnTile@@3USpawnTile@@A+24, 4
$LN11@GenerateTi:

; 20   : 			if (tileMapGrid[y][x] == 5) { tempTile.position = Vector2(x * tempTile.width, y * tempTile.height); tempTile.tileID = 5; tileMap.push_back(tempTile); }

	imul	eax, DWORD PTR _y$16[ebp], 320
	mov	ecx, DWORD PTR _x$15[ebp]
	cmp	DWORD PTR ?tileMapGrid@@3PAY0FA@HA[eax+ecx*4], 5
	jne	SHORT $LN12@GenerateTi
	mov	eax, DWORD PTR _y$16[ebp]
	imul	eax, DWORD PTR _tempTile$14[ebp+20]
	cvtsi2sd xmm0, eax
	sub	esp, 8
	movsd	QWORD PTR [esp], xmm0
	mov	ecx, DWORD PTR _x$15[ebp]
	imul	ecx, DWORD PTR _tempTile$14[ebp+16]
	cvtsi2sd xmm0, ecx
	sub	esp, 8
	movsd	QWORD PTR [esp], xmm0
	lea	ecx, DWORD PTR $T7[ebp]
	call	??0Vector2@@QAE@NN@Z			; Vector2::Vector2
	mov	edx, DWORD PTR [eax]
	mov	DWORD PTR _tempTile$14[ebp], edx
	mov	ecx, DWORD PTR [eax+4]
	mov	DWORD PTR _tempTile$14[ebp+4], ecx
	mov	edx, DWORD PTR [eax+8]
	mov	DWORD PTR _tempTile$14[ebp+8], edx
	mov	eax, DWORD PTR [eax+12]
	mov	DWORD PTR _tempTile$14[ebp+12], eax
	mov	DWORD PTR _tempTile$14[ebp+24], 5
	lea	eax, DWORD PTR _tempTile$14[ebp]
	push	eax
	mov	ecx, OFFSET ?tileMap@@3V?$vector@UTile@@V?$allocator@UTile@@@std@@@std@@A ; tileMap
	call	?push_back@?$vector@UTile@@V?$allocator@UTile@@@std@@@std@@QAEXABUTile@@@Z ; std::vector<Tile,std::allocator<Tile> >::push_back
$LN12@GenerateTi:

; 21   : 			if (tileMapGrid[y][x] == 6) { tempTile.position = Vector2(x * tempTile.width, (y * tempTile.height) + 5); tempTile.tileID = 6; tempTile.height = 5; tileMap.push_back(tempTile); }

	imul	eax, DWORD PTR _y$16[ebp], 320
	mov	ecx, DWORD PTR _x$15[ebp]
	cmp	DWORD PTR ?tileMapGrid@@3PAY0FA@HA[eax+ecx*4], 6
	jne	SHORT $LN13@GenerateTi
	mov	eax, DWORD PTR _y$16[ebp]
	imul	eax, DWORD PTR _tempTile$14[ebp+20]
	add	eax, 5
	cvtsi2sd xmm0, eax
	sub	esp, 8
	movsd	QWORD PTR [esp], xmm0
	mov	ecx, DWORD PTR _x$15[ebp]
	imul	ecx, DWORD PTR _tempTile$14[ebp+16]
	cvtsi2sd xmm0, ecx
	sub	esp, 8
	movsd	QWORD PTR [esp], xmm0
	lea	ecx, DWORD PTR $T6[ebp]
	call	??0Vector2@@QAE@NN@Z			; Vector2::Vector2
	mov	edx, DWORD PTR [eax]
	mov	DWORD PTR _tempTile$14[ebp], edx
	mov	ecx, DWORD PTR [eax+4]
	mov	DWORD PTR _tempTile$14[ebp+4], ecx
	mov	edx, DWORD PTR [eax+8]
	mov	DWORD PTR _tempTile$14[ebp+8], edx
	mov	eax, DWORD PTR [eax+12]
	mov	DWORD PTR _tempTile$14[ebp+12], eax
	mov	DWORD PTR _tempTile$14[ebp+24], 6
	mov	DWORD PTR _tempTile$14[ebp+20], 5
	lea	eax, DWORD PTR _tempTile$14[ebp]
	push	eax
	mov	ecx, OFFSET ?tileMap@@3V?$vector@UTile@@V?$allocator@UTile@@@std@@@std@@A ; tileMap
	call	?push_back@?$vector@UTile@@V?$allocator@UTile@@@std@@@std@@QAEXABUTile@@@Z ; std::vector<Tile,std::allocator<Tile> >::push_back
$LN13@GenerateTi:

; 22   : 			if (tileMapGrid[y][x] == 7) { tempTile.position = Vector2(x * tempTile.width, (y * tempTile.height) + 5); tempTile.tileID = 7; tempTile.height = 5; tileMap.push_back(tempTile); }

	imul	eax, DWORD PTR _y$16[ebp], 320
	mov	ecx, DWORD PTR _x$15[ebp]
	cmp	DWORD PTR ?tileMapGrid@@3PAY0FA@HA[eax+ecx*4], 7
	jne	SHORT $LN14@GenerateTi
	mov	eax, DWORD PTR _y$16[ebp]
	imul	eax, DWORD PTR _tempTile$14[ebp+20]
	add	eax, 5
	cvtsi2sd xmm0, eax
	sub	esp, 8
	movsd	QWORD PTR [esp], xmm0
	mov	ecx, DWORD PTR _x$15[ebp]
	imul	ecx, DWORD PTR _tempTile$14[ebp+16]
	cvtsi2sd xmm0, ecx
	sub	esp, 8
	movsd	QWORD PTR [esp], xmm0
	lea	ecx, DWORD PTR $T5[ebp]
	call	??0Vector2@@QAE@NN@Z			; Vector2::Vector2
	mov	edx, DWORD PTR [eax]
	mov	DWORD PTR _tempTile$14[ebp], edx
	mov	ecx, DWORD PTR [eax+4]
	mov	DWORD PTR _tempTile$14[ebp+4], ecx
	mov	edx, DWORD PTR [eax+8]
	mov	DWORD PTR _tempTile$14[ebp+8], edx
	mov	eax, DWORD PTR [eax+12]
	mov	DWORD PTR _tempTile$14[ebp+12], eax
	mov	DWORD PTR _tempTile$14[ebp+24], 7
	mov	DWORD PTR _tempTile$14[ebp+20], 5
	lea	eax, DWORD PTR _tempTile$14[ebp]
	push	eax
	mov	ecx, OFFSET ?tileMap@@3V?$vector@UTile@@V?$allocator@UTile@@@std@@@std@@A ; tileMap
	call	?push_back@?$vector@UTile@@V?$allocator@UTile@@@std@@@std@@QAEXABUTile@@@Z ; std::vector<Tile,std::allocator<Tile> >::push_back
$LN14@GenerateTi:

; 23   : 			if (tileMapGrid[y][x] == 8) { tempTile.position = Vector2(x * tempTile.width, y * tempTile.height); tempTile.tileID = 7; tempTile.height = 5; tileMap.push_back(tempTile); }

	imul	eax, DWORD PTR _y$16[ebp], 320
	mov	ecx, DWORD PTR _x$15[ebp]
	cmp	DWORD PTR ?tileMapGrid@@3PAY0FA@HA[eax+ecx*4], 8
	jne	SHORT $LN15@GenerateTi
	mov	eax, DWORD PTR _y$16[ebp]
	imul	eax, DWORD PTR _tempTile$14[ebp+20]
	cvtsi2sd xmm0, eax
	sub	esp, 8
	movsd	QWORD PTR [esp], xmm0
	mov	ecx, DWORD PTR _x$15[ebp]
	imul	ecx, DWORD PTR _tempTile$14[ebp+16]
	cvtsi2sd xmm0, ecx
	sub	esp, 8
	movsd	QWORD PTR [esp], xmm0
	lea	ecx, DWORD PTR $T4[ebp]
	call	??0Vector2@@QAE@NN@Z			; Vector2::Vector2
	mov	edx, DWORD PTR [eax]
	mov	DWORD PTR _tempTile$14[ebp], edx
	mov	ecx, DWORD PTR [eax+4]
	mov	DWORD PTR _tempTile$14[ebp+4], ecx
	mov	edx, DWORD PTR [eax+8]
	mov	DWORD PTR _tempTile$14[ebp+8], edx
	mov	eax, DWORD PTR [eax+12]
	mov	DWORD PTR _tempTile$14[ebp+12], eax
	mov	DWORD PTR _tempTile$14[ebp+24], 7
	mov	DWORD PTR _tempTile$14[ebp+20], 5
	lea	eax, DWORD PTR _tempTile$14[ebp]
	push	eax
	mov	ecx, OFFSET ?tileMap@@3V?$vector@UTile@@V?$allocator@UTile@@@std@@@std@@A ; tileMap
	call	?push_back@?$vector@UTile@@V?$allocator@UTile@@@std@@@std@@QAEXABUTile@@@Z ; std::vector<Tile,std::allocator<Tile> >::push_back
$LN15@GenerateTi:

; 24   : 			if (tileMapGrid[y][x] == 9) { tempMovingTile.tile.position = Vector2(x * tempMovingTile.tile.width, y * tempMovingTile.tile.height); tempMovingTile.tile.tileID = 8; movingTileMap.push_back(tempMovingTile); }

	imul	eax, DWORD PTR _y$16[ebp], 320
	mov	ecx, DWORD PTR _x$15[ebp]
	cmp	DWORD PTR ?tileMapGrid@@3PAY0FA@HA[eax+ecx*4], 9
	jne	SHORT $LN16@GenerateTi
	mov	eax, DWORD PTR _y$16[ebp]
	imul	eax, DWORD PTR _tempMovingTile$12[ebp+20]
	cvtsi2sd xmm0, eax
	sub	esp, 8
	movsd	QWORD PTR [esp], xmm0
	mov	ecx, DWORD PTR _x$15[ebp]
	imul	ecx, DWORD PTR _tempMovingTile$12[ebp+16]
	cvtsi2sd xmm0, ecx
	sub	esp, 8
	movsd	QWORD PTR [esp], xmm0
	lea	ecx, DWORD PTR $T3[ebp]
	call	??0Vector2@@QAE@NN@Z			; Vector2::Vector2
	mov	edx, DWORD PTR [eax]
	mov	DWORD PTR _tempMovingTile$12[ebp], edx
	mov	ecx, DWORD PTR [eax+4]
	mov	DWORD PTR _tempMovingTile$12[ebp+4], ecx
	mov	edx, DWORD PTR [eax+8]
	mov	DWORD PTR _tempMovingTile$12[ebp+8], edx
	mov	eax, DWORD PTR [eax+12]
	mov	DWORD PTR _tempMovingTile$12[ebp+12], eax
	mov	DWORD PTR _tempMovingTile$12[ebp+24], 8
	lea	eax, DWORD PTR _tempMovingTile$12[ebp]
	push	eax
	mov	ecx, OFFSET ?movingTileMap@@3V?$vector@UMovingTile@@V?$allocator@UMovingTile@@@std@@@std@@A ; movingTileMap
	call	?push_back@?$vector@UMovingTile@@V?$allocator@UMovingTile@@@std@@@std@@QAEXABUMovingTile@@@Z ; std::vector<MovingTile,std::allocator<MovingTile> >::push_back
$LN16@GenerateTi:

; 25   : 			if (tileMapGrid[y][x] == 10) { tempMovingTile.tile.position = Vector2(x * tempMovingTile.tile.width, (y * tempMovingTile.tile.height) + 5); tempMovingTile.tile.height = 5; tempMovingTile.tile.tileID = 8; movingTileMap.push_back(tempMovingTile); }

	imul	eax, DWORD PTR _y$16[ebp], 320
	mov	ecx, DWORD PTR _x$15[ebp]
	cmp	DWORD PTR ?tileMapGrid@@3PAY0FA@HA[eax+ecx*4], 10 ; 0000000aH
	jne	$LN17@GenerateTi
	mov	eax, DWORD PTR _y$16[ebp]
	imul	eax, DWORD PTR _tempMovingTile$12[ebp+20]
	add	eax, 5
	cvtsi2sd xmm0, eax
	sub	esp, 8
	movsd	QWORD PTR [esp], xmm0
	mov	ecx, DWORD PTR _x$15[ebp]
	imul	ecx, DWORD PTR _tempMovingTile$12[ebp+16]
	cvtsi2sd xmm0, ecx
	sub	esp, 8
	movsd	QWORD PTR [esp], xmm0
	lea	ecx, DWORD PTR $T2[ebp]
	call	??0Vector2@@QAE@NN@Z			; Vector2::Vector2
	mov	edx, DWORD PTR [eax]
	mov	DWORD PTR _tempMovingTile$12[ebp], edx
	mov	ecx, DWORD PTR [eax+4]
	mov	DWORD PTR _tempMovingTile$12[ebp+4], ecx
	mov	edx, DWORD PTR [eax+8]
	mov	DWORD PTR _tempMovingTile$12[ebp+8], edx
	mov	eax, DWORD PTR [eax+12]
	mov	DWORD PTR _tempMovingTile$12[ebp+12], eax
	mov	DWORD PTR _tempMovingTile$12[ebp+20], 5
	mov	DWORD PTR _tempMovingTile$12[ebp+24], 8
	lea	eax, DWORD PTR _tempMovingTile$12[ebp]
	push	eax
	mov	ecx, OFFSET ?movingTileMap@@3V?$vector@UMovingTile@@V?$allocator@UMovingTile@@@std@@@std@@A ; movingTileMap
	call	?push_back@?$vector@UMovingTile@@V?$allocator@UMovingTile@@@std@@@std@@QAEXABUMovingTile@@@Z ; std::vector<MovingTile,std::allocator<MovingTile> >::push_back
$LN17@GenerateTi:

; 26   : 			if (tileMapGrid[y][x] == 11) { tempMovingTile.tile.position = Vector2(x * tempMovingTile.tile.width, y * tempMovingTile.tile.height); tempMovingTile.tile.height = 5; tempMovingTile.tile.tileID = 8; movingTileMap.push_back(tempMovingTile); }

	imul	eax, DWORD PTR _y$16[ebp], 320
	mov	ecx, DWORD PTR _x$15[ebp]
	cmp	DWORD PTR ?tileMapGrid@@3PAY0FA@HA[eax+ecx*4], 11 ; 0000000bH
	jne	SHORT $LN18@GenerateTi
	mov	eax, DWORD PTR _y$16[ebp]
	imul	eax, DWORD PTR _tempMovingTile$12[ebp+20]
	cvtsi2sd xmm0, eax
	sub	esp, 8
	movsd	QWORD PTR [esp], xmm0
	mov	ecx, DWORD PTR _x$15[ebp]
	imul	ecx, DWORD PTR _tempMovingTile$12[ebp+16]
	cvtsi2sd xmm0, ecx
	sub	esp, 8
	movsd	QWORD PTR [esp], xmm0
	lea	ecx, DWORD PTR $T1[ebp]
	call	??0Vector2@@QAE@NN@Z			; Vector2::Vector2
	mov	edx, DWORD PTR [eax]
	mov	DWORD PTR _tempMovingTile$12[ebp], edx
	mov	ecx, DWORD PTR [eax+4]
	mov	DWORD PTR _tempMovingTile$12[ebp+4], ecx
	mov	edx, DWORD PTR [eax+8]
	mov	DWORD PTR _tempMovingTile$12[ebp+8], edx
	mov	eax, DWORD PTR [eax+12]
	mov	DWORD PTR _tempMovingTile$12[ebp+12], eax
	mov	DWORD PTR _tempMovingTile$12[ebp+20], 5
	mov	DWORD PTR _tempMovingTile$12[ebp+24], 8
	lea	eax, DWORD PTR _tempMovingTile$12[ebp]
	push	eax
	mov	ecx, OFFSET ?movingTileMap@@3V?$vector@UMovingTile@@V?$allocator@UMovingTile@@@std@@@std@@A ; movingTileMap
	call	?push_back@?$vector@UMovingTile@@V?$allocator@UMovingTile@@@std@@@std@@QAEXABUMovingTile@@@Z ; std::vector<MovingTile,std::allocator<MovingTile> >::push_back
$LN18@GenerateTi:

; 27   : 		}

	jmp	$LN5@GenerateTi
$LN6@GenerateTi:

; 28   : 	}

	jmp	$LN2@GenerateTi
$LN3@GenerateTi:

; 29   : }

	push	edx
	mov	ecx, ebp
	push	eax
	lea	edx, DWORD PTR $LN24@GenerateTi
	call	@_RTC_CheckStackVars@8
	pop	eax
	pop	edx
	pop	edi
	pop	esi
	pop	ebx
	mov	ecx, DWORD PTR __$ArrayPad$[ebp]
	xor	ecx, ebp
	call	@__security_check_cookie@4
	add	esp, 636				; 0000027cH
	cmp	ebp, esp
	call	__RTC_CheckEsp
	mov	esp, ebp
	pop	ebp
	ret	0
	npad	1
$LN24@GenerateTi:
	DD	3
	DD	$LN23@GenerateTi
$LN23@GenerateTi:
	DD	-64					; ffffffc0H
	DD	32					; 00000020H
	DD	$LN20@GenerateTi
	DD	-120					; ffffff88H
	DD	48					; 00000030H
	DD	$LN21@GenerateTi
	DD	-176					; ffffff50H
	DD	48					; 00000030H
	DD	$LN22@GenerateTi
$LN22@GenerateTi:
	DB	116					; 00000074H
	DB	101					; 00000065H
	DB	109					; 0000006dH
	DB	112					; 00000070H
	DB	77					; 0000004dH
	DB	111					; 0000006fH
	DB	118					; 00000076H
	DB	105					; 00000069H
	DB	110					; 0000006eH
	DB	103					; 00000067H
	DB	84					; 00000054H
	DB	105					; 00000069H
	DB	108					; 0000006cH
	DB	101					; 00000065H
	DB	0
$LN21@GenerateTi:
	DB	116					; 00000074H
	DB	101					; 00000065H
	DB	109					; 0000006dH
	DB	112					; 00000070H
	DB	80					; 00000050H
	DB	117					; 00000075H
	DB	115					; 00000073H
	DB	104					; 00000068H
	DB	84					; 00000054H
	DB	105					; 00000069H
	DB	108					; 0000006cH
	DB	101					; 00000065H
	DB	0
$LN20@GenerateTi:
	DB	116					; 00000074H
	DB	101					; 00000065H
	DB	109					; 0000006dH
	DB	112					; 00000070H
	DB	84					; 00000054H
	DB	105					; 00000069H
	DB	108					; 0000006cH
	DB	101					; 00000065H
	DB	0
?GenerateTileMap@@YAXXZ ENDP				; GenerateTileMap
_TEXT	ENDS
; Function compile flags: /Odtp /RTCsu /ZI
;	COMDAT ?__autoclassinit2@?$vector@UPushTile@@V?$allocator@UPushTile@@@std@@@std@@QAEXI@Z
_TEXT	SEGMENT
_this$ = -8						; size = 4
_classSize$ = 8						; size = 4
?__autoclassinit2@?$vector@UPushTile@@V?$allocator@UPushTile@@@std@@@std@@QAEXI@Z PROC ; std::vector<PushTile,std::allocator<PushTile> >::__autoclassinit2, COMDAT
; _this$ = ecx
	push	ebp
	mov	ebp, esp
	sub	esp, 204				; 000000ccH
	push	ebx
	push	esi
	push	edi
	push	ecx
	lea	edi, DWORD PTR [ebp-204]
	mov	ecx, 51					; 00000033H
	mov	eax, -858993460				; ccccccccH
	rep stosd
	pop	ecx
	mov	DWORD PTR _this$[ebp], ecx
	mov	eax, DWORD PTR _classSize$[ebp]
	push	eax
	push	0
	mov	ecx, DWORD PTR _this$[ebp]
	push	ecx
	call	_memset
	add	esp, 12					; 0000000cH
	pop	edi
	pop	esi
	pop	ebx
	add	esp, 204				; 000000ccH
	cmp	ebp, esp
	call	__RTC_CheckEsp
	mov	esp, ebp
	pop	ebp
	ret	4
?__autoclassinit2@?$vector@UPushTile@@V?$allocator@UPushTile@@@std@@@std@@QAEXI@Z ENDP ; std::vector<PushTile,std::allocator<PushTile> >::__autoclassinit2
_TEXT	ENDS
; Function compile flags: /Odtp /RTCsu /ZI
; File c:\program files (x86)\microsoft visual studio 14.0\vc\include\vector
;	COMDAT ?_Orphan_range@?$vector@UPushTile@@V?$allocator@UPushTile@@@std@@@std@@IBEXPAUPushTile@@0@Z
_TEXT	SEGMENT
__Pnext$ = -48						; size = 4
__Lock$ = -36						; size = 4
_this$ = -24						; size = 4
__$ArrayPad$ = -16					; size = 4
__$EHRec$ = -12						; size = 12
__First$ = 8						; size = 4
__Last$ = 12						; size = 4
?_Orphan_range@?$vector@UPushTile@@V?$allocator@UPushTile@@@std@@@std@@IBEXPAUPushTile@@0@Z PROC ; std::vector<PushTile,std::allocator<PushTile> >::_Orphan_range, COMDAT
; _this$ = ecx

; 1798 : 		{	// orphan iterators within specified (inclusive) range

	push	ebp
	mov	ebp, esp
	push	-1
	push	__ehhandler$?_Orphan_range@?$vector@UPushTile@@V?$allocator@UPushTile@@@std@@@std@@IBEXPAUPushTile@@0@Z
	mov	eax, DWORD PTR fs:0
	push	eax
	sub	esp, 232				; 000000e8H
	push	ebx
	push	esi
	push	edi
	push	ecx
	lea	edi, DWORD PTR [ebp-244]
	mov	ecx, 58					; 0000003aH
	mov	eax, -858993460				; ccccccccH
	rep stosd
	pop	ecx
	mov	eax, DWORD PTR ___security_cookie
	xor	eax, ebp
	mov	DWORD PTR __$ArrayPad$[ebp], eax
	push	eax
	lea	eax, DWORD PTR __$EHRec$[ebp]
	mov	DWORD PTR fs:0, eax
	mov	DWORD PTR _this$[ebp], ecx

; 1799 : 		_Lockit _Lock(_LOCK_DEBUG);

	mov	esi, esp
	push	3
	lea	ecx, DWORD PTR __Lock$[ebp]
	call	DWORD PTR __imp_??0_Lockit@std@@QAE@H@Z
	cmp	esi, esp
	call	__RTC_CheckEsp
	mov	DWORD PTR __$EHRec$[ebp+8], 0

; 1800 : 		const_iterator **_Pnext = (const_iterator **)this->_Getpfirst();

	mov	ecx, DWORD PTR _this$[ebp]
	call	?_Getpfirst@?$_Vector_alloc@U?$_Vec_base_types@UPushTile@@V?$allocator@UPushTile@@@std@@@std@@@std@@QBEPAPAU_Iterator_base12@2@XZ ; std::_Vector_alloc<std::_Vec_base_types<PushTile,std::allocator<PushTile> > >::_Getpfirst
	mov	DWORD PTR __Pnext$[ebp], eax

; 1801 : 		if (_Pnext != 0)

	cmp	DWORD PTR __Pnext$[ebp], 0
	je	SHORT $LN4@Orphan_ran
$LN2@Orphan_ran:

; 1802 : 			{	// test an iterator
; 1803 : 			while (*_Pnext != 0)

	mov	eax, DWORD PTR __Pnext$[ebp]
	cmp	DWORD PTR [eax], 0
	je	SHORT $LN4@Orphan_ran

; 1804 : 				if ((*_Pnext)->_Ptr < _First || _Last < (*_Pnext)->_Ptr)

	mov	eax, DWORD PTR __Pnext$[ebp]
	mov	ecx, DWORD PTR [eax]
	mov	edx, DWORD PTR [ecx+8]
	cmp	edx, DWORD PTR __First$[ebp]
	jb	SHORT $LN7@Orphan_ran
	mov	eax, DWORD PTR __Pnext$[ebp]
	mov	ecx, DWORD PTR [eax]
	mov	edx, DWORD PTR __Last$[ebp]
	cmp	edx, DWORD PTR [ecx+8]
	jae	SHORT $LN5@Orphan_ran
$LN7@Orphan_ran:

; 1805 : 					_Pnext = (const_iterator **)(*_Pnext)->_Getpnext();

	mov	eax, DWORD PTR __Pnext$[ebp]
	mov	ecx, DWORD PTR [eax]
	call	?_Getpnext@_Iterator_base12@std@@QAEPAPAU12@XZ ; std::_Iterator_base12::_Getpnext
	mov	DWORD PTR __Pnext$[ebp], eax

; 1806 : 				else

	jmp	SHORT $LN6@Orphan_ran
$LN5@Orphan_ran:

; 1807 : 					{	// orphan the iterator
; 1808 : 					(*_Pnext)->_Clrcont();

	mov	eax, DWORD PTR __Pnext$[ebp]
	mov	ecx, DWORD PTR [eax]
	call	?_Clrcont@_Iterator_base12@std@@QAEXXZ	; std::_Iterator_base12::_Clrcont

; 1809 : 					*_Pnext = *(const_iterator **)(*_Pnext)->_Getpnext();

	mov	eax, DWORD PTR __Pnext$[ebp]
	mov	ecx, DWORD PTR [eax]
	call	?_Getpnext@_Iterator_base12@std@@QAEPAPAU12@XZ ; std::_Iterator_base12::_Getpnext
	mov	ecx, DWORD PTR __Pnext$[ebp]
	mov	edx, DWORD PTR [eax]
	mov	DWORD PTR [ecx], edx
$LN6@Orphan_ran:

; 1810 : 					}

	jmp	SHORT $LN2@Orphan_ran
$LN4@Orphan_ran:

; 1811 : 			}
; 1812 : 		}

	mov	DWORD PTR __$EHRec$[ebp+8], -1
	mov	esi, esp
	lea	ecx, DWORD PTR __Lock$[ebp]
	call	DWORD PTR __imp_??1_Lockit@std@@QAE@XZ
	cmp	esi, esp
	call	__RTC_CheckEsp
	push	edx
	mov	ecx, ebp
	push	eax
	lea	edx, DWORD PTR $LN13@Orphan_ran
	call	@_RTC_CheckStackVars@8
	pop	eax
	pop	edx
	mov	ecx, DWORD PTR __$EHRec$[ebp]
	mov	DWORD PTR fs:0, ecx
	pop	ecx
	pop	edi
	pop	esi
	pop	ebx
	mov	ecx, DWORD PTR __$ArrayPad$[ebp]
	xor	ecx, ebp
	call	@__security_check_cookie@4
	add	esp, 244				; 000000f4H
	cmp	ebp, esp
	call	__RTC_CheckEsp
	mov	esp, ebp
	pop	ebp
	ret	8
$LN13@Orphan_ran:
	DD	1
	DD	$LN12@Orphan_ran
$LN12@Orphan_ran:
	DD	-36					; ffffffdcH
	DD	4
	DD	$LN10@Orphan_ran
$LN10@Orphan_ran:
	DB	95					; 0000005fH
	DB	76					; 0000004cH
	DB	111					; 0000006fH
	DB	99					; 00000063H
	DB	107					; 0000006bH
	DB	0
_TEXT	ENDS
;	COMDAT text$x
text$x	SEGMENT
__unwindfunclet$?_Orphan_range@?$vector@UPushTile@@V?$allocator@UPushTile@@@std@@@std@@IBEXPAUPushTile@@0@Z$0:
	mov	esi, esp
	lea	ecx, DWORD PTR __Lock$[ebp]
	call	DWORD PTR __imp_??1_Lockit@std@@QAE@XZ
	cmp	esi, esp
	jmp	__RTC_CheckEsp
__ehhandler$?_Orphan_range@?$vector@UPushTile@@V?$allocator@UPushTile@@@std@@@std@@IBEXPAUPushTile@@0@Z:
	mov	edx, DWORD PTR [esp+8]
	lea	eax, DWORD PTR [edx+12]
	mov	ecx, DWORD PTR [edx-248]
	xor	ecx, eax
	call	@__security_check_cookie@4
	mov	ecx, DWORD PTR [edx-4]
	xor	ecx, eax
	call	@__security_check_cookie@4
	mov	eax, OFFSET __ehfuncinfo$?_Orphan_range@?$vector@UPushTile@@V?$allocator@UPushTile@@@std@@@std@@IBEXPAUPushTile@@0@Z
	jmp	___CxxFrameHandler3
text$x	ENDS
?_Orphan_range@?$vector@UPushTile@@V?$allocator@UPushTile@@@std@@@std@@IBEXPAUPushTile@@0@Z ENDP ; std::vector<PushTile,std::allocator<PushTile> >::_Orphan_range
; Function compile flags: /Odtp /RTCsu /ZI
; File c:\program files (x86)\microsoft visual studio 14.0\vc\include\vector
;	COMDAT ?_Xlen@?$vector@UPushTile@@V?$allocator@UPushTile@@@std@@@std@@IBEXXZ
_TEXT	SEGMENT
_this$ = -8						; size = 4
?_Xlen@?$vector@UPushTile@@V?$allocator@UPushTile@@@std@@@std@@IBEXXZ PROC ; std::vector<PushTile,std::allocator<PushTile> >::_Xlen, COMDAT
; _this$ = ecx

; 1787 : 		{	// report a length_error

	push	ebp
	mov	ebp, esp
	sub	esp, 204				; 000000ccH
	push	ebx
	push	esi
	push	edi
	push	ecx
	lea	edi, DWORD PTR [ebp-204]
	mov	ecx, 51					; 00000033H
	mov	eax, -858993460				; ccccccccH
	rep stosd
	pop	ecx
	mov	DWORD PTR _this$[ebp], ecx

; 1788 : 		_Xlength_error("vector<T> too long");

	mov	esi, esp
	push	OFFSET ??_C@_0BD@OLBABOEK@vector?$DMT?$DO?5too?5long?$AA@
	call	DWORD PTR __imp_?_Xlength_error@std@@YAXPBD@Z
	cmp	esi, esp
	call	__RTC_CheckEsp
$LN2@Xlen:

; 1789 : 		}

	pop	edi
	pop	esi
	pop	ebx
	add	esp, 204				; 000000ccH
	cmp	ebp, esp
	call	__RTC_CheckEsp
	mov	esp, ebp
	pop	ebp
	ret	0
?_Xlen@?$vector@UPushTile@@V?$allocator@UPushTile@@@std@@@std@@IBEXXZ ENDP ; std::vector<PushTile,std::allocator<PushTile> >::_Xlen
_TEXT	ENDS
; Function compile flags: /Odtp /RTCsu /ZI
; File c:\program files (x86)\microsoft visual studio 14.0\vc\include\vector
;	COMDAT ?_Tidy@?$vector@UPushTile@@V?$allocator@UPushTile@@@std@@@std@@IAEXXZ
_TEXT	SEGMENT
_this$ = -8						; size = 4
?_Tidy@?$vector@UPushTile@@V?$allocator@UPushTile@@@std@@@std@@IAEXXZ PROC ; std::vector<PushTile,std::allocator<PushTile> >::_Tidy, COMDAT
; _this$ = ecx

; 1659 : 		{	// free all storage

	push	ebp
	mov	ebp, esp
	sub	esp, 204				; 000000ccH
	push	ebx
	push	esi
	push	edi
	push	ecx
	lea	edi, DWORD PTR [ebp-204]
	mov	ecx, 51					; 00000033H
	mov	eax, -858993460				; ccccccccH
	rep stosd
	pop	ecx
	mov	DWORD PTR _this$[ebp], ecx

; 1660 : 		if (this->_Myfirst() != pointer())

	mov	ecx, DWORD PTR _this$[ebp]
	call	?_Myfirst@?$_Vector_alloc@U?$_Vec_base_types@UPushTile@@V?$allocator@UPushTile@@@std@@@std@@@std@@QAEAAPAUPushTile@@XZ ; std::_Vector_alloc<std::_Vec_base_types<PushTile,std::allocator<PushTile> > >::_Myfirst
	cmp	DWORD PTR [eax], 0
	je	$LN1@Tidy

; 1661 : 			{	// something to free, destroy and deallocate it
; 1662 : 			this->_Orphan_all();

	mov	ecx, DWORD PTR _this$[ebp]
	call	?_Orphan_all@?$_Vector_alloc@U?$_Vec_base_types@UPushTile@@V?$allocator@UPushTile@@@std@@@std@@@std@@QAEXXZ ; std::_Vector_alloc<std::_Vec_base_types<PushTile,std::allocator<PushTile> > >::_Orphan_all

; 1663 : 			_Destroy(this->_Myfirst(), this->_Mylast());

	mov	ecx, DWORD PTR _this$[ebp]
	call	?_Mylast@?$_Vector_alloc@U?$_Vec_base_types@UPushTile@@V?$allocator@UPushTile@@@std@@@std@@@std@@QAEAAPAUPushTile@@XZ ; std::_Vector_alloc<std::_Vec_base_types<PushTile,std::allocator<PushTile> > >::_Mylast
	mov	eax, DWORD PTR [eax]
	push	eax
	mov	ecx, DWORD PTR _this$[ebp]
	call	?_Myfirst@?$_Vector_alloc@U?$_Vec_base_types@UPushTile@@V?$allocator@UPushTile@@@std@@@std@@@std@@QAEAAPAUPushTile@@XZ ; std::_Vector_alloc<std::_Vec_base_types<PushTile,std::allocator<PushTile> > >::_Myfirst
	mov	ecx, DWORD PTR [eax]
	push	ecx
	mov	ecx, DWORD PTR _this$[ebp]
	call	?_Destroy@?$vector@UPushTile@@V?$allocator@UPushTile@@@std@@@std@@IAEXPAUPushTile@@0@Z ; std::vector<PushTile,std::allocator<PushTile> >::_Destroy

; 1664 : 			this->_Getal().deallocate(this->_Myfirst(),

	mov	ecx, DWORD PTR _this$[ebp]
	call	?_Myend@?$_Vector_alloc@U?$_Vec_base_types@UPushTile@@V?$allocator@UPushTile@@@std@@@std@@@std@@QAEAAPAUPushTile@@XZ ; std::_Vector_alloc<std::_Vec_base_types<PushTile,std::allocator<PushTile> > >::_Myend
	mov	esi, eax
	mov	ecx, DWORD PTR _this$[ebp]
	call	?_Myfirst@?$_Vector_alloc@U?$_Vec_base_types@UPushTile@@V?$allocator@UPushTile@@@std@@@std@@@std@@QAEAAPAUPushTile@@XZ ; std::_Vector_alloc<std::_Vec_base_types<PushTile,std::allocator<PushTile> > >::_Myfirst
	mov	ecx, DWORD PTR [esi]
	sub	ecx, DWORD PTR [eax]
	mov	eax, ecx
	cdq
	mov	ecx, 48					; 00000030H
	idiv	ecx
	push	eax
	mov	ecx, DWORD PTR _this$[ebp]
	call	?_Myfirst@?$_Vector_alloc@U?$_Vec_base_types@UPushTile@@V?$allocator@UPushTile@@@std@@@std@@@std@@QAEAAPAUPushTile@@XZ ; std::_Vector_alloc<std::_Vec_base_types<PushTile,std::allocator<PushTile> > >::_Myfirst
	mov	edx, DWORD PTR [eax]
	push	edx
	mov	ecx, DWORD PTR _this$[ebp]
	call	?_Getal@?$_Vector_alloc@U?$_Vec_base_types@UPushTile@@V?$allocator@UPushTile@@@std@@@std@@@std@@QAEAAU?$_Wrap_alloc@V?$allocator@UPushTile@@@std@@@2@XZ ; std::_Vector_alloc<std::_Vec_base_types<PushTile,std::allocator<PushTile> > >::_Getal
	mov	ecx, eax
	call	?deallocate@?$_Wrap_alloc@V?$allocator@UPushTile@@@std@@@std@@QAEXPAUPushTile@@I@Z ; std::_Wrap_alloc<std::allocator<PushTile> >::deallocate

; 1665 : 				this->_Myend() - this->_Myfirst());
; 1666 : 			this->_Myfirst() = pointer();

	mov	ecx, DWORD PTR _this$[ebp]
	call	?_Myfirst@?$_Vector_alloc@U?$_Vec_base_types@UPushTile@@V?$allocator@UPushTile@@@std@@@std@@@std@@QAEAAPAUPushTile@@XZ ; std::_Vector_alloc<std::_Vec_base_types<PushTile,std::allocator<PushTile> > >::_Myfirst
	mov	DWORD PTR [eax], 0

; 1667 : 			this->_Mylast() = pointer();

	mov	ecx, DWORD PTR _this$[ebp]
	call	?_Mylast@?$_Vector_alloc@U?$_Vec_base_types@UPushTile@@V?$allocator@UPushTile@@@std@@@std@@@std@@QAEAAPAUPushTile@@XZ ; std::_Vector_alloc<std::_Vec_base_types<PushTile,std::allocator<PushTile> > >::_Mylast
	mov	DWORD PTR [eax], 0

; 1668 : 			this->_Myend() = pointer();

	mov	ecx, DWORD PTR _this$[ebp]
	call	?_Myend@?$_Vector_alloc@U?$_Vec_base_types@UPushTile@@V?$allocator@UPushTile@@@std@@@std@@@std@@QAEAAPAUPushTile@@XZ ; std::_Vector_alloc<std::_Vec_base_types<PushTile,std::allocator<PushTile> > >::_Myend
	mov	DWORD PTR [eax], 0
$LN1@Tidy:

; 1669 : 			}
; 1670 : 		}

	pop	edi
	pop	esi
	pop	ebx
	add	esp, 204				; 000000ccH
	cmp	ebp, esp
	call	__RTC_CheckEsp
	mov	esp, ebp
	pop	ebp
	ret	0
?_Tidy@?$vector@UPushTile@@V?$allocator@UPushTile@@@std@@@std@@IAEXXZ ENDP ; std::vector<PushTile,std::allocator<PushTile> >::_Tidy
_TEXT	ENDS
; Function compile flags: /Odtp /RTCsu /ZI
; File c:\program files (x86)\microsoft visual studio 14.0\vc\include\vector
;	COMDAT ?_Reserve@?$vector@UPushTile@@V?$allocator@UPushTile@@@std@@@std@@IAEXI@Z
_TEXT	SEGMENT
_this$ = -8						; size = 4
__Count$ = 8						; size = 4
?_Reserve@?$vector@UPushTile@@V?$allocator@UPushTile@@@std@@@std@@IAEXI@Z PROC ; std::vector<PushTile,std::allocator<PushTile> >::_Reserve, COMDAT
; _this$ = ecx

; 1649 : 		{	// ensure room for _Count new elements, grow exponentially

	push	ebp
	mov	ebp, esp
	sub	esp, 204				; 000000ccH
	push	ebx
	push	esi
	push	edi
	push	ecx
	lea	edi, DWORD PTR [ebp-204]
	mov	ecx, 51					; 00000033H
	mov	eax, -858993460				; ccccccccH
	rep stosd
	pop	ecx
	mov	DWORD PTR _this$[ebp], ecx

; 1650 : 		if (_Unused_capacity() < _Count)

	mov	ecx, DWORD PTR _this$[ebp]
	call	?_Unused_capacity@?$vector@UPushTile@@V?$allocator@UPushTile@@@std@@@std@@QBEIXZ ; std::vector<PushTile,std::allocator<PushTile> >::_Unused_capacity
	cmp	eax, DWORD PTR __Count$[ebp]
	jae	SHORT $LN4@Reserve

; 1651 : 			{	// need more room, try to get it
; 1652 : 			if (max_size() - size() < _Count)

	mov	ecx, DWORD PTR _this$[ebp]
	call	?max_size@?$vector@UPushTile@@V?$allocator@UPushTile@@@std@@@std@@QBEIXZ ; std::vector<PushTile,std::allocator<PushTile> >::max_size
	mov	esi, eax
	mov	ecx, DWORD PTR _this$[ebp]
	call	?size@?$vector@UPushTile@@V?$allocator@UPushTile@@@std@@@std@@QBEIXZ ; std::vector<PushTile,std::allocator<PushTile> >::size
	sub	esi, eax
	cmp	esi, DWORD PTR __Count$[ebp]
	jae	SHORT $LN3@Reserve

; 1653 : 				_Xlen();

	mov	ecx, DWORD PTR _this$[ebp]
	call	?_Xlen@?$vector@UPushTile@@V?$allocator@UPushTile@@@std@@@std@@IBEXXZ ; std::vector<PushTile,std::allocator<PushTile> >::_Xlen
$LN3@Reserve:

; 1654 : 			_Reallocate(_Grow_to(size() + _Count));

	mov	ecx, DWORD PTR _this$[ebp]
	call	?size@?$vector@UPushTile@@V?$allocator@UPushTile@@@std@@@std@@QBEIXZ ; std::vector<PushTile,std::allocator<PushTile> >::size
	add	eax, DWORD PTR __Count$[ebp]
	push	eax
	mov	ecx, DWORD PTR _this$[ebp]
	call	?_Grow_to@?$vector@UPushTile@@V?$allocator@UPushTile@@@std@@@std@@IBEII@Z ; std::vector<PushTile,std::allocator<PushTile> >::_Grow_to
	push	eax
	mov	ecx, DWORD PTR _this$[ebp]
	call	?_Reallocate@?$vector@UPushTile@@V?$allocator@UPushTile@@@std@@@std@@IAEXI@Z ; std::vector<PushTile,std::allocator<PushTile> >::_Reallocate
$LN4@Reserve:

; 1655 : 			}
; 1656 : 		}

	pop	edi
	pop	esi
	pop	ebx
	add	esp, 204				; 000000ccH
	cmp	ebp, esp
	call	__RTC_CheckEsp
	mov	esp, ebp
	pop	ebp
	ret	4
?_Reserve@?$vector@UPushTile@@V?$allocator@UPushTile@@@std@@@std@@IAEXI@Z ENDP ; std::vector<PushTile,std::allocator<PushTile> >::_Reserve
_TEXT	ENDS
; Function compile flags: /Odtp /RTCsu /ZI
; File c:\program files (x86)\microsoft visual studio 14.0\vc\include\vector
;	COMDAT ?_Reallocate@?$vector@UPushTile@@V?$allocator@UPushTile@@@std@@@std@@IAEXI@Z
_TEXT	SEGMENT
__Size$ = -48						; size = 4
__Ptr$ = -36						; size = 4
_this$ = -24						; size = 4
__$EHRec$ = -16						; size = 16
__Count$ = 8						; size = 4
?_Reallocate@?$vector@UPushTile@@V?$allocator@UPushTile@@@std@@@std@@IAEXI@Z PROC ; std::vector<PushTile,std::allocator<PushTile> >::_Reallocate, COMDAT
; _this$ = ecx

; 1624 : 		{	// move to array of exactly _Count elements

	push	ebp
	mov	ebp, esp
	push	-1
	push	__ehhandler$?_Reallocate@?$vector@UPushTile@@V?$allocator@UPushTile@@@std@@@std@@IAEXI@Z
	mov	eax, DWORD PTR fs:0
	push	eax
	push	ecx
	sub	esp, 228				; 000000e4H
	push	ebx
	push	esi
	push	edi
	push	ecx
	lea	edi, DWORD PTR [ebp-244]
	mov	ecx, 57					; 00000039H
	mov	eax, -858993460				; ccccccccH
	rep stosd
	pop	ecx
	mov	eax, DWORD PTR ___security_cookie
	xor	eax, ebp
	push	eax
	lea	eax, DWORD PTR __$EHRec$[ebp+4]
	mov	DWORD PTR fs:0, eax
	mov	DWORD PTR __$EHRec$[ebp], esp
	mov	DWORD PTR _this$[ebp], ecx

; 1625 : 		pointer _Ptr = this->_Getal().allocate(_Count);

	mov	eax, DWORD PTR __Count$[ebp]
	push	eax
	mov	ecx, DWORD PTR _this$[ebp]
	call	?_Getal@?$_Vector_alloc@U?$_Vec_base_types@UPushTile@@V?$allocator@UPushTile@@@std@@@std@@@std@@QAEAAU?$_Wrap_alloc@V?$allocator@UPushTile@@@std@@@2@XZ ; std::_Vector_alloc<std::_Vec_base_types<PushTile,std::allocator<PushTile> > >::_Getal
	mov	ecx, eax
	call	?allocate@?$_Wrap_alloc@V?$allocator@UPushTile@@@std@@@std@@QAEPAUPushTile@@I@Z ; std::_Wrap_alloc<std::allocator<PushTile> >::allocate
	mov	DWORD PTR __Ptr$[ebp], eax

; 1626 : 
; 1627 : 		_TRY_BEGIN

	mov	DWORD PTR __$EHRec$[ebp+12], 0

; 1628 : 		_Umove(this->_Myfirst(), this->_Mylast(), _Ptr);

	mov	eax, DWORD PTR __Ptr$[ebp]
	push	eax
	mov	ecx, DWORD PTR _this$[ebp]
	call	?_Mylast@?$_Vector_alloc@U?$_Vec_base_types@UPushTile@@V?$allocator@UPushTile@@@std@@@std@@@std@@QAEAAPAUPushTile@@XZ ; std::_Vector_alloc<std::_Vec_base_types<PushTile,std::allocator<PushTile> > >::_Mylast
	mov	ecx, DWORD PTR [eax]
	push	ecx
	mov	ecx, DWORD PTR _this$[ebp]
	call	?_Myfirst@?$_Vector_alloc@U?$_Vec_base_types@UPushTile@@V?$allocator@UPushTile@@@std@@@std@@@std@@QAEAAPAUPushTile@@XZ ; std::_Vector_alloc<std::_Vec_base_types<PushTile,std::allocator<PushTile> > >::_Myfirst
	mov	edx, DWORD PTR [eax]
	push	edx
	mov	ecx, DWORD PTR _this$[ebp]
	call	??$_Umove@PAUPushTile@@@?$vector@UPushTile@@V?$allocator@UPushTile@@@std@@@std@@IAEPAUPushTile@@PAU2@00@Z ; std::vector<PushTile,std::allocator<PushTile> >::_Umove<PushTile *>
	jmp	SHORT $LN5@Reallocate
__catch$?_Reallocate@?$vector@UPushTile@@V?$allocator@UPushTile@@@std@@@std@@IAEXI@Z$0:

; 1629 : 		_CATCH_ALL
; 1630 : 		this->_Getal().deallocate(_Ptr, _Count);

	mov	eax, DWORD PTR __Count$[ebp]
	push	eax
	mov	ecx, DWORD PTR __Ptr$[ebp]
	push	ecx
	mov	ecx, DWORD PTR _this$[ebp]
	call	?_Getal@?$_Vector_alloc@U?$_Vec_base_types@UPushTile@@V?$allocator@UPushTile@@@std@@@std@@@std@@QAEAAU?$_Wrap_alloc@V?$allocator@UPushTile@@@std@@@2@XZ ; std::_Vector_alloc<std::_Vec_base_types<PushTile,std::allocator<PushTile> > >::_Getal
	mov	ecx, eax
	call	?deallocate@?$_Wrap_alloc@V?$allocator@UPushTile@@@std@@@std@@QAEXPAUPushTile@@I@Z ; std::_Wrap_alloc<std::allocator<PushTile> >::deallocate

; 1631 : 		_RERAISE;

	push	0
	push	0
	call	__CxxThrowException@8

; 1632 : 		_CATCH_END

	mov	eax, $LN8@Reallocate
	ret	0
$LN5@Reallocate:
	mov	DWORD PTR __$EHRec$[ebp+12], -1
	jmp	SHORT __tryend$?_Reallocate@?$vector@UPushTile@@V?$allocator@UPushTile@@@std@@@std@@IAEXI@Z$1
$LN8@Reallocate:
	mov	DWORD PTR __$EHRec$[ebp+12], -1
__tryend$?_Reallocate@?$vector@UPushTile@@V?$allocator@UPushTile@@@std@@@std@@IAEXI@Z$1:

; 1633 : 
; 1634 : 		size_type _Size = size();

	mov	ecx, DWORD PTR _this$[ebp]
	call	?size@?$vector@UPushTile@@V?$allocator@UPushTile@@@std@@@std@@QBEIXZ ; std::vector<PushTile,std::allocator<PushTile> >::size
	mov	DWORD PTR __Size$[ebp], eax

; 1635 : 		if (this->_Myfirst() != pointer())

	mov	ecx, DWORD PTR _this$[ebp]
	call	?_Myfirst@?$_Vector_alloc@U?$_Vec_base_types@UPushTile@@V?$allocator@UPushTile@@@std@@@std@@@std@@QAEAAPAUPushTile@@XZ ; std::_Vector_alloc<std::_Vec_base_types<PushTile,std::allocator<PushTile> > >::_Myfirst
	cmp	DWORD PTR [eax], 0
	je	SHORT $LN3@Reallocate

; 1636 : 			{	// destroy and deallocate old array
; 1637 : 			_Destroy(this->_Myfirst(), this->_Mylast());

	mov	ecx, DWORD PTR _this$[ebp]
	call	?_Mylast@?$_Vector_alloc@U?$_Vec_base_types@UPushTile@@V?$allocator@UPushTile@@@std@@@std@@@std@@QAEAAPAUPushTile@@XZ ; std::_Vector_alloc<std::_Vec_base_types<PushTile,std::allocator<PushTile> > >::_Mylast
	mov	eax, DWORD PTR [eax]
	push	eax
	mov	ecx, DWORD PTR _this$[ebp]
	call	?_Myfirst@?$_Vector_alloc@U?$_Vec_base_types@UPushTile@@V?$allocator@UPushTile@@@std@@@std@@@std@@QAEAAPAUPushTile@@XZ ; std::_Vector_alloc<std::_Vec_base_types<PushTile,std::allocator<PushTile> > >::_Myfirst
	mov	ecx, DWORD PTR [eax]
	push	ecx
	mov	ecx, DWORD PTR _this$[ebp]
	call	?_Destroy@?$vector@UPushTile@@V?$allocator@UPushTile@@@std@@@std@@IAEXPAUPushTile@@0@Z ; std::vector<PushTile,std::allocator<PushTile> >::_Destroy

; 1638 : 			this->_Getal().deallocate(this->_Myfirst(),

	mov	ecx, DWORD PTR _this$[ebp]
	call	?_Myfirst@?$_Vector_alloc@U?$_Vec_base_types@UPushTile@@V?$allocator@UPushTile@@@std@@@std@@@std@@QAEAAPAUPushTile@@XZ ; std::_Vector_alloc<std::_Vec_base_types<PushTile,std::allocator<PushTile> > >::_Myfirst
	mov	esi, eax
	mov	ecx, DWORD PTR _this$[ebp]
	call	?_Myend@?$_Vector_alloc@U?$_Vec_base_types@UPushTile@@V?$allocator@UPushTile@@@std@@@std@@@std@@QAEAAPAUPushTile@@XZ ; std::_Vector_alloc<std::_Vec_base_types<PushTile,std::allocator<PushTile> > >::_Myend
	mov	eax, DWORD PTR [eax]
	sub	eax, DWORD PTR [esi]
	cdq
	mov	ecx, 48					; 00000030H
	idiv	ecx
	push	eax
	mov	ecx, DWORD PTR _this$[ebp]
	call	?_Myfirst@?$_Vector_alloc@U?$_Vec_base_types@UPushTile@@V?$allocator@UPushTile@@@std@@@std@@@std@@QAEAAPAUPushTile@@XZ ; std::_Vector_alloc<std::_Vec_base_types<PushTile,std::allocator<PushTile> > >::_Myfirst
	mov	edx, DWORD PTR [eax]
	push	edx
	mov	ecx, DWORD PTR _this$[ebp]
	call	?_Getal@?$_Vector_alloc@U?$_Vec_base_types@UPushTile@@V?$allocator@UPushTile@@@std@@@std@@@std@@QAEAAU?$_Wrap_alloc@V?$allocator@UPushTile@@@std@@@2@XZ ; std::_Vector_alloc<std::_Vec_base_types<PushTile,std::allocator<PushTile> > >::_Getal
	mov	ecx, eax
	call	?deallocate@?$_Wrap_alloc@V?$allocator@UPushTile@@@std@@@std@@QAEXPAUPushTile@@I@Z ; std::_Wrap_alloc<std::allocator<PushTile> >::deallocate
$LN3@Reallocate:

; 1639 : 				this->_Myend() - this->_Myfirst());
; 1640 : 			}
; 1641 : 
; 1642 : 		this->_Orphan_all();

	mov	ecx, DWORD PTR _this$[ebp]
	call	?_Orphan_all@?$_Vector_alloc@U?$_Vec_base_types@UPushTile@@V?$allocator@UPushTile@@@std@@@std@@@std@@QAEXXZ ; std::_Vector_alloc<std::_Vec_base_types<PushTile,std::allocator<PushTile> > >::_Orphan_all

; 1643 : 		this->_Myend() = _Ptr + _Count;

	imul	esi, DWORD PTR __Count$[ebp], 48
	add	esi, DWORD PTR __Ptr$[ebp]
	mov	ecx, DWORD PTR _this$[ebp]
	call	?_Myend@?$_Vector_alloc@U?$_Vec_base_types@UPushTile@@V?$allocator@UPushTile@@@std@@@std@@@std@@QAEAAPAUPushTile@@XZ ; std::_Vector_alloc<std::_Vec_base_types<PushTile,std::allocator<PushTile> > >::_Myend
	mov	DWORD PTR [eax], esi

; 1644 : 		this->_Mylast() = _Ptr + _Size;

	imul	esi, DWORD PTR __Size$[ebp], 48
	add	esi, DWORD PTR __Ptr$[ebp]
	mov	ecx, DWORD PTR _this$[ebp]
	call	?_Mylast@?$_Vector_alloc@U?$_Vec_base_types@UPushTile@@V?$allocator@UPushTile@@@std@@@std@@@std@@QAEAAPAUPushTile@@XZ ; std::_Vector_alloc<std::_Vec_base_types<PushTile,std::allocator<PushTile> > >::_Mylast
	mov	DWORD PTR [eax], esi

; 1645 : 		this->_Myfirst() = _Ptr;

	mov	ecx, DWORD PTR _this$[ebp]
	call	?_Myfirst@?$_Vector_alloc@U?$_Vec_base_types@UPushTile@@V?$allocator@UPushTile@@@std@@@std@@@std@@QAEAAPAUPushTile@@XZ ; std::_Vector_alloc<std::_Vec_base_types<PushTile,std::allocator<PushTile> > >::_Myfirst
	mov	ecx, DWORD PTR __Ptr$[ebp]
	mov	DWORD PTR [eax], ecx
$LN4@Reallocate:

; 1646 : 		}

	mov	ecx, DWORD PTR __$EHRec$[ebp+4]
	mov	DWORD PTR fs:0, ecx
	pop	ecx
	pop	edi
	pop	esi
	pop	ebx
	add	esp, 244				; 000000f4H
	cmp	ebp, esp
	call	__RTC_CheckEsp
	mov	esp, ebp
	pop	ebp
	ret	4
_TEXT	ENDS
;	COMDAT text$x
text$x	SEGMENT
__ehhandler$?_Reallocate@?$vector@UPushTile@@V?$allocator@UPushTile@@@std@@@std@@IAEXI@Z:
	mov	edx, DWORD PTR [esp+8]
	lea	eax, DWORD PTR [edx+12]
	mov	ecx, DWORD PTR [edx-248]
	xor	ecx, eax
	call	@__security_check_cookie@4
	mov	eax, OFFSET __ehfuncinfo$?_Reallocate@?$vector@UPushTile@@V?$allocator@UPushTile@@@std@@@std@@IAEXI@Z
	jmp	___CxxFrameHandler3
text$x	ENDS
?_Reallocate@?$vector@UPushTile@@V?$allocator@UPushTile@@@std@@@std@@IAEXI@Z ENDP ; std::vector<PushTile,std::allocator<PushTile> >::_Reallocate
; Function compile flags: /Odtp /RTCsu /ZI
; File c:\program files (x86)\microsoft visual studio 14.0\vc\include\vector
;	COMDAT ?_Inside@?$vector@UPushTile@@V?$allocator@UPushTile@@@std@@@std@@IBE_NPBUPushTile@@@Z
_TEXT	SEGMENT
tv78 = -208						; size = 4
_this$ = -8						; size = 4
__Ptr$ = 8						; size = 4
?_Inside@?$vector@UPushTile@@V?$allocator@UPushTile@@@std@@@std@@IBE_NPBUPushTile@@@Z PROC ; std::vector<PushTile,std::allocator<PushTile> >::_Inside, COMDAT
; _this$ = ecx

; 1619 : 		{	// test if _Ptr points inside vector

	push	ebp
	mov	ebp, esp
	sub	esp, 208				; 000000d0H
	push	ebx
	push	esi
	push	edi
	push	ecx
	lea	edi, DWORD PTR [ebp-208]
	mov	ecx, 52					; 00000034H
	mov	eax, -858993460				; ccccccccH
	rep stosd
	pop	ecx
	mov	DWORD PTR _this$[ebp], ecx

; 1620 : 		return (_Ptr < this->_Mylast() && this->_Myfirst() <= _Ptr);

	mov	ecx, DWORD PTR _this$[ebp]
	call	?_Mylast@?$_Vector_alloc@U?$_Vec_base_types@UPushTile@@V?$allocator@UPushTile@@@std@@@std@@@std@@QBEABQAUPushTile@@XZ ; std::_Vector_alloc<std::_Vec_base_types<PushTile,std::allocator<PushTile> > >::_Mylast
	mov	ecx, DWORD PTR __Ptr$[ebp]
	cmp	ecx, DWORD PTR [eax]
	jae	SHORT $LN3@Inside
	mov	ecx, DWORD PTR _this$[ebp]
	call	?_Myfirst@?$_Vector_alloc@U?$_Vec_base_types@UPushTile@@V?$allocator@UPushTile@@@std@@@std@@@std@@QBEABQAUPushTile@@XZ ; std::_Vector_alloc<std::_Vec_base_types<PushTile,std::allocator<PushTile> > >::_Myfirst
	mov	edx, DWORD PTR [eax]
	cmp	edx, DWORD PTR __Ptr$[ebp]
	ja	SHORT $LN3@Inside
	mov	DWORD PTR tv78[ebp], 1
	jmp	SHORT $LN4@Inside
$LN3@Inside:
	mov	DWORD PTR tv78[ebp], 0
$LN4@Inside:
	mov	al, BYTE PTR tv78[ebp]

; 1621 : 		}

	pop	edi
	pop	esi
	pop	ebx
	add	esp, 208				; 000000d0H
	cmp	ebp, esp
	call	__RTC_CheckEsp
	mov	esp, ebp
	pop	ebp
	ret	4
?_Inside@?$vector@UPushTile@@V?$allocator@UPushTile@@@std@@@std@@IBE_NPBUPushTile@@@Z ENDP ; std::vector<PushTile,std::allocator<PushTile> >::_Inside
_TEXT	ENDS
; Function compile flags: /Odtp /RTCsu /ZI
; File c:\program files (x86)\microsoft visual studio 14.0\vc\include\vector
;	COMDAT ?_Grow_to@?$vector@UPushTile@@V?$allocator@UPushTile@@@std@@@std@@IBEII@Z
_TEXT	SEGMENT
tv73 = -220						; size = 4
__Capacity$ = -20					; size = 4
_this$ = -8						; size = 4
__Count$ = 8						; size = 4
?_Grow_to@?$vector@UPushTile@@V?$allocator@UPushTile@@@std@@@std@@IBEII@Z PROC ; std::vector<PushTile,std::allocator<PushTile> >::_Grow_to, COMDAT
; _this$ = ecx

; 1608 : 		{	// grow by 50% or at least to _Count

	push	ebp
	mov	ebp, esp
	sub	esp, 220				; 000000dcH
	push	ebx
	push	esi
	push	edi
	push	ecx
	lea	edi, DWORD PTR [ebp-220]
	mov	ecx, 55					; 00000037H
	mov	eax, -858993460				; ccccccccH
	rep stosd
	pop	ecx
	mov	DWORD PTR _this$[ebp], ecx

; 1609 : 		size_type _Capacity = capacity();

	mov	ecx, DWORD PTR _this$[ebp]
	call	?capacity@?$vector@UPushTile@@V?$allocator@UPushTile@@@std@@@std@@QBEIXZ ; std::vector<PushTile,std::allocator<PushTile> >::capacity
	mov	DWORD PTR __Capacity$[ebp], eax

; 1610 : 
; 1611 : 		_Capacity = max_size() - _Capacity / 2 < _Capacity

	mov	ecx, DWORD PTR _this$[ebp]
	call	?max_size@?$vector@UPushTile@@V?$allocator@UPushTile@@@std@@@std@@QBEIXZ ; std::vector<PushTile,std::allocator<PushTile> >::max_size
	mov	ecx, DWORD PTR __Capacity$[ebp]
	shr	ecx, 1
	sub	eax, ecx
	cmp	eax, DWORD PTR __Capacity$[ebp]
	jae	SHORT $LN4@Grow_to
	mov	DWORD PTR tv73[ebp], 0
	jmp	SHORT $LN5@Grow_to
$LN4@Grow_to:
	mov	edx, DWORD PTR __Capacity$[ebp]
	shr	edx, 1
	add	edx, DWORD PTR __Capacity$[ebp]
	mov	DWORD PTR tv73[ebp], edx
$LN5@Grow_to:
	mov	eax, DWORD PTR tv73[ebp]
	mov	DWORD PTR __Capacity$[ebp], eax

; 1612 : 			? 0 : _Capacity + _Capacity / 2;	// try to grow by 50%
; 1613 : 		if (_Capacity < _Count)

	mov	eax, DWORD PTR __Capacity$[ebp]
	cmp	eax, DWORD PTR __Count$[ebp]
	jae	SHORT $LN2@Grow_to

; 1614 : 			_Capacity = _Count;

	mov	eax, DWORD PTR __Count$[ebp]
	mov	DWORD PTR __Capacity$[ebp], eax
$LN2@Grow_to:

; 1615 : 		return (_Capacity);

	mov	eax, DWORD PTR __Capacity$[ebp]

; 1616 : 		}

	pop	edi
	pop	esi
	pop	ebx
	add	esp, 220				; 000000dcH
	cmp	ebp, esp
	call	__RTC_CheckEsp
	mov	esp, ebp
	pop	ebp
	ret	4
?_Grow_to@?$vector@UPushTile@@V?$allocator@UPushTile@@@std@@@std@@IBEII@Z ENDP ; std::vector<PushTile,std::allocator<PushTile> >::_Grow_to
_TEXT	ENDS
; Function compile flags: /Odtp /RTCsu /ZI
; File c:\program files (x86)\microsoft visual studio 14.0\vc\include\vector
;	COMDAT ?_Destroy@?$vector@UPushTile@@V?$allocator@UPushTile@@@std@@@std@@IAEXPAUPushTile@@0@Z
_TEXT	SEGMENT
_this$ = -8						; size = 4
__First$ = 8						; size = 4
__Last$ = 12						; size = 4
?_Destroy@?$vector@UPushTile@@V?$allocator@UPushTile@@@std@@@std@@IAEXPAUPushTile@@0@Z PROC ; std::vector<PushTile,std::allocator<PushTile> >::_Destroy, COMDAT
; _this$ = ecx

; 1603 : 		{	// destroy [_First, _Last) using allocator

	push	ebp
	mov	ebp, esp
	sub	esp, 204				; 000000ccH
	push	ebx
	push	esi
	push	edi
	push	ecx
	lea	edi, DWORD PTR [ebp-204]
	mov	ecx, 51					; 00000033H
	mov	eax, -858993460				; ccccccccH
	rep stosd
	pop	ecx
	mov	DWORD PTR _this$[ebp], ecx

; 1604 : 		_Destroy_range(_First, _Last, this->_Getal());

	mov	ecx, DWORD PTR _this$[ebp]
	call	?_Getal@?$_Vector_alloc@U?$_Vec_base_types@UPushTile@@V?$allocator@UPushTile@@@std@@@std@@@std@@QAEAAU?$_Wrap_alloc@V?$allocator@UPushTile@@@std@@@2@XZ ; std::_Vector_alloc<std::_Vec_base_types<PushTile,std::allocator<PushTile> > >::_Getal
	push	eax
	mov	eax, DWORD PTR __Last$[ebp]
	push	eax
	mov	ecx, DWORD PTR __First$[ebp]
	push	ecx
	call	??$_Destroy_range@U?$_Wrap_alloc@V?$allocator@UPushTile@@@std@@@std@@@std@@YAXPAUPushTile@@0AAU?$_Wrap_alloc@V?$allocator@UPushTile@@@std@@@0@@Z ; std::_Destroy_range<std::_Wrap_alloc<std::allocator<PushTile> > >
	add	esp, 12					; 0000000cH

; 1605 : 		}

	pop	edi
	pop	esi
	pop	ebx
	add	esp, 204				; 000000ccH
	cmp	ebp, esp
	call	__RTC_CheckEsp
	mov	esp, ebp
	pop	ebp
	ret	8
?_Destroy@?$vector@UPushTile@@V?$allocator@UPushTile@@@std@@@std@@IAEXPAUPushTile@@0@Z ENDP ; std::vector<PushTile,std::allocator<PushTile> >::_Destroy
_TEXT	ENDS
; Function compile flags: /Odtp /RTCsu /ZI
; File c:\program files (x86)\microsoft visual studio 14.0\vc\include\vector
;	COMDAT ?push_back@?$vector@UPushTile@@V?$allocator@UPushTile@@@std@@@std@@QAEXABUPushTile@@@Z
_TEXT	SEGMENT
tv225 = -220						; size = 4
tv172 = -220						; size = 4
__Idx$1 = -20						; size = 4
_this$ = -8						; size = 4
__Val$ = 8						; size = 4
?push_back@?$vector@UPushTile@@V?$allocator@UPushTile@@@std@@@std@@QAEXABUPushTile@@@Z PROC ; std::vector<PushTile,std::allocator<PushTile> >::push_back, COMDAT
; _this$ = ecx

; 1278 : 		{	// insert element at end

	push	ebp
	mov	ebp, esp
	sub	esp, 220				; 000000dcH
	push	ebx
	push	esi
	push	edi
	push	ecx
	lea	edi, DWORD PTR [ebp-220]
	mov	ecx, 55					; 00000037H
	mov	eax, -858993460				; ccccccccH
	rep stosd
	pop	ecx
	mov	DWORD PTR _this$[ebp], ecx

; 1279 : 		if (_Inside(_STD addressof(_Val)))

	mov	eax, DWORD PTR __Val$[ebp]
	push	eax
	call	??$addressof@$$CBUPushTile@@@std@@YAPBUPushTile@@ABU1@@Z ; std::addressof<PushTile const >
	add	esp, 4
	push	eax
	mov	ecx, DWORD PTR _this$[ebp]
	call	?_Inside@?$vector@UPushTile@@V?$allocator@UPushTile@@@std@@@std@@IBE_NPBUPushTile@@@Z ; std::vector<PushTile,std::allocator<PushTile> >::_Inside
	movzx	ecx, al
	test	ecx, ecx
	je	$LN2@push_back

; 1280 : 			{	// push back an element
; 1281 : 			size_type _Idx = _STD addressof(_Val) - this->_Myfirst();

	mov	eax, DWORD PTR __Val$[ebp]
	push	eax
	call	??$addressof@$$CBUPushTile@@@std@@YAPBUPushTile@@ABU1@@Z ; std::addressof<PushTile const >
	add	esp, 4
	mov	esi, eax
	mov	ecx, DWORD PTR _this$[ebp]
	call	?_Myfirst@?$_Vector_alloc@U?$_Vec_base_types@UPushTile@@V?$allocator@UPushTile@@@std@@@std@@@std@@QAEAAPAUPushTile@@XZ ; std::_Vector_alloc<std::_Vec_base_types<PushTile,std::allocator<PushTile> > >::_Myfirst
	sub	esi, DWORD PTR [eax]
	mov	eax, esi
	cdq
	mov	ecx, 48					; 00000030H
	idiv	ecx
	mov	DWORD PTR __Idx$1[ebp], eax

; 1282 : 			if (this->_Mylast() == this->_Myend())

	mov	ecx, DWORD PTR _this$[ebp]
	call	?_Mylast@?$_Vector_alloc@U?$_Vec_base_types@UPushTile@@V?$allocator@UPushTile@@@std@@@std@@@std@@QAEAAPAUPushTile@@XZ ; std::_Vector_alloc<std::_Vec_base_types<PushTile,std::allocator<PushTile> > >::_Mylast
	mov	esi, eax
	mov	ecx, DWORD PTR _this$[ebp]
	call	?_Myend@?$_Vector_alloc@U?$_Vec_base_types@UPushTile@@V?$allocator@UPushTile@@@std@@@std@@@std@@QAEAAPAUPushTile@@XZ ; std::_Vector_alloc<std::_Vec_base_types<PushTile,std::allocator<PushTile> > >::_Myend
	mov	ecx, DWORD PTR [esi]
	cmp	ecx, DWORD PTR [eax]
	jne	SHORT $LN4@push_back

; 1283 : 				_Reserve(1);

	push	1
	mov	ecx, DWORD PTR _this$[ebp]
	call	?_Reserve@?$vector@UPushTile@@V?$allocator@UPushTile@@@std@@@std@@IAEXI@Z ; std::vector<PushTile,std::allocator<PushTile> >::_Reserve
$LN4@push_back:

; 1284 : 			_Orphan_range(this->_Mylast(), this->_Mylast());

	mov	ecx, DWORD PTR _this$[ebp]
	call	?_Mylast@?$_Vector_alloc@U?$_Vec_base_types@UPushTile@@V?$allocator@UPushTile@@@std@@@std@@@std@@QAEAAPAUPushTile@@XZ ; std::_Vector_alloc<std::_Vec_base_types<PushTile,std::allocator<PushTile> > >::_Mylast
	mov	eax, DWORD PTR [eax]
	push	eax
	mov	ecx, DWORD PTR _this$[ebp]
	call	?_Mylast@?$_Vector_alloc@U?$_Vec_base_types@UPushTile@@V?$allocator@UPushTile@@@std@@@std@@@std@@QAEAAPAUPushTile@@XZ ; std::_Vector_alloc<std::_Vec_base_types<PushTile,std::allocator<PushTile> > >::_Mylast
	mov	ecx, DWORD PTR [eax]
	push	ecx
	mov	ecx, DWORD PTR _this$[ebp]
	call	?_Orphan_range@?$vector@UPushTile@@V?$allocator@UPushTile@@@std@@@std@@IBEXPAUPushTile@@0@Z ; std::vector<PushTile,std::allocator<PushTile> >::_Orphan_range

; 1285 : 			this->_Getal().construct(this->_Mylast(),

	mov	ecx, DWORD PTR _this$[ebp]
	call	?_Myfirst@?$_Vector_alloc@U?$_Vec_base_types@UPushTile@@V?$allocator@UPushTile@@@std@@@std@@@std@@QAEAAPAUPushTile@@XZ ; std::_Vector_alloc<std::_Vec_base_types<PushTile,std::allocator<PushTile> > >::_Myfirst
	imul	ecx, DWORD PTR __Idx$1[ebp], 48
	add	ecx, DWORD PTR [eax]
	push	ecx
	mov	ecx, DWORD PTR _this$[ebp]
	call	?_Mylast@?$_Vector_alloc@U?$_Vec_base_types@UPushTile@@V?$allocator@UPushTile@@@std@@@std@@@std@@QAEAAPAUPushTile@@XZ ; std::_Vector_alloc<std::_Vec_base_types<PushTile,std::allocator<PushTile> > >::_Mylast
	mov	edx, DWORD PTR [eax]
	push	edx
	mov	ecx, DWORD PTR _this$[ebp]
	call	?_Getal@?$_Vector_alloc@U?$_Vec_base_types@UPushTile@@V?$allocator@UPushTile@@@std@@@std@@@std@@QAEAAU?$_Wrap_alloc@V?$allocator@UPushTile@@@std@@@2@XZ ; std::_Vector_alloc<std::_Vec_base_types<PushTile,std::allocator<PushTile> > >::_Getal
	mov	ecx, eax
	call	??$construct@UPushTile@@AAU1@@?$_Wrap_alloc@V?$allocator@UPushTile@@@std@@@std@@QAEXPAUPushTile@@AAU2@@Z ; std::_Wrap_alloc<std::allocator<PushTile> >::construct<PushTile,PushTile &>

; 1286 : 				this->_Myfirst()[_Idx]);
; 1287 : 			++this->_Mylast();

	mov	ecx, DWORD PTR _this$[ebp]
	call	?_Mylast@?$_Vector_alloc@U?$_Vec_base_types@UPushTile@@V?$allocator@UPushTile@@@std@@@std@@@std@@QAEAAPAUPushTile@@XZ ; std::_Vector_alloc<std::_Vec_base_types<PushTile,std::allocator<PushTile> > >::_Mylast
	mov	DWORD PTR tv172[ebp], eax
	mov	eax, DWORD PTR tv172[ebp]
	mov	ecx, DWORD PTR [eax]
	add	ecx, 48					; 00000030H
	mov	edx, DWORD PTR tv172[ebp]
	mov	DWORD PTR [edx], ecx

; 1288 : 			}
; 1289 : 		else

	jmp	SHORT $LN1@push_back
$LN2@push_back:

; 1290 : 			{	// push back a non-element
; 1291 : 			if (this->_Mylast() == this->_Myend())

	mov	ecx, DWORD PTR _this$[ebp]
	call	?_Mylast@?$_Vector_alloc@U?$_Vec_base_types@UPushTile@@V?$allocator@UPushTile@@@std@@@std@@@std@@QAEAAPAUPushTile@@XZ ; std::_Vector_alloc<std::_Vec_base_types<PushTile,std::allocator<PushTile> > >::_Mylast
	mov	esi, eax
	mov	ecx, DWORD PTR _this$[ebp]
	call	?_Myend@?$_Vector_alloc@U?$_Vec_base_types@UPushTile@@V?$allocator@UPushTile@@@std@@@std@@@std@@QAEAAPAUPushTile@@XZ ; std::_Vector_alloc<std::_Vec_base_types<PushTile,std::allocator<PushTile> > >::_Myend
	mov	ecx, DWORD PTR [esi]
	cmp	ecx, DWORD PTR [eax]
	jne	SHORT $LN5@push_back

; 1292 : 				_Reserve(1);

	push	1
	mov	ecx, DWORD PTR _this$[ebp]
	call	?_Reserve@?$vector@UPushTile@@V?$allocator@UPushTile@@@std@@@std@@IAEXI@Z ; std::vector<PushTile,std::allocator<PushTile> >::_Reserve
$LN5@push_back:

; 1293 : 			_Orphan_range(this->_Mylast(), this->_Mylast());

	mov	ecx, DWORD PTR _this$[ebp]
	call	?_Mylast@?$_Vector_alloc@U?$_Vec_base_types@UPushTile@@V?$allocator@UPushTile@@@std@@@std@@@std@@QAEAAPAUPushTile@@XZ ; std::_Vector_alloc<std::_Vec_base_types<PushTile,std::allocator<PushTile> > >::_Mylast
	mov	eax, DWORD PTR [eax]
	push	eax
	mov	ecx, DWORD PTR _this$[ebp]
	call	?_Mylast@?$_Vector_alloc@U?$_Vec_base_types@UPushTile@@V?$allocator@UPushTile@@@std@@@std@@@std@@QAEAAPAUPushTile@@XZ ; std::_Vector_alloc<std::_Vec_base_types<PushTile,std::allocator<PushTile> > >::_Mylast
	mov	ecx, DWORD PTR [eax]
	push	ecx
	mov	ecx, DWORD PTR _this$[ebp]
	call	?_Orphan_range@?$vector@UPushTile@@V?$allocator@UPushTile@@@std@@@std@@IBEXPAUPushTile@@0@Z ; std::vector<PushTile,std::allocator<PushTile> >::_Orphan_range

; 1294 : 			this->_Getal().construct(this->_Mylast(),

	mov	eax, DWORD PTR __Val$[ebp]
	push	eax
	mov	ecx, DWORD PTR _this$[ebp]
	call	?_Mylast@?$_Vector_alloc@U?$_Vec_base_types@UPushTile@@V?$allocator@UPushTile@@@std@@@std@@@std@@QAEAAPAUPushTile@@XZ ; std::_Vector_alloc<std::_Vec_base_types<PushTile,std::allocator<PushTile> > >::_Mylast
	mov	ecx, DWORD PTR [eax]
	push	ecx
	mov	ecx, DWORD PTR _this$[ebp]
	call	?_Getal@?$_Vector_alloc@U?$_Vec_base_types@UPushTile@@V?$allocator@UPushTile@@@std@@@std@@@std@@QAEAAU?$_Wrap_alloc@V?$allocator@UPushTile@@@std@@@2@XZ ; std::_Vector_alloc<std::_Vec_base_types<PushTile,std::allocator<PushTile> > >::_Getal
	mov	ecx, eax
	call	??$construct@UPushTile@@ABU1@@?$_Wrap_alloc@V?$allocator@UPushTile@@@std@@@std@@QAEXPAUPushTile@@ABU2@@Z ; std::_Wrap_alloc<std::allocator<PushTile> >::construct<PushTile,PushTile const &>

; 1295 : 				_Val);
; 1296 : 			++this->_Mylast();

	mov	ecx, DWORD PTR _this$[ebp]
	call	?_Mylast@?$_Vector_alloc@U?$_Vec_base_types@UPushTile@@V?$allocator@UPushTile@@@std@@@std@@@std@@QAEAAPAUPushTile@@XZ ; std::_Vector_alloc<std::_Vec_base_types<PushTile,std::allocator<PushTile> > >::_Mylast
	mov	DWORD PTR tv225[ebp], eax
	mov	eax, DWORD PTR tv225[ebp]
	mov	ecx, DWORD PTR [eax]
	add	ecx, 48					; 00000030H
	mov	edx, DWORD PTR tv225[ebp]
	mov	DWORD PTR [edx], ecx
$LN1@push_back:

; 1297 : 			}
; 1298 : 		}

	pop	edi
	pop	esi
	pop	ebx
	add	esp, 220				; 000000dcH
	cmp	ebp, esp
	call	__RTC_CheckEsp
	mov	esp, ebp
	pop	ebp
	ret	4
?push_back@?$vector@UPushTile@@V?$allocator@UPushTile@@@std@@@std@@QAEXABUPushTile@@@Z ENDP ; std::vector<PushTile,std::allocator<PushTile> >::push_back
_TEXT	ENDS
; Function compile flags: /Odtp /RTCsu /ZI
; File c:\program files (x86)\microsoft visual studio 14.0\vc\include\vector
;	COMDAT ?max_size@?$vector@UPushTile@@V?$allocator@UPushTile@@@std@@@std@@QBEIXZ
_TEXT	SEGMENT
$T1 = -209						; size = 1
_this$ = -8						; size = 4
?max_size@?$vector@UPushTile@@V?$allocator@UPushTile@@@std@@@std@@QBEIXZ PROC ; std::vector<PushTile,std::allocator<PushTile> >::max_size, COMDAT
; _this$ = ecx

; 1187 : 		{	// return maximum possible length of sequence

	push	ebp
	mov	ebp, esp
	sub	esp, 216				; 000000d8H
	push	ebx
	push	esi
	push	edi
	push	ecx
	lea	edi, DWORD PTR [ebp-216]
	mov	ecx, 54					; 00000036H
	mov	eax, -858993460				; ccccccccH
	rep stosd
	pop	ecx
	mov	DWORD PTR _this$[ebp], ecx

; 1188 : 		return (this->_Getal().max_size());

	movzx	eax, BYTE PTR $T1[ebp]
	push	eax
	mov	ecx, DWORD PTR _this$[ebp]
	call	?_Getal@?$_Vector_alloc@U?$_Vec_base_types@UPushTile@@V?$allocator@UPushTile@@@std@@@std@@@std@@QBEABU?$_Wrap_alloc@V?$allocator@UPushTile@@@std@@@2@XZ ; std::_Vector_alloc<std::_Vec_base_types<PushTile,std::allocator<PushTile> > >::_Getal
	mov	ecx, eax
	call	?max_size@?$_Wrap_alloc@V?$allocator@UPushTile@@@std@@@std@@QBEIU_Nil@2@@Z ; std::_Wrap_alloc<std::allocator<PushTile> >::max_size

; 1189 : 		}

	pop	edi
	pop	esi
	pop	ebx
	add	esp, 216				; 000000d8H
	cmp	ebp, esp
	call	__RTC_CheckEsp
	mov	esp, ebp
	pop	ebp
	ret	0
?max_size@?$vector@UPushTile@@V?$allocator@UPushTile@@@std@@@std@@QBEIXZ ENDP ; std::vector<PushTile,std::allocator<PushTile> >::max_size
_TEXT	ENDS
; Function compile flags: /Odtp /RTCsu /ZI
; File c:\program files (x86)\microsoft visual studio 14.0\vc\include\vector
;	COMDAT ?size@?$vector@UPushTile@@V?$allocator@UPushTile@@@std@@@std@@QBEIXZ
_TEXT	SEGMENT
_this$ = -8						; size = 4
?size@?$vector@UPushTile@@V?$allocator@UPushTile@@@std@@@std@@QBEIXZ PROC ; std::vector<PushTile,std::allocator<PushTile> >::size, COMDAT
; _this$ = ecx

; 1182 : 		{	// return length of sequence

	push	ebp
	mov	ebp, esp
	sub	esp, 204				; 000000ccH
	push	ebx
	push	esi
	push	edi
	push	ecx
	lea	edi, DWORD PTR [ebp-204]
	mov	ecx, 51					; 00000033H
	mov	eax, -858993460				; ccccccccH
	rep stosd
	pop	ecx
	mov	DWORD PTR _this$[ebp], ecx

; 1183 : 		return (this->_Mylast() - this->_Myfirst());

	mov	ecx, DWORD PTR _this$[ebp]
	call	?_Mylast@?$_Vector_alloc@U?$_Vec_base_types@UPushTile@@V?$allocator@UPushTile@@@std@@@std@@@std@@QBEABQAUPushTile@@XZ ; std::_Vector_alloc<std::_Vec_base_types<PushTile,std::allocator<PushTile> > >::_Mylast
	mov	esi, eax
	mov	ecx, DWORD PTR _this$[ebp]
	call	?_Myfirst@?$_Vector_alloc@U?$_Vec_base_types@UPushTile@@V?$allocator@UPushTile@@@std@@@std@@@std@@QBEABQAUPushTile@@XZ ; std::_Vector_alloc<std::_Vec_base_types<PushTile,std::allocator<PushTile> > >::_Myfirst
	mov	ecx, DWORD PTR [esi]
	sub	ecx, DWORD PTR [eax]
	mov	eax, ecx
	cdq
	mov	ecx, 48					; 00000030H
	idiv	ecx

; 1184 : 		}

	pop	edi
	pop	esi
	pop	ebx
	add	esp, 204				; 000000ccH
	cmp	ebp, esp
	call	__RTC_CheckEsp
	mov	esp, ebp
	pop	ebp
	ret	0
?size@?$vector@UPushTile@@V?$allocator@UPushTile@@@std@@@std@@QBEIXZ ENDP ; std::vector<PushTile,std::allocator<PushTile> >::size
_TEXT	ENDS
; Function compile flags: /Odtp /RTCsu /ZI
; File c:\program files (x86)\microsoft visual studio 14.0\vc\include\vector
;	COMDAT ?_Unused_capacity@?$vector@UPushTile@@V?$allocator@UPushTile@@@std@@@std@@QBEIXZ
_TEXT	SEGMENT
_this$ = -8						; size = 4
?_Unused_capacity@?$vector@UPushTile@@V?$allocator@UPushTile@@@std@@@std@@QBEIXZ PROC ; std::vector<PushTile,std::allocator<PushTile> >::_Unused_capacity, COMDAT
; _this$ = ecx

; 1050 : 		{	// micro-optimization for capacity() - size()

	push	ebp
	mov	ebp, esp
	sub	esp, 204				; 000000ccH
	push	ebx
	push	esi
	push	edi
	push	ecx
	lea	edi, DWORD PTR [ebp-204]
	mov	ecx, 51					; 00000033H
	mov	eax, -858993460				; ccccccccH
	rep stosd
	pop	ecx
	mov	DWORD PTR _this$[ebp], ecx

; 1051 : 		return (this->_Myend() - this->_Mylast());

	mov	ecx, DWORD PTR _this$[ebp]
	call	?_Myend@?$_Vector_alloc@U?$_Vec_base_types@UPushTile@@V?$allocator@UPushTile@@@std@@@std@@@std@@QBEABQAUPushTile@@XZ ; std::_Vector_alloc<std::_Vec_base_types<PushTile,std::allocator<PushTile> > >::_Myend
	mov	esi, eax
	mov	ecx, DWORD PTR _this$[ebp]
	call	?_Mylast@?$_Vector_alloc@U?$_Vec_base_types@UPushTile@@V?$allocator@UPushTile@@@std@@@std@@@std@@QBEABQAUPushTile@@XZ ; std::_Vector_alloc<std::_Vec_base_types<PushTile,std::allocator<PushTile> > >::_Mylast
	mov	ecx, DWORD PTR [esi]
	sub	ecx, DWORD PTR [eax]
	mov	eax, ecx
	cdq
	mov	ecx, 48					; 00000030H
	idiv	ecx

; 1052 : 		}

	pop	edi
	pop	esi
	pop	ebx
	add	esp, 204				; 000000ccH
	cmp	ebp, esp
	call	__RTC_CheckEsp
	mov	esp, ebp
	pop	ebp
	ret	0
?_Unused_capacity@?$vector@UPushTile@@V?$allocator@UPushTile@@@std@@@std@@QBEIXZ ENDP ; std::vector<PushTile,std::allocator<PushTile> >::_Unused_capacity
_TEXT	ENDS
; Function compile flags: /Odtp /RTCsu /ZI
; File c:\program files (x86)\microsoft visual studio 14.0\vc\include\vector
;	COMDAT ?capacity@?$vector@UPushTile@@V?$allocator@UPushTile@@@std@@@std@@QBEIXZ
_TEXT	SEGMENT
_this$ = -8						; size = 4
?capacity@?$vector@UPushTile@@V?$allocator@UPushTile@@@std@@@std@@QBEIXZ PROC ; std::vector<PushTile,std::allocator<PushTile> >::capacity, COMDAT
; _this$ = ecx

; 1045 : 		{	// return current length of allocated storage

	push	ebp
	mov	ebp, esp
	sub	esp, 204				; 000000ccH
	push	ebx
	push	esi
	push	edi
	push	ecx
	lea	edi, DWORD PTR [ebp-204]
	mov	ecx, 51					; 00000033H
	mov	eax, -858993460				; ccccccccH
	rep stosd
	pop	ecx
	mov	DWORD PTR _this$[ebp], ecx

; 1046 : 		return (this->_Myend() - this->_Myfirst());

	mov	ecx, DWORD PTR _this$[ebp]
	call	?_Myend@?$_Vector_alloc@U?$_Vec_base_types@UPushTile@@V?$allocator@UPushTile@@@std@@@std@@@std@@QBEABQAUPushTile@@XZ ; std::_Vector_alloc<std::_Vec_base_types<PushTile,std::allocator<PushTile> > >::_Myend
	mov	esi, eax
	mov	ecx, DWORD PTR _this$[ebp]
	call	?_Myfirst@?$_Vector_alloc@U?$_Vec_base_types@UPushTile@@V?$allocator@UPushTile@@@std@@@std@@@std@@QBEABQAUPushTile@@XZ ; std::_Vector_alloc<std::_Vec_base_types<PushTile,std::allocator<PushTile> > >::_Myfirst
	mov	ecx, DWORD PTR [esi]
	sub	ecx, DWORD PTR [eax]
	mov	eax, ecx
	cdq
	mov	ecx, 48					; 00000030H
	idiv	ecx

; 1047 : 		}

	pop	edi
	pop	esi
	pop	ebx
	add	esp, 204				; 000000ccH
	cmp	ebp, esp
	call	__RTC_CheckEsp
	mov	esp, ebp
	pop	ebp
	ret	0
?capacity@?$vector@UPushTile@@V?$allocator@UPushTile@@@std@@@std@@QBEIXZ ENDP ; std::vector<PushTile,std::allocator<PushTile> >::capacity
_TEXT	ENDS
; Function compile flags: /Odtp /RTCsu /ZI
; File c:\program files (x86)\microsoft visual studio 14.0\vc\include\vector
;	COMDAT ??1?$vector@UPushTile@@V?$allocator@UPushTile@@@std@@@std@@QAE@XZ
_TEXT	SEGMENT
_this$ = -20						; size = 4
__$EHRec$ = -12						; size = 12
??1?$vector@UPushTile@@V?$allocator@UPushTile@@@std@@@std@@QAE@XZ PROC ; std::vector<PushTile,std::allocator<PushTile> >::~vector<PushTile,std::allocator<PushTile> >, COMDAT
; _this$ = ecx

; 978  : 		{	// destroy the object

	push	ebp
	mov	ebp, esp
	push	-1
	push	__ehhandler$??1?$vector@UPushTile@@V?$allocator@UPushTile@@@std@@@std@@QAE@XZ
	mov	eax, DWORD PTR fs:0
	push	eax
	sub	esp, 204				; 000000ccH
	push	ebx
	push	esi
	push	edi
	push	ecx
	lea	edi, DWORD PTR [ebp-216]
	mov	ecx, 51					; 00000033H
	mov	eax, -858993460				; ccccccccH
	rep stosd
	pop	ecx
	mov	eax, DWORD PTR ___security_cookie
	xor	eax, ebp
	push	eax
	lea	eax, DWORD PTR __$EHRec$[ebp]
	mov	DWORD PTR fs:0, eax
	mov	DWORD PTR _this$[ebp], ecx

; 979  : 		_Tidy();

	mov	ecx, DWORD PTR _this$[ebp]
	call	?_Tidy@?$vector@UPushTile@@V?$allocator@UPushTile@@@std@@@std@@IAEXXZ ; std::vector<PushTile,std::allocator<PushTile> >::_Tidy

; 980  : 		}

	mov	ecx, DWORD PTR _this$[ebp]
	call	??1?$_Vector_alloc@U?$_Vec_base_types@UPushTile@@V?$allocator@UPushTile@@@std@@@std@@@std@@QAE@XZ ; std::_Vector_alloc<std::_Vec_base_types<PushTile,std::allocator<PushTile> > >::~_Vector_alloc<std::_Vec_base_types<PushTile,std::allocator<PushTile> > >
	mov	ecx, DWORD PTR __$EHRec$[ebp]
	mov	DWORD PTR fs:0, ecx
	pop	ecx
	pop	edi
	pop	esi
	pop	ebx
	add	esp, 216				; 000000d8H
	cmp	ebp, esp
	call	__RTC_CheckEsp
	mov	esp, ebp
	pop	ebp
	ret	0
_TEXT	ENDS
;	COMDAT text$x
text$x	SEGMENT
__ehhandler$??1?$vector@UPushTile@@V?$allocator@UPushTile@@@std@@@std@@QAE@XZ:
	mov	edx, DWORD PTR [esp+8]
	lea	eax, DWORD PTR [edx+12]
	mov	ecx, DWORD PTR [edx-220]
	xor	ecx, eax
	call	@__security_check_cookie@4
	mov	eax, OFFSET __ehfuncinfo$??1?$vector@UPushTile@@V?$allocator@UPushTile@@@std@@@std@@QAE@XZ
	jmp	___CxxFrameHandler3
text$x	ENDS
??1?$vector@UPushTile@@V?$allocator@UPushTile@@@std@@@std@@QAE@XZ ENDP ; std::vector<PushTile,std::allocator<PushTile> >::~vector<PushTile,std::allocator<PushTile> >
; Function compile flags: /Odtp /RTCsu /ZI
; File c:\program files (x86)\microsoft visual studio 14.0\vc\include\vector
;	COMDAT ??0?$vector@UPushTile@@V?$allocator@UPushTile@@@std@@@std@@QAE@XZ
_TEXT	SEGMENT
_this$ = -20						; size = 4
__$EHRec$ = -12						; size = 12
??0?$vector@UPushTile@@V?$allocator@UPushTile@@@std@@@std@@QAE@XZ PROC ; std::vector<PushTile,std::allocator<PushTile> >::vector<PushTile,std::allocator<PushTile> >, COMDAT
; _this$ = ecx

; 710  : 		{	// construct empty vector

	push	ebp
	mov	ebp, esp
	push	-1
	push	__ehhandler$??0?$vector@UPushTile@@V?$allocator@UPushTile@@@std@@@std@@QAE@XZ
	mov	eax, DWORD PTR fs:0
	push	eax
	sub	esp, 204				; 000000ccH
	push	ebx
	push	esi
	push	edi
	push	ecx
	lea	edi, DWORD PTR [ebp-216]
	mov	ecx, 51					; 00000033H
	mov	eax, -858993460				; ccccccccH
	rep stosd
	pop	ecx
	mov	eax, DWORD PTR ___security_cookie
	xor	eax, ebp
	push	eax
	lea	eax, DWORD PTR __$EHRec$[ebp]
	mov	DWORD PTR fs:0, eax
	mov	DWORD PTR _this$[ebp], ecx

; 709  : 		: _Mybase()

	mov	ecx, DWORD PTR _this$[ebp]
	call	??0?$_Vector_alloc@U?$_Vec_base_types@UPushTile@@V?$allocator@UPushTile@@@std@@@std@@@std@@QAE@XZ ; std::_Vector_alloc<std::_Vec_base_types<PushTile,std::allocator<PushTile> > >::_Vector_alloc<std::_Vec_base_types<PushTile,std::allocator<PushTile> > >

; 711  : 		}

	mov	eax, DWORD PTR _this$[ebp]
	mov	ecx, DWORD PTR __$EHRec$[ebp]
	mov	DWORD PTR fs:0, ecx
	pop	ecx
	pop	edi
	pop	esi
	pop	ebx
	add	esp, 216				; 000000d8H
	cmp	ebp, esp
	call	__RTC_CheckEsp
	mov	esp, ebp
	pop	ebp
	ret	0
_TEXT	ENDS
;	COMDAT text$x
text$x	SEGMENT
__ehhandler$??0?$vector@UPushTile@@V?$allocator@UPushTile@@@std@@@std@@QAE@XZ:
	mov	edx, DWORD PTR [esp+8]
	lea	eax, DWORD PTR [edx+12]
	mov	ecx, DWORD PTR [edx-220]
	xor	ecx, eax
	call	@__security_check_cookie@4
	mov	eax, OFFSET __ehfuncinfo$??0?$vector@UPushTile@@V?$allocator@UPushTile@@@std@@@std@@QAE@XZ
	jmp	___CxxFrameHandler3
text$x	ENDS
??0?$vector@UPushTile@@V?$allocator@UPushTile@@@std@@@std@@QAE@XZ ENDP ; std::vector<PushTile,std::allocator<PushTile> >::vector<PushTile,std::allocator<PushTile> >
; Function compile flags: /Odtp /RTCsu /ZI
;	COMDAT ??1?$_Compressed_pair@U?$_Wrap_alloc@V?$allocator@UPushTile@@@std@@@std@@V?$_Vector_val@U?$_Simple_types@UPushTile@@@std@@@2@$00@std@@QAE@XZ
_TEXT	SEGMENT
_this$ = -8						; size = 4
??1?$_Compressed_pair@U?$_Wrap_alloc@V?$allocator@UPushTile@@@std@@@std@@V?$_Vector_val@U?$_Simple_types@UPushTile@@@std@@@2@$00@std@@QAE@XZ PROC ; std::_Compressed_pair<std::_Wrap_alloc<std::allocator<PushTile> >,std::_Vector_val<std::_Simple_types<PushTile> >,1>::~_Compressed_pair<std::_Wrap_alloc<std::allocator<PushTile> >,std::_Vector_val<std::_Simple_types<PushTile> >,1>, COMDAT
; _this$ = ecx
	push	ebp
	mov	ebp, esp
	sub	esp, 204				; 000000ccH
	push	ebx
	push	esi
	push	edi
	push	ecx
	lea	edi, DWORD PTR [ebp-204]
	mov	ecx, 51					; 00000033H
	mov	eax, -858993460				; ccccccccH
	rep stosd
	pop	ecx
	mov	DWORD PTR _this$[ebp], ecx
	mov	ecx, DWORD PTR _this$[ebp]
	call	??1?$_Vector_val@U?$_Simple_types@UPushTile@@@std@@@std@@QAE@XZ
	pop	edi
	pop	esi
	pop	ebx
	add	esp, 204				; 000000ccH
	cmp	ebp, esp
	call	__RTC_CheckEsp
	mov	esp, ebp
	pop	ebp
	ret	0
??1?$_Compressed_pair@U?$_Wrap_alloc@V?$allocator@UPushTile@@@std@@@std@@V?$_Vector_val@U?$_Simple_types@UPushTile@@@std@@@2@$00@std@@QAE@XZ ENDP ; std::_Compressed_pair<std::_Wrap_alloc<std::allocator<PushTile> >,std::_Vector_val<std::_Simple_types<PushTile> >,1>::~_Compressed_pair<std::_Wrap_alloc<std::allocator<PushTile> >,std::_Vector_val<std::_Simple_types<PushTile> >,1>
_TEXT	ENDS
; Function compile flags: /Odtp /RTCsu /ZI
; File c:\program files (x86)\microsoft visual studio 14.0\vc\include\xutility
;	COMDAT ?_Get_second@?$_Compressed_pair@U?$_Wrap_alloc@V?$allocator@UPushTile@@@std@@@std@@V?$_Vector_val@U?$_Simple_types@UPushTile@@@std@@@2@$00@std@@QBEABV?$_Vector_val@U?$_Simple_types@UPushTile@@@std@@@2@XZ
_TEXT	SEGMENT
_this$ = -8						; size = 4
?_Get_second@?$_Compressed_pair@U?$_Wrap_alloc@V?$allocator@UPushTile@@@std@@@std@@V?$_Vector_val@U?$_Simple_types@UPushTile@@@std@@@2@$00@std@@QBEABV?$_Vector_val@U?$_Simple_types@UPushTile@@@std@@@2@XZ PROC ; std::_Compressed_pair<std::_Wrap_alloc<std::allocator<PushTile> >,std::_Vector_val<std::_Simple_types<PushTile> >,1>::_Get_second, COMDAT
; _this$ = ecx

; 318  : 		{	// return const reference to second

	push	ebp
	mov	ebp, esp
	sub	esp, 204				; 000000ccH
	push	ebx
	push	esi
	push	edi
	push	ecx
	lea	edi, DWORD PTR [ebp-204]
	mov	ecx, 51					; 00000033H
	mov	eax, -858993460				; ccccccccH
	rep stosd
	pop	ecx
	mov	DWORD PTR _this$[ebp], ecx

; 319  : 		return (_Myval2);

	mov	eax, DWORD PTR _this$[ebp]

; 320  : 		}

	pop	edi
	pop	esi
	pop	ebx
	mov	esp, ebp
	pop	ebp
	ret	0
?_Get_second@?$_Compressed_pair@U?$_Wrap_alloc@V?$allocator@UPushTile@@@std@@@std@@V?$_Vector_val@U?$_Simple_types@UPushTile@@@std@@@2@$00@std@@QBEABV?$_Vector_val@U?$_Simple_types@UPushTile@@@std@@@2@XZ ENDP ; std::_Compressed_pair<std::_Wrap_alloc<std::allocator<PushTile> >,std::_Vector_val<std::_Simple_types<PushTile> >,1>::_Get_second
_TEXT	ENDS
; Function compile flags: /Odtp /RTCsu /ZI
; File c:\program files (x86)\microsoft visual studio 14.0\vc\include\xutility
;	COMDAT ?_Get_second@?$_Compressed_pair@U?$_Wrap_alloc@V?$allocator@UPushTile@@@std@@@std@@V?$_Vector_val@U?$_Simple_types@UPushTile@@@std@@@2@$00@std@@QAEAAV?$_Vector_val@U?$_Simple_types@UPushTile@@@std@@@2@XZ
_TEXT	SEGMENT
_this$ = -8						; size = 4
?_Get_second@?$_Compressed_pair@U?$_Wrap_alloc@V?$allocator@UPushTile@@@std@@@std@@V?$_Vector_val@U?$_Simple_types@UPushTile@@@std@@@2@$00@std@@QAEAAV?$_Vector_val@U?$_Simple_types@UPushTile@@@std@@@2@XZ PROC ; std::_Compressed_pair<std::_Wrap_alloc<std::allocator<PushTile> >,std::_Vector_val<std::_Simple_types<PushTile> >,1>::_Get_second, COMDAT
; _this$ = ecx

; 313  : 		{	// return reference to second

	push	ebp
	mov	ebp, esp
	sub	esp, 204				; 000000ccH
	push	ebx
	push	esi
	push	edi
	push	ecx
	lea	edi, DWORD PTR [ebp-204]
	mov	ecx, 51					; 00000033H
	mov	eax, -858993460				; ccccccccH
	rep stosd
	pop	ecx
	mov	DWORD PTR _this$[ebp], ecx

; 314  : 		return (_Myval2);

	mov	eax, DWORD PTR _this$[ebp]

; 315  : 		}

	pop	edi
	pop	esi
	pop	ebx
	mov	esp, ebp
	pop	ebp
	ret	0
?_Get_second@?$_Compressed_pair@U?$_Wrap_alloc@V?$allocator@UPushTile@@@std@@@std@@V?$_Vector_val@U?$_Simple_types@UPushTile@@@std@@@2@$00@std@@QAEAAV?$_Vector_val@U?$_Simple_types@UPushTile@@@std@@@2@XZ ENDP ; std::_Compressed_pair<std::_Wrap_alloc<std::allocator<PushTile> >,std::_Vector_val<std::_Simple_types<PushTile> >,1>::_Get_second
_TEXT	ENDS
; Function compile flags: /Odtp /RTCsu /ZI
; File c:\program files (x86)\microsoft visual studio 14.0\vc\include\xutility
;	COMDAT ?_Get_first@?$_Compressed_pair@U?$_Wrap_alloc@V?$allocator@UPushTile@@@std@@@std@@V?$_Vector_val@U?$_Simple_types@UPushTile@@@std@@@2@$00@std@@QBEABU?$_Wrap_alloc@V?$allocator@UPushTile@@@std@@@2@XZ
_TEXT	SEGMENT
_this$ = -8						; size = 4
?_Get_first@?$_Compressed_pair@U?$_Wrap_alloc@V?$allocator@UPushTile@@@std@@@std@@V?$_Vector_val@U?$_Simple_types@UPushTile@@@std@@@2@$00@std@@QBEABU?$_Wrap_alloc@V?$allocator@UPushTile@@@std@@@2@XZ PROC ; std::_Compressed_pair<std::_Wrap_alloc<std::allocator<PushTile> >,std::_Vector_val<std::_Simple_types<PushTile> >,1>::_Get_first, COMDAT
; _this$ = ecx

; 298  : 		{	// return const reference to first

	push	ebp
	mov	ebp, esp
	sub	esp, 204				; 000000ccH
	push	ebx
	push	esi
	push	edi
	push	ecx
	lea	edi, DWORD PTR [ebp-204]
	mov	ecx, 51					; 00000033H
	mov	eax, -858993460				; ccccccccH
	rep stosd
	pop	ecx
	mov	DWORD PTR _this$[ebp], ecx

; 299  : 		return (*this);

	mov	eax, DWORD PTR _this$[ebp]

; 300  : 		}

	pop	edi
	pop	esi
	pop	ebx
	mov	esp, ebp
	pop	ebp
	ret	0
?_Get_first@?$_Compressed_pair@U?$_Wrap_alloc@V?$allocator@UPushTile@@@std@@@std@@V?$_Vector_val@U?$_Simple_types@UPushTile@@@std@@@2@$00@std@@QBEABU?$_Wrap_alloc@V?$allocator@UPushTile@@@std@@@2@XZ ENDP ; std::_Compressed_pair<std::_Wrap_alloc<std::allocator<PushTile> >,std::_Vector_val<std::_Simple_types<PushTile> >,1>::_Get_first
_TEXT	ENDS
; Function compile flags: /Odtp /RTCsu /ZI
; File c:\program files (x86)\microsoft visual studio 14.0\vc\include\xutility
;	COMDAT ?_Get_first@?$_Compressed_pair@U?$_Wrap_alloc@V?$allocator@UPushTile@@@std@@@std@@V?$_Vector_val@U?$_Simple_types@UPushTile@@@std@@@2@$00@std@@QAEAAU?$_Wrap_alloc@V?$allocator@UPushTile@@@std@@@2@XZ
_TEXT	SEGMENT
_this$ = -8						; size = 4
?_Get_first@?$_Compressed_pair@U?$_Wrap_alloc@V?$allocator@UPushTile@@@std@@@std@@V?$_Vector_val@U?$_Simple_types@UPushTile@@@std@@@2@$00@std@@QAEAAU?$_Wrap_alloc@V?$allocator@UPushTile@@@std@@@2@XZ PROC ; std::_Compressed_pair<std::_Wrap_alloc<std::allocator<PushTile> >,std::_Vector_val<std::_Simple_types<PushTile> >,1>::_Get_first, COMDAT
; _this$ = ecx

; 293  : 		{	// return reference to first

	push	ebp
	mov	ebp, esp
	sub	esp, 204				; 000000ccH
	push	ebx
	push	esi
	push	edi
	push	ecx
	lea	edi, DWORD PTR [ebp-204]
	mov	ecx, 51					; 00000033H
	mov	eax, -858993460				; ccccccccH
	rep stosd
	pop	ecx
	mov	DWORD PTR _this$[ebp], ecx

; 294  : 		return (*this);

	mov	eax, DWORD PTR _this$[ebp]

; 295  : 		}

	pop	edi
	pop	esi
	pop	ebx
	mov	esp, ebp
	pop	ebp
	ret	0
?_Get_first@?$_Compressed_pair@U?$_Wrap_alloc@V?$allocator@UPushTile@@@std@@@std@@V?$_Vector_val@U?$_Simple_types@UPushTile@@@std@@@2@$00@std@@QAEAAU?$_Wrap_alloc@V?$allocator@UPushTile@@@std@@@2@XZ ENDP ; std::_Compressed_pair<std::_Wrap_alloc<std::allocator<PushTile> >,std::_Vector_val<std::_Simple_types<PushTile> >,1>::_Get_first
_TEXT	ENDS
; Function compile flags: /Odtp /RTCsu /ZI
;	COMDAT ??1?$_Vector_val@U?$_Simple_types@UPushTile@@@std@@@std@@QAE@XZ
_TEXT	SEGMENT
_this$ = -8						; size = 4
??1?$_Vector_val@U?$_Simple_types@UPushTile@@@std@@@std@@QAE@XZ PROC ; std::_Vector_val<std::_Simple_types<PushTile> >::~_Vector_val<std::_Simple_types<PushTile> >, COMDAT
; _this$ = ecx
	push	ebp
	mov	ebp, esp
	sub	esp, 204				; 000000ccH
	push	ebx
	push	esi
	push	edi
	push	ecx
	lea	edi, DWORD PTR [ebp-204]
	mov	ecx, 51					; 00000033H
	mov	eax, -858993460				; ccccccccH
	rep stosd
	pop	ecx
	mov	DWORD PTR _this$[ebp], ecx
	mov	ecx, DWORD PTR _this$[ebp]
	call	??1_Container_base12@std@@QAE@XZ	; std::_Container_base12::~_Container_base12
	pop	edi
	pop	esi
	pop	ebx
	add	esp, 204				; 000000ccH
	cmp	ebp, esp
	call	__RTC_CheckEsp
	mov	esp, ebp
	pop	ebp
	ret	0
??1?$_Vector_val@U?$_Simple_types@UPushTile@@@std@@@std@@QAE@XZ ENDP ; std::_Vector_val<std::_Simple_types<PushTile> >::~_Vector_val<std::_Simple_types<PushTile> >
_TEXT	ENDS
; Function compile flags: /Odtp /RTCsu /ZI
; File c:\program files (x86)\microsoft visual studio 14.0\vc\include\vector
;	COMDAT ??0?$_Vector_val@U?$_Simple_types@UPushTile@@@std@@@std@@QAE@XZ
_TEXT	SEGMENT
_this$ = -8						; size = 4
??0?$_Vector_val@U?$_Simple_types@UPushTile@@@std@@@std@@QAE@XZ PROC ; std::_Vector_val<std::_Simple_types<PushTile> >::_Vector_val<std::_Simple_types<PushTile> >, COMDAT
; _this$ = ecx

; 478  : 	_Vector_val()

	push	ebp
	mov	ebp, esp
	sub	esp, 204				; 000000ccH
	push	ebx
	push	esi
	push	edi
	push	ecx
	lea	edi, DWORD PTR [ebp-204]
	mov	ecx, 51					; 00000033H
	mov	eax, -858993460				; ccccccccH
	rep stosd
	pop	ecx
	mov	DWORD PTR _this$[ebp], ecx

; 479  : 		{	// initialize values

	mov	ecx, DWORD PTR _this$[ebp]
	call	??0_Container_base12@std@@QAE@XZ	; std::_Container_base12::_Container_base12

; 480  : 		_Myfirst = pointer();

	mov	eax, DWORD PTR _this$[ebp]
	mov	DWORD PTR [eax+4], 0

; 481  : 		_Mylast = pointer();

	mov	eax, DWORD PTR _this$[ebp]
	mov	DWORD PTR [eax+8], 0

; 482  : 		_Myend = pointer();

	mov	eax, DWORD PTR _this$[ebp]
	mov	DWORD PTR [eax+12], 0

; 483  : 		}

	mov	eax, DWORD PTR _this$[ebp]
	pop	edi
	pop	esi
	pop	ebx
	add	esp, 204				; 000000ccH
	cmp	ebp, esp
	call	__RTC_CheckEsp
	mov	esp, ebp
	pop	ebp
	ret	0
??0?$_Vector_val@U?$_Simple_types@UPushTile@@@std@@@std@@QAE@XZ ENDP ; std::_Vector_val<std::_Simple_types<PushTile> >::_Vector_val<std::_Simple_types<PushTile> >
_TEXT	ENDS
; Function compile flags: /Odtp /RTCsu /ZI
; File c:\program files (x86)\microsoft visual studio 14.0\vc\include\vector
;	COMDAT ?_Myend@?$_Vector_alloc@U?$_Vec_base_types@UPushTile@@V?$allocator@UPushTile@@@std@@@std@@@std@@QBEABQAUPushTile@@XZ
_TEXT	SEGMENT
_this$ = -8						; size = 4
?_Myend@?$_Vector_alloc@U?$_Vec_base_types@UPushTile@@V?$allocator@UPushTile@@@std@@@std@@@std@@QBEABQAUPushTile@@XZ PROC ; std::_Vector_alloc<std::_Vec_base_types<PushTile,std::allocator<PushTile> > >::_Myend, COMDAT
; _this$ = ecx

; 670  : 		{	// return const reference to _Myend

	push	ebp
	mov	ebp, esp
	sub	esp, 204				; 000000ccH
	push	ebx
	push	esi
	push	edi
	push	ecx
	lea	edi, DWORD PTR [ebp-204]
	mov	ecx, 51					; 00000033H
	mov	eax, -858993460				; ccccccccH
	rep stosd
	pop	ecx
	mov	DWORD PTR _this$[ebp], ecx

; 671  : 		return (_Get_data()._Myend);

	mov	ecx, DWORD PTR _this$[ebp]
	call	?_Get_data@?$_Vector_alloc@U?$_Vec_base_types@UPushTile@@V?$allocator@UPushTile@@@std@@@std@@@std@@QBEABV?$_Vector_val@U?$_Simple_types@UPushTile@@@std@@@2@XZ ; std::_Vector_alloc<std::_Vec_base_types<PushTile,std::allocator<PushTile> > >::_Get_data
	add	eax, 12					; 0000000cH

; 672  : 		}

	pop	edi
	pop	esi
	pop	ebx
	add	esp, 204				; 000000ccH
	cmp	ebp, esp
	call	__RTC_CheckEsp
	mov	esp, ebp
	pop	ebp
	ret	0
?_Myend@?$_Vector_alloc@U?$_Vec_base_types@UPushTile@@V?$allocator@UPushTile@@@std@@@std@@@std@@QBEABQAUPushTile@@XZ ENDP ; std::_Vector_alloc<std::_Vec_base_types<PushTile,std::allocator<PushTile> > >::_Myend
_TEXT	ENDS
; Function compile flags: /Odtp /RTCsu /ZI
; File c:\program files (x86)\microsoft visual studio 14.0\vc\include\vector
;	COMDAT ?_Myend@?$_Vector_alloc@U?$_Vec_base_types@UPushTile@@V?$allocator@UPushTile@@@std@@@std@@@std@@QAEAAPAUPushTile@@XZ
_TEXT	SEGMENT
_this$ = -8						; size = 4
?_Myend@?$_Vector_alloc@U?$_Vec_base_types@UPushTile@@V?$allocator@UPushTile@@@std@@@std@@@std@@QAEAAPAUPushTile@@XZ PROC ; std::_Vector_alloc<std::_Vec_base_types<PushTile,std::allocator<PushTile> > >::_Myend, COMDAT
; _this$ = ecx

; 665  : 		{	// return reference to _Myend

	push	ebp
	mov	ebp, esp
	sub	esp, 204				; 000000ccH
	push	ebx
	push	esi
	push	edi
	push	ecx
	lea	edi, DWORD PTR [ebp-204]
	mov	ecx, 51					; 00000033H
	mov	eax, -858993460				; ccccccccH
	rep stosd
	pop	ecx
	mov	DWORD PTR _this$[ebp], ecx

; 666  : 		return (_Get_data()._Myend);

	mov	ecx, DWORD PTR _this$[ebp]
	call	?_Get_data@?$_Vector_alloc@U?$_Vec_base_types@UPushTile@@V?$allocator@UPushTile@@@std@@@std@@@std@@QAEAAV?$_Vector_val@U?$_Simple_types@UPushTile@@@std@@@2@XZ ; std::_Vector_alloc<std::_Vec_base_types<PushTile,std::allocator<PushTile> > >::_Get_data
	add	eax, 12					; 0000000cH

; 667  : 		}

	pop	edi
	pop	esi
	pop	ebx
	add	esp, 204				; 000000ccH
	cmp	ebp, esp
	call	__RTC_CheckEsp
	mov	esp, ebp
	pop	ebp
	ret	0
?_Myend@?$_Vector_alloc@U?$_Vec_base_types@UPushTile@@V?$allocator@UPushTile@@@std@@@std@@@std@@QAEAAPAUPushTile@@XZ ENDP ; std::_Vector_alloc<std::_Vec_base_types<PushTile,std::allocator<PushTile> > >::_Myend
_TEXT	ENDS
; Function compile flags: /Odtp /RTCsu /ZI
; File c:\program files (x86)\microsoft visual studio 14.0\vc\include\vector
;	COMDAT ?_Mylast@?$_Vector_alloc@U?$_Vec_base_types@UPushTile@@V?$allocator@UPushTile@@@std@@@std@@@std@@QBEABQAUPushTile@@XZ
_TEXT	SEGMENT
_this$ = -8						; size = 4
?_Mylast@?$_Vector_alloc@U?$_Vec_base_types@UPushTile@@V?$allocator@UPushTile@@@std@@@std@@@std@@QBEABQAUPushTile@@XZ PROC ; std::_Vector_alloc<std::_Vec_base_types<PushTile,std::allocator<PushTile> > >::_Mylast, COMDAT
; _this$ = ecx

; 660  : 		{	// return const reference to _Mylast

	push	ebp
	mov	ebp, esp
	sub	esp, 204				; 000000ccH
	push	ebx
	push	esi
	push	edi
	push	ecx
	lea	edi, DWORD PTR [ebp-204]
	mov	ecx, 51					; 00000033H
	mov	eax, -858993460				; ccccccccH
	rep stosd
	pop	ecx
	mov	DWORD PTR _this$[ebp], ecx

; 661  : 		return (_Get_data()._Mylast);

	mov	ecx, DWORD PTR _this$[ebp]
	call	?_Get_data@?$_Vector_alloc@U?$_Vec_base_types@UPushTile@@V?$allocator@UPushTile@@@std@@@std@@@std@@QBEABV?$_Vector_val@U?$_Simple_types@UPushTile@@@std@@@2@XZ ; std::_Vector_alloc<std::_Vec_base_types<PushTile,std::allocator<PushTile> > >::_Get_data
	add	eax, 8

; 662  : 		}

	pop	edi
	pop	esi
	pop	ebx
	add	esp, 204				; 000000ccH
	cmp	ebp, esp
	call	__RTC_CheckEsp
	mov	esp, ebp
	pop	ebp
	ret	0
?_Mylast@?$_Vector_alloc@U?$_Vec_base_types@UPushTile@@V?$allocator@UPushTile@@@std@@@std@@@std@@QBEABQAUPushTile@@XZ ENDP ; std::_Vector_alloc<std::_Vec_base_types<PushTile,std::allocator<PushTile> > >::_Mylast
_TEXT	ENDS
; Function compile flags: /Odtp /RTCsu /ZI
; File c:\program files (x86)\microsoft visual studio 14.0\vc\include\vector
;	COMDAT ?_Mylast@?$_Vector_alloc@U?$_Vec_base_types@UPushTile@@V?$allocator@UPushTile@@@std@@@std@@@std@@QAEAAPAUPushTile@@XZ
_TEXT	SEGMENT
_this$ = -8						; size = 4
?_Mylast@?$_Vector_alloc@U?$_Vec_base_types@UPushTile@@V?$allocator@UPushTile@@@std@@@std@@@std@@QAEAAPAUPushTile@@XZ PROC ; std::_Vector_alloc<std::_Vec_base_types<PushTile,std::allocator<PushTile> > >::_Mylast, COMDAT
; _this$ = ecx

; 655  : 		{	// return reference to _Mylast

	push	ebp
	mov	ebp, esp
	sub	esp, 204				; 000000ccH
	push	ebx
	push	esi
	push	edi
	push	ecx
	lea	edi, DWORD PTR [ebp-204]
	mov	ecx, 51					; 00000033H
	mov	eax, -858993460				; ccccccccH
	rep stosd
	pop	ecx
	mov	DWORD PTR _this$[ebp], ecx

; 656  : 		return (_Get_data()._Mylast);

	mov	ecx, DWORD PTR _this$[ebp]
	call	?_Get_data@?$_Vector_alloc@U?$_Vec_base_types@UPushTile@@V?$allocator@UPushTile@@@std@@@std@@@std@@QAEAAV?$_Vector_val@U?$_Simple_types@UPushTile@@@std@@@2@XZ ; std::_Vector_alloc<std::_Vec_base_types<PushTile,std::allocator<PushTile> > >::_Get_data
	add	eax, 8

; 657  : 		}

	pop	edi
	pop	esi
	pop	ebx
	add	esp, 204				; 000000ccH
	cmp	ebp, esp
	call	__RTC_CheckEsp
	mov	esp, ebp
	pop	ebp
	ret	0
?_Mylast@?$_Vector_alloc@U?$_Vec_base_types@UPushTile@@V?$allocator@UPushTile@@@std@@@std@@@std@@QAEAAPAUPushTile@@XZ ENDP ; std::_Vector_alloc<std::_Vec_base_types<PushTile,std::allocator<PushTile> > >::_Mylast
_TEXT	ENDS
; Function compile flags: /Odtp /RTCsu /ZI
; File c:\program files (x86)\microsoft visual studio 14.0\vc\include\vector
;	COMDAT ?_Myfirst@?$_Vector_alloc@U?$_Vec_base_types@UPushTile@@V?$allocator@UPushTile@@@std@@@std@@@std@@QBEABQAUPushTile@@XZ
_TEXT	SEGMENT
_this$ = -8						; size = 4
?_Myfirst@?$_Vector_alloc@U?$_Vec_base_types@UPushTile@@V?$allocator@UPushTile@@@std@@@std@@@std@@QBEABQAUPushTile@@XZ PROC ; std::_Vector_alloc<std::_Vec_base_types<PushTile,std::allocator<PushTile> > >::_Myfirst, COMDAT
; _this$ = ecx

; 650  : 		{	// return const reference to _Myfirst

	push	ebp
	mov	ebp, esp
	sub	esp, 204				; 000000ccH
	push	ebx
	push	esi
	push	edi
	push	ecx
	lea	edi, DWORD PTR [ebp-204]
	mov	ecx, 51					; 00000033H
	mov	eax, -858993460				; ccccccccH
	rep stosd
	pop	ecx
	mov	DWORD PTR _this$[ebp], ecx

; 651  : 		return (_Get_data()._Myfirst);

	mov	ecx, DWORD PTR _this$[ebp]
	call	?_Get_data@?$_Vector_alloc@U?$_Vec_base_types@UPushTile@@V?$allocator@UPushTile@@@std@@@std@@@std@@QBEABV?$_Vector_val@U?$_Simple_types@UPushTile@@@std@@@2@XZ ; std::_Vector_alloc<std::_Vec_base_types<PushTile,std::allocator<PushTile> > >::_Get_data
	add	eax, 4

; 652  : 		}

	pop	edi
	pop	esi
	pop	ebx
	add	esp, 204				; 000000ccH
	cmp	ebp, esp
	call	__RTC_CheckEsp
	mov	esp, ebp
	pop	ebp
	ret	0
?_Myfirst@?$_Vector_alloc@U?$_Vec_base_types@UPushTile@@V?$allocator@UPushTile@@@std@@@std@@@std@@QBEABQAUPushTile@@XZ ENDP ; std::_Vector_alloc<std::_Vec_base_types<PushTile,std::allocator<PushTile> > >::_Myfirst
_TEXT	ENDS
; Function compile flags: /Odtp /RTCsu /ZI
; File c:\program files (x86)\microsoft visual studio 14.0\vc\include\vector
;	COMDAT ?_Myfirst@?$_Vector_alloc@U?$_Vec_base_types@UPushTile@@V?$allocator@UPushTile@@@std@@@std@@@std@@QAEAAPAUPushTile@@XZ
_TEXT	SEGMENT
_this$ = -8						; size = 4
?_Myfirst@?$_Vector_alloc@U?$_Vec_base_types@UPushTile@@V?$allocator@UPushTile@@@std@@@std@@@std@@QAEAAPAUPushTile@@XZ PROC ; std::_Vector_alloc<std::_Vec_base_types<PushTile,std::allocator<PushTile> > >::_Myfirst, COMDAT
; _this$ = ecx

; 645  : 		{	// return reference to _Myfirst

	push	ebp
	mov	ebp, esp
	sub	esp, 204				; 000000ccH
	push	ebx
	push	esi
	push	edi
	push	ecx
	lea	edi, DWORD PTR [ebp-204]
	mov	ecx, 51					; 00000033H
	mov	eax, -858993460				; ccccccccH
	rep stosd
	pop	ecx
	mov	DWORD PTR _this$[ebp], ecx

; 646  : 		return (_Get_data()._Myfirst);

	mov	ecx, DWORD PTR _this$[ebp]
	call	?_Get_data@?$_Vector_alloc@U?$_Vec_base_types@UPushTile@@V?$allocator@UPushTile@@@std@@@std@@@std@@QAEAAV?$_Vector_val@U?$_Simple_types@UPushTile@@@std@@@2@XZ ; std::_Vector_alloc<std::_Vec_base_types<PushTile,std::allocator<PushTile> > >::_Get_data
	add	eax, 4

; 647  : 		}

	pop	edi
	pop	esi
	pop	ebx
	add	esp, 204				; 000000ccH
	cmp	ebp, esp
	call	__RTC_CheckEsp
	mov	esp, ebp
	pop	ebp
	ret	0
?_Myfirst@?$_Vector_alloc@U?$_Vec_base_types@UPushTile@@V?$allocator@UPushTile@@@std@@@std@@@std@@QAEAAPAUPushTile@@XZ ENDP ; std::_Vector_alloc<std::_Vec_base_types<PushTile,std::allocator<PushTile> > >::_Myfirst
_TEXT	ENDS
; Function compile flags: /Odtp /RTCsu /ZI
; File c:\program files (x86)\microsoft visual studio 14.0\vc\include\vector
;	COMDAT ?_Get_data@?$_Vector_alloc@U?$_Vec_base_types@UPushTile@@V?$allocator@UPushTile@@@std@@@std@@@std@@QBEABV?$_Vector_val@U?$_Simple_types@UPushTile@@@std@@@2@XZ
_TEXT	SEGMENT
_this$ = -8						; size = 4
?_Get_data@?$_Vector_alloc@U?$_Vec_base_types@UPushTile@@V?$allocator@UPushTile@@@std@@@std@@@std@@QBEABV?$_Vector_val@U?$_Simple_types@UPushTile@@@std@@@2@XZ PROC ; std::_Vector_alloc<std::_Vec_base_types<PushTile,std::allocator<PushTile> > >::_Get_data, COMDAT
; _this$ = ecx

; 640  : 		{	// return const reference to _Vector_val

	push	ebp
	mov	ebp, esp
	sub	esp, 204				; 000000ccH
	push	ebx
	push	esi
	push	edi
	push	ecx
	lea	edi, DWORD PTR [ebp-204]
	mov	ecx, 51					; 00000033H
	mov	eax, -858993460				; ccccccccH
	rep stosd
	pop	ecx
	mov	DWORD PTR _this$[ebp], ecx

; 641  : 		return (_Mypair._Get_second());

	mov	ecx, DWORD PTR _this$[ebp]
	call	?_Get_second@?$_Compressed_pair@U?$_Wrap_alloc@V?$allocator@UPushTile@@@std@@@std@@V?$_Vector_val@U?$_Simple_types@UPushTile@@@std@@@2@$00@std@@QBEABV?$_Vector_val@U?$_Simple_types@UPushTile@@@std@@@2@XZ ; std::_Compressed_pair<std::_Wrap_alloc<std::allocator<PushTile> >,std::_Vector_val<std::_Simple_types<PushTile> >,1>::_Get_second

; 642  : 		}

	pop	edi
	pop	esi
	pop	ebx
	add	esp, 204				; 000000ccH
	cmp	ebp, esp
	call	__RTC_CheckEsp
	mov	esp, ebp
	pop	ebp
	ret	0
?_Get_data@?$_Vector_alloc@U?$_Vec_base_types@UPushTile@@V?$allocator@UPushTile@@@std@@@std@@@std@@QBEABV?$_Vector_val@U?$_Simple_types@UPushTile@@@std@@@2@XZ ENDP ; std::_Vector_alloc<std::_Vec_base_types<PushTile,std::allocator<PushTile> > >::_Get_data
_TEXT	ENDS
; Function compile flags: /Odtp /RTCsu /ZI
; File c:\program files (x86)\microsoft visual studio 14.0\vc\include\vector
;	COMDAT ?_Get_data@?$_Vector_alloc@U?$_Vec_base_types@UPushTile@@V?$allocator@UPushTile@@@std@@@std@@@std@@QAEAAV?$_Vector_val@U?$_Simple_types@UPushTile@@@std@@@2@XZ
_TEXT	SEGMENT
_this$ = -8						; size = 4
?_Get_data@?$_Vector_alloc@U?$_Vec_base_types@UPushTile@@V?$allocator@UPushTile@@@std@@@std@@@std@@QAEAAV?$_Vector_val@U?$_Simple_types@UPushTile@@@std@@@2@XZ PROC ; std::_Vector_alloc<std::_Vec_base_types<PushTile,std::allocator<PushTile> > >::_Get_data, COMDAT
; _this$ = ecx

; 635  : 		{	// return reference to _Vector_val

	push	ebp
	mov	ebp, esp
	sub	esp, 204				; 000000ccH
	push	ebx
	push	esi
	push	edi
	push	ecx
	lea	edi, DWORD PTR [ebp-204]
	mov	ecx, 51					; 00000033H
	mov	eax, -858993460				; ccccccccH
	rep stosd
	pop	ecx
	mov	DWORD PTR _this$[ebp], ecx

; 636  : 		return (_Mypair._Get_second());

	mov	ecx, DWORD PTR _this$[ebp]
	call	?_Get_second@?$_Compressed_pair@U?$_Wrap_alloc@V?$allocator@UPushTile@@@std@@@std@@V?$_Vector_val@U?$_Simple_types@UPushTile@@@std@@@2@$00@std@@QAEAAV?$_Vector_val@U?$_Simple_types@UPushTile@@@std@@@2@XZ ; std::_Compressed_pair<std::_Wrap_alloc<std::allocator<PushTile> >,std::_Vector_val<std::_Simple_types<PushTile> >,1>::_Get_second

; 637  : 		}

	pop	edi
	pop	esi
	pop	ebx
	add	esp, 204				; 000000ccH
	cmp	ebp, esp
	call	__RTC_CheckEsp
	mov	esp, ebp
	pop	ebp
	ret	0
?_Get_data@?$_Vector_alloc@U?$_Vec_base_types@UPushTile@@V?$allocator@UPushTile@@@std@@@std@@@std@@QAEAAV?$_Vector_val@U?$_Simple_types@UPushTile@@@std@@@2@XZ ENDP ; std::_Vector_alloc<std::_Vec_base_types<PushTile,std::allocator<PushTile> > >::_Get_data
_TEXT	ENDS
; Function compile flags: /Odtp /RTCsu /ZI
; File c:\program files (x86)\microsoft visual studio 14.0\vc\include\vector
;	COMDAT ?_Getal@?$_Vector_alloc@U?$_Vec_base_types@UPushTile@@V?$allocator@UPushTile@@@std@@@std@@@std@@QBEABU?$_Wrap_alloc@V?$allocator@UPushTile@@@std@@@2@XZ
_TEXT	SEGMENT
_this$ = -8						; size = 4
?_Getal@?$_Vector_alloc@U?$_Vec_base_types@UPushTile@@V?$allocator@UPushTile@@@std@@@std@@@std@@QBEABU?$_Wrap_alloc@V?$allocator@UPushTile@@@std@@@2@XZ PROC ; std::_Vector_alloc<std::_Vec_base_types<PushTile,std::allocator<PushTile> > >::_Getal, COMDAT
; _this$ = ecx

; 630  : 		{	// return const reference to allocator

	push	ebp
	mov	ebp, esp
	sub	esp, 204				; 000000ccH
	push	ebx
	push	esi
	push	edi
	push	ecx
	lea	edi, DWORD PTR [ebp-204]
	mov	ecx, 51					; 00000033H
	mov	eax, -858993460				; ccccccccH
	rep stosd
	pop	ecx
	mov	DWORD PTR _this$[ebp], ecx

; 631  : 		return (_Mypair._Get_first());

	mov	ecx, DWORD PTR _this$[ebp]
	call	?_Get_first@?$_Compressed_pair@U?$_Wrap_alloc@V?$allocator@UPushTile@@@std@@@std@@V?$_Vector_val@U?$_Simple_types@UPushTile@@@std@@@2@$00@std@@QBEABU?$_Wrap_alloc@V?$allocator@UPushTile@@@std@@@2@XZ ; std::_Compressed_pair<std::_Wrap_alloc<std::allocator<PushTile> >,std::_Vector_val<std::_Simple_types<PushTile> >,1>::_Get_first

; 632  : 		}

	pop	edi
	pop	esi
	pop	ebx
	add	esp, 204				; 000000ccH
	cmp	ebp, esp
	call	__RTC_CheckEsp
	mov	esp, ebp
	pop	ebp
	ret	0
?_Getal@?$_Vector_alloc@U?$_Vec_base_types@UPushTile@@V?$allocator@UPushTile@@@std@@@std@@@std@@QBEABU?$_Wrap_alloc@V?$allocator@UPushTile@@@std@@@2@XZ ENDP ; std::_Vector_alloc<std::_Vec_base_types<PushTile,std::allocator<PushTile> > >::_Getal
_TEXT	ENDS
; Function compile flags: /Odtp /RTCsu /ZI
; File c:\program files (x86)\microsoft visual studio 14.0\vc\include\vector
;	COMDAT ?_Getal@?$_Vector_alloc@U?$_Vec_base_types@UPushTile@@V?$allocator@UPushTile@@@std@@@std@@@std@@QAEAAU?$_Wrap_alloc@V?$allocator@UPushTile@@@std@@@2@XZ
_TEXT	SEGMENT
_this$ = -8						; size = 4
?_Getal@?$_Vector_alloc@U?$_Vec_base_types@UPushTile@@V?$allocator@UPushTile@@@std@@@std@@@std@@QAEAAU?$_Wrap_alloc@V?$allocator@UPushTile@@@std@@@2@XZ PROC ; std::_Vector_alloc<std::_Vec_base_types<PushTile,std::allocator<PushTile> > >::_Getal, COMDAT
; _this$ = ecx

; 625  : 		{	// return reference to allocator

	push	ebp
	mov	ebp, esp
	sub	esp, 204				; 000000ccH
	push	ebx
	push	esi
	push	edi
	push	ecx
	lea	edi, DWORD PTR [ebp-204]
	mov	ecx, 51					; 00000033H
	mov	eax, -858993460				; ccccccccH
	rep stosd
	pop	ecx
	mov	DWORD PTR _this$[ebp], ecx

; 626  : 		return (_Mypair._Get_first());

	mov	ecx, DWORD PTR _this$[ebp]
	call	?_Get_first@?$_Compressed_pair@U?$_Wrap_alloc@V?$allocator@UPushTile@@@std@@@std@@V?$_Vector_val@U?$_Simple_types@UPushTile@@@std@@@2@$00@std@@QAEAAU?$_Wrap_alloc@V?$allocator@UPushTile@@@std@@@2@XZ ; std::_Compressed_pair<std::_Wrap_alloc<std::allocator<PushTile> >,std::_Vector_val<std::_Simple_types<PushTile> >,1>::_Get_first

; 627  : 		}

	pop	edi
	pop	esi
	pop	ebx
	add	esp, 204				; 000000ccH
	cmp	ebp, esp
	call	__RTC_CheckEsp
	mov	esp, ebp
	pop	ebp
	ret	0
?_Getal@?$_Vector_alloc@U?$_Vec_base_types@UPushTile@@V?$allocator@UPushTile@@@std@@@std@@@std@@QAEAAU?$_Wrap_alloc@V?$allocator@UPushTile@@@std@@@2@XZ ENDP ; std::_Vector_alloc<std::_Vec_base_types<PushTile,std::allocator<PushTile> > >::_Getal
_TEXT	ENDS
; Function compile flags: /Odtp /RTCsu /ZI
; File c:\program files (x86)\microsoft visual studio 14.0\vc\include\vector
;	COMDAT ?_Orphan_all@?$_Vector_alloc@U?$_Vec_base_types@UPushTile@@V?$allocator@UPushTile@@@std@@@std@@@std@@QAEXXZ
_TEXT	SEGMENT
_this$ = -8						; size = 4
?_Orphan_all@?$_Vector_alloc@U?$_Vec_base_types@UPushTile@@V?$allocator@UPushTile@@@std@@@std@@@std@@QAEXXZ PROC ; std::_Vector_alloc<std::_Vec_base_types<PushTile,std::allocator<PushTile> > >::_Orphan_all, COMDAT
; _this$ = ecx

; 615  : 		{	// orphan all iterators

	push	ebp
	mov	ebp, esp
	sub	esp, 204				; 000000ccH
	push	ebx
	push	esi
	push	edi
	push	ecx
	lea	edi, DWORD PTR [ebp-204]
	mov	ecx, 51					; 00000033H
	mov	eax, -858993460				; ccccccccH
	rep stosd
	pop	ecx
	mov	DWORD PTR _this$[ebp], ecx

; 616  : 		_Get_data()._Orphan_all();

	mov	ecx, DWORD PTR _this$[ebp]
	call	?_Get_data@?$_Vector_alloc@U?$_Vec_base_types@UPushTile@@V?$allocator@UPushTile@@@std@@@std@@@std@@QAEAAV?$_Vector_val@U?$_Simple_types@UPushTile@@@std@@@2@XZ ; std::_Vector_alloc<std::_Vec_base_types<PushTile,std::allocator<PushTile> > >::_Get_data
	mov	ecx, eax
	call	?_Orphan_all@_Container_base12@std@@QAEXXZ ; std::_Container_base12::_Orphan_all

; 617  : 		}

	pop	edi
	pop	esi
	pop	ebx
	add	esp, 204				; 000000ccH
	cmp	ebp, esp
	call	__RTC_CheckEsp
	mov	esp, ebp
	pop	ebp
	ret	0
?_Orphan_all@?$_Vector_alloc@U?$_Vec_base_types@UPushTile@@V?$allocator@UPushTile@@@std@@@std@@@std@@QAEXXZ ENDP ; std::_Vector_alloc<std::_Vec_base_types<PushTile,std::allocator<PushTile> > >::_Orphan_all
_TEXT	ENDS
; Function compile flags: /Odtp /RTCsu /ZI
; File c:\program files (x86)\microsoft visual studio 14.0\vc\include\vector
;	COMDAT ?_Myproxy@?$_Vector_alloc@U?$_Vec_base_types@UPushTile@@V?$allocator@UPushTile@@@std@@@std@@@std@@QAEAAPAU_Container_proxy@2@XZ
_TEXT	SEGMENT
_this$ = -8						; size = 4
?_Myproxy@?$_Vector_alloc@U?$_Vec_base_types@UPushTile@@V?$allocator@UPushTile@@@std@@@std@@@std@@QAEAAPAU_Container_proxy@2@XZ PROC ; std::_Vector_alloc<std::_Vec_base_types<PushTile,std::allocator<PushTile> > >::_Myproxy, COMDAT
; _this$ = ecx

; 604  : 		{	// return reference to _Myproxy

	push	ebp
	mov	ebp, esp
	sub	esp, 204				; 000000ccH
	push	ebx
	push	esi
	push	edi
	push	ecx
	lea	edi, DWORD PTR [ebp-204]
	mov	ecx, 51					; 00000033H
	mov	eax, -858993460				; ccccccccH
	rep stosd
	pop	ecx
	mov	DWORD PTR _this$[ebp], ecx

; 605  : 		return (_Get_data()._Myproxy);

	mov	ecx, DWORD PTR _this$[ebp]
	call	?_Get_data@?$_Vector_alloc@U?$_Vec_base_types@UPushTile@@V?$allocator@UPushTile@@@std@@@std@@@std@@QAEAAV?$_Vector_val@U?$_Simple_types@UPushTile@@@std@@@2@XZ ; std::_Vector_alloc<std::_Vec_base_types<PushTile,std::allocator<PushTile> > >::_Get_data

; 606  : 		}

	pop	edi
	pop	esi
	pop	ebx
	add	esp, 204				; 000000ccH
	cmp	ebp, esp
	call	__RTC_CheckEsp
	mov	esp, ebp
	pop	ebp
	ret	0
?_Myproxy@?$_Vector_alloc@U?$_Vec_base_types@UPushTile@@V?$allocator@UPushTile@@@std@@@std@@@std@@QAEAAPAU_Container_proxy@2@XZ ENDP ; std::_Vector_alloc<std::_Vec_base_types<PushTile,std::allocator<PushTile> > >::_Myproxy
_TEXT	ENDS
; Function compile flags: /Odtp /RTCsu /ZI
; File c:\program files (x86)\microsoft visual studio 14.0\vc\include\vector
;	COMDAT ?_Getpfirst@?$_Vector_alloc@U?$_Vec_base_types@UPushTile@@V?$allocator@UPushTile@@@std@@@std@@@std@@QBEPAPAU_Iterator_base12@2@XZ
_TEXT	SEGMENT
_this$ = -8						; size = 4
?_Getpfirst@?$_Vector_alloc@U?$_Vec_base_types@UPushTile@@V?$allocator@UPushTile@@@std@@@std@@@std@@QBEPAPAU_Iterator_base12@2@XZ PROC ; std::_Vector_alloc<std::_Vec_base_types<PushTile,std::allocator<PushTile> > >::_Getpfirst, COMDAT
; _this$ = ecx

; 599  : 		{	// get address of iterator chain

	push	ebp
	mov	ebp, esp
	sub	esp, 204				; 000000ccH
	push	ebx
	push	esi
	push	edi
	push	ecx
	lea	edi, DWORD PTR [ebp-204]
	mov	ecx, 51					; 00000033H
	mov	eax, -858993460				; ccccccccH
	rep stosd
	pop	ecx
	mov	DWORD PTR _this$[ebp], ecx

; 600  : 		return (_Get_data()._Getpfirst());

	mov	ecx, DWORD PTR _this$[ebp]
	call	?_Get_data@?$_Vector_alloc@U?$_Vec_base_types@UPushTile@@V?$allocator@UPushTile@@@std@@@std@@@std@@QBEABV?$_Vector_val@U?$_Simple_types@UPushTile@@@std@@@2@XZ ; std::_Vector_alloc<std::_Vec_base_types<PushTile,std::allocator<PushTile> > >::_Get_data
	mov	ecx, eax
	call	?_Getpfirst@_Container_base12@std@@QBEPAPAU_Iterator_base12@2@XZ ; std::_Container_base12::_Getpfirst

; 601  : 		}

	pop	edi
	pop	esi
	pop	ebx
	add	esp, 204				; 000000ccH
	cmp	ebp, esp
	call	__RTC_CheckEsp
	mov	esp, ebp
	pop	ebp
	ret	0
?_Getpfirst@?$_Vector_alloc@U?$_Vec_base_types@UPushTile@@V?$allocator@UPushTile@@@std@@@std@@@std@@QBEPAPAU_Iterator_base12@2@XZ ENDP ; std::_Vector_alloc<std::_Vec_base_types<PushTile,std::allocator<PushTile> > >::_Getpfirst
_TEXT	ENDS
; Function compile flags: /Odtp /RTCsu /ZI
; File c:\program files (x86)\microsoft visual studio 14.0\vc\include\vector
;	COMDAT ?_Free_proxy@?$_Vector_alloc@U?$_Vec_base_types@UPushTile@@V?$allocator@UPushTile@@@std@@@std@@@std@@QAEXXZ
_TEXT	SEGMENT
__Alproxy$ = -21					; size = 1
_this$ = -12						; size = 4
__$ArrayPad$ = -4					; size = 4
?_Free_proxy@?$_Vector_alloc@U?$_Vec_base_types@UPushTile@@V?$allocator@UPushTile@@@std@@@std@@@std@@QAEXXZ PROC ; std::_Vector_alloc<std::_Vec_base_types<PushTile,std::allocator<PushTile> > >::_Free_proxy, COMDAT
; _this$ = ecx

; 589  : 		{	// destroy proxy

	push	ebp
	mov	ebp, esp
	sub	esp, 220				; 000000dcH
	push	ebx
	push	esi
	push	edi
	push	ecx
	lea	edi, DWORD PTR [ebp-220]
	mov	ecx, 55					; 00000037H
	mov	eax, -858993460				; ccccccccH
	rep stosd
	pop	ecx
	mov	eax, DWORD PTR ___security_cookie
	xor	eax, ebp
	mov	DWORD PTR __$ArrayPad$[ebp], eax
	mov	DWORD PTR _this$[ebp], ecx

; 590  : 		typename _Alty::template rebind<_Container_proxy>::other
; 591  : 			_Alproxy(_Getal());

	mov	ecx, DWORD PTR _this$[ebp]
	call	?_Getal@?$_Vector_alloc@U?$_Vec_base_types@UPushTile@@V?$allocator@UPushTile@@@std@@@std@@@std@@QAEAAU?$_Wrap_alloc@V?$allocator@UPushTile@@@std@@@2@XZ ; std::_Vector_alloc<std::_Vec_base_types<PushTile,std::allocator<PushTile> > >::_Getal
	push	eax
	lea	ecx, DWORD PTR __Alproxy$[ebp]
	call	??$?0AAU?$_Wrap_alloc@V?$allocator@UPushTile@@@std@@@std@@@?$_Wrap_alloc@V?$allocator@U_Container_proxy@std@@@std@@@std@@QAE@AAU?$_Wrap_alloc@V?$allocator@UPushTile@@@std@@@1@@Z ; std::_Wrap_alloc<std::allocator<std::_Container_proxy> >::_Wrap_alloc<std::allocator<std::_Container_proxy> ><std::_Wrap_alloc<std::allocator<PushTile> > &>

; 592  : 		_Orphan_all();

	mov	ecx, DWORD PTR _this$[ebp]
	call	?_Orphan_all@?$_Vector_alloc@U?$_Vec_base_types@UPushTile@@V?$allocator@UPushTile@@@std@@@std@@@std@@QAEXXZ ; std::_Vector_alloc<std::_Vec_base_types<PushTile,std::allocator<PushTile> > >::_Orphan_all

; 593  : 		_Alproxy.destroy(_Myproxy());

	mov	ecx, DWORD PTR _this$[ebp]
	call	?_Myproxy@?$_Vector_alloc@U?$_Vec_base_types@UPushTile@@V?$allocator@UPushTile@@@std@@@std@@@std@@QAEAAPAU_Container_proxy@2@XZ ; std::_Vector_alloc<std::_Vec_base_types<PushTile,std::allocator<PushTile> > >::_Myproxy
	mov	eax, DWORD PTR [eax]
	push	eax
	lea	ecx, DWORD PTR __Alproxy$[ebp]
	call	??$destroy@U_Container_proxy@std@@@?$_Wrap_alloc@V?$allocator@U_Container_proxy@std@@@std@@@std@@QAEXPAU_Container_proxy@1@@Z ; std::_Wrap_alloc<std::allocator<std::_Container_proxy> >::destroy<std::_Container_proxy>

; 594  : 		_Alproxy.deallocate(_Myproxy(), 1);

	push	1
	mov	ecx, DWORD PTR _this$[ebp]
	call	?_Myproxy@?$_Vector_alloc@U?$_Vec_base_types@UPushTile@@V?$allocator@UPushTile@@@std@@@std@@@std@@QAEAAPAU_Container_proxy@2@XZ ; std::_Vector_alloc<std::_Vec_base_types<PushTile,std::allocator<PushTile> > >::_Myproxy
	mov	eax, DWORD PTR [eax]
	push	eax
	lea	ecx, DWORD PTR __Alproxy$[ebp]
	call	?deallocate@?$_Wrap_alloc@V?$allocator@U_Container_proxy@std@@@std@@@std@@QAEXPAU_Container_proxy@2@I@Z ; std::_Wrap_alloc<std::allocator<std::_Container_proxy> >::deallocate

; 595  : 		_Myproxy() = 0;

	mov	ecx, DWORD PTR _this$[ebp]
	call	?_Myproxy@?$_Vector_alloc@U?$_Vec_base_types@UPushTile@@V?$allocator@UPushTile@@@std@@@std@@@std@@QAEAAPAU_Container_proxy@2@XZ ; std::_Vector_alloc<std::_Vec_base_types<PushTile,std::allocator<PushTile> > >::_Myproxy
	mov	DWORD PTR [eax], 0

; 596  : 		}

	push	edx
	mov	ecx, ebp
	push	eax
	lea	edx, DWORD PTR $LN5@Free_proxy
	call	@_RTC_CheckStackVars@8
	pop	eax
	pop	edx
	pop	edi
	pop	esi
	pop	ebx
	mov	ecx, DWORD PTR __$ArrayPad$[ebp]
	xor	ecx, ebp
	call	@__security_check_cookie@4
	add	esp, 220				; 000000dcH
	cmp	ebp, esp
	call	__RTC_CheckEsp
	mov	esp, ebp
	pop	ebp
	ret	0
	npad	1
$LN5@Free_proxy:
	DD	1
	DD	$LN4@Free_proxy
$LN4@Free_proxy:
	DD	-21					; ffffffebH
	DD	1
	DD	$LN3@Free_proxy
$LN3@Free_proxy:
	DB	95					; 0000005fH
	DB	65					; 00000041H
	DB	108					; 0000006cH
	DB	112					; 00000070H
	DB	114					; 00000072H
	DB	111					; 0000006fH
	DB	120					; 00000078H
	DB	121					; 00000079H
	DB	0
?_Free_proxy@?$_Vector_alloc@U?$_Vec_base_types@UPushTile@@V?$allocator@UPushTile@@@std@@@std@@@std@@QAEXXZ ENDP ; std::_Vector_alloc<std::_Vec_base_types<PushTile,std::allocator<PushTile> > >::_Free_proxy
_TEXT	ENDS
; Function compile flags: /Odtp /RTCsu /ZI
; File c:\program files (x86)\microsoft visual studio 14.0\vc\include\vector
;	COMDAT ?_Alloc_proxy@?$_Vector_alloc@U?$_Vec_base_types@UPushTile@@V?$allocator@UPushTile@@@std@@@std@@@std@@QAEXXZ
_TEXT	SEGMENT
$T1 = -232						; size = 8
__Alproxy$ = -21					; size = 1
_this$ = -12						; size = 4
__$ArrayPad$ = -4					; size = 4
?_Alloc_proxy@?$_Vector_alloc@U?$_Vec_base_types@UPushTile@@V?$allocator@UPushTile@@@std@@@std@@@std@@QAEXXZ PROC ; std::_Vector_alloc<std::_Vec_base_types<PushTile,std::allocator<PushTile> > >::_Alloc_proxy, COMDAT
; _this$ = ecx

; 580  : 		{	// construct proxy

	push	ebp
	mov	ebp, esp
	sub	esp, 236				; 000000ecH
	push	ebx
	push	esi
	push	edi
	push	ecx
	lea	edi, DWORD PTR [ebp-236]
	mov	ecx, 59					; 0000003bH
	mov	eax, -858993460				; ccccccccH
	rep stosd
	pop	ecx
	mov	eax, DWORD PTR ___security_cookie
	xor	eax, ebp
	mov	DWORD PTR __$ArrayPad$[ebp], eax
	mov	DWORD PTR _this$[ebp], ecx

; 581  : 		typename _Alty::template rebind<_Container_proxy>::other
; 582  : 			_Alproxy(_Getal());

	mov	ecx, DWORD PTR _this$[ebp]
	call	?_Getal@?$_Vector_alloc@U?$_Vec_base_types@UPushTile@@V?$allocator@UPushTile@@@std@@@std@@@std@@QAEAAU?$_Wrap_alloc@V?$allocator@UPushTile@@@std@@@2@XZ ; std::_Vector_alloc<std::_Vec_base_types<PushTile,std::allocator<PushTile> > >::_Getal
	push	eax
	lea	ecx, DWORD PTR __Alproxy$[ebp]
	call	??$?0AAU?$_Wrap_alloc@V?$allocator@UPushTile@@@std@@@std@@@?$_Wrap_alloc@V?$allocator@U_Container_proxy@std@@@std@@@std@@QAE@AAU?$_Wrap_alloc@V?$allocator@UPushTile@@@std@@@1@@Z ; std::_Wrap_alloc<std::allocator<std::_Container_proxy> >::_Wrap_alloc<std::allocator<std::_Container_proxy> ><std::_Wrap_alloc<std::allocator<PushTile> > &>

; 583  : 		_Myproxy() = _Alproxy.allocate(1);

	push	1
	lea	ecx, DWORD PTR __Alproxy$[ebp]
	call	?allocate@?$_Wrap_alloc@V?$allocator@U_Container_proxy@std@@@std@@@std@@QAEPAU_Container_proxy@2@I@Z ; std::_Wrap_alloc<std::allocator<std::_Container_proxy> >::allocate
	mov	esi, eax
	mov	ecx, DWORD PTR _this$[ebp]
	call	?_Myproxy@?$_Vector_alloc@U?$_Vec_base_types@UPushTile@@V?$allocator@UPushTile@@@std@@@std@@@std@@QAEAAPAU_Container_proxy@2@XZ ; std::_Vector_alloc<std::_Vec_base_types<PushTile,std::allocator<PushTile> > >::_Myproxy
	mov	DWORD PTR [eax], esi

; 584  : 		_Alproxy.construct(_Myproxy(), _Container_proxy());

	lea	ecx, DWORD PTR $T1[ebp]
	call	??0_Container_proxy@std@@QAE@XZ		; std::_Container_proxy::_Container_proxy
	push	eax
	mov	ecx, DWORD PTR _this$[ebp]
	call	?_Myproxy@?$_Vector_alloc@U?$_Vec_base_types@UPushTile@@V?$allocator@UPushTile@@@std@@@std@@@std@@QAEAAPAU_Container_proxy@2@XZ ; std::_Vector_alloc<std::_Vec_base_types<PushTile,std::allocator<PushTile> > >::_Myproxy
	mov	eax, DWORD PTR [eax]
	push	eax
	lea	ecx, DWORD PTR __Alproxy$[ebp]
	call	??$construct@U_Container_proxy@std@@U12@@?$_Wrap_alloc@V?$allocator@U_Container_proxy@std@@@std@@@std@@QAEXPAU_Container_proxy@1@$$QAU21@@Z ; std::_Wrap_alloc<std::allocator<std::_Container_proxy> >::construct<std::_Container_proxy,std::_Container_proxy>

; 585  : 		_Myproxy()->_Mycont = &_Get_data();

	mov	ecx, DWORD PTR _this$[ebp]
	call	?_Get_data@?$_Vector_alloc@U?$_Vec_base_types@UPushTile@@V?$allocator@UPushTile@@@std@@@std@@@std@@QAEAAV?$_Vector_val@U?$_Simple_types@UPushTile@@@std@@@2@XZ ; std::_Vector_alloc<std::_Vec_base_types<PushTile,std::allocator<PushTile> > >::_Get_data
	mov	esi, eax
	mov	ecx, DWORD PTR _this$[ebp]
	call	?_Myproxy@?$_Vector_alloc@U?$_Vec_base_types@UPushTile@@V?$allocator@UPushTile@@@std@@@std@@@std@@QAEAAPAU_Container_proxy@2@XZ ; std::_Vector_alloc<std::_Vec_base_types<PushTile,std::allocator<PushTile> > >::_Myproxy
	mov	eax, DWORD PTR [eax]
	mov	DWORD PTR [eax], esi

; 586  : 		}

	push	edx
	mov	ecx, ebp
	push	eax
	lea	edx, DWORD PTR $LN5@Alloc_prox
	call	@_RTC_CheckStackVars@8
	pop	eax
	pop	edx
	pop	edi
	pop	esi
	pop	ebx
	mov	ecx, DWORD PTR __$ArrayPad$[ebp]
	xor	ecx, ebp
	call	@__security_check_cookie@4
	add	esp, 236				; 000000ecH
	cmp	ebp, esp
	call	__RTC_CheckEsp
	mov	esp, ebp
	pop	ebp
	ret	0
$LN5@Alloc_prox:
	DD	1
	DD	$LN4@Alloc_prox
$LN4@Alloc_prox:
	DD	-21					; ffffffebH
	DD	1
	DD	$LN3@Alloc_prox
$LN3@Alloc_prox:
	DB	95					; 0000005fH
	DB	65					; 00000041H
	DB	108					; 0000006cH
	DB	112					; 00000070H
	DB	114					; 00000072H
	DB	111					; 0000006fH
	DB	120					; 00000078H
	DB	121					; 00000079H
	DB	0
?_Alloc_proxy@?$_Vector_alloc@U?$_Vec_base_types@UPushTile@@V?$allocator@UPushTile@@@std@@@std@@@std@@QAEXXZ ENDP ; std::_Vector_alloc<std::_Vec_base_types<PushTile,std::allocator<PushTile> > >::_Alloc_proxy
_TEXT	ENDS
; Function compile flags: /Odtp /RTCsu /ZI
; File c:\program files (x86)\microsoft visual studio 14.0\vc\include\vector
;	COMDAT ??1?$_Vector_alloc@U?$_Vec_base_types@UPushTile@@V?$allocator@UPushTile@@@std@@@std@@@std@@QAE@XZ
_TEXT	SEGMENT
_this$ = -20						; size = 4
__$EHRec$ = -12						; size = 12
??1?$_Vector_alloc@U?$_Vec_base_types@UPushTile@@V?$allocator@UPushTile@@@std@@@std@@@std@@QAE@XZ PROC ; std::_Vector_alloc<std::_Vec_base_types<PushTile,std::allocator<PushTile> > >::~_Vector_alloc<std::_Vec_base_types<PushTile,std::allocator<PushTile> > >, COMDAT
; _this$ = ecx

; 555  : 		{	// destroy proxy

	push	ebp
	mov	ebp, esp
	push	-1
	push	__ehhandler$??1?$_Vector_alloc@U?$_Vec_base_types@UPushTile@@V?$allocator@UPushTile@@@std@@@std@@@std@@QAE@XZ
	mov	eax, DWORD PTR fs:0
	push	eax
	sub	esp, 204				; 000000ccH
	push	ebx
	push	esi
	push	edi
	push	ecx
	lea	edi, DWORD PTR [ebp-216]
	mov	ecx, 51					; 00000033H
	mov	eax, -858993460				; ccccccccH
	rep stosd
	pop	ecx
	mov	eax, DWORD PTR ___security_cookie
	xor	eax, ebp
	push	eax
	lea	eax, DWORD PTR __$EHRec$[ebp]
	mov	DWORD PTR fs:0, eax
	mov	DWORD PTR _this$[ebp], ecx

; 556  : 		_Free_proxy();

	mov	ecx, DWORD PTR _this$[ebp]
	call	?_Free_proxy@?$_Vector_alloc@U?$_Vec_base_types@UPushTile@@V?$allocator@UPushTile@@@std@@@std@@@std@@QAEXXZ ; std::_Vector_alloc<std::_Vec_base_types<PushTile,std::allocator<PushTile> > >::_Free_proxy

; 557  : 		}

	mov	ecx, DWORD PTR _this$[ebp]
	call	??1?$_Compressed_pair@U?$_Wrap_alloc@V?$allocator@UPushTile@@@std@@@std@@V?$_Vector_val@U?$_Simple_types@UPushTile@@@std@@@2@$00@std@@QAE@XZ
	mov	ecx, DWORD PTR __$EHRec$[ebp]
	mov	DWORD PTR fs:0, ecx
	pop	ecx
	pop	edi
	pop	esi
	pop	ebx
	add	esp, 216				; 000000d8H
	cmp	ebp, esp
	call	__RTC_CheckEsp
	mov	esp, ebp
	pop	ebp
	ret	0
_TEXT	ENDS
;	COMDAT text$x
text$x	SEGMENT
__ehhandler$??1?$_Vector_alloc@U?$_Vec_base_types@UPushTile@@V?$allocator@UPushTile@@@std@@@std@@@std@@QAE@XZ:
	mov	edx, DWORD PTR [esp+8]
	lea	eax, DWORD PTR [edx+12]
	mov	ecx, DWORD PTR [edx-220]
	xor	ecx, eax
	call	@__security_check_cookie@4
	mov	eax, OFFSET __ehfuncinfo$??1?$_Vector_alloc@U?$_Vec_base_types@UPushTile@@V?$allocator@UPushTile@@@std@@@std@@@std@@QAE@XZ
	jmp	___CxxFrameHandler3
text$x	ENDS
??1?$_Vector_alloc@U?$_Vec_base_types@UPushTile@@V?$allocator@UPushTile@@@std@@@std@@@std@@QAE@XZ ENDP ; std::_Vector_alloc<std::_Vec_base_types<PushTile,std::allocator<PushTile> > >::~_Vector_alloc<std::_Vec_base_types<PushTile,std::allocator<PushTile> > >
; Function compile flags: /Odtp /RTCsu /ZI
; File c:\program files (x86)\microsoft visual studio 14.0\vc\include\vector
;	COMDAT ??0?$_Vector_alloc@U?$_Vec_base_types@UPushTile@@V?$allocator@UPushTile@@@std@@@std@@@std@@QAE@XZ
_TEXT	SEGMENT
$T2 = -221						; size = 1
_this$ = -20						; size = 4
__$EHRec$ = -12						; size = 12
??0?$_Vector_alloc@U?$_Vec_base_types@UPushTile@@V?$allocator@UPushTile@@@std@@@std@@@std@@QAE@XZ PROC ; std::_Vector_alloc<std::_Vec_base_types<PushTile,std::allocator<PushTile> > >::_Vector_alloc<std::_Vec_base_types<PushTile,std::allocator<PushTile> > >, COMDAT
; _this$ = ecx

; 542  : 		{	// default construct allocator

	push	ebp
	mov	ebp, esp
	push	-1
	push	__ehhandler$??0?$_Vector_alloc@U?$_Vec_base_types@UPushTile@@V?$allocator@UPushTile@@@std@@@std@@@std@@QAE@XZ
	mov	eax, DWORD PTR fs:0
	push	eax
	sub	esp, 216				; 000000d8H
	push	ebx
	push	esi
	push	edi
	push	ecx
	lea	edi, DWORD PTR [ebp-228]
	mov	ecx, 54					; 00000036H
	mov	eax, -858993460				; ccccccccH
	rep stosd
	pop	ecx
	mov	eax, DWORD PTR ___security_cookie
	xor	eax, ebp
	push	eax
	lea	eax, DWORD PTR __$EHRec$[ebp]
	mov	DWORD PTR fs:0, eax
	mov	DWORD PTR _this$[ebp], ecx

; 541  : 		: _Mypair(_Zero_then_variadic_args_t())

	movzx	eax, BYTE PTR $T2[ebp]
	push	eax
	mov	ecx, DWORD PTR _this$[ebp]
	call	??$?0$$V@?$_Compressed_pair@U?$_Wrap_alloc@V?$allocator@UPushTile@@@std@@@std@@V?$_Vector_val@U?$_Simple_types@UPushTile@@@std@@@2@$00@std@@QAE@U_Zero_then_variadic_args_t@1@@Z ; std::_Compressed_pair<std::_Wrap_alloc<std::allocator<PushTile> >,std::_Vector_val<std::_Simple_types<PushTile> >,1>::_Compressed_pair<std::_Wrap_alloc<std::allocator<PushTile> >,std::_Vector_val<std::_Simple_types<PushTile> >,1><>
	mov	DWORD PTR __$EHRec$[ebp+8], 0

; 543  : 		_Alloc_proxy();

	mov	ecx, DWORD PTR _this$[ebp]
	call	?_Alloc_proxy@?$_Vector_alloc@U?$_Vec_base_types@UPushTile@@V?$allocator@UPushTile@@@std@@@std@@@std@@QAEXXZ ; std::_Vector_alloc<std::_Vec_base_types<PushTile,std::allocator<PushTile> > >::_Alloc_proxy

; 544  : 		}

	mov	DWORD PTR __$EHRec$[ebp+8], -1
	mov	eax, DWORD PTR _this$[ebp]
	mov	ecx, DWORD PTR __$EHRec$[ebp]
	mov	DWORD PTR fs:0, ecx
	pop	ecx
	pop	edi
	pop	esi
	pop	ebx
	add	esp, 228				; 000000e4H
	cmp	ebp, esp
	call	__RTC_CheckEsp
	mov	esp, ebp
	pop	ebp
	ret	0
_TEXT	ENDS
;	COMDAT text$x
text$x	SEGMENT
__unwindfunclet$??0?$_Vector_alloc@U?$_Vec_base_types@UPushTile@@V?$allocator@UPushTile@@@std@@@std@@@std@@QAE@XZ$0:
	mov	ecx, DWORD PTR _this$[ebp]
	jmp	??1?$_Compressed_pair@U?$_Wrap_alloc@V?$allocator@UPushTile@@@std@@@std@@V?$_Vector_val@U?$_Simple_types@UPushTile@@@std@@@2@$00@std@@QAE@XZ
__ehhandler$??0?$_Vector_alloc@U?$_Vec_base_types@UPushTile@@V?$allocator@UPushTile@@@std@@@std@@@std@@QAE@XZ:
	mov	edx, DWORD PTR [esp+8]
	lea	eax, DWORD PTR [edx+12]
	mov	ecx, DWORD PTR [edx-232]
	xor	ecx, eax
	call	@__security_check_cookie@4
	mov	eax, OFFSET __ehfuncinfo$??0?$_Vector_alloc@U?$_Vec_base_types@UPushTile@@V?$allocator@UPushTile@@@std@@@std@@@std@@QAE@XZ
	jmp	___CxxFrameHandler3
text$x	ENDS
??0?$_Vector_alloc@U?$_Vec_base_types@UPushTile@@V?$allocator@UPushTile@@@std@@@std@@@std@@QAE@XZ ENDP ; std::_Vector_alloc<std::_Vec_base_types<PushTile,std::allocator<PushTile> > >::_Vector_alloc<std::_Vec_base_types<PushTile,std::allocator<PushTile> > >
; Function compile flags: /Odtp /RTCsu /ZI
; File c:\program files (x86)\microsoft visual studio 14.0\vc\include\xmemory0
;	COMDAT ?max_size@?$_Wrap_alloc@V?$allocator@UPushTile@@@std@@@std@@QBEIU_Nil@2@@Z
_TEXT	SEGMENT
_this$ = -8						; size = 4
___formal$ = 8						; size = 1
?max_size@?$_Wrap_alloc@V?$allocator@UPushTile@@@std@@@std@@QBEIU_Nil@2@@Z PROC ; std::_Wrap_alloc<std::allocator<PushTile> >::max_size, COMDAT
; _this$ = ecx

; 905  : 		{	// get maximum size

	push	ebp
	mov	ebp, esp
	sub	esp, 204				; 000000ccH
	push	ebx
	push	esi
	push	edi
	push	ecx
	lea	edi, DWORD PTR [ebp-204]
	mov	ecx, 51					; 00000033H
	mov	eax, -858993460				; ccccccccH
	rep stosd
	pop	ecx
	mov	DWORD PTR _this$[ebp], ecx

; 906  : 		return (_Mytraits::max_size(*this));

	mov	eax, DWORD PTR _this$[ebp]
	push	eax
	call	?max_size@?$allocator_traits@V?$allocator@UPushTile@@@std@@@std@@SAIABV?$allocator@UPushTile@@@2@@Z ; std::allocator_traits<std::allocator<PushTile> >::max_size
	add	esp, 4

; 907  : 		}

	pop	edi
	pop	esi
	pop	ebx
	add	esp, 204				; 000000ccH
	cmp	ebp, esp
	call	__RTC_CheckEsp
	mov	esp, ebp
	pop	ebp
	ret	4
?max_size@?$_Wrap_alloc@V?$allocator@UPushTile@@@std@@@std@@QBEIU_Nil@2@@Z ENDP ; std::_Wrap_alloc<std::allocator<PushTile> >::max_size
_TEXT	ENDS
; Function compile flags: /Odtp /RTCsu /ZI
; File c:\program files (x86)\microsoft visual studio 14.0\vc\include\xmemory0
;	COMDAT ?deallocate@?$_Wrap_alloc@V?$allocator@UPushTile@@@std@@@std@@QAEXPAUPushTile@@I@Z
_TEXT	SEGMENT
_this$ = -8						; size = 4
__Ptr$ = 8						; size = 4
__Count$ = 12						; size = 4
?deallocate@?$_Wrap_alloc@V?$allocator@UPushTile@@@std@@@std@@QAEXPAUPushTile@@I@Z PROC ; std::_Wrap_alloc<std::allocator<PushTile> >::deallocate, COMDAT
; _this$ = ecx

; 884  : 		{	// deallocate object at _Ptr, ignore size

	push	ebp
	mov	ebp, esp
	sub	esp, 204				; 000000ccH
	push	ebx
	push	esi
	push	edi
	push	ecx
	lea	edi, DWORD PTR [ebp-204]
	mov	ecx, 51					; 00000033H
	mov	eax, -858993460				; ccccccccH
	rep stosd
	pop	ecx
	mov	DWORD PTR _this$[ebp], ecx

; 885  : 		_Mybase::deallocate(_Ptr, _Count);

	mov	eax, DWORD PTR __Count$[ebp]
	push	eax
	mov	ecx, DWORD PTR __Ptr$[ebp]
	push	ecx
	mov	ecx, DWORD PTR _this$[ebp]
	call	?deallocate@?$allocator@UPushTile@@@std@@QAEXPAUPushTile@@I@Z ; std::allocator<PushTile>::deallocate

; 886  : 		}

	pop	edi
	pop	esi
	pop	ebx
	add	esp, 204				; 000000ccH
	cmp	ebp, esp
	call	__RTC_CheckEsp
	mov	esp, ebp
	pop	ebp
	ret	8
?deallocate@?$_Wrap_alloc@V?$allocator@UPushTile@@@std@@@std@@QAEXPAUPushTile@@I@Z ENDP ; std::_Wrap_alloc<std::allocator<PushTile> >::deallocate
_TEXT	ENDS
; Function compile flags: /Odtp /RTCsu /ZI
; File c:\program files (x86)\microsoft visual studio 14.0\vc\include\xmemory0
;	COMDAT ?allocate@?$_Wrap_alloc@V?$allocator@UPushTile@@@std@@@std@@QAEPAUPushTile@@I@Z
_TEXT	SEGMENT
_this$ = -8						; size = 4
__Count$ = 8						; size = 4
?allocate@?$_Wrap_alloc@V?$allocator@UPushTile@@@std@@@std@@QAEPAUPushTile@@I@Z PROC ; std::_Wrap_alloc<std::allocator<PushTile> >::allocate, COMDAT
; _this$ = ecx

; 873  : 		{	// allocate array of _Count elements

	push	ebp
	mov	ebp, esp
	sub	esp, 204				; 000000ccH
	push	ebx
	push	esi
	push	edi
	push	ecx
	lea	edi, DWORD PTR [ebp-204]
	mov	ecx, 51					; 00000033H
	mov	eax, -858993460				; ccccccccH
	rep stosd
	pop	ecx
	mov	DWORD PTR _this$[ebp], ecx

; 874  : 		return (_Mybase::allocate(_Count));

	mov	eax, DWORD PTR __Count$[ebp]
	push	eax
	mov	ecx, DWORD PTR _this$[ebp]
	call	?allocate@?$allocator@UPushTile@@@std@@QAEPAUPushTile@@I@Z ; std::allocator<PushTile>::allocate

; 875  : 		}

	pop	edi
	pop	esi
	pop	ebx
	add	esp, 204				; 000000ccH
	cmp	ebp, esp
	call	__RTC_CheckEsp
	mov	esp, ebp
	pop	ebp
	ret	4
?allocate@?$_Wrap_alloc@V?$allocator@UPushTile@@@std@@@std@@QAEPAUPushTile@@I@Z ENDP ; std::_Wrap_alloc<std::allocator<PushTile> >::allocate
_TEXT	ENDS
; Function compile flags: /Odtp /RTCsu /ZI
; File c:\program files (x86)\microsoft visual studio 14.0\vc\include\xmemory0
;	COMDAT ??0?$_Wrap_alloc@V?$allocator@UPushTile@@@std@@@std@@QAE@XZ
_TEXT	SEGMENT
_this$ = -8						; size = 4
??0?$_Wrap_alloc@V?$allocator@UPushTile@@@std@@@std@@QAE@XZ PROC ; std::_Wrap_alloc<std::allocator<PushTile> >::_Wrap_alloc<std::allocator<PushTile> >, COMDAT
; _this$ = ecx

; 834  : 		{	// construct default allocator (do nothing)

	push	ebp
	mov	ebp, esp
	sub	esp, 204				; 000000ccH
	push	ebx
	push	esi
	push	edi
	push	ecx
	lea	edi, DWORD PTR [ebp-204]
	mov	ecx, 51					; 00000033H
	mov	eax, -858993460				; ccccccccH
	rep stosd
	pop	ecx
	mov	DWORD PTR _this$[ebp], ecx

; 833  : 		: _Mybase()

	mov	ecx, DWORD PTR _this$[ebp]
	call	??0?$allocator@UPushTile@@@std@@QAE@XZ	; std::allocator<PushTile>::allocator<PushTile>

; 835  : 		}

	mov	eax, DWORD PTR _this$[ebp]
	pop	edi
	pop	esi
	pop	ebx
	add	esp, 204				; 000000ccH
	cmp	ebp, esp
	call	__RTC_CheckEsp
	mov	esp, ebp
	pop	ebp
	ret	0
??0?$_Wrap_alloc@V?$allocator@UPushTile@@@std@@@std@@QAE@XZ ENDP ; std::_Wrap_alloc<std::allocator<PushTile> >::_Wrap_alloc<std::allocator<PushTile> >
_TEXT	ENDS
; Function compile flags: /Odtp /RTCsu /ZI
; File c:\program files (x86)\microsoft visual studio 14.0\vc\include\xmemory0
;	COMDAT ?max_size@?$allocator_traits@V?$allocator@UPushTile@@@std@@@std@@SAIABV?$allocator@UPushTile@@@2@@Z
_TEXT	SEGMENT
__Al$ = 8						; size = 4
?max_size@?$allocator_traits@V?$allocator@UPushTile@@@std@@@std@@SAIABV?$allocator@UPushTile@@@2@@Z PROC ; std::allocator_traits<std::allocator<PushTile> >::max_size, COMDAT

; 766  : 		{	// get maximum size

	push	ebp
	mov	ebp, esp
	sub	esp, 192				; 000000c0H
	push	ebx
	push	esi
	push	edi
	lea	edi, DWORD PTR [ebp-192]
	mov	ecx, 48					; 00000030H
	mov	eax, -858993460				; ccccccccH
	rep stosd

; 767  : 		return (_Al.max_size());

	mov	ecx, DWORD PTR __Al$[ebp]
	call	?max_size@?$allocator@UPushTile@@@std@@QBEIXZ ; std::allocator<PushTile>::max_size

; 768  : 		}

	pop	edi
	pop	esi
	pop	ebx
	add	esp, 192				; 000000c0H
	cmp	ebp, esp
	call	__RTC_CheckEsp
	mov	esp, ebp
	pop	ebp
	ret	0
?max_size@?$allocator_traits@V?$allocator@UPushTile@@@std@@@std@@SAIABV?$allocator@UPushTile@@@2@@Z ENDP ; std::allocator_traits<std::allocator<PushTile> >::max_size
_TEXT	ENDS
; Function compile flags: /Odtp /RTCsu /ZI
; File c:\program files (x86)\microsoft visual studio 14.0\vc\include\xmemory0
;	COMDAT ?max_size@?$allocator@UPushTile@@@std@@QBEIXZ
_TEXT	SEGMENT
_this$ = -8						; size = 4
?max_size@?$allocator@UPushTile@@@std@@QBEIXZ PROC	; std::allocator<PushTile>::max_size, COMDAT
; _this$ = ecx

; 648  : 		{	// estimate maximum array size

	push	ebp
	mov	ebp, esp
	sub	esp, 204				; 000000ccH
	push	ebx
	push	esi
	push	edi
	push	ecx
	lea	edi, DWORD PTR [ebp-204]
	mov	ecx, 51					; 00000033H
	mov	eax, -858993460				; ccccccccH
	rep stosd
	pop	ecx
	mov	DWORD PTR _this$[ebp], ecx

; 649  : 		return ((size_t)(-1) / sizeof (_Ty));

	mov	eax, 89478485				; 05555555H

; 650  : 		}

	pop	edi
	pop	esi
	pop	ebx
	mov	esp, ebp
	pop	ebp
	ret	0
?max_size@?$allocator@UPushTile@@@std@@QBEIXZ ENDP	; std::allocator<PushTile>::max_size
_TEXT	ENDS
; Function compile flags: /Odtp /RTCsu /ZI
; File c:\program files (x86)\microsoft visual studio 14.0\vc\include\xmemory0
;	COMDAT ?allocate@?$allocator@UPushTile@@@std@@QAEPAUPushTile@@I@Z
_TEXT	SEGMENT
_this$ = -8						; size = 4
__Count$ = 8						; size = 4
?allocate@?$allocator@UPushTile@@@std@@QAEPAUPushTile@@I@Z PROC ; std::allocator<PushTile>::allocate, COMDAT
; _this$ = ecx

; 624  : 		{	// allocate array of _Count elements

	push	ebp
	mov	ebp, esp
	sub	esp, 204				; 000000ccH
	push	ebx
	push	esi
	push	edi
	push	ecx
	lea	edi, DWORD PTR [ebp-204]
	mov	ecx, 51					; 00000033H
	mov	eax, -858993460				; ccccccccH
	rep stosd
	pop	ecx
	mov	DWORD PTR _this$[ebp], ecx

; 625  : 		return (static_cast<pointer>(_Allocate(_Count, sizeof (_Ty))));

	push	1
	push	48					; 00000030H
	mov	eax, DWORD PTR __Count$[ebp]
	push	eax
	call	?_Allocate@std@@YAPAXII_N@Z		; std::_Allocate
	add	esp, 12					; 0000000cH

; 626  : 		}

	pop	edi
	pop	esi
	pop	ebx
	add	esp, 204				; 000000ccH
	cmp	ebp, esp
	call	__RTC_CheckEsp
	mov	esp, ebp
	pop	ebp
	ret	4
?allocate@?$allocator@UPushTile@@@std@@QAEPAUPushTile@@I@Z ENDP ; std::allocator<PushTile>::allocate
_TEXT	ENDS
; Function compile flags: /Odtp /RTCsu /ZI
; File c:\program files (x86)\microsoft visual studio 14.0\vc\include\xmemory0
;	COMDAT ?deallocate@?$allocator@UPushTile@@@std@@QAEXPAUPushTile@@I@Z
_TEXT	SEGMENT
_this$ = -8						; size = 4
__Ptr$ = 8						; size = 4
__Count$ = 12						; size = 4
?deallocate@?$allocator@UPushTile@@@std@@QAEXPAUPushTile@@I@Z PROC ; std::allocator<PushTile>::deallocate, COMDAT
; _this$ = ecx

; 619  : 		{	// deallocate object at _Ptr

	push	ebp
	mov	ebp, esp
	sub	esp, 204				; 000000ccH
	push	ebx
	push	esi
	push	edi
	push	ecx
	lea	edi, DWORD PTR [ebp-204]
	mov	ecx, 51					; 00000033H
	mov	eax, -858993460				; ccccccccH
	rep stosd
	pop	ecx
	mov	DWORD PTR _this$[ebp], ecx

; 620  : 		_Deallocate(_Ptr, _Count, sizeof (_Ty));

	push	48					; 00000030H
	mov	eax, DWORD PTR __Count$[ebp]
	push	eax
	mov	ecx, DWORD PTR __Ptr$[ebp]
	push	ecx
	call	?_Deallocate@std@@YAXPAXII@Z		; std::_Deallocate
	add	esp, 12					; 0000000cH

; 621  : 		}

	pop	edi
	pop	esi
	pop	ebx
	add	esp, 204				; 000000ccH
	cmp	ebp, esp
	call	__RTC_CheckEsp
	mov	esp, ebp
	pop	ebp
	ret	8
?deallocate@?$allocator@UPushTile@@@std@@QAEXPAUPushTile@@I@Z ENDP ; std::allocator<PushTile>::deallocate
_TEXT	ENDS
; Function compile flags: /Odtp /RTCsu /ZI
; File c:\program files (x86)\microsoft visual studio 14.0\vc\include\xmemory0
;	COMDAT ??0?$allocator@UPushTile@@@std@@QAE@XZ
_TEXT	SEGMENT
_this$ = -8						; size = 4
??0?$allocator@UPushTile@@@std@@QAE@XZ PROC		; std::allocator<PushTile>::allocator<PushTile>, COMDAT
; _this$ = ecx

; 599  : 	allocator() _THROW0()

	push	ebp
	mov	ebp, esp
	sub	esp, 204				; 000000ccH
	push	ebx
	push	esi
	push	edi
	push	ecx
	lea	edi, DWORD PTR [ebp-204]
	mov	ecx, 51					; 00000033H
	mov	eax, -858993460				; ccccccccH
	rep stosd
	pop	ecx
	mov	DWORD PTR _this$[ebp], ecx

; 600  : 		{	// construct default allocator (do nothing)
; 601  : 		}

	mov	eax, DWORD PTR _this$[ebp]
	pop	edi
	pop	esi
	pop	ebx
	mov	esp, ebp
	pop	ebp
	ret	0
??0?$allocator@UPushTile@@@std@@QAE@XZ ENDP		; std::allocator<PushTile>::allocator<PushTile>
_TEXT	ENDS
; Function compile flags: /Odtp /RTCsu /ZI
;	COMDAT ??0PushTile@@QAE@XZ
_TEXT	SEGMENT
_this$ = -8						; size = 4
??0PushTile@@QAE@XZ PROC				; PushTile::PushTile, COMDAT
; _this$ = ecx
	push	ebp
	mov	ebp, esp
	sub	esp, 204				; 000000ccH
	push	ebx
	push	esi
	push	edi
	push	ecx
	lea	edi, DWORD PTR [ebp-204]
	mov	ecx, 51					; 00000033H
	mov	eax, -858993460				; ccccccccH
	rep stosd
	pop	ecx
	mov	DWORD PTR _this$[ebp], ecx
	mov	ecx, DWORD PTR _this$[ebp]
	call	??0Tile@@QAE@XZ
	mov	eax, DWORD PTR _this$[ebp]
	movsd	xmm0, QWORD PTR __real@4059000000000000
	movsd	QWORD PTR [eax+32], xmm0
	mov	eax, DWORD PTR _this$[ebp]
	mov	DWORD PTR [eax+40], -1
	mov	eax, DWORD PTR _this$[ebp]
	mov	BYTE PTR [eax+44], 0
	mov	eax, DWORD PTR _this$[ebp]
	pop	edi
	pop	esi
	pop	ebx
	add	esp, 204				; 000000ccH
	cmp	ebp, esp
	call	__RTC_CheckEsp
	mov	esp, ebp
	pop	ebp
	ret	0
??0PushTile@@QAE@XZ ENDP				; PushTile::PushTile
_TEXT	ENDS
; Function compile flags: /Odtp /RTCsu /ZI
;	COMDAT ??0SpawnTile@@QAE@XZ
_TEXT	SEGMENT
_this$ = -8						; size = 4
??0SpawnTile@@QAE@XZ PROC				; SpawnTile::SpawnTile, COMDAT
; _this$ = ecx
	push	ebp
	mov	ebp, esp
	sub	esp, 204				; 000000ccH
	push	ebx
	push	esi
	push	edi
	push	ecx
	lea	edi, DWORD PTR [ebp-204]
	mov	ecx, 51					; 00000033H
	mov	eax, -858993460				; ccccccccH
	rep stosd
	pop	ecx
	mov	DWORD PTR _this$[ebp], ecx
	mov	ecx, DWORD PTR _this$[ebp]
	call	??0Vector2@@QAE@XZ			; Vector2::Vector2
	mov	eax, DWORD PTR _this$[ebp]
	mov	DWORD PTR [eax+16], 10			; 0000000aH
	mov	eax, DWORD PTR _this$[ebp]
	mov	DWORD PTR [eax+20], 10			; 0000000aH
	mov	eax, DWORD PTR _this$[ebp]
	mov	DWORD PTR [eax+24], -1
	mov	eax, DWORD PTR _this$[ebp]
	pop	edi
	pop	esi
	pop	ebx
	add	esp, 204				; 000000ccH
	cmp	ebp, esp
	call	__RTC_CheckEsp
	mov	esp, ebp
	pop	ebp
	ret	0
??0SpawnTile@@QAE@XZ ENDP				; SpawnTile::SpawnTile
_TEXT	ENDS
; Function compile flags: /Odtp /RTCsu /ZI
;	COMDAT ??0MovingTile@@QAE@XZ
_TEXT	SEGMENT
_this$ = -8						; size = 4
??0MovingTile@@QAE@XZ PROC				; MovingTile::MovingTile, COMDAT
; _this$ = ecx
	push	ebp
	mov	ebp, esp
	sub	esp, 204				; 000000ccH
	push	ebx
	push	esi
	push	edi
	push	ecx
	lea	edi, DWORD PTR [ebp-204]
	mov	ecx, 51					; 00000033H
	mov	eax, -858993460				; ccccccccH
	rep stosd
	pop	ecx
	mov	DWORD PTR _this$[ebp], ecx
	mov	ecx, DWORD PTR _this$[ebp]
	call	??0Tile@@QAE@XZ
	mov	eax, DWORD PTR _this$[ebp]
	movsd	xmm0, QWORD PTR __real@4039000000000000
	movsd	QWORD PTR [eax+32], xmm0
	mov	eax, DWORD PTR _this$[ebp]
	mov	BYTE PTR [eax+40], 0
	mov	eax, DWORD PTR _this$[ebp]
	pop	edi
	pop	esi
	pop	ebx
	add	esp, 204				; 000000ccH
	cmp	ebp, esp
	call	__RTC_CheckEsp
	mov	esp, ebp
	pop	ebp
	ret	0
??0MovingTile@@QAE@XZ ENDP				; MovingTile::MovingTile
_TEXT	ENDS
; Function compile flags: /Odtp /RTCsu /ZI
;	COMDAT ??0Tile@@QAE@XZ
_TEXT	SEGMENT
_this$ = -8						; size = 4
??0Tile@@QAE@XZ PROC					; Tile::Tile, COMDAT
; _this$ = ecx
	push	ebp
	mov	ebp, esp
	sub	esp, 204				; 000000ccH
	push	ebx
	push	esi
	push	edi
	push	ecx
	lea	edi, DWORD PTR [ebp-204]
	mov	ecx, 51					; 00000033H
	mov	eax, -858993460				; ccccccccH
	rep stosd
	pop	ecx
	mov	DWORD PTR _this$[ebp], ecx
	mov	ecx, DWORD PTR _this$[ebp]
	call	??0Vector2@@QAE@XZ			; Vector2::Vector2
	mov	eax, DWORD PTR _this$[ebp]
	mov	DWORD PTR [eax+16], 10			; 0000000aH
	mov	eax, DWORD PTR _this$[ebp]
	mov	DWORD PTR [eax+20], 10			; 0000000aH
	mov	eax, DWORD PTR _this$[ebp]
	mov	DWORD PTR [eax+24], -1
	mov	eax, DWORD PTR _this$[ebp]
	pop	edi
	pop	esi
	pop	ebx
	add	esp, 204				; 000000ccH
	cmp	ebp, esp
	call	__RTC_CheckEsp
	mov	esp, ebp
	pop	ebp
	ret	0
??0Tile@@QAE@XZ ENDP					; Tile::Tile
_TEXT	ENDS
; Function compile flags: /Odtp /RTCsu /ZI
; File g:\projects\lotion\lotion\environment.h
;	COMDAT ?right@Tile@@QAENXZ
_TEXT	SEGMENT
tv73 = -212						; size = 8
_this$ = -8						; size = 4
?right@Tile@@QAENXZ PROC				; Tile::right, COMDAT
; _this$ = ecx

; 84   : 	inline double right() { return position.x + width; }

	push	ebp
	mov	ebp, esp
	sub	esp, 212				; 000000d4H
	push	ebx
	push	esi
	push	edi
	push	ecx
	lea	edi, DWORD PTR [ebp-212]
	mov	ecx, 53					; 00000035H
	mov	eax, -858993460				; ccccccccH
	rep stosd
	pop	ecx
	mov	DWORD PTR _this$[ebp], ecx
	mov	eax, DWORD PTR _this$[ebp]
	cvtsi2sd xmm0, DWORD PTR [eax+16]
	mov	ecx, DWORD PTR _this$[ebp]
	addsd	xmm0, QWORD PTR [ecx]
	movsd	QWORD PTR tv73[ebp], xmm0
	fld	QWORD PTR tv73[ebp]
	pop	edi
	pop	esi
	pop	ebx
	mov	esp, ebp
	pop	ebp
	ret	0
?right@Tile@@QAENXZ ENDP				; Tile::right
_TEXT	ENDS
; Function compile flags: /Odtp /RTCsu /ZI
; File g:\projects\lotion\lotion\environment.h
;	COMDAT ?left@Tile@@QAENXZ
_TEXT	SEGMENT
_this$ = -8						; size = 4
?left@Tile@@QAENXZ PROC					; Tile::left, COMDAT
; _this$ = ecx

; 83   : 	inline double left() { return position.x; }

	push	ebp
	mov	ebp, esp
	sub	esp, 204				; 000000ccH
	push	ebx
	push	esi
	push	edi
	push	ecx
	lea	edi, DWORD PTR [ebp-204]
	mov	ecx, 51					; 00000033H
	mov	eax, -858993460				; ccccccccH
	rep stosd
	pop	ecx
	mov	DWORD PTR _this$[ebp], ecx
	mov	eax, DWORD PTR _this$[ebp]
	fld	QWORD PTR [eax]
	pop	edi
	pop	esi
	pop	ebx
	mov	esp, ebp
	pop	ebp
	ret	0
?left@Tile@@QAENXZ ENDP					; Tile::left
_TEXT	ENDS
; Function compile flags: /Odtp /RTCsu /ZI
; File g:\projects\lotion\lotion\environment.h
;	COMDAT ?bottom@Tile@@QAENXZ
_TEXT	SEGMENT
tv73 = -212						; size = 8
_this$ = -8						; size = 4
?bottom@Tile@@QAENXZ PROC				; Tile::bottom, COMDAT
; _this$ = ecx

; 82   : 	inline double bottom() { return position.y + height; }

	push	ebp
	mov	ebp, esp
	sub	esp, 212				; 000000d4H
	push	ebx
	push	esi
	push	edi
	push	ecx
	lea	edi, DWORD PTR [ebp-212]
	mov	ecx, 53					; 00000035H
	mov	eax, -858993460				; ccccccccH
	rep stosd
	pop	ecx
	mov	DWORD PTR _this$[ebp], ecx
	mov	eax, DWORD PTR _this$[ebp]
	cvtsi2sd xmm0, DWORD PTR [eax+20]
	mov	ecx, DWORD PTR _this$[ebp]
	addsd	xmm0, QWORD PTR [ecx+8]
	movsd	QWORD PTR tv73[ebp], xmm0
	fld	QWORD PTR tv73[ebp]
	pop	edi
	pop	esi
	pop	ebx
	mov	esp, ebp
	pop	ebp
	ret	0
?bottom@Tile@@QAENXZ ENDP				; Tile::bottom
_TEXT	ENDS
; Function compile flags: /Odtp /RTCsu /ZI
; File g:\projects\lotion\lotion\environment.h
;	COMDAT ?top@Tile@@QAENXZ
_TEXT	SEGMENT
_this$ = -8						; size = 4
?top@Tile@@QAENXZ PROC					; Tile::top, COMDAT
; _this$ = ecx

; 81   : 	inline double top() { return position.y; }

	push	ebp
	mov	ebp, esp
	sub	esp, 204				; 000000ccH
	push	ebx
	push	esi
	push	edi
	push	ecx
	lea	edi, DWORD PTR [ebp-204]
	mov	ecx, 51					; 00000033H
	mov	eax, -858993460				; ccccccccH
	rep stosd
	pop	ecx
	mov	DWORD PTR _this$[ebp], ecx
	mov	eax, DWORD PTR _this$[ebp]
	fld	QWORD PTR [eax+8]
	pop	edi
	pop	esi
	pop	ebx
	mov	esp, ebp
	pop	ebp
	ret	0
?top@Tile@@QAENXZ ENDP					; Tile::top
_TEXT	ENDS
; Function compile flags: /Odtp /RTCsu /ZI
; File c:\program files (x86)\microsoft visual studio 14.0\vc\include\xmemory0
;	COMDAT ?_Deallocate@std@@YAXPAXII@Z
_TEXT	SEGMENT
__Ptr_container$1 = -44					; size = 4
__Ptr_ptr$2 = -32					; size = 4
__Ptr_user$3 = -20					; size = 4
__User_size$ = -8					; size = 4
__Ptr$ = 8						; size = 4
__Count$ = 12						; size = 4
__Sz$ = 16						; size = 4
?_Deallocate@std@@YAXPAXII@Z PROC			; std::_Deallocate, COMDAT

; 92   : 	{	// deallocate storage for _Count elements of size _Sz

	push	ebp
	mov	ebp, esp
	sub	esp, 240				; 000000f0H
	push	ebx
	push	esi
	push	edi
	lea	edi, DWORD PTR [ebp-240]
	mov	ecx, 60					; 0000003cH
	mov	eax, -858993460				; ccccccccH
	rep stosd

; 93   :  #if defined(_M_IX86) || defined(_M_X64)
; 94   : 	_SCL_SECURE_ALWAYS_VALIDATE(_Count <= (size_t)(-1) / _Sz);

	or	eax, -1
	xor	edx, edx
	div	DWORD PTR __Sz$[ebp]
	cmp	DWORD PTR __Count$[ebp], eax
	jbe	SHORT $LN2@Deallocate
	mov	eax, OFFSET ??_C@_0BN@HMCJOMKN@_Count?5?$DM?$DN?5?$CIsize_t?$CJ?$CI?91?$CJ?5?1?5_Sz?$AA@
	test	eax, eax
	je	SHORT $LN10@Deallocate
	xor	ecx, ecx
	jne	SHORT $LN11@Deallocate
$LN10@Deallocate:
	mov	esi, esp
	push	OFFSET ??_C@_1EI@MLOBABC@?$AA?$CC?$AA_?$AAC?$AAo?$AAu?$AAn?$AAt?$AA?5?$AA?$DM?$AA?$DN?$AA?5?$AA?$CI?$AAs?$AAi?$AAz?$AAe?$AA_?$AAt?$AA?$CJ?$AA?$CI?$AA?9?$AA1?$AA?$CJ?$AA?5?$AA?1?$AA?5?$AA_?$AAS?$AAz?$AA?$CC?$AA?5?$AA?$CG@
	push	OFFSET ??_C@_17CNPHIMPH@?$AA?$CF?$AAl?$AAs?$AA?$AA@
	push	0
	mov	edx, DWORD PTR ?__LINE__Var@?0??_Deallocate@std@@YAXPAXII@Z@4JA
	add	edx, 2
	push	edx
	push	OFFSET ??_C@_1JA@DKOIEICI@?$AAc?$AA?3?$AA?2?$AAp?$AAr?$AAo?$AAg?$AAr?$AAa?$AAm?$AA?5?$AAf?$AAi?$AAl?$AAe?$AAs?$AA?5?$AA?$CI?$AAx?$AA8?$AA6?$AA?$CJ?$AA?2?$AAm?$AAi?$AAc?$AAr?$AAo?$AAs?$AAo?$AAf?$AAt@
	push	2
	call	DWORD PTR __imp___CrtDbgReportW
	add	esp, 24					; 00000018H
	cmp	esi, esp
	call	__RTC_CheckEsp
	cmp	eax, 1
	jne	SHORT $LN11@Deallocate
	int	3
$LN11@Deallocate:
	mov	esi, esp
	push	0
	mov	eax, DWORD PTR ?__LINE__Var@?0??_Deallocate@std@@YAXPAXII@Z@4JA
	add	eax, 2
	push	eax
	push	OFFSET ??_C@_1JA@DKOIEICI@?$AAc?$AA?3?$AA?2?$AAp?$AAr?$AAo?$AAg?$AAr?$AAa?$AAm?$AA?5?$AAf?$AAi?$AAl?$AAe?$AAs?$AA?5?$AA?$CI?$AAx?$AA8?$AA6?$AA?$CJ?$AA?2?$AAm?$AAi?$AAc?$AAr?$AAo?$AAs?$AAo?$AAf?$AAt@
	push	OFFSET ??_C@_1CC@LOFJFFDB@?$AAs?$AAt?$AAd?$AA?3?$AA?3?$AA_?$AAD?$AAe?$AAa?$AAl?$AAl?$AAo?$AAc?$AAa?$AAt?$AAe?$AA?$AA@
	push	OFFSET ??_C@_1CG@JNLFBNGN@?$AA?$CC?$AAi?$AAn?$AAv?$AAa?$AAl?$AAi?$AAd?$AA?5?$AAa?$AAr?$AAg?$AAu?$AAm?$AAe?$AAn?$AAt?$AA?$CC?$AA?$AA@
	call	DWORD PTR __imp___invalid_parameter
	add	esp, 20					; 00000014H
	cmp	esi, esp
	call	__RTC_CheckEsp
$LN2@Deallocate:

; 95   : 	const size_t _User_size = _Count * _Sz;

	mov	eax, DWORD PTR __Count$[ebp]
	imul	eax, DWORD PTR __Sz$[ebp]
	mov	DWORD PTR __User_size$[ebp], eax

; 96   : 	if (_BIG_ALLOCATION_THRESHOLD <= _User_size)

	cmp	DWORD PTR __User_size$[ebp], 4096	; 00001000H
	jb	$LN3@Deallocate

; 97   : 		{	// deallocate large block
; 98   : 		const uintptr_t _Ptr_user = reinterpret_cast<uintptr_t>(_Ptr);

	mov	eax, DWORD PTR __Ptr$[ebp]
	mov	DWORD PTR __Ptr_user$3[ebp], eax

; 99   : 		_SCL_SECURE_ALWAYS_VALIDATE(

	mov	eax, DWORD PTR __Ptr_user$3[ebp]
	and	eax, 31					; 0000001fH
	je	SHORT $LN4@Deallocate
	mov	eax, OFFSET ??_C@_0DD@GBGGGKGG@?$CI_Ptr_user?5?$CG?5?$CI_BIG_ALLOCATION_AL@
	test	eax, eax
	je	SHORT $LN12@Deallocate
	xor	ecx, ecx
	jne	SHORT $LN13@Deallocate
$LN12@Deallocate:
	mov	esi, esp
	push	OFFSET ??_C@_1HE@CDMBFOKC@?$AA?$CC?$AA?$CI?$AA_?$AAP?$AAt?$AAr?$AA_?$AAu?$AAs?$AAe?$AAr?$AA?5?$AA?$CG?$AA?5?$AA?$CI?$AA_?$AAB?$AAI?$AAG?$AA_?$AAA?$AAL?$AAL?$AAO?$AAC?$AAA?$AAT?$AAI?$AAO?$AAN?$AA_?$AAA@
	push	OFFSET ??_C@_17CNPHIMPH@?$AA?$CF?$AAl?$AAs?$AA?$AA@
	push	0
	mov	edx, DWORD PTR ?__LINE__Var@?0??_Deallocate@std@@YAXPAXII@Z@4JA
	add	edx, 8
	push	edx
	push	OFFSET ??_C@_1JA@DKOIEICI@?$AAc?$AA?3?$AA?2?$AAp?$AAr?$AAo?$AAg?$AAr?$AAa?$AAm?$AA?5?$AAf?$AAi?$AAl?$AAe?$AAs?$AA?5?$AA?$CI?$AAx?$AA8?$AA6?$AA?$CJ?$AA?2?$AAm?$AAi?$AAc?$AAr?$AAo?$AAs?$AAo?$AAf?$AAt@
	push	2
	call	DWORD PTR __imp___CrtDbgReportW
	add	esp, 24					; 00000018H
	cmp	esi, esp
	call	__RTC_CheckEsp
	cmp	eax, 1
	jne	SHORT $LN13@Deallocate
	int	3
$LN13@Deallocate:
	mov	esi, esp
	push	0
	mov	eax, DWORD PTR ?__LINE__Var@?0??_Deallocate@std@@YAXPAXII@Z@4JA
	add	eax, 8
	push	eax
	push	OFFSET ??_C@_1JA@DKOIEICI@?$AAc?$AA?3?$AA?2?$AAp?$AAr?$AAo?$AAg?$AAr?$AAa?$AAm?$AA?5?$AAf?$AAi?$AAl?$AAe?$AAs?$AA?5?$AA?$CI?$AAx?$AA8?$AA6?$AA?$CJ?$AA?2?$AAm?$AAi?$AAc?$AAr?$AAo?$AAs?$AAo?$AAf?$AAt@
	push	OFFSET ??_C@_1CC@LOFJFFDB@?$AAs?$AAt?$AAd?$AA?3?$AA?3?$AA_?$AAD?$AAe?$AAa?$AAl?$AAl?$AAo?$AAc?$AAa?$AAt?$AAe?$AA?$AA@
	push	OFFSET ??_C@_1CG@JNLFBNGN@?$AA?$CC?$AAi?$AAn?$AAv?$AAa?$AAl?$AAi?$AAd?$AA?5?$AAa?$AAr?$AAg?$AAu?$AAm?$AAe?$AAn?$AAt?$AA?$CC?$AA?$AA@
	call	DWORD PTR __imp___invalid_parameter
	add	esp, 20					; 00000014H
	cmp	esi, esp
	call	__RTC_CheckEsp
$LN4@Deallocate:

; 100  : 			(_Ptr_user & (_BIG_ALLOCATION_ALIGNMENT - 1)) == 0);
; 101  : 		const uintptr_t _Ptr_ptr = _Ptr_user - sizeof(void *);

	mov	eax, DWORD PTR __Ptr_user$3[ebp]
	sub	eax, 4
	mov	DWORD PTR __Ptr_ptr$2[ebp], eax

; 102  : 		const uintptr_t _Ptr_container =
; 103  : 			*reinterpret_cast<uintptr_t *>(_Ptr_ptr);

	mov	eax, DWORD PTR __Ptr_ptr$2[ebp]
	mov	ecx, DWORD PTR [eax]
	mov	DWORD PTR __Ptr_container$1[ebp], ecx

; 104  : 
; 105  :  #ifdef _DEBUG
; 106  : 		// If the following asserts, it likely means that we are performing
; 107  : 		// an aligned delete on memory coming from an unaligned allocation.
; 108  : 		_SCL_SECURE_ALWAYS_VALIDATE(

	mov	eax, 4
	imul	ecx, eax, -1
	mov	edx, DWORD PTR __Ptr_ptr$2[ebp]
	cmp	DWORD PTR [edx+ecx], -84215046		; fafafafaH
	je	SHORT $LN5@Deallocate
	mov	eax, OFFSET ??_C@_0EI@NOJHEJCJ@reinterpret_cast?$DMuintptr_t?5?$CK?$DO?$CI_P@
	test	eax, eax
	je	SHORT $LN14@Deallocate
	xor	ecx, ecx
	jne	SHORT $LN15@Deallocate
$LN14@Deallocate:
	mov	esi, esp
	push	OFFSET ??_C@_1JO@EKLKIEHP@?$AA?$CC?$AAr?$AAe?$AAi?$AAn?$AAt?$AAe?$AAr?$AAp?$AAr?$AAe?$AAt?$AA_?$AAc?$AAa?$AAs?$AAt?$AA?$DM?$AAu?$AAi?$AAn?$AAt?$AAp?$AAt?$AAr?$AA_?$AAt?$AA?5?$AA?$CK?$AA?$DO?$AA?$CI?$AA_@
	push	OFFSET ??_C@_17CNPHIMPH@?$AA?$CF?$AAl?$AAs?$AA?$AA@
	push	0
	mov	edx, DWORD PTR ?__LINE__Var@?0??_Deallocate@std@@YAXPAXII@Z@4JA
	add	edx, 18					; 00000012H
	push	edx
	push	OFFSET ??_C@_1JA@DKOIEICI@?$AAc?$AA?3?$AA?2?$AAp?$AAr?$AAo?$AAg?$AAr?$AAa?$AAm?$AA?5?$AAf?$AAi?$AAl?$AAe?$AAs?$AA?5?$AA?$CI?$AAx?$AA8?$AA6?$AA?$CJ?$AA?2?$AAm?$AAi?$AAc?$AAr?$AAo?$AAs?$AAo?$AAf?$AAt@
	push	2
	call	DWORD PTR __imp___CrtDbgReportW
	add	esp, 24					; 00000018H
	cmp	esi, esp
	call	__RTC_CheckEsp
	cmp	eax, 1
	jne	SHORT $LN15@Deallocate
	int	3
$LN15@Deallocate:
	mov	esi, esp
	push	0
	mov	eax, DWORD PTR ?__LINE__Var@?0??_Deallocate@std@@YAXPAXII@Z@4JA
	add	eax, 18					; 00000012H
	push	eax
	push	OFFSET ??_C@_1JA@DKOIEICI@?$AAc?$AA?3?$AA?2?$AAp?$AAr?$AAo?$AAg?$AAr?$AAa?$AAm?$AA?5?$AAf?$AAi?$AAl?$AAe?$AAs?$AA?5?$AA?$CI?$AAx?$AA8?$AA6?$AA?$CJ?$AA?2?$AAm?$AAi?$AAc?$AAr?$AAo?$AAs?$AAo?$AAf?$AAt@
	push	OFFSET ??_C@_1CC@LOFJFFDB@?$AAs?$AAt?$AAd?$AA?3?$AA?3?$AA_?$AAD?$AAe?$AAa?$AAl?$AAl?$AAo?$AAc?$AAa?$AAt?$AAe?$AA?$AA@
	push	OFFSET ??_C@_1CG@JNLFBNGN@?$AA?$CC?$AAi?$AAn?$AAv?$AAa?$AAl?$AAi?$AAd?$AA?5?$AAa?$AAr?$AAg?$AAu?$AAm?$AAe?$AAn?$AAt?$AA?$CC?$AA?$AA@
	call	DWORD PTR __imp___invalid_parameter
	add	esp, 20					; 00000014H
	cmp	esi, esp
	call	__RTC_CheckEsp
$LN5@Deallocate:

; 109  : 			reinterpret_cast<uintptr_t *>(_Ptr_ptr)[-1] ==
; 110  : 				_BIG_ALLOCATION_SENTINEL);
; 111  :  #endif /* _DEBUG */
; 112  : 
; 113  : 		// Extra paranoia on aligned allocation/deallocation
; 114  : 		_SCL_SECURE_ALWAYS_VALIDATE(_Ptr_container < _Ptr_user);

	mov	eax, DWORD PTR __Ptr_container$1[ebp]
	cmp	eax, DWORD PTR __Ptr_user$3[ebp]
	jb	SHORT $LN6@Deallocate
	mov	eax, OFFSET ??_C@_0BL@OCKMEJON@_Ptr_container?5?$DM?5_Ptr_user?$AA@
	test	eax, eax
	je	SHORT $LN16@Deallocate
	xor	ecx, ecx
	jne	SHORT $LN17@Deallocate
$LN16@Deallocate:
	mov	esi, esp
	push	OFFSET ??_C@_1EE@PDHAHDDC@?$AA?$CC?$AA_?$AAP?$AAt?$AAr?$AA_?$AAc?$AAo?$AAn?$AAt?$AAa?$AAi?$AAn?$AAe?$AAr?$AA?5?$AA?$DM?$AA?5?$AA_?$AAP?$AAt?$AAr?$AA_?$AAu?$AAs?$AAe?$AAr?$AA?$CC?$AA?5?$AA?$CG?$AA?$CG?$AA?5@
	push	OFFSET ??_C@_17CNPHIMPH@?$AA?$CF?$AAl?$AAs?$AA?$AA@
	push	0
	mov	edx, DWORD PTR ?__LINE__Var@?0??_Deallocate@std@@YAXPAXII@Z@4JA
	add	edx, 22					; 00000016H
	push	edx
	push	OFFSET ??_C@_1JA@DKOIEICI@?$AAc?$AA?3?$AA?2?$AAp?$AAr?$AAo?$AAg?$AAr?$AAa?$AAm?$AA?5?$AAf?$AAi?$AAl?$AAe?$AAs?$AA?5?$AA?$CI?$AAx?$AA8?$AA6?$AA?$CJ?$AA?2?$AAm?$AAi?$AAc?$AAr?$AAo?$AAs?$AAo?$AAf?$AAt@
	push	2
	call	DWORD PTR __imp___CrtDbgReportW
	add	esp, 24					; 00000018H
	cmp	esi, esp
	call	__RTC_CheckEsp
	cmp	eax, 1
	jne	SHORT $LN17@Deallocate
	int	3
$LN17@Deallocate:
	mov	esi, esp
	push	0
	mov	eax, DWORD PTR ?__LINE__Var@?0??_Deallocate@std@@YAXPAXII@Z@4JA
	add	eax, 22					; 00000016H
	push	eax
	push	OFFSET ??_C@_1JA@DKOIEICI@?$AAc?$AA?3?$AA?2?$AAp?$AAr?$AAo?$AAg?$AAr?$AAa?$AAm?$AA?5?$AAf?$AAi?$AAl?$AAe?$AAs?$AA?5?$AA?$CI?$AAx?$AA8?$AA6?$AA?$CJ?$AA?2?$AAm?$AAi?$AAc?$AAr?$AAo?$AAs?$AAo?$AAf?$AAt@
	push	OFFSET ??_C@_1CC@LOFJFFDB@?$AAs?$AAt?$AAd?$AA?3?$AA?3?$AA_?$AAD?$AAe?$AAa?$AAl?$AAl?$AAo?$AAc?$AAa?$AAt?$AAe?$AA?$AA@
	push	OFFSET ??_C@_1CG@JNLFBNGN@?$AA?$CC?$AAi?$AAn?$AAv?$AAa?$AAl?$AAi?$AAd?$AA?5?$AAa?$AAr?$AAg?$AAu?$AAm?$AAe?$AAn?$AAt?$AA?$CC?$AA?$AA@
	call	DWORD PTR __imp___invalid_parameter
	add	esp, 20					; 00000014H
	cmp	esi, esp
	call	__RTC_CheckEsp
$LN6@Deallocate:

; 115  : 
; 116  :  #ifdef _DEBUG
; 117  : 		_SCL_SECURE_ALWAYS_VALIDATE(2 * sizeof(void *)

	mov	eax, DWORD PTR __Ptr_user$3[ebp]
	sub	eax, DWORD PTR __Ptr_container$1[ebp]
	cmp	eax, 8
	jae	SHORT $LN7@Deallocate
	mov	eax, OFFSET ??_C@_0DB@GLFJLNCE@2?5?$CK?5sizeof?$CIvoid?5?$CK?$CJ?5?$DM?$DN?5_Ptr_user?5@
	test	eax, eax
	je	SHORT $LN18@Deallocate
	xor	ecx, ecx
	jne	SHORT $LN19@Deallocate
$LN18@Deallocate:
	mov	esi, esp
	push	OFFSET ??_C@_1HA@NAPGMHAO@?$AA?$CC?$AA2?$AA?5?$AA?$CK?$AA?5?$AAs?$AAi?$AAz?$AAe?$AAo?$AAf?$AA?$CI?$AAv?$AAo?$AAi?$AAd?$AA?5?$AA?$CK?$AA?$CJ?$AA?5?$AA?$DM?$AA?$DN?$AA?5?$AA_?$AAP?$AAt?$AAr?$AA_?$AAu?$AAs?$AAe?$AAr@
	push	OFFSET ??_C@_17CNPHIMPH@?$AA?$CF?$AAl?$AAs?$AA?$AA@
	push	0
	mov	edx, DWORD PTR ?__LINE__Var@?0??_Deallocate@std@@YAXPAXII@Z@4JA
	add	edx, 26					; 0000001aH
	push	edx
	push	OFFSET ??_C@_1JA@DKOIEICI@?$AAc?$AA?3?$AA?2?$AAp?$AAr?$AAo?$AAg?$AAr?$AAa?$AAm?$AA?5?$AAf?$AAi?$AAl?$AAe?$AAs?$AA?5?$AA?$CI?$AAx?$AA8?$AA6?$AA?$CJ?$AA?2?$AAm?$AAi?$AAc?$AAr?$AAo?$AAs?$AAo?$AAf?$AAt@
	push	2
	call	DWORD PTR __imp___CrtDbgReportW
	add	esp, 24					; 00000018H
	cmp	esi, esp
	call	__RTC_CheckEsp
	cmp	eax, 1
	jne	SHORT $LN19@Deallocate
	int	3
$LN19@Deallocate:
	mov	esi, esp
	push	0
	mov	eax, DWORD PTR ?__LINE__Var@?0??_Deallocate@std@@YAXPAXII@Z@4JA
	add	eax, 26					; 0000001aH
	push	eax
	push	OFFSET ??_C@_1JA@DKOIEICI@?$AAc?$AA?3?$AA?2?$AAp?$AAr?$AAo?$AAg?$AAr?$AAa?$AAm?$AA?5?$AAf?$AAi?$AAl?$AAe?$AAs?$AA?5?$AA?$CI?$AAx?$AA8?$AA6?$AA?$CJ?$AA?2?$AAm?$AAi?$AAc?$AAr?$AAo?$AAs?$AAo?$AAf?$AAt@
	push	OFFSET ??_C@_1CC@LOFJFFDB@?$AAs?$AAt?$AAd?$AA?3?$AA?3?$AA_?$AAD?$AAe?$AAa?$AAl?$AAl?$AAo?$AAc?$AAa?$AAt?$AAe?$AA?$AA@
	push	OFFSET ??_C@_1CG@JNLFBNGN@?$AA?$CC?$AAi?$AAn?$AAv?$AAa?$AAl?$AAi?$AAd?$AA?5?$AAa?$AAr?$AAg?$AAu?$AAm?$AAe?$AAn?$AAt?$AA?$CC?$AA?$AA@
	call	DWORD PTR __imp___invalid_parameter
	add	esp, 20					; 00000014H
	cmp	esi, esp
	call	__RTC_CheckEsp
$LN7@Deallocate:

; 118  : 			<= _Ptr_user - _Ptr_container);
; 119  : 
; 120  :  #else /* _DEBUG */
; 121  : 		_SCL_SECURE_ALWAYS_VALIDATE(sizeof(void *)
; 122  : 			<= _Ptr_user - _Ptr_container);
; 123  :  #endif /* _DEBUG */
; 124  : 
; 125  : 		_SCL_SECURE_ALWAYS_VALIDATE(_Ptr_user - _Ptr_container

	mov	eax, DWORD PTR __Ptr_user$3[ebp]
	sub	eax, DWORD PTR __Ptr_container$1[ebp]
	cmp	eax, 39					; 00000027H
	jbe	SHORT $LN8@Deallocate
	mov	eax, OFFSET ??_C@_0CN@BLHJCAL@_Ptr_user?5?9?5_Ptr_container?5?$DM?$DN?5_N@
	test	eax, eax
	je	SHORT $LN20@Deallocate
	xor	ecx, ecx
	jne	SHORT $LN21@Deallocate
$LN20@Deallocate:
	mov	esi, esp
	push	OFFSET ??_C@_1GI@DHJGPFNI@?$AA?$CC?$AA_?$AAP?$AAt?$AAr?$AA_?$AAu?$AAs?$AAe?$AAr?$AA?5?$AA?9?$AA?5?$AA_?$AAP?$AAt?$AAr?$AA_?$AAc?$AAo?$AAn?$AAt?$AAa?$AAi?$AAn?$AAe?$AAr?$AA?5?$AA?$DM?$AA?$DN?$AA?5?$AA_@
	push	OFFSET ??_C@_17CNPHIMPH@?$AA?$CF?$AAl?$AAs?$AA?$AA@
	push	0
	mov	edx, DWORD PTR ?__LINE__Var@?0??_Deallocate@std@@YAXPAXII@Z@4JA
	add	edx, 34					; 00000022H
	push	edx
	push	OFFSET ??_C@_1JA@DKOIEICI@?$AAc?$AA?3?$AA?2?$AAp?$AAr?$AAo?$AAg?$AAr?$AAa?$AAm?$AA?5?$AAf?$AAi?$AAl?$AAe?$AAs?$AA?5?$AA?$CI?$AAx?$AA8?$AA6?$AA?$CJ?$AA?2?$AAm?$AAi?$AAc?$AAr?$AAo?$AAs?$AAo?$AAf?$AAt@
	push	2
	call	DWORD PTR __imp___CrtDbgReportW
	add	esp, 24					; 00000018H
	cmp	esi, esp
	call	__RTC_CheckEsp
	cmp	eax, 1
	jne	SHORT $LN21@Deallocate
	int	3
$LN21@Deallocate:
	mov	esi, esp
	push	0
	mov	eax, DWORD PTR ?__LINE__Var@?0??_Deallocate@std@@YAXPAXII@Z@4JA
	add	eax, 34					; 00000022H
	push	eax
	push	OFFSET ??_C@_1JA@DKOIEICI@?$AAc?$AA?3?$AA?2?$AAp?$AAr?$AAo?$AAg?$AAr?$AAa?$AAm?$AA?5?$AAf?$AAi?$AAl?$AAe?$AAs?$AA?5?$AA?$CI?$AAx?$AA8?$AA6?$AA?$CJ?$AA?2?$AAm?$AAi?$AAc?$AAr?$AAo?$AAs?$AAo?$AAf?$AAt@
	push	OFFSET ??_C@_1CC@LOFJFFDB@?$AAs?$AAt?$AAd?$AA?3?$AA?3?$AA_?$AAD?$AAe?$AAa?$AAl?$AAl?$AAo?$AAc?$AAa?$AAt?$AAe?$AA?$AA@
	push	OFFSET ??_C@_1CG@JNLFBNGN@?$AA?$CC?$AAi?$AAn?$AAv?$AAa?$AAl?$AAi?$AAd?$AA?5?$AAa?$AAr?$AAg?$AAu?$AAm?$AAe?$AAn?$AAt?$AA?$CC?$AA?$AA@
	call	DWORD PTR __imp___invalid_parameter
	add	esp, 20					; 00000014H
	cmp	esi, esp
	call	__RTC_CheckEsp
$LN8@Deallocate:

; 126  : 			<= _NON_USER_SIZE);
; 127  : 
; 128  : 		_Ptr = reinterpret_cast<void *>(_Ptr_container);

	mov	eax, DWORD PTR __Ptr_container$1[ebp]
	mov	DWORD PTR __Ptr$[ebp], eax
$LN3@Deallocate:

; 129  : 		}
; 130  :  #endif /* defined(_M_IX86) || defined(_M_X64) */
; 131  : 
; 132  : 	::operator delete(_Ptr);

	mov	eax, DWORD PTR __Ptr$[ebp]
	push	eax
	call	??3@YAXPAX@Z				; operator delete
	add	esp, 4

; 133  : 	}

	pop	edi
	pop	esi
	pop	ebx
	add	esp, 240				; 000000f0H
	cmp	ebp, esp
	call	__RTC_CheckEsp
	mov	esp, ebp
	pop	ebp
	ret	0
?_Deallocate@std@@YAXPAXII@Z ENDP			; std::_Deallocate
_TEXT	ENDS
; Function compile flags: /Odtp /RTCsu /ZI
; File c:\program files (x86)\microsoft visual studio 14.0\vc\include\xmemory0
;	COMDAT ?_Allocate@std@@YAPAXII_N@Z
_TEXT	SEGMENT
__Ptr_container$1 = -44					; size = 4
__Block_size$2 = -32					; size = 4
__User_size$ = -20					; size = 4
__Ptr$ = -8						; size = 4
__Count$ = 8						; size = 4
__Sz$ = 12						; size = 4
__Try_aligned_allocation$ = 16				; size = 1
?_Allocate@std@@YAPAXII_N@Z PROC			; std::_Allocate, COMDAT

; 48   : 	{	// allocate storage for _Count elements of size _Sz

	push	ebp
	mov	ebp, esp
	sub	esp, 240				; 000000f0H
	push	ebx
	push	esi
	push	edi
	lea	edi, DWORD PTR [ebp-240]
	mov	ecx, 60					; 0000003cH
	mov	eax, -858993460				; ccccccccH
	rep stosd

; 49   : 	void *_Ptr = 0;

	mov	DWORD PTR __Ptr$[ebp], 0

; 50   : 
; 51   : 	if (_Count == 0)

	cmp	DWORD PTR __Count$[ebp], 0
	jne	SHORT $LN2@Allocate

; 52   : 		return (_Ptr);

	mov	eax, DWORD PTR __Ptr$[ebp]
	jmp	$LN9@Allocate
$LN2@Allocate:

; 53   : 
; 54   : 	// check overflow of multiply
; 55   : 	if ((size_t)(-1) / _Sz < _Count)

	or	eax, -1
	xor	edx, edx
	div	DWORD PTR __Sz$[ebp]
	cmp	eax, DWORD PTR __Count$[ebp]
	jae	SHORT $LN3@Allocate

; 56   : 		_Xbad_alloc();	// report no memory

	mov	esi, esp
	call	DWORD PTR __imp_?_Xbad_alloc@std@@YAXXZ
	cmp	esi, esp
	call	__RTC_CheckEsp
$LN3@Allocate:

; 57   : 	const size_t _User_size = _Count * _Sz;

	mov	eax, DWORD PTR __Count$[ebp]
	imul	eax, DWORD PTR __Sz$[ebp]
	mov	DWORD PTR __User_size$[ebp], eax

; 58   : 
; 59   :  #if defined(_M_IX86) || defined(_M_X64)
; 60   : 	if (_Try_aligned_allocation
; 61   : 		&& _BIG_ALLOCATION_THRESHOLD <= _User_size)

	movzx	eax, BYTE PTR __Try_aligned_allocation$[ebp]
	test	eax, eax
	je	$LN4@Allocate
	cmp	DWORD PTR __User_size$[ebp], 4096	; 00001000H
	jb	$LN4@Allocate

; 62   : 		{	// allocate large block
; 63   : 		static_assert(sizeof (void *) < _BIG_ALLOCATION_ALIGNMENT,
; 64   : 			"Big allocations should at least match vector register size");
; 65   : 		const size_t _Block_size = _NON_USER_SIZE + _User_size;

	mov	eax, DWORD PTR __User_size$[ebp]
	add	eax, 39					; 00000027H
	mov	DWORD PTR __Block_size$2[ebp], eax

; 66   : 		if (_Block_size <= _User_size)

	mov	eax, DWORD PTR __Block_size$2[ebp]
	cmp	eax, DWORD PTR __User_size$[ebp]
	ja	SHORT $LN6@Allocate

; 67   : 			_Xbad_alloc();	// report no memory

	mov	esi, esp
	call	DWORD PTR __imp_?_Xbad_alloc@std@@YAXXZ
	cmp	esi, esp
	call	__RTC_CheckEsp
$LN6@Allocate:

; 68   : 		const uintptr_t _Ptr_container =
; 69   : 			reinterpret_cast<uintptr_t>(::operator new(_Block_size));

	mov	eax, DWORD PTR __Block_size$2[ebp]
	push	eax
	call	??2@YAPAXI@Z				; operator new
	add	esp, 4
	mov	DWORD PTR __Ptr_container$1[ebp], eax

; 70   : 		_SCL_SECURE_ALWAYS_VALIDATE(_Ptr_container != 0);

	cmp	DWORD PTR __Ptr_container$1[ebp], 0
	jne	SHORT $LN7@Allocate
	mov	eax, OFFSET ??_C@_0BE@LMNLACIC@_Ptr_container?5?$CB?$DN?50?$AA@
	test	eax, eax
	je	SHORT $LN10@Allocate
	xor	ecx, ecx
	jne	SHORT $LN11@Allocate
$LN10@Allocate:
	mov	esi, esp
	push	OFFSET ??_C@_1DG@HGDKEBPG@?$AA?$CC?$AA_?$AAP?$AAt?$AAr?$AA_?$AAc?$AAo?$AAn?$AAt?$AAa?$AAi?$AAn?$AAe?$AAr?$AA?5?$AA?$CB?$AA?$DN?$AA?5?$AA0?$AA?$CC?$AA?5?$AA?$CG?$AA?$CG?$AA?5?$AA0?$AA?$AA@
	push	OFFSET ??_C@_17CNPHIMPH@?$AA?$CF?$AAl?$AAs?$AA?$AA@
	push	0
	mov	edx, DWORD PTR ?__LINE__Var@?0??_Allocate@std@@YAPAXII_N@Z@4JA
	add	edx, 22					; 00000016H
	push	edx
	push	OFFSET ??_C@_1JA@DKOIEICI@?$AAc?$AA?3?$AA?2?$AAp?$AAr?$AAo?$AAg?$AAr?$AAa?$AAm?$AA?5?$AAf?$AAi?$AAl?$AAe?$AAs?$AA?5?$AA?$CI?$AAx?$AA8?$AA6?$AA?$CJ?$AA?2?$AAm?$AAi?$AAc?$AAr?$AAo?$AAs?$AAo?$AAf?$AAt@
	push	2
	call	DWORD PTR __imp___CrtDbgReportW
	add	esp, 24					; 00000018H
	cmp	esi, esp
	call	__RTC_CheckEsp
	cmp	eax, 1
	jne	SHORT $LN11@Allocate
	int	3
$LN11@Allocate:
	mov	esi, esp
	push	0
	mov	eax, DWORD PTR ?__LINE__Var@?0??_Allocate@std@@YAPAXII_N@Z@4JA
	add	eax, 22					; 00000016H
	push	eax
	push	OFFSET ??_C@_1JA@DKOIEICI@?$AAc?$AA?3?$AA?2?$AAp?$AAr?$AAo?$AAg?$AAr?$AAa?$AAm?$AA?5?$AAf?$AAi?$AAl?$AAe?$AAs?$AA?5?$AA?$CI?$AAx?$AA8?$AA6?$AA?$CJ?$AA?2?$AAm?$AAi?$AAc?$AAr?$AAo?$AAs?$AAo?$AAf?$AAt@
	push	OFFSET ??_C@_1BO@NKFMJPA@?$AAs?$AAt?$AAd?$AA?3?$AA?3?$AA_?$AAA?$AAl?$AAl?$AAo?$AAc?$AAa?$AAt?$AAe?$AA?$AA@
	push	OFFSET ??_C@_1CG@JNLFBNGN@?$AA?$CC?$AAi?$AAn?$AAv?$AAa?$AAl?$AAi?$AAd?$AA?5?$AAa?$AAr?$AAg?$AAu?$AAm?$AAe?$AAn?$AAt?$AA?$CC?$AA?$AA@
	call	DWORD PTR __imp___invalid_parameter
	add	esp, 20					; 00000014H
	cmp	esi, esp
	call	__RTC_CheckEsp
$LN7@Allocate:

; 71   : 		_Ptr = reinterpret_cast<void *>((_Ptr_container + _NON_USER_SIZE)

	mov	eax, DWORD PTR __Ptr_container$1[ebp]
	add	eax, 39					; 00000027H
	and	eax, -32				; ffffffe0H
	mov	DWORD PTR __Ptr$[ebp], eax

; 72   : 			& ~(_BIG_ALLOCATION_ALIGNMENT - 1));
; 73   : 		static_cast<uintptr_t *>(_Ptr)[-1] = _Ptr_container;

	mov	eax, 4
	imul	ecx, eax, -1
	mov	edx, DWORD PTR __Ptr$[ebp]
	mov	eax, DWORD PTR __Ptr_container$1[ebp]
	mov	DWORD PTR [edx+ecx], eax

; 74   : 
; 75   :  #ifdef _DEBUG
; 76   : 		static_cast<uintptr_t *>(_Ptr)[-2] = _BIG_ALLOCATION_SENTINEL;

	mov	eax, 4
	imul	ecx, eax, -2
	mov	edx, DWORD PTR __Ptr$[ebp]
	mov	DWORD PTR [edx+ecx], -84215046		; fafafafaH

; 77   :  #endif /* _DEBUG */
; 78   : 		}
; 79   : 	else

	jmp	$LN5@Allocate
$LN4@Allocate:

; 80   :  #endif /* defined(_M_IX86) || defined(_M_X64) */
; 81   : 
; 82   : 		{	// allocate normal block
; 83   : 		_Ptr = ::operator new(_User_size);

	mov	eax, DWORD PTR __User_size$[ebp]
	push	eax
	call	??2@YAPAXI@Z				; operator new
	add	esp, 4
	mov	DWORD PTR __Ptr$[ebp], eax

; 84   : 		_SCL_SECURE_ALWAYS_VALIDATE(_Ptr != 0);

	cmp	DWORD PTR __Ptr$[ebp], 0
	jne	SHORT $LN5@Allocate
	mov	eax, OFFSET ??_C@_09GLJCAGLP@_Ptr?5?$CB?$DN?50?$AA@
	test	eax, eax
	je	SHORT $LN12@Allocate
	xor	ecx, ecx
	jne	SHORT $LN13@Allocate
$LN12@Allocate:
	mov	esi, esp
	push	OFFSET ??_C@_1CC@GKJLLHIM@?$AA?$CC?$AA_?$AAP?$AAt?$AAr?$AA?5?$AA?$CB?$AA?$DN?$AA?5?$AA0?$AA?$CC?$AA?5?$AA?$CG?$AA?$CG?$AA?5?$AA0?$AA?$AA@
	push	OFFSET ??_C@_17CNPHIMPH@?$AA?$CF?$AAl?$AAs?$AA?$AA@
	push	0
	mov	edx, DWORD PTR ?__LINE__Var@?0??_Allocate@std@@YAPAXII_N@Z@4JA
	add	edx, 36					; 00000024H
	push	edx
	push	OFFSET ??_C@_1JA@DKOIEICI@?$AAc?$AA?3?$AA?2?$AAp?$AAr?$AAo?$AAg?$AAr?$AAa?$AAm?$AA?5?$AAf?$AAi?$AAl?$AAe?$AAs?$AA?5?$AA?$CI?$AAx?$AA8?$AA6?$AA?$CJ?$AA?2?$AAm?$AAi?$AAc?$AAr?$AAo?$AAs?$AAo?$AAf?$AAt@
	push	2
	call	DWORD PTR __imp___CrtDbgReportW
	add	esp, 24					; 00000018H
	cmp	esi, esp
	call	__RTC_CheckEsp
	cmp	eax, 1
	jne	SHORT $LN13@Allocate
	int	3
$LN13@Allocate:
	mov	esi, esp
	push	0
	mov	eax, DWORD PTR ?__LINE__Var@?0??_Allocate@std@@YAPAXII_N@Z@4JA
	add	eax, 36					; 00000024H
	push	eax
	push	OFFSET ??_C@_1JA@DKOIEICI@?$AAc?$AA?3?$AA?2?$AAp?$AAr?$AAo?$AAg?$AAr?$AAa?$AAm?$AA?5?$AAf?$AAi?$AAl?$AAe?$AAs?$AA?5?$AA?$CI?$AAx?$AA8?$AA6?$AA?$CJ?$AA?2?$AAm?$AAi?$AAc?$AAr?$AAo?$AAs?$AAo?$AAf?$AAt@
	push	OFFSET ??_C@_1BO@NKFMJPA@?$AAs?$AAt?$AAd?$AA?3?$AA?3?$AA_?$AAA?$AAl?$AAl?$AAo?$AAc?$AAa?$AAt?$AAe?$AA?$AA@
	push	OFFSET ??_C@_1CG@JNLFBNGN@?$AA?$CC?$AAi?$AAn?$AAv?$AAa?$AAl?$AAi?$AAd?$AA?5?$AAa?$AAr?$AAg?$AAu?$AAm?$AAe?$AAn?$AAt?$AA?$CC?$AA?$AA@
	call	DWORD PTR __imp___invalid_parameter
	add	esp, 20					; 00000014H
	cmp	esi, esp
	call	__RTC_CheckEsp
$LN5@Allocate:

; 85   : 		}
; 86   : 	return (_Ptr);

	mov	eax, DWORD PTR __Ptr$[ebp]
$LN9@Allocate:

; 87   : 	}

	pop	edi
	pop	esi
	pop	ebx
	add	esp, 240				; 000000f0H
	cmp	ebp, esp
	call	__RTC_CheckEsp
	mov	esp, ebp
	pop	ebp
	ret	0
?_Allocate@std@@YAPAXII_N@Z ENDP			; std::_Allocate
_TEXT	ENDS
; Function compile flags: /Odtp /RTCsu /ZI
; File c:\program files (x86)\microsoft visual studio 14.0\vc\include\xutility
;	COMDAT ?_Orphan_me@_Iterator_base12@std@@QAEXXZ
_TEXT	SEGMENT
__Pnext$1 = -20						; size = 4
_this$ = -8						; size = 4
?_Orphan_me@_Iterator_base12@std@@QAEXXZ PROC		; std::_Iterator_base12::_Orphan_me, COMDAT
; _this$ = ecx

; 192  : 		{	// cut ties with parent

	push	ebp
	mov	ebp, esp
	sub	esp, 216				; 000000d8H
	push	ebx
	push	esi
	push	edi
	push	ecx
	lea	edi, DWORD PTR [ebp-216]
	mov	ecx, 54					; 00000036H
	mov	eax, -858993460				; ccccccccH
	rep stosd
	pop	ecx
	mov	DWORD PTR _this$[ebp], ecx

; 193  :  #if _ITERATOR_DEBUG_LEVEL == 2
; 194  : 		if (_Myproxy != 0)

	mov	eax, DWORD PTR _this$[ebp]
	cmp	DWORD PTR [eax], 0
	je	SHORT $LN1@Orphan_me

; 195  : 			{	// adopted, remove self from list
; 196  : 			_Iterator_base12 **_Pnext = &_Myproxy->_Myfirstiter;

	mov	eax, DWORD PTR _this$[ebp]
	mov	ecx, DWORD PTR [eax]
	add	ecx, 4
	mov	DWORD PTR __Pnext$1[ebp], ecx
$LN2@Orphan_me:

; 197  : 			while (*_Pnext != 0 && *_Pnext != this)

	mov	eax, DWORD PTR __Pnext$1[ebp]
	cmp	DWORD PTR [eax], 0
	je	SHORT $LN3@Orphan_me
	mov	eax, DWORD PTR __Pnext$1[ebp]
	mov	ecx, DWORD PTR [eax]
	cmp	ecx, DWORD PTR _this$[ebp]
	je	SHORT $LN3@Orphan_me

; 198  : 				_Pnext = &(*_Pnext)->_Mynextiter;

	mov	eax, DWORD PTR __Pnext$1[ebp]
	mov	ecx, DWORD PTR [eax]
	add	ecx, 4
	mov	DWORD PTR __Pnext$1[ebp], ecx
	jmp	SHORT $LN2@Orphan_me
$LN3@Orphan_me:

; 199  : 
; 200  : 			if (*_Pnext == 0)

	mov	eax, DWORD PTR __Pnext$1[ebp]
	cmp	DWORD PTR [eax], 0
	jne	SHORT $LN5@Orphan_me

; 201  : 				_DEBUG_ERROR("ITERATOR LIST CORRUPTED!");

	mov	esi, esp
	push	201					; 000000c9H
	push	OFFSET ??_C@_1JA@MHADJNIL@?$AAc?$AA?3?$AA?2?$AAp?$AAr?$AAo?$AAg?$AAr?$AAa?$AAm?$AA?5?$AAf?$AAi?$AAl?$AAe?$AAs?$AA?5?$AA?$CI?$AAx?$AA8?$AA6?$AA?$CJ?$AA?2?$AAm?$AAi?$AAc?$AAr?$AAo?$AAs?$AAo?$AAf?$AAt@
	push	OFFSET ??_C@_1DC@POOIKBAO@?$AAI?$AAT?$AAE?$AAR?$AAA?$AAT?$AAO?$AAR?$AA?5?$AAL?$AAI?$AAS?$AAT?$AA?5?$AAC?$AAO?$AAR?$AAR?$AAU?$AAP?$AAT?$AAE?$AAD?$AA?$CB?$AA?$AA@
	call	DWORD PTR __imp_?_Debug_message@std@@YAXPB_W0I@Z
	add	esp, 12					; 0000000cH
	cmp	esi, esp
	call	__RTC_CheckEsp
$LN5@Orphan_me:

; 202  : 			*_Pnext = _Mynextiter;

	mov	eax, DWORD PTR __Pnext$1[ebp]
	mov	ecx, DWORD PTR _this$[ebp]
	mov	edx, DWORD PTR [ecx+4]
	mov	DWORD PTR [eax], edx

; 203  : 			_Myproxy = 0;

	mov	eax, DWORD PTR _this$[ebp]
	mov	DWORD PTR [eax], 0
$LN1@Orphan_me:

; 204  : 			}
; 205  :  #endif /* _ITERATOR_DEBUG_LEVEL == 2 */
; 206  : 		}

	pop	edi
	pop	esi
	pop	ebx
	add	esp, 216				; 000000d8H
	cmp	ebp, esp
	call	__RTC_CheckEsp
	mov	esp, ebp
	pop	ebp
	ret	0
?_Orphan_me@_Iterator_base12@std@@QAEXXZ ENDP		; std::_Iterator_base12::_Orphan_me
_TEXT	ENDS
; Function compile flags: /Odtp /RTCsu /ZI
; File c:\program files (x86)\microsoft visual studio 14.0\vc\include\xutility
;	COMDAT ?_Getpnext@_Iterator_base12@std@@QAEPAPAU12@XZ
_TEXT	SEGMENT
_this$ = -8						; size = 4
?_Getpnext@_Iterator_base12@std@@QAEPAPAU12@XZ PROC	; std::_Iterator_base12::_Getpnext, COMDAT
; _this$ = ecx

; 187  : 		{	// get address of remaining iterator chain

	push	ebp
	mov	ebp, esp
	sub	esp, 204				; 000000ccH
	push	ebx
	push	esi
	push	edi
	push	ecx
	lea	edi, DWORD PTR [ebp-204]
	mov	ecx, 51					; 00000033H
	mov	eax, -858993460				; ccccccccH
	rep stosd
	pop	ecx
	mov	DWORD PTR _this$[ebp], ecx

; 188  : 		return (&_Mynextiter);

	mov	eax, DWORD PTR _this$[ebp]
	add	eax, 4

; 189  : 		}

	pop	edi
	pop	esi
	pop	ebx
	mov	esp, ebp
	pop	ebp
	ret	0
?_Getpnext@_Iterator_base12@std@@QAEPAPAU12@XZ ENDP	; std::_Iterator_base12::_Getpnext
_TEXT	ENDS
; Function compile flags: /Odtp /RTCsu /ZI
; File c:\program files (x86)\microsoft visual studio 14.0\vc\include\xutility
;	COMDAT ?_Getcont@_Iterator_base12@std@@QBEPBU_Container_base12@2@XZ
_TEXT	SEGMENT
tv68 = -208						; size = 4
_this$ = -8						; size = 4
?_Getcont@_Iterator_base12@std@@QBEPBU_Container_base12@2@XZ PROC ; std::_Iterator_base12::_Getcont, COMDAT
; _this$ = ecx

; 182  : 		{	// get owning container

	push	ebp
	mov	ebp, esp
	sub	esp, 208				; 000000d0H
	push	ebx
	push	esi
	push	edi
	push	ecx
	lea	edi, DWORD PTR [ebp-208]
	mov	ecx, 52					; 00000034H
	mov	eax, -858993460				; ccccccccH
	rep stosd
	pop	ecx
	mov	DWORD PTR _this$[ebp], ecx

; 183  : 		return (_Myproxy == 0 ? 0 : _Myproxy->_Mycont);

	mov	eax, DWORD PTR _this$[ebp]
	cmp	DWORD PTR [eax], 0
	jne	SHORT $LN3@Getcont
	mov	DWORD PTR tv68[ebp], 0
	jmp	SHORT $LN4@Getcont
$LN3@Getcont:
	mov	ecx, DWORD PTR _this$[ebp]
	mov	edx, DWORD PTR [ecx]
	mov	eax, DWORD PTR [edx]
	mov	DWORD PTR tv68[ebp], eax
$LN4@Getcont:
	mov	eax, DWORD PTR tv68[ebp]

; 184  : 		}

	pop	edi
	pop	esi
	pop	ebx
	mov	esp, ebp
	pop	ebp
	ret	0
?_Getcont@_Iterator_base12@std@@QBEPBU_Container_base12@2@XZ ENDP ; std::_Iterator_base12::_Getcont
_TEXT	ENDS
; Function compile flags: /Odtp /RTCsu /ZI
; File c:\program files (x86)\microsoft visual studio 14.0\vc\include\xutility
;	COMDAT ?_Clrcont@_Iterator_base12@std@@QAEXXZ
_TEXT	SEGMENT
_this$ = -8						; size = 4
?_Clrcont@_Iterator_base12@std@@QAEXXZ PROC		; std::_Iterator_base12::_Clrcont, COMDAT
; _this$ = ecx

; 177  : 		{	// disown owning container

	push	ebp
	mov	ebp, esp
	sub	esp, 204				; 000000ccH
	push	ebx
	push	esi
	push	edi
	push	ecx
	lea	edi, DWORD PTR [ebp-204]
	mov	ecx, 51					; 00000033H
	mov	eax, -858993460				; ccccccccH
	rep stosd
	pop	ecx
	mov	DWORD PTR _this$[ebp], ecx

; 178  : 		_Myproxy = 0;

	mov	eax, DWORD PTR _this$[ebp]
	mov	DWORD PTR [eax], 0

; 179  : 		}

	pop	edi
	pop	esi
	pop	ebx
	mov	esp, ebp
	pop	ebp
	ret	0
?_Clrcont@_Iterator_base12@std@@QAEXXZ ENDP		; std::_Iterator_base12::_Clrcont
_TEXT	ENDS
; Function compile flags: /Odtp /RTCsu /ZI
; File c:\program files (x86)\microsoft visual studio 14.0\vc\include\xutility
;	COMDAT ?_Adopt@_Iterator_base12@std@@QAEXPBU_Container_base12@2@@Z
_TEXT	SEGMENT
__Lock$2 = -60						; size = 4
__Parent_proxy$3 = -48					; size = 4
__Lock$4 = -36						; size = 4
_this$ = -24						; size = 4
__$ArrayPad$ = -16					; size = 4
__$EHRec$ = -12						; size = 12
__Parent$ = 8						; size = 4
?_Adopt@_Iterator_base12@std@@QAEXPBU_Container_base12@2@@Z PROC ; std::_Iterator_base12::_Adopt, COMDAT
; _this$ = ecx

; 148  : 		{	// adopt this iterator by parent

	push	ebp
	mov	ebp, esp
	push	-1
	push	__ehhandler$?_Adopt@_Iterator_base12@std@@QAEXPBU_Container_base12@2@@Z
	mov	eax, DWORD PTR fs:0
	push	eax
	sub	esp, 244				; 000000f4H
	push	ebx
	push	esi
	push	edi
	push	ecx
	lea	edi, DWORD PTR [ebp-256]
	mov	ecx, 61					; 0000003dH
	mov	eax, -858993460				; ccccccccH
	rep stosd
	pop	ecx
	mov	eax, DWORD PTR ___security_cookie
	xor	eax, ebp
	mov	DWORD PTR __$ArrayPad$[ebp], eax
	push	eax
	lea	eax, DWORD PTR __$EHRec$[ebp]
	mov	DWORD PTR fs:0, eax
	mov	DWORD PTR _this$[ebp], ecx

; 149  : 		if (_Parent == 0)

	cmp	DWORD PTR __Parent$[ebp], 0
	jne	SHORT $LN2@Adopt

; 150  : 			{	// no future parent, just disown current parent
; 151  :  #if _ITERATOR_DEBUG_LEVEL == 2
; 152  : 			_Lockit _Lock(_LOCK_DEBUG);

	mov	esi, esp
	push	3
	lea	ecx, DWORD PTR __Lock$4[ebp]
	call	DWORD PTR __imp_??0_Lockit@std@@QAE@H@Z
	cmp	esi, esp
	call	__RTC_CheckEsp
	mov	DWORD PTR __$EHRec$[ebp+8], 0

; 153  : 			_Orphan_me();

	mov	ecx, DWORD PTR _this$[ebp]
	call	?_Orphan_me@_Iterator_base12@std@@QAEXXZ ; std::_Iterator_base12::_Orphan_me

; 154  :  #endif /* _ITERATOR_DEBUG_LEVEL == 2 */
; 155  : 			}

	mov	DWORD PTR __$EHRec$[ebp+8], -1
	mov	esi, esp
	lea	ecx, DWORD PTR __Lock$4[ebp]
	call	DWORD PTR __imp_??1_Lockit@std@@QAE@XZ
	cmp	esi, esp
	call	__RTC_CheckEsp

; 156  : 		else

	jmp	SHORT $LN1@Adopt
$LN2@Adopt:

; 157  : 			{	// have a parent, do adoption
; 158  : 			_Container_proxy *_Parent_proxy = _Parent->_Myproxy;

	mov	eax, DWORD PTR __Parent$[ebp]
	mov	ecx, DWORD PTR [eax]
	mov	DWORD PTR __Parent_proxy$3[ebp], ecx

; 159  : 
; 160  :  #if _ITERATOR_DEBUG_LEVEL == 2
; 161  : 			if (_Myproxy != _Parent_proxy)

	mov	eax, DWORD PTR _this$[ebp]
	mov	ecx, DWORD PTR [eax]
	cmp	ecx, DWORD PTR __Parent_proxy$3[ebp]
	je	SHORT $LN1@Adopt

; 162  : 				{	// change parentage
; 163  : 				_Lockit _Lock(_LOCK_DEBUG);

	mov	esi, esp
	push	3
	lea	ecx, DWORD PTR __Lock$2[ebp]
	call	DWORD PTR __imp_??0_Lockit@std@@QAE@H@Z
	cmp	esi, esp
	call	__RTC_CheckEsp
	mov	DWORD PTR __$EHRec$[ebp+8], 1

; 164  : 				_Orphan_me();

	mov	ecx, DWORD PTR _this$[ebp]
	call	?_Orphan_me@_Iterator_base12@std@@QAEXXZ ; std::_Iterator_base12::_Orphan_me

; 165  : 				_Mynextiter = _Parent_proxy->_Myfirstiter;

	mov	eax, DWORD PTR _this$[ebp]
	mov	ecx, DWORD PTR __Parent_proxy$3[ebp]
	mov	edx, DWORD PTR [ecx+4]
	mov	DWORD PTR [eax+4], edx

; 166  : 				_Parent_proxy->_Myfirstiter = this;

	mov	eax, DWORD PTR __Parent_proxy$3[ebp]
	mov	ecx, DWORD PTR _this$[ebp]
	mov	DWORD PTR [eax+4], ecx

; 167  : 				_Myproxy = _Parent_proxy;

	mov	eax, DWORD PTR _this$[ebp]
	mov	ecx, DWORD PTR __Parent_proxy$3[ebp]
	mov	DWORD PTR [eax], ecx

; 168  : 				}

	mov	DWORD PTR __$EHRec$[ebp+8], -1
	mov	esi, esp
	lea	ecx, DWORD PTR __Lock$2[ebp]
	call	DWORD PTR __imp_??1_Lockit@std@@QAE@XZ
	cmp	esi, esp
	call	__RTC_CheckEsp
$LN1@Adopt:

; 169  : 
; 170  :  #else /* _ITERATOR_DEBUG_LEVEL == 2 */
; 171  : 			_Myproxy = _Parent_proxy;
; 172  :  #endif /* _ITERATOR_DEBUG_LEVEL == 2 */
; 173  : 			}
; 174  : 		}

	push	edx
	mov	ecx, ebp
	push	eax
	lea	edx, DWORD PTR $LN12@Adopt
	call	@_RTC_CheckStackVars@8
	pop	eax
	pop	edx
	mov	ecx, DWORD PTR __$EHRec$[ebp]
	mov	DWORD PTR fs:0, ecx
	pop	ecx
	pop	edi
	pop	esi
	pop	ebx
	mov	ecx, DWORD PTR __$ArrayPad$[ebp]
	xor	ecx, ebp
	call	@__security_check_cookie@4
	add	esp, 256				; 00000100H
	cmp	ebp, esp
	call	__RTC_CheckEsp
	mov	esp, ebp
	pop	ebp
	ret	4
$LN12@Adopt:
	DD	2
	DD	$LN11@Adopt
$LN11@Adopt:
	DD	-36					; ffffffdcH
	DD	4
	DD	$LN8@Adopt
	DD	-60					; ffffffc4H
	DD	4
	DD	$LN9@Adopt
$LN9@Adopt:
	DB	95					; 0000005fH
	DB	76					; 0000004cH
	DB	111					; 0000006fH
	DB	99					; 00000063H
	DB	107					; 0000006bH
	DB	0
$LN8@Adopt:
	DB	95					; 0000005fH
	DB	76					; 0000004cH
	DB	111					; 0000006fH
	DB	99					; 00000063H
	DB	107					; 0000006bH
	DB	0
_TEXT	ENDS
;	COMDAT text$x
text$x	SEGMENT
__unwindfunclet$?_Adopt@_Iterator_base12@std@@QAEXPBU_Container_base12@2@@Z$0:
	mov	esi, esp
	lea	ecx, DWORD PTR __Lock$4[ebp]
	call	DWORD PTR __imp_??1_Lockit@std@@QAE@XZ
	cmp	esi, esp
	jmp	__RTC_CheckEsp
__unwindfunclet$?_Adopt@_Iterator_base12@std@@QAEXPBU_Container_base12@2@@Z$1:
	mov	esi, esp
	lea	ecx, DWORD PTR __Lock$2[ebp]
	call	DWORD PTR __imp_??1_Lockit@std@@QAE@XZ
	cmp	esi, esp
	jmp	__RTC_CheckEsp
__ehhandler$?_Adopt@_Iterator_base12@std@@QAEXPBU_Container_base12@2@@Z:
	mov	edx, DWORD PTR [esp+8]
	lea	eax, DWORD PTR [edx+12]
	mov	ecx, DWORD PTR [edx-260]
	xor	ecx, eax
	call	@__security_check_cookie@4
	mov	ecx, DWORD PTR [edx-4]
	xor	ecx, eax
	call	@__security_check_cookie@4
	mov	eax, OFFSET __ehfuncinfo$?_Adopt@_Iterator_base12@std@@QAEXPBU_Container_base12@2@@Z
	jmp	___CxxFrameHandler3
text$x	ENDS
?_Adopt@_Iterator_base12@std@@QAEXPBU_Container_base12@2@@Z ENDP ; std::_Iterator_base12::_Adopt
; Function compile flags: /Odtp /RTCsu /ZI
; File c:\program files (x86)\microsoft visual studio 14.0\vc\include\xutility
;	COMDAT ??1_Iterator_base12@std@@QAE@XZ
_TEXT	SEGMENT
__Lock$ = -36						; size = 4
_this$ = -24						; size = 4
__$ArrayPad$ = -16					; size = 4
__$EHRec$ = -12						; size = 12
??1_Iterator_base12@std@@QAE@XZ PROC			; std::_Iterator_base12::~_Iterator_base12, COMDAT
; _this$ = ecx

; 140  : 		{	// destroy the iterator

	push	ebp
	mov	ebp, esp
	push	-1
	push	__ehhandler$??1_Iterator_base12@std@@QAE@XZ
	mov	eax, DWORD PTR fs:0
	push	eax
	sub	esp, 220				; 000000dcH
	push	ebx
	push	esi
	push	edi
	push	ecx
	lea	edi, DWORD PTR [ebp-232]
	mov	ecx, 55					; 00000037H
	mov	eax, -858993460				; ccccccccH
	rep stosd
	pop	ecx
	mov	eax, DWORD PTR ___security_cookie
	xor	eax, ebp
	mov	DWORD PTR __$ArrayPad$[ebp], eax
	push	eax
	lea	eax, DWORD PTR __$EHRec$[ebp]
	mov	DWORD PTR fs:0, eax
	mov	DWORD PTR _this$[ebp], ecx

; 141  :  #if _ITERATOR_DEBUG_LEVEL == 2
; 142  : 		_Lockit _Lock(_LOCK_DEBUG);

	mov	esi, esp
	push	3
	lea	ecx, DWORD PTR __Lock$[ebp]
	call	DWORD PTR __imp_??0_Lockit@std@@QAE@H@Z
	cmp	esi, esp
	call	__RTC_CheckEsp

; 143  : 		_Orphan_me();

	mov	ecx, DWORD PTR _this$[ebp]
	call	?_Orphan_me@_Iterator_base12@std@@QAEXXZ ; std::_Iterator_base12::_Orphan_me

; 144  :  #endif /* _ITERATOR_DEBUG_LEVEL == 2 */
; 145  : 		}

	mov	esi, esp
	lea	ecx, DWORD PTR __Lock$[ebp]
	call	DWORD PTR __imp_??1_Lockit@std@@QAE@XZ
	cmp	esi, esp
	call	__RTC_CheckEsp
	push	edx
	mov	ecx, ebp
	push	eax
	lea	edx, DWORD PTR $LN6@Iterator_b
	call	@_RTC_CheckStackVars@8
	pop	eax
	pop	edx
	mov	ecx, DWORD PTR __$EHRec$[ebp]
	mov	DWORD PTR fs:0, ecx
	pop	ecx
	pop	edi
	pop	esi
	pop	ebx
	mov	ecx, DWORD PTR __$ArrayPad$[ebp]
	xor	ecx, ebp
	call	@__security_check_cookie@4
	add	esp, 232				; 000000e8H
	cmp	ebp, esp
	call	__RTC_CheckEsp
	mov	esp, ebp
	pop	ebp
	ret	0
	npad	3
$LN6@Iterator_b:
	DD	1
	DD	$LN5@Iterator_b
$LN5@Iterator_b:
	DD	-36					; ffffffdcH
	DD	4
	DD	$LN3@Iterator_b
$LN3@Iterator_b:
	DB	95					; 0000005fH
	DB	76					; 0000004cH
	DB	111					; 0000006fH
	DB	99					; 00000063H
	DB	107					; 0000006bH
	DB	0
_TEXT	ENDS
;	COMDAT text$x
text$x	SEGMENT
__ehhandler$??1_Iterator_base12@std@@QAE@XZ:
	mov	edx, DWORD PTR [esp+8]
	lea	eax, DWORD PTR [edx+12]
	mov	ecx, DWORD PTR [edx-236]
	xor	ecx, eax
	call	@__security_check_cookie@4
	mov	ecx, DWORD PTR [edx-4]
	xor	ecx, eax
	call	@__security_check_cookie@4
	mov	eax, OFFSET __ehfuncinfo$??1_Iterator_base12@std@@QAE@XZ
	jmp	___CxxFrameHandler3
text$x	ENDS
??1_Iterator_base12@std@@QAE@XZ ENDP			; std::_Iterator_base12::~_Iterator_base12
; Function compile flags: /Odtp /RTCsu /ZI
; File c:\program files (x86)\microsoft visual studio 14.0\vc\include\xutility
;	COMDAT ??0_Iterator_base12@std@@QAE@XZ
_TEXT	SEGMENT
_this$ = -8						; size = 4
??0_Iterator_base12@std@@QAE@XZ PROC			; std::_Iterator_base12::_Iterator_base12, COMDAT
; _this$ = ecx

; 114  : 		{	// construct orphaned iterator

	push	ebp
	mov	ebp, esp
	sub	esp, 204				; 000000ccH
	push	ebx
	push	esi
	push	edi
	push	ecx
	lea	edi, DWORD PTR [ebp-204]
	mov	ecx, 51					; 00000033H
	mov	eax, -858993460				; ccccccccH
	rep stosd
	pop	ecx
	mov	DWORD PTR _this$[ebp], ecx

; 113  : 		: _Myproxy(0), _Mynextiter(0)

	mov	eax, DWORD PTR _this$[ebp]
	mov	DWORD PTR [eax], 0
	mov	eax, DWORD PTR _this$[ebp]
	mov	DWORD PTR [eax+4], 0

; 115  : 		}

	mov	eax, DWORD PTR _this$[ebp]
	pop	edi
	pop	esi
	pop	ebx
	mov	esp, ebp
	pop	ebp
	ret	0
??0_Iterator_base12@std@@QAE@XZ ENDP			; std::_Iterator_base12::_Iterator_base12
_TEXT	ENDS
; Function compile flags: /Odtp /RTCsu /ZI
; File c:\program files (x86)\microsoft visual studio 14.0\vc\include\xutility
;	COMDAT ?_Orphan_all@_Container_base12@std@@QAEXXZ
_TEXT	SEGMENT
__Pnext$1 = -36						; size = 4
__Lock$2 = -24						; size = 4
_this$ = -12						; size = 4
__$ArrayPad$ = -4					; size = 4
?_Orphan_all@_Container_base12@std@@QAEXXZ PROC		; std::_Container_base12::_Orphan_all, COMDAT
; _this$ = ecx

; 214  : 	{	// orphan all iterators

	push	ebp
	mov	ebp, esp
	sub	esp, 232				; 000000e8H
	push	ebx
	push	esi
	push	edi
	push	ecx
	lea	edi, DWORD PTR [ebp-232]
	mov	ecx, 58					; 0000003aH
	mov	eax, -858993460				; ccccccccH
	rep stosd
	pop	ecx
	mov	eax, DWORD PTR ___security_cookie
	xor	eax, ebp
	mov	DWORD PTR __$ArrayPad$[ebp], eax
	mov	DWORD PTR _this$[ebp], ecx

; 215  :  #if _ITERATOR_DEBUG_LEVEL == 2
; 216  : 	if (_Myproxy != 0)

	mov	eax, DWORD PTR _this$[ebp]
	cmp	DWORD PTR [eax], 0
	je	SHORT $LN1@Orphan_all

; 217  : 		{	// proxy allocated, drain it
; 218  : 		_Lockit _Lock(_LOCK_DEBUG);

	mov	esi, esp
	push	3
	lea	ecx, DWORD PTR __Lock$2[ebp]
	call	DWORD PTR __imp_??0_Lockit@std@@QAE@H@Z
	cmp	esi, esp
	call	__RTC_CheckEsp

; 219  : 
; 220  : 		for (_Iterator_base12 **_Pnext = &_Myproxy->_Myfirstiter;

	mov	eax, DWORD PTR _this$[ebp]
	mov	ecx, DWORD PTR [eax]
	add	ecx, 4
	mov	DWORD PTR __Pnext$1[ebp], ecx
	jmp	SHORT $LN4@Orphan_all
$LN2@Orphan_all:

; 221  : 			*_Pnext != 0; *_Pnext = (*_Pnext)->_Mynextiter)

	mov	eax, DWORD PTR __Pnext$1[ebp]
	mov	ecx, DWORD PTR [eax]
	mov	edx, DWORD PTR __Pnext$1[ebp]
	mov	eax, DWORD PTR [ecx+4]
	mov	DWORD PTR [edx], eax
$LN4@Orphan_all:
	mov	eax, DWORD PTR __Pnext$1[ebp]
	cmp	DWORD PTR [eax], 0
	je	SHORT $LN3@Orphan_all

; 222  : 			(*_Pnext)->_Myproxy = 0;

	mov	eax, DWORD PTR __Pnext$1[ebp]
	mov	ecx, DWORD PTR [eax]
	mov	DWORD PTR [ecx], 0
	jmp	SHORT $LN2@Orphan_all
$LN3@Orphan_all:

; 223  : 		_Myproxy->_Myfirstiter = 0;

	mov	eax, DWORD PTR _this$[ebp]
	mov	ecx, DWORD PTR [eax]
	mov	DWORD PTR [ecx+4], 0

; 224  : 		}

	mov	esi, esp
	lea	ecx, DWORD PTR __Lock$2[ebp]
	call	DWORD PTR __imp_??1_Lockit@std@@QAE@XZ
	cmp	esi, esp
	call	__RTC_CheckEsp
$LN1@Orphan_all:

; 225  :  #endif /* _ITERATOR_DEBUG_LEVEL == 2 */
; 226  : 	}

	push	edx
	mov	ecx, ebp
	push	eax
	lea	edx, DWORD PTR $LN10@Orphan_all
	call	@_RTC_CheckStackVars@8
	pop	eax
	pop	edx
	pop	edi
	pop	esi
	pop	ebx
	mov	ecx, DWORD PTR __$ArrayPad$[ebp]
	xor	ecx, ebp
	call	@__security_check_cookie@4
	add	esp, 232				; 000000e8H
	cmp	ebp, esp
	call	__RTC_CheckEsp
	mov	esp, ebp
	pop	ebp
	ret	0
	npad	3
$LN10@Orphan_all:
	DD	1
	DD	$LN9@Orphan_all
$LN9@Orphan_all:
	DD	-24					; ffffffe8H
	DD	4
	DD	$LN8@Orphan_all
$LN8@Orphan_all:
	DB	95					; 0000005fH
	DB	76					; 0000004cH
	DB	111					; 0000006fH
	DB	99					; 00000063H
	DB	107					; 0000006bH
	DB	0
?_Orphan_all@_Container_base12@std@@QAEXXZ ENDP		; std::_Container_base12::_Orphan_all
_TEXT	ENDS
; Function compile flags: /Odtp /RTCsu /ZI
; File c:\program files (x86)\microsoft visual studio 14.0\vc\include\xutility
;	COMDAT ?_Getpfirst@_Container_base12@std@@QBEPAPAU_Iterator_base12@2@XZ
_TEXT	SEGMENT
tv68 = -208						; size = 4
_this$ = -8						; size = 4
?_Getpfirst@_Container_base12@std@@QBEPAPAU_Iterator_base12@2@XZ PROC ; std::_Container_base12::_Getpfirst, COMDAT
; _this$ = ecx

; 99   : 		{	// get address of iterator chain

	push	ebp
	mov	ebp, esp
	sub	esp, 208				; 000000d0H
	push	ebx
	push	esi
	push	edi
	push	ecx
	lea	edi, DWORD PTR [ebp-208]
	mov	ecx, 52					; 00000034H
	mov	eax, -858993460				; ccccccccH
	rep stosd
	pop	ecx
	mov	DWORD PTR _this$[ebp], ecx

; 100  : 		return (_Myproxy == 0 ? 0 : &_Myproxy->_Myfirstiter);

	mov	eax, DWORD PTR _this$[ebp]
	cmp	DWORD PTR [eax], 0
	jne	SHORT $LN3@Getpfirst
	mov	DWORD PTR tv68[ebp], 0
	jmp	SHORT $LN4@Getpfirst
$LN3@Getpfirst:
	mov	ecx, DWORD PTR _this$[ebp]
	mov	edx, DWORD PTR [ecx]
	add	edx, 4
	mov	DWORD PTR tv68[ebp], edx
$LN4@Getpfirst:
	mov	eax, DWORD PTR tv68[ebp]

; 101  : 		}

	pop	edi
	pop	esi
	pop	ebx
	mov	esp, ebp
	pop	ebp
	ret	0
?_Getpfirst@_Container_base12@std@@QBEPAPAU_Iterator_base12@2@XZ ENDP ; std::_Container_base12::_Getpfirst
_TEXT	ENDS
; Function compile flags: /Odtp /RTCsu /ZI
; File c:\program files (x86)\microsoft visual studio 14.0\vc\include\xutility
;	COMDAT ??1_Container_base12@std@@QAE@XZ
_TEXT	SEGMENT
_this$ = -20						; size = 4
__$EHRec$ = -12						; size = 12
??1_Container_base12@std@@QAE@XZ PROC			; std::_Container_base12::~_Container_base12, COMDAT
; _this$ = ecx

; 94   : 		{	// destroy the container

	push	ebp
	mov	ebp, esp
	push	-1
	push	__ehhandler$??1_Container_base12@std@@QAE@XZ
	mov	eax, DWORD PTR fs:0
	push	eax
	sub	esp, 204				; 000000ccH
	push	ebx
	push	esi
	push	edi
	push	ecx
	lea	edi, DWORD PTR [ebp-216]
	mov	ecx, 51					; 00000033H
	mov	eax, -858993460				; ccccccccH
	rep stosd
	pop	ecx
	mov	eax, DWORD PTR ___security_cookie
	xor	eax, ebp
	push	eax
	lea	eax, DWORD PTR __$EHRec$[ebp]
	mov	DWORD PTR fs:0, eax
	mov	DWORD PTR _this$[ebp], ecx

; 95   : 		_Orphan_all();

	mov	ecx, DWORD PTR _this$[ebp]
	call	?_Orphan_all@_Container_base12@std@@QAEXXZ ; std::_Container_base12::_Orphan_all

; 96   : 		}

	mov	ecx, DWORD PTR __$EHRec$[ebp]
	mov	DWORD PTR fs:0, ecx
	pop	ecx
	pop	edi
	pop	esi
	pop	ebx
	add	esp, 216				; 000000d8H
	cmp	ebp, esp
	call	__RTC_CheckEsp
	mov	esp, ebp
	pop	ebp
	ret	0
_TEXT	ENDS
;	COMDAT text$x
text$x	SEGMENT
__ehhandler$??1_Container_base12@std@@QAE@XZ:
	mov	edx, DWORD PTR [esp+8]
	lea	eax, DWORD PTR [edx+12]
	mov	ecx, DWORD PTR [edx-220]
	xor	ecx, eax
	call	@__security_check_cookie@4
	mov	eax, OFFSET __ehfuncinfo$??1_Container_base12@std@@QAE@XZ
	jmp	___CxxFrameHandler3
text$x	ENDS
??1_Container_base12@std@@QAE@XZ ENDP			; std::_Container_base12::~_Container_base12
; Function compile flags: /Odtp /RTCsu /ZI
; File c:\program files (x86)\microsoft visual studio 14.0\vc\include\xutility
;	COMDAT ??0_Container_base12@std@@QAE@XZ
_TEXT	SEGMENT
_this$ = -8						; size = 4
??0_Container_base12@std@@QAE@XZ PROC			; std::_Container_base12::_Container_base12, COMDAT
; _this$ = ecx

; 80   : 		{	// construct childless container

	push	ebp
	mov	ebp, esp
	sub	esp, 204				; 000000ccH
	push	ebx
	push	esi
	push	edi
	push	ecx
	lea	edi, DWORD PTR [ebp-204]
	mov	ecx, 51					; 00000033H
	mov	eax, -858993460				; ccccccccH
	rep stosd
	pop	ecx
	mov	DWORD PTR _this$[ebp], ecx

; 79   : 		: _Myproxy(0)

	mov	eax, DWORD PTR _this$[ebp]
	mov	DWORD PTR [eax], 0

; 81   : 		}

	mov	eax, DWORD PTR _this$[ebp]
	pop	edi
	pop	esi
	pop	ebx
	mov	esp, ebp
	pop	ebp
	ret	0
??0_Container_base12@std@@QAE@XZ ENDP			; std::_Container_base12::_Container_base12
_TEXT	ENDS
; Function compile flags: /Odtp /RTCsu /ZI
; File c:\program files (x86)\microsoft visual studio 14.0\vc\include\xutility
;	COMDAT ??0_Container_proxy@std@@QAE@XZ
_TEXT	SEGMENT
_this$ = -8						; size = 4
??0_Container_proxy@std@@QAE@XZ PROC			; std::_Container_proxy::_Container_proxy, COMDAT
; _this$ = ecx

; 68   : 		{	// construct from pointers

	push	ebp
	mov	ebp, esp
	sub	esp, 204				; 000000ccH
	push	ebx
	push	esi
	push	edi
	push	ecx
	lea	edi, DWORD PTR [ebp-204]
	mov	ecx, 51					; 00000033H
	mov	eax, -858993460				; ccccccccH
	rep stosd
	pop	ecx
	mov	DWORD PTR _this$[ebp], ecx

; 67   : 		: _Mycont(0), _Myfirstiter(0)

	mov	eax, DWORD PTR _this$[ebp]
	mov	DWORD PTR [eax], 0
	mov	eax, DWORD PTR _this$[ebp]
	mov	DWORD PTR [eax+4], 0

; 69   : 		}

	mov	eax, DWORD PTR _this$[ebp]
	pop	edi
	pop	esi
	pop	ebx
	mov	esp, ebp
	pop	ebp
	ret	0
??0_Container_proxy@std@@QAE@XZ ENDP			; std::_Container_proxy::_Container_proxy
_TEXT	ENDS
; Function compile flags: /Odtp /RTCsu /ZI
; File c:\program files (x86)\microsoft visual studio 14.0\vc\include\vcruntime_new.h
;	COMDAT ??2@YAPAXIPAX@Z
_TEXT	SEGMENT
__Size$ = 8						; size = 4
__Where$ = 12						; size = 4
??2@YAPAXIPAX@Z PROC					; operator new, COMDAT

; 87   :     {

	push	ebp
	mov	ebp, esp
	sub	esp, 192				; 000000c0H
	push	ebx
	push	esi
	push	edi
	lea	edi, DWORD PTR [ebp-192]
	mov	ecx, 48					; 00000030H
	mov	eax, -858993460				; ccccccccH
	rep stosd

; 88   :         (void)_Size;
; 89   :         return _Where;

	mov	eax, DWORD PTR __Where$[ebp]

; 90   :     }

	pop	edi
	pop	esi
	pop	ebx
	mov	esp, ebp
	pop	ebp
	ret	0
??2@YAPAXIPAX@Z ENDP					; operator new
_TEXT	ENDS
; Function compile flags: /Odtp /RTCsu /ZI
; File g:\projects\lotion\lotion\environment.cpp
;	COMDAT ?__empty_global_delete@@YAXPAXI@Z
_TEXT	SEGMENT
___formal$ = 8						; size = 4
___formal$ = 12						; size = 4
?__empty_global_delete@@YAXPAXI@Z PROC			; __empty_global_delete, COMDAT

	push	ebp
	mov	ebp, esp
	sub	esp, 192				; 000000c0H
	push	ebx
	push	esi
	push	edi
	lea	edi, DWORD PTR [ebp-192]
	mov	ecx, 48					; 00000030H
	mov	eax, -858993460				; ccccccccH
	rep stosd
	pop	edi
	pop	esi
	pop	ebx
	mov	esp, ebp
	pop	ebp
	ret	0
?__empty_global_delete@@YAXPAXI@Z ENDP			; __empty_global_delete
_TEXT	ENDS
; Function compile flags: /Odtp /RTCsu /ZI
; File g:\projects\lotion\lotion\environment.cpp
;	COMDAT ?__empty_global_delete@@YAXPAX@Z
_TEXT	SEGMENT
___formal$ = 8						; size = 4
?__empty_global_delete@@YAXPAX@Z PROC			; __empty_global_delete, COMDAT

; 73   : }

	push	ebp
	mov	ebp, esp
	sub	esp, 192				; 000000c0H
	push	ebx
	push	esi
	push	edi
	lea	edi, DWORD PTR [ebp-192]
	mov	ecx, 48					; 00000030H
	mov	eax, -858993460				; ccccccccH
	rep stosd
	pop	edi
	pop	esi
	pop	ebx
	mov	esp, ebp
	pop	ebp
	ret	0
?__empty_global_delete@@YAXPAX@Z ENDP			; __empty_global_delete
_TEXT	ENDS
END
