; Listing generated by Microsoft (R) Optimizing Compiler Version 19.00.23918.0 

	TITLE	G:\Projects\Lotion\Lotion\joiner.cpp
	.686P
	.XMM
	include listing.inc
	.model	flat

INCLUDELIB MSVCRTD
INCLUDELIB OLDNAMES

PUBLIC	?__empty_global_delete@@YAXPAX@Z		; __empty_global_delete
PUBLIC	?__empty_global_delete@@YAXPAXI@Z		; __empty_global_delete
PUBLIC	??0Joiner@@QAE@XZ				; Joiner::Joiner
PUBLIC	?LoadContent@Joiner@@QAEXXZ			; Joiner::LoadContent
PUBLIC	?Update@Joiner@@QAEXH@Z				; Joiner::Update
PUBLIC	?Render@Joiner@@QAEXXZ				; Joiner::Render
EXTRN	??0Vector2@@QAE@NN@Z:PROC			; Vector2::Vector2
EXTRN	?UpdatePlayer@@YAXH@Z:PROC			; UpdatePlayer
EXTRN	?DrawPlayer@@YAXXZ:PROC				; DrawPlayer
EXTRN	?GenerateTileMap@@YAXXZ:PROC			; GenerateTileMap
EXTRN	?UpdateTile@@YAXH@Z:PROC			; UpdateTile
EXTRN	?DrawMap@@YAXXZ:PROC				; DrawMap
EXTRN	__RTC_CheckEsp:PROC
EXTRN	__RTC_InitBase:PROC
EXTRN	__RTC_Shutdown:PROC
EXTRN	?player@@3UPlayer@@A:BYTE			; player
EXTRN	?spawnTile@@3USpawnTile@@A:BYTE			; spawnTile
EXTRN	__fltused:DWORD
;	COMDAT rtc$TMZ
rtc$TMZ	SEGMENT
__RTC_Shutdown.rtc$TMZ DD FLAT:__RTC_Shutdown
rtc$TMZ	ENDS
;	COMDAT rtc$IMZ
rtc$IMZ	SEGMENT
__RTC_InitBase.rtc$IMZ DD FLAT:__RTC_InitBase
rtc$IMZ	ENDS
; Function compile flags: /Odtp /RTCsu /ZI
; File g:\projects\lotion\lotion\joiner.cpp
;	COMDAT ?Render@Joiner@@QAEXXZ
_TEXT	SEGMENT
_this$ = -8						; size = 4
?Render@Joiner@@QAEXXZ PROC				; Joiner::Render, COMDAT
; _this$ = ecx

; 17   : void Joiner::Render() {

	push	ebp
	mov	ebp, esp
	sub	esp, 204				; 000000ccH
	push	ebx
	push	esi
	push	edi
	push	ecx
	lea	edi, DWORD PTR [ebp-204]
	mov	ecx, 51					; 00000033H
	mov	eax, -858993460				; ccccccccH
	rep stosd
	pop	ecx
	mov	DWORD PTR _this$[ebp], ecx

; 18   : 	DrawPlayer();

	call	?DrawPlayer@@YAXXZ			; DrawPlayer

; 19   : 	DrawMap();

	call	?DrawMap@@YAXXZ				; DrawMap

; 20   : }

	pop	edi
	pop	esi
	pop	ebx
	add	esp, 204				; 000000ccH
	cmp	ebp, esp
	call	__RTC_CheckEsp
	mov	esp, ebp
	pop	ebp
	ret	0
?Render@Joiner@@QAEXXZ ENDP				; Joiner::Render
_TEXT	ENDS
; Function compile flags: /Odtp /RTCsu /ZI
; File g:\projects\lotion\lotion\joiner.cpp
;	COMDAT ?Update@Joiner@@QAEXH@Z
_TEXT	SEGMENT
_this$ = -8						; size = 4
_gameTime$ = 8						; size = 4
?Update@Joiner@@QAEXH@Z PROC				; Joiner::Update, COMDAT
; _this$ = ecx

; 12   : void Joiner::Update(int gameTime) {

	push	ebp
	mov	ebp, esp
	sub	esp, 204				; 000000ccH
	push	ebx
	push	esi
	push	edi
	push	ecx
	lea	edi, DWORD PTR [ebp-204]
	mov	ecx, 51					; 00000033H
	mov	eax, -858993460				; ccccccccH
	rep stosd
	pop	ecx
	mov	DWORD PTR _this$[ebp], ecx

; 13   : 	UpdateTile(gameTime);

	mov	eax, DWORD PTR _gameTime$[ebp]
	push	eax
	call	?UpdateTile@@YAXH@Z			; UpdateTile
	add	esp, 4

; 14   : 	UpdatePlayer(gameTime);

	mov	eax, DWORD PTR _gameTime$[ebp]
	push	eax
	call	?UpdatePlayer@@YAXH@Z			; UpdatePlayer
	add	esp, 4

; 15   : }

	pop	edi
	pop	esi
	pop	ebx
	add	esp, 204				; 000000ccH
	cmp	ebp, esp
	call	__RTC_CheckEsp
	mov	esp, ebp
	pop	ebp
	ret	4
?Update@Joiner@@QAEXH@Z ENDP				; Joiner::Update
_TEXT	ENDS
; Function compile flags: /Odtp /RTCsu /ZI
; File g:\projects\lotion\lotion\joiner.cpp
;	COMDAT ?LoadContent@Joiner@@QAEXXZ
_TEXT	SEGMENT
$T1 = -224						; size = 16
_this$ = -8						; size = 4
?LoadContent@Joiner@@QAEXXZ PROC			; Joiner::LoadContent, COMDAT
; _this$ = ecx

; 7    : void Joiner::LoadContent() {

	push	ebp
	mov	ebp, esp
	sub	esp, 228				; 000000e4H
	push	ebx
	push	esi
	push	edi
	push	ecx
	lea	edi, DWORD PTR [ebp-228]
	mov	ecx, 57					; 00000039H
	mov	eax, -858993460				; ccccccccH
	rep stosd
	pop	ecx
	mov	DWORD PTR _this$[ebp], ecx

; 8    : 	GenerateTileMap();

	call	?GenerateTileMap@@YAXXZ			; GenerateTileMap

; 9    : 	player.position = Vector2(spawnTile.position.x, spawnTile.position.y);

	sub	esp, 8
	movsd	xmm0, QWORD PTR ?spawnTile@@3USpawnTile@@A+8
	movsd	QWORD PTR [esp], xmm0
	sub	esp, 8
	movsd	xmm0, QWORD PTR ?spawnTile@@3USpawnTile@@A
	movsd	QWORD PTR [esp], xmm0
	lea	ecx, DWORD PTR $T1[ebp]
	call	??0Vector2@@QAE@NN@Z			; Vector2::Vector2
	mov	ecx, DWORD PTR [eax]
	mov	DWORD PTR ?player@@3UPlayer@@A, ecx
	mov	edx, DWORD PTR [eax+4]
	mov	DWORD PTR ?player@@3UPlayer@@A+4, edx
	mov	ecx, DWORD PTR [eax+8]
	mov	DWORD PTR ?player@@3UPlayer@@A+8, ecx
	mov	edx, DWORD PTR [eax+12]
	mov	DWORD PTR ?player@@3UPlayer@@A+12, edx

; 10   : }

	pop	edi
	pop	esi
	pop	ebx
	add	esp, 228				; 000000e4H
	cmp	ebp, esp
	call	__RTC_CheckEsp
	mov	esp, ebp
	pop	ebp
	ret	0
?LoadContent@Joiner@@QAEXXZ ENDP			; Joiner::LoadContent
_TEXT	ENDS
; Function compile flags: /Odtp /RTCsu /ZI
; File g:\projects\lotion\lotion\joiner.cpp
;	COMDAT ??0Joiner@@QAE@XZ
_TEXT	SEGMENT
_this$ = -8						; size = 4
??0Joiner@@QAE@XZ PROC					; Joiner::Joiner, COMDAT
; _this$ = ecx

; 3    : Joiner::Joiner() {

	push	ebp
	mov	ebp, esp
	sub	esp, 204				; 000000ccH
	push	ebx
	push	esi
	push	edi
	push	ecx
	lea	edi, DWORD PTR [ebp-204]
	mov	ecx, 51					; 00000033H
	mov	eax, -858993460				; ccccccccH
	rep stosd
	pop	ecx
	mov	DWORD PTR _this$[ebp], ecx

; 4    : 
; 5    : }

	mov	eax, DWORD PTR _this$[ebp]
	pop	edi
	pop	esi
	pop	ebx
	mov	esp, ebp
	pop	ebp
	ret	0
??0Joiner@@QAE@XZ ENDP					; Joiner::Joiner
_TEXT	ENDS
; Function compile flags: /Odtp /RTCsu /ZI
; File g:\projects\lotion\lotion\joiner.cpp
;	COMDAT ?__empty_global_delete@@YAXPAXI@Z
_TEXT	SEGMENT
___formal$ = 8						; size = 4
___formal$ = 12						; size = 4
?__empty_global_delete@@YAXPAXI@Z PROC			; __empty_global_delete, COMDAT

	push	ebp
	mov	ebp, esp
	sub	esp, 192				; 000000c0H
	push	ebx
	push	esi
	push	edi
	lea	edi, DWORD PTR [ebp-192]
	mov	ecx, 48					; 00000030H
	mov	eax, -858993460				; ccccccccH
	rep stosd
	pop	edi
	pop	esi
	pop	ebx
	mov	esp, ebp
	pop	ebp
	ret	0
?__empty_global_delete@@YAXPAXI@Z ENDP			; __empty_global_delete
_TEXT	ENDS
; Function compile flags: /Odtp /RTCsu /ZI
; File g:\projects\lotion\lotion\joiner.cpp
;	COMDAT ?__empty_global_delete@@YAXPAX@Z
_TEXT	SEGMENT
___formal$ = 8						; size = 4
?__empty_global_delete@@YAXPAX@Z PROC			; __empty_global_delete, COMDAT

; 21   : }

	push	ebp
	mov	ebp, esp
	sub	esp, 192				; 000000c0H
	push	ebx
	push	esi
	push	edi
	lea	edi, DWORD PTR [ebp-192]
	mov	ecx, 48					; 00000030H
	mov	eax, -858993460				; ccccccccH
	rep stosd
	pop	edi
	pop	esi
	pop	ebx
	mov	esp, ebp
	pop	ebp
	ret	0
?__empty_global_delete@@YAXPAX@Z ENDP			; __empty_global_delete
_TEXT	ENDS
END
