; Listing generated by Microsoft (R) Optimizing Compiler Version 19.00.24215.1 

	TITLE	G:\Projects\Lotion\Lotion\player.cpp
	.686P
	.XMM
	include listing.inc
	.model	flat

INCLUDELIB MSVCRTD
INCLUDELIB OLDNAMES

PUBLIC	?jumpPress@@3_NA				; jumpPress
PUBLIC	?floatingMovement@@3_NA				; floatingMovement
_BSS	SEGMENT
?jumpPress@@3_NA DB 01H DUP (?)				; jumpPress
?floatingMovement@@3_NA DB 01H DUP (?)			; floatingMovement
_BSS	ENDS
PUBLIC	?__empty_global_delete@@YAXPAX@Z		; __empty_global_delete
PUBLIC	?__empty_global_delete@@YAXPAXI@Z		; __empty_global_delete
PUBLIC	?abs@@YANN@Z					; abs
PUBLIC	??2@YAPAXIPAX@Z					; operator new
PUBLIC	??0_Container_proxy@std@@QAE@XZ			; std::_Container_proxy::_Container_proxy
PUBLIC	??0_Container_base12@std@@QAE@XZ		; std::_Container_base12::_Container_base12
PUBLIC	??1_Container_base12@std@@QAE@XZ		; std::_Container_base12::~_Container_base12
PUBLIC	?_Getpfirst@_Container_base12@std@@QBEPAPAU_Iterator_base12@2@XZ ; std::_Container_base12::_Getpfirst
PUBLIC	?_Orphan_all@_Container_base12@std@@QAEXXZ	; std::_Container_base12::_Orphan_all
PUBLIC	??0_Iterator_base12@std@@QAE@XZ			; std::_Iterator_base12::_Iterator_base12
PUBLIC	??0_Iterator_base12@std@@QAE@ABU01@@Z		; std::_Iterator_base12::_Iterator_base12
PUBLIC	??4_Iterator_base12@std@@QAEAAU01@ABU01@@Z	; std::_Iterator_base12::operator=
PUBLIC	??1_Iterator_base12@std@@QAE@XZ			; std::_Iterator_base12::~_Iterator_base12
PUBLIC	?_Adopt@_Iterator_base12@std@@QAEXPBU_Container_base12@2@@Z ; std::_Iterator_base12::_Adopt
PUBLIC	?_Clrcont@_Iterator_base12@std@@QAEXXZ		; std::_Iterator_base12::_Clrcont
PUBLIC	?_Getcont@_Iterator_base12@std@@QBEPBU_Container_base12@2@XZ ; std::_Iterator_base12::_Getcont
PUBLIC	?_Getpnext@_Iterator_base12@std@@QAEPAPAU12@XZ	; std::_Iterator_base12::_Getpnext
PUBLIC	?_Orphan_me@_Iterator_base12@std@@QAEXXZ	; std::_Iterator_base12::_Orphan_me
PUBLIC	?_Allocate@std@@YAPAXII_N@Z			; std::_Allocate
PUBLIC	?_Deallocate@std@@YAXPAXII@Z			; std::_Deallocate
PUBLIC	?midpoint@Tile@@QAE?AVVector2@@XZ		; Tile::midpoint
PUBLIC	??8Tile@@QBEHABU0@@Z				; Tile::operator==
PUBLIC	?top@Tile@@QAENXZ				; Tile::top
PUBLIC	?bottom@Tile@@QAENXZ				; Tile::bottom
PUBLIC	?left@Tile@@QAENXZ				; Tile::left
PUBLIC	?right@Tile@@QAENXZ				; Tile::right
PUBLIC	??0?$allocator@UTile@@@std@@QAE@XZ		; std::allocator<Tile>::allocator<Tile>
PUBLIC	?deallocate@?$allocator@UTile@@@std@@QAEXPAUTile@@I@Z ; std::allocator<Tile>::deallocate
PUBLIC	?allocate@?$allocator@UTile@@@std@@QAEPAUTile@@I@Z ; std::allocator<Tile>::allocate
PUBLIC	?max_size@?$allocator@UTile@@@std@@QBEIXZ	; std::allocator<Tile>::max_size
PUBLIC	?max_size@?$allocator_traits@V?$allocator@UTile@@@std@@@std@@SAIABV?$allocator@UTile@@@2@@Z ; std::allocator_traits<std::allocator<Tile> >::max_size
PUBLIC	??0?$_Wrap_alloc@V?$allocator@UTile@@@std@@@std@@QAE@XZ ; std::_Wrap_alloc<std::allocator<Tile> >::_Wrap_alloc<std::allocator<Tile> >
PUBLIC	?allocate@?$_Wrap_alloc@V?$allocator@UTile@@@std@@@std@@QAEPAUTile@@I@Z ; std::_Wrap_alloc<std::allocator<Tile> >::allocate
PUBLIC	?deallocate@?$_Wrap_alloc@V?$allocator@UTile@@@std@@@std@@QAEXPAUTile@@I@Z ; std::_Wrap_alloc<std::allocator<Tile> >::deallocate
PUBLIC	?max_size@?$_Wrap_alloc@V?$allocator@UTile@@@std@@@std@@QBEIU_Nil@2@@Z ; std::_Wrap_alloc<std::allocator<Tile> >::max_size
PUBLIC	??0?$_Vector_alloc@U?$_Vec_base_types@UTile@@V?$allocator@UTile@@@std@@@std@@@std@@QAE@XZ ; std::_Vector_alloc<std::_Vec_base_types<Tile,std::allocator<Tile> > >::_Vector_alloc<std::_Vec_base_types<Tile,std::allocator<Tile> > >
PUBLIC	??1?$_Vector_alloc@U?$_Vec_base_types@UTile@@V?$allocator@UTile@@@std@@@std@@@std@@QAE@XZ ; std::_Vector_alloc<std::_Vec_base_types<Tile,std::allocator<Tile> > >::~_Vector_alloc<std::_Vec_base_types<Tile,std::allocator<Tile> > >
PUBLIC	?_Alloc_proxy@?$_Vector_alloc@U?$_Vec_base_types@UTile@@V?$allocator@UTile@@@std@@@std@@@std@@QAEXXZ ; std::_Vector_alloc<std::_Vec_base_types<Tile,std::allocator<Tile> > >::_Alloc_proxy
PUBLIC	?_Free_proxy@?$_Vector_alloc@U?$_Vec_base_types@UTile@@V?$allocator@UTile@@@std@@@std@@@std@@QAEXXZ ; std::_Vector_alloc<std::_Vec_base_types<Tile,std::allocator<Tile> > >::_Free_proxy
PUBLIC	?_Getpfirst@?$_Vector_alloc@U?$_Vec_base_types@UTile@@V?$allocator@UTile@@@std@@@std@@@std@@QBEPAPAU_Iterator_base12@2@XZ ; std::_Vector_alloc<std::_Vec_base_types<Tile,std::allocator<Tile> > >::_Getpfirst
PUBLIC	?_Myproxy@?$_Vector_alloc@U?$_Vec_base_types@UTile@@V?$allocator@UTile@@@std@@@std@@@std@@QAEAAPAU_Container_proxy@2@XZ ; std::_Vector_alloc<std::_Vec_base_types<Tile,std::allocator<Tile> > >::_Myproxy
PUBLIC	?_Orphan_all@?$_Vector_alloc@U?$_Vec_base_types@UTile@@V?$allocator@UTile@@@std@@@std@@@std@@QAEXXZ ; std::_Vector_alloc<std::_Vec_base_types<Tile,std::allocator<Tile> > >::_Orphan_all
PUBLIC	?_Getal@?$_Vector_alloc@U?$_Vec_base_types@UTile@@V?$allocator@UTile@@@std@@@std@@@std@@QAEAAU?$_Wrap_alloc@V?$allocator@UTile@@@std@@@2@XZ ; std::_Vector_alloc<std::_Vec_base_types<Tile,std::allocator<Tile> > >::_Getal
PUBLIC	?_Getal@?$_Vector_alloc@U?$_Vec_base_types@UTile@@V?$allocator@UTile@@@std@@@std@@@std@@QBEABU?$_Wrap_alloc@V?$allocator@UTile@@@std@@@2@XZ ; std::_Vector_alloc<std::_Vec_base_types<Tile,std::allocator<Tile> > >::_Getal
PUBLIC	?_Get_data@?$_Vector_alloc@U?$_Vec_base_types@UTile@@V?$allocator@UTile@@@std@@@std@@@std@@QAEAAV?$_Vector_val@U?$_Simple_types@UTile@@@std@@@2@XZ ; std::_Vector_alloc<std::_Vec_base_types<Tile,std::allocator<Tile> > >::_Get_data
PUBLIC	?_Get_data@?$_Vector_alloc@U?$_Vec_base_types@UTile@@V?$allocator@UTile@@@std@@@std@@@std@@QBEABV?$_Vector_val@U?$_Simple_types@UTile@@@std@@@2@XZ ; std::_Vector_alloc<std::_Vec_base_types<Tile,std::allocator<Tile> > >::_Get_data
PUBLIC	?_Myfirst@?$_Vector_alloc@U?$_Vec_base_types@UTile@@V?$allocator@UTile@@@std@@@std@@@std@@QAEAAPAUTile@@XZ ; std::_Vector_alloc<std::_Vec_base_types<Tile,std::allocator<Tile> > >::_Myfirst
PUBLIC	?_Myfirst@?$_Vector_alloc@U?$_Vec_base_types@UTile@@V?$allocator@UTile@@@std@@@std@@@std@@QBEABQAUTile@@XZ ; std::_Vector_alloc<std::_Vec_base_types<Tile,std::allocator<Tile> > >::_Myfirst
PUBLIC	?_Mylast@?$_Vector_alloc@U?$_Vec_base_types@UTile@@V?$allocator@UTile@@@std@@@std@@@std@@QAEAAPAUTile@@XZ ; std::_Vector_alloc<std::_Vec_base_types<Tile,std::allocator<Tile> > >::_Mylast
PUBLIC	?_Mylast@?$_Vector_alloc@U?$_Vec_base_types@UTile@@V?$allocator@UTile@@@std@@@std@@@std@@QBEABQAUTile@@XZ ; std::_Vector_alloc<std::_Vec_base_types<Tile,std::allocator<Tile> > >::_Mylast
PUBLIC	?_Myend@?$_Vector_alloc@U?$_Vec_base_types@UTile@@V?$allocator@UTile@@@std@@@std@@@std@@QAEAAPAUTile@@XZ ; std::_Vector_alloc<std::_Vec_base_types<Tile,std::allocator<Tile> > >::_Myend
PUBLIC	?_Myend@?$_Vector_alloc@U?$_Vec_base_types@UTile@@V?$allocator@UTile@@@std@@@std@@@std@@QBEABQAUTile@@XZ ; std::_Vector_alloc<std::_Vec_base_types<Tile,std::allocator<Tile> > >::_Myend
PUBLIC	??0?$_Vector_val@U?$_Simple_types@UTile@@@std@@@std@@QAE@XZ ; std::_Vector_val<std::_Simple_types<Tile> >::_Vector_val<std::_Simple_types<Tile> >
PUBLIC	??1?$_Vector_val@U?$_Simple_types@UTile@@@std@@@std@@QAE@XZ ; std::_Vector_val<std::_Simple_types<Tile> >::~_Vector_val<std::_Simple_types<Tile> >
PUBLIC	?_Get_first@?$_Compressed_pair@U?$_Wrap_alloc@V?$allocator@UTile@@@std@@@std@@V?$_Vector_val@U?$_Simple_types@UTile@@@std@@@2@$00@std@@QAEAAU?$_Wrap_alloc@V?$allocator@UTile@@@std@@@2@XZ ; std::_Compressed_pair<std::_Wrap_alloc<std::allocator<Tile> >,std::_Vector_val<std::_Simple_types<Tile> >,1>::_Get_first
PUBLIC	?_Get_first@?$_Compressed_pair@U?$_Wrap_alloc@V?$allocator@UTile@@@std@@@std@@V?$_Vector_val@U?$_Simple_types@UTile@@@std@@@2@$00@std@@QBEABU?$_Wrap_alloc@V?$allocator@UTile@@@std@@@2@XZ ; std::_Compressed_pair<std::_Wrap_alloc<std::allocator<Tile> >,std::_Vector_val<std::_Simple_types<Tile> >,1>::_Get_first
PUBLIC	?_Get_second@?$_Compressed_pair@U?$_Wrap_alloc@V?$allocator@UTile@@@std@@@std@@V?$_Vector_val@U?$_Simple_types@UTile@@@std@@@2@$00@std@@QAEAAV?$_Vector_val@U?$_Simple_types@UTile@@@std@@@2@XZ ; std::_Compressed_pair<std::_Wrap_alloc<std::allocator<Tile> >,std::_Vector_val<std::_Simple_types<Tile> >,1>::_Get_second
PUBLIC	?_Get_second@?$_Compressed_pair@U?$_Wrap_alloc@V?$allocator@UTile@@@std@@@std@@V?$_Vector_val@U?$_Simple_types@UTile@@@std@@@2@$00@std@@QBEABV?$_Vector_val@U?$_Simple_types@UTile@@@std@@@2@XZ ; std::_Compressed_pair<std::_Wrap_alloc<std::allocator<Tile> >,std::_Vector_val<std::_Simple_types<Tile> >,1>::_Get_second
PUBLIC	??1?$_Compressed_pair@U?$_Wrap_alloc@V?$allocator@UTile@@@std@@@std@@V?$_Vector_val@U?$_Simple_types@UTile@@@std@@@2@$00@std@@QAE@XZ ; std::_Compressed_pair<std::_Wrap_alloc<std::allocator<Tile> >,std::_Vector_val<std::_Simple_types<Tile> >,1>::~_Compressed_pair<std::_Wrap_alloc<std::allocator<Tile> >,std::_Vector_val<std::_Simple_types<Tile> >,1>
PUBLIC	??0?$vector@UTile@@V?$allocator@UTile@@@std@@@std@@QAE@XZ ; std::vector<Tile,std::allocator<Tile> >::vector<Tile,std::allocator<Tile> >
PUBLIC	??1?$vector@UTile@@V?$allocator@UTile@@@std@@@std@@QAE@XZ ; std::vector<Tile,std::allocator<Tile> >::~vector<Tile,std::allocator<Tile> >
PUBLIC	?capacity@?$vector@UTile@@V?$allocator@UTile@@@std@@@std@@QBEIXZ ; std::vector<Tile,std::allocator<Tile> >::capacity
PUBLIC	?_Unused_capacity@?$vector@UTile@@V?$allocator@UTile@@@std@@@std@@QBEIXZ ; std::vector<Tile,std::allocator<Tile> >::_Unused_capacity
PUBLIC	?begin@?$vector@UTile@@V?$allocator@UTile@@@std@@@std@@QAE?AV?$_Vector_iterator@V?$_Vector_val@U?$_Simple_types@UTile@@@std@@@std@@@2@XZ ; std::vector<Tile,std::allocator<Tile> >::begin
PUBLIC	?end@?$vector@UTile@@V?$allocator@UTile@@@std@@@std@@QAE?AV?$_Vector_iterator@V?$_Vector_val@U?$_Simple_types@UTile@@@std@@@std@@@2@XZ ; std::vector<Tile,std::allocator<Tile> >::end
PUBLIC	?_Make_iter@?$vector@UTile@@V?$allocator@UTile@@@std@@@std@@QBE?AV?$_Vector_iterator@V?$_Vector_val@U?$_Simple_types@UTile@@@std@@@std@@@2@V?$_Vector_const_iterator@V?$_Vector_val@U?$_Simple_types@UTile@@@std@@@std@@@2@@Z ; std::vector<Tile,std::allocator<Tile> >::_Make_iter
PUBLIC	?size@?$vector@UTile@@V?$allocator@UTile@@@std@@@std@@QBEIXZ ; std::vector<Tile,std::allocator<Tile> >::size
PUBLIC	?max_size@?$vector@UTile@@V?$allocator@UTile@@@std@@@std@@QBEIXZ ; std::vector<Tile,std::allocator<Tile> >::max_size
PUBLIC	?push_back@?$vector@UTile@@V?$allocator@UTile@@@std@@@std@@QAEXABUTile@@@Z ; std::vector<Tile,std::allocator<Tile> >::push_back
PUBLIC	?erase@?$vector@UTile@@V?$allocator@UTile@@@std@@@std@@QAE?AV?$_Vector_iterator@V?$_Vector_val@U?$_Simple_types@UTile@@@std@@@std@@@2@V?$_Vector_const_iterator@V?$_Vector_val@U?$_Simple_types@UTile@@@std@@@std@@@2@0@Z ; std::vector<Tile,std::allocator<Tile> >::erase
PUBLIC	?clear@?$vector@UTile@@V?$allocator@UTile@@@std@@@std@@QAEXXZ ; std::vector<Tile,std::allocator<Tile> >::clear
PUBLIC	?_Destroy@?$vector@UTile@@V?$allocator@UTile@@@std@@@std@@IAEXPAUTile@@0@Z ; std::vector<Tile,std::allocator<Tile> >::_Destroy
PUBLIC	?_Grow_to@?$vector@UTile@@V?$allocator@UTile@@@std@@@std@@IBEII@Z ; std::vector<Tile,std::allocator<Tile> >::_Grow_to
PUBLIC	?_Inside@?$vector@UTile@@V?$allocator@UTile@@@std@@@std@@IBE_NPBUTile@@@Z ; std::vector<Tile,std::allocator<Tile> >::_Inside
PUBLIC	?_Reallocate@?$vector@UTile@@V?$allocator@UTile@@@std@@@std@@IAEXI@Z ; std::vector<Tile,std::allocator<Tile> >::_Reallocate
PUBLIC	?_Reserve@?$vector@UTile@@V?$allocator@UTile@@@std@@@std@@IAEXI@Z ; std::vector<Tile,std::allocator<Tile> >::_Reserve
PUBLIC	?_Tidy@?$vector@UTile@@V?$allocator@UTile@@@std@@@std@@IAEXXZ ; std::vector<Tile,std::allocator<Tile> >::_Tidy
PUBLIC	?_Xlen@?$vector@UTile@@V?$allocator@UTile@@@std@@@std@@IBEXXZ ; std::vector<Tile,std::allocator<Tile> >::_Xlen
PUBLIC	?_Orphan_range@?$vector@UTile@@V?$allocator@UTile@@@std@@@std@@IBEXPAUTile@@0@Z ; std::vector<Tile,std::allocator<Tile> >::_Orphan_range
PUBLIC	?__autoclassinit2@?$vector@UTile@@V?$allocator@UTile@@@std@@@std@@QAEXI@Z ; std::vector<Tile,std::allocator<Tile> >::__autoclassinit2
PUBLIC	??0?$_Iterator012@Urandom_access_iterator_tag@std@@UTile@@HPBU3@ABU3@U_Iterator_base12@2@@std@@QAE@XZ ; std::_Iterator012<std::random_access_iterator_tag,Tile,int,Tile const *,Tile const &,std::_Iterator_base12>::_Iterator012<std::random_access_iterator_tag,Tile,int,Tile const *,Tile const &,std::_Iterator_base12>
PUBLIC	??1?$_Iterator012@Urandom_access_iterator_tag@std@@UTile@@HPBU3@ABU3@U_Iterator_base12@2@@std@@QAE@XZ ; std::_Iterator012<std::random_access_iterator_tag,Tile,int,Tile const *,Tile const &,std::_Iterator_base12>::~_Iterator012<std::random_access_iterator_tag,Tile,int,Tile const *,Tile const &,std::_Iterator_base12>
PUBLIC	??0?$_Iterator012@Urandom_access_iterator_tag@std@@UTile@@HPBU3@ABU3@U_Iterator_base12@2@@std@@QAE@ABU01@@Z ; std::_Iterator012<std::random_access_iterator_tag,Tile,int,Tile const *,Tile const &,std::_Iterator_base12>::_Iterator012<std::random_access_iterator_tag,Tile,int,Tile const *,Tile const &,std::_Iterator_base12>
PUBLIC	??0?$_Iterator012@Urandom_access_iterator_tag@std@@UTile@@HPBU3@ABU3@U_Iterator_base12@2@@std@@QAE@$$QAU01@@Z ; std::_Iterator012<std::random_access_iterator_tag,Tile,int,Tile const *,Tile const &,std::_Iterator_base12>::_Iterator012<std::random_access_iterator_tag,Tile,int,Tile const *,Tile const &,std::_Iterator_base12>
PUBLIC	??0?$_Vector_const_iterator@V?$_Vector_val@U?$_Simple_types@UTile@@@std@@@std@@@std@@QAE@PAUTile@@PBU_Container_base12@1@@Z ; std::_Vector_const_iterator<std::_Vector_val<std::_Simple_types<Tile> > >::_Vector_const_iterator<std::_Vector_val<std::_Simple_types<Tile> > >
PUBLIC	??D?$_Vector_const_iterator@V?$_Vector_val@U?$_Simple_types@UTile@@@std@@@std@@@std@@QBEABUTile@@XZ ; std::_Vector_const_iterator<std::_Vector_val<std::_Simple_types<Tile> > >::operator*
PUBLIC	??E?$_Vector_const_iterator@V?$_Vector_val@U?$_Simple_types@UTile@@@std@@@std@@@std@@QAEAAV01@XZ ; std::_Vector_const_iterator<std::_Vector_val<std::_Simple_types<Tile> > >::operator++
PUBLIC	??8?$_Vector_const_iterator@V?$_Vector_val@U?$_Simple_types@UTile@@@std@@@std@@@std@@QBE_NABV01@@Z ; std::_Vector_const_iterator<std::_Vector_val<std::_Simple_types<Tile> > >::operator==
PUBLIC	??9?$_Vector_const_iterator@V?$_Vector_val@U?$_Simple_types@UTile@@@std@@@std@@@std@@QBE_NABV01@@Z ; std::_Vector_const_iterator<std::_Vector_val<std::_Simple_types<Tile> > >::operator!=
PUBLIC	??M?$_Vector_const_iterator@V?$_Vector_val@U?$_Simple_types@UTile@@@std@@@std@@@std@@QBE_NABV01@@Z ; std::_Vector_const_iterator<std::_Vector_val<std::_Simple_types<Tile> > >::operator<
PUBLIC	?_Compat@?$_Vector_const_iterator@V?$_Vector_val@U?$_Simple_types@UTile@@@std@@@std@@@std@@QBEXABV12@@Z ; std::_Vector_const_iterator<std::_Vector_val<std::_Simple_types<Tile> > >::_Compat
PUBLIC	??1?$_Vector_const_iterator@V?$_Vector_val@U?$_Simple_types@UTile@@@std@@@std@@@std@@QAE@XZ ; std::_Vector_const_iterator<std::_Vector_val<std::_Simple_types<Tile> > >::~_Vector_const_iterator<std::_Vector_val<std::_Simple_types<Tile> > >
PUBLIC	??0?$_Vector_const_iterator@V?$_Vector_val@U?$_Simple_types@UTile@@@std@@@std@@@std@@QAE@ABV01@@Z ; std::_Vector_const_iterator<std::_Vector_val<std::_Simple_types<Tile> > >::_Vector_const_iterator<std::_Vector_val<std::_Simple_types<Tile> > >
PUBLIC	??0?$_Vector_const_iterator@V?$_Vector_val@U?$_Simple_types@UTile@@@std@@@std@@@std@@QAE@$$QAV01@@Z ; std::_Vector_const_iterator<std::_Vector_val<std::_Simple_types<Tile> > >::_Vector_const_iterator<std::_Vector_val<std::_Simple_types<Tile> > >
PUBLIC	??0?$_Vector_iterator@V?$_Vector_val@U?$_Simple_types@UTile@@@std@@@std@@@std@@QAE@PAUTile@@PBU_Container_base12@1@@Z ; std::_Vector_iterator<std::_Vector_val<std::_Simple_types<Tile> > >::_Vector_iterator<std::_Vector_val<std::_Simple_types<Tile> > >
PUBLIC	?_Rechecked@?$_Vector_iterator@V?$_Vector_val@U?$_Simple_types@UTile@@@std@@@std@@@std@@QAEAAV12@PAUTile@@@Z ; std::_Vector_iterator<std::_Vector_val<std::_Simple_types<Tile> > >::_Rechecked
PUBLIC	?_Unchecked@?$_Vector_iterator@V?$_Vector_val@U?$_Simple_types@UTile@@@std@@@std@@@std@@QBEPAUTile@@XZ ; std::_Vector_iterator<std::_Vector_val<std::_Simple_types<Tile> > >::_Unchecked
PUBLIC	??D?$_Vector_iterator@V?$_Vector_val@U?$_Simple_types@UTile@@@std@@@std@@@std@@QBEAAUTile@@XZ ; std::_Vector_iterator<std::_Vector_val<std::_Simple_types<Tile> > >::operator*
PUBLIC	??E?$_Vector_iterator@V?$_Vector_val@U?$_Simple_types@UTile@@@std@@@std@@@std@@QAEAAV01@XZ ; std::_Vector_iterator<std::_Vector_val<std::_Simple_types<Tile> > >::operator++
PUBLIC	??1?$_Vector_iterator@V?$_Vector_val@U?$_Simple_types@UTile@@@std@@@std@@@std@@QAE@XZ ; std::_Vector_iterator<std::_Vector_val<std::_Simple_types<Tile> > >::~_Vector_iterator<std::_Vector_val<std::_Simple_types<Tile> > >
PUBLIC	??0?$_Vector_iterator@V?$_Vector_val@U?$_Simple_types@UTile@@@std@@@std@@@std@@QAE@ABV01@@Z ; std::_Vector_iterator<std::_Vector_val<std::_Simple_types<Tile> > >::_Vector_iterator<std::_Vector_val<std::_Simple_types<Tile> > >
PUBLIC	?__autoclassinit2@?$_Vector_iterator@V?$_Vector_val@U?$_Simple_types@UTile@@@std@@@std@@@std@@QAEXI@Z ; std::_Vector_iterator<std::_Vector_val<std::_Simple_types<Tile> > >::__autoclassinit2
PUBLIC	?GetDirection@PushTile@@QAEHV?$vector@UPushTile@@V?$allocator@UPushTile@@@std@@@std@@@Z ; PushTile::GetDirection
PUBLIC	??0?$allocator@UPushTile@@@std@@QAE@ABV01@@Z	; std::allocator<PushTile>::allocator<PushTile>
PUBLIC	?deallocate@?$allocator@UPushTile@@@std@@QAEXPAUPushTile@@I@Z ; std::allocator<PushTile>::deallocate
PUBLIC	?allocate@?$allocator@UPushTile@@@std@@QAEPAUPushTile@@I@Z ; std::allocator<PushTile>::allocate
PUBLIC	?max_size@?$allocator@UPushTile@@@std@@QBEIXZ	; std::allocator<PushTile>::max_size
PUBLIC	?max_size@?$allocator_traits@V?$allocator@UPushTile@@@std@@@std@@SAIABV?$allocator@UPushTile@@@2@@Z ; std::allocator_traits<std::allocator<PushTile> >::max_size
PUBLIC	?select_on_container_copy_construction@?$allocator_traits@V?$allocator@UPushTile@@@std@@@std@@SA?AV?$allocator@UPushTile@@@2@ABV32@@Z ; std::allocator_traits<std::allocator<PushTile> >::select_on_container_copy_construction
PUBLIC	?select_on_container_copy_construction@?$_Wrap_alloc@V?$allocator@UPushTile@@@std@@@std@@QBE?AU12@U_Nil@2@@Z ; std::_Wrap_alloc<std::allocator<PushTile> >::select_on_container_copy_construction
PUBLIC	??0?$_Wrap_alloc@V?$allocator@UPushTile@@@std@@@std@@QAE@$$QAU01@@Z ; std::_Wrap_alloc<std::allocator<PushTile> >::_Wrap_alloc<std::allocator<PushTile> >
PUBLIC	?allocate@?$_Wrap_alloc@V?$allocator@UPushTile@@@std@@@std@@QAEPAUPushTile@@I@Z ; std::_Wrap_alloc<std::allocator<PushTile> >::allocate
PUBLIC	?deallocate@?$_Wrap_alloc@V?$allocator@UPushTile@@@std@@@std@@QAEXPAUPushTile@@I@Z ; std::_Wrap_alloc<std::allocator<PushTile> >::deallocate
PUBLIC	?max_size@?$_Wrap_alloc@V?$allocator@UPushTile@@@std@@@std@@QBEIU_Nil@2@@Z ; std::_Wrap_alloc<std::allocator<PushTile> >::max_size
PUBLIC	??1?$_Vector_alloc@U?$_Vec_base_types@UPushTile@@V?$allocator@UPushTile@@@std@@@std@@@std@@QAE@XZ ; std::_Vector_alloc<std::_Vec_base_types<PushTile,std::allocator<PushTile> > >::~_Vector_alloc<std::_Vec_base_types<PushTile,std::allocator<PushTile> > >
PUBLIC	?_Alloc_proxy@?$_Vector_alloc@U?$_Vec_base_types@UPushTile@@V?$allocator@UPushTile@@@std@@@std@@@std@@QAEXXZ ; std::_Vector_alloc<std::_Vec_base_types<PushTile,std::allocator<PushTile> > >::_Alloc_proxy
PUBLIC	?_Free_proxy@?$_Vector_alloc@U?$_Vec_base_types@UPushTile@@V?$allocator@UPushTile@@@std@@@std@@@std@@QAEXXZ ; std::_Vector_alloc<std::_Vec_base_types<PushTile,std::allocator<PushTile> > >::_Free_proxy
PUBLIC	?_Myproxy@?$_Vector_alloc@U?$_Vec_base_types@UPushTile@@V?$allocator@UPushTile@@@std@@@std@@@std@@QAEAAPAU_Container_proxy@2@XZ ; std::_Vector_alloc<std::_Vec_base_types<PushTile,std::allocator<PushTile> > >::_Myproxy
PUBLIC	?_Orphan_all@?$_Vector_alloc@U?$_Vec_base_types@UPushTile@@V?$allocator@UPushTile@@@std@@@std@@@std@@QAEXXZ ; std::_Vector_alloc<std::_Vec_base_types<PushTile,std::allocator<PushTile> > >::_Orphan_all
PUBLIC	?_Getal@?$_Vector_alloc@U?$_Vec_base_types@UPushTile@@V?$allocator@UPushTile@@@std@@@std@@@std@@QAEAAU?$_Wrap_alloc@V?$allocator@UPushTile@@@std@@@2@XZ ; std::_Vector_alloc<std::_Vec_base_types<PushTile,std::allocator<PushTile> > >::_Getal
PUBLIC	?_Getal@?$_Vector_alloc@U?$_Vec_base_types@UPushTile@@V?$allocator@UPushTile@@@std@@@std@@@std@@QBEABU?$_Wrap_alloc@V?$allocator@UPushTile@@@std@@@2@XZ ; std::_Vector_alloc<std::_Vec_base_types<PushTile,std::allocator<PushTile> > >::_Getal
PUBLIC	?_Get_data@?$_Vector_alloc@U?$_Vec_base_types@UPushTile@@V?$allocator@UPushTile@@@std@@@std@@@std@@QAEAAV?$_Vector_val@U?$_Simple_types@UPushTile@@@std@@@2@XZ ; std::_Vector_alloc<std::_Vec_base_types<PushTile,std::allocator<PushTile> > >::_Get_data
PUBLIC	?_Get_data@?$_Vector_alloc@U?$_Vec_base_types@UPushTile@@V?$allocator@UPushTile@@@std@@@std@@@std@@QBEABV?$_Vector_val@U?$_Simple_types@UPushTile@@@std@@@2@XZ ; std::_Vector_alloc<std::_Vec_base_types<PushTile,std::allocator<PushTile> > >::_Get_data
PUBLIC	?_Myfirst@?$_Vector_alloc@U?$_Vec_base_types@UPushTile@@V?$allocator@UPushTile@@@std@@@std@@@std@@QAEAAPAUPushTile@@XZ ; std::_Vector_alloc<std::_Vec_base_types<PushTile,std::allocator<PushTile> > >::_Myfirst
PUBLIC	?_Myfirst@?$_Vector_alloc@U?$_Vec_base_types@UPushTile@@V?$allocator@UPushTile@@@std@@@std@@@std@@QBEABQAUPushTile@@XZ ; std::_Vector_alloc<std::_Vec_base_types<PushTile,std::allocator<PushTile> > >::_Myfirst
PUBLIC	?_Mylast@?$_Vector_alloc@U?$_Vec_base_types@UPushTile@@V?$allocator@UPushTile@@@std@@@std@@@std@@QAEAAPAUPushTile@@XZ ; std::_Vector_alloc<std::_Vec_base_types<PushTile,std::allocator<PushTile> > >::_Mylast
PUBLIC	?_Mylast@?$_Vector_alloc@U?$_Vec_base_types@UPushTile@@V?$allocator@UPushTile@@@std@@@std@@@std@@QBEABQAUPushTile@@XZ ; std::_Vector_alloc<std::_Vec_base_types<PushTile,std::allocator<PushTile> > >::_Mylast
PUBLIC	?_Myend@?$_Vector_alloc@U?$_Vec_base_types@UPushTile@@V?$allocator@UPushTile@@@std@@@std@@@std@@QAEAAPAUPushTile@@XZ ; std::_Vector_alloc<std::_Vec_base_types<PushTile,std::allocator<PushTile> > >::_Myend
PUBLIC	??0?$_Vector_val@U?$_Simple_types@UPushTile@@@std@@@std@@QAE@XZ ; std::_Vector_val<std::_Simple_types<PushTile> >::_Vector_val<std::_Simple_types<PushTile> >
PUBLIC	??1?$_Vector_val@U?$_Simple_types@UPushTile@@@std@@@std@@QAE@XZ ; std::_Vector_val<std::_Simple_types<PushTile> >::~_Vector_val<std::_Simple_types<PushTile> >
PUBLIC	?_Get_first@?$_Compressed_pair@U?$_Wrap_alloc@V?$allocator@UPushTile@@@std@@@std@@V?$_Vector_val@U?$_Simple_types@UPushTile@@@std@@@2@$00@std@@QAEAAU?$_Wrap_alloc@V?$allocator@UPushTile@@@std@@@2@XZ ; std::_Compressed_pair<std::_Wrap_alloc<std::allocator<PushTile> >,std::_Vector_val<std::_Simple_types<PushTile> >,1>::_Get_first
PUBLIC	?_Get_first@?$_Compressed_pair@U?$_Wrap_alloc@V?$allocator@UPushTile@@@std@@@std@@V?$_Vector_val@U?$_Simple_types@UPushTile@@@std@@@2@$00@std@@QBEABU?$_Wrap_alloc@V?$allocator@UPushTile@@@std@@@2@XZ ; std::_Compressed_pair<std::_Wrap_alloc<std::allocator<PushTile> >,std::_Vector_val<std::_Simple_types<PushTile> >,1>::_Get_first
PUBLIC	?_Get_second@?$_Compressed_pair@U?$_Wrap_alloc@V?$allocator@UPushTile@@@std@@@std@@V?$_Vector_val@U?$_Simple_types@UPushTile@@@std@@@2@$00@std@@QAEAAV?$_Vector_val@U?$_Simple_types@UPushTile@@@std@@@2@XZ ; std::_Compressed_pair<std::_Wrap_alloc<std::allocator<PushTile> >,std::_Vector_val<std::_Simple_types<PushTile> >,1>::_Get_second
PUBLIC	?_Get_second@?$_Compressed_pair@U?$_Wrap_alloc@V?$allocator@UPushTile@@@std@@@std@@V?$_Vector_val@U?$_Simple_types@UPushTile@@@std@@@2@$00@std@@QBEABV?$_Vector_val@U?$_Simple_types@UPushTile@@@std@@@2@XZ ; std::_Compressed_pair<std::_Wrap_alloc<std::allocator<PushTile> >,std::_Vector_val<std::_Simple_types<PushTile> >,1>::_Get_second
PUBLIC	??1?$_Compressed_pair@U?$_Wrap_alloc@V?$allocator@UPushTile@@@std@@@std@@V?$_Vector_val@U?$_Simple_types@UPushTile@@@std@@@2@$00@std@@QAE@XZ ; std::_Compressed_pair<std::_Wrap_alloc<std::allocator<PushTile> >,std::_Vector_val<std::_Simple_types<PushTile> >,1>::~_Compressed_pair<std::_Wrap_alloc<std::allocator<PushTile> >,std::_Vector_val<std::_Simple_types<PushTile> >,1>
PUBLIC	??0?$vector@UPushTile@@V?$allocator@UPushTile@@@std@@@std@@QAE@ABV01@@Z ; std::vector<PushTile,std::allocator<PushTile> >::vector<PushTile,std::allocator<PushTile> >
PUBLIC	??1?$vector@UPushTile@@V?$allocator@UPushTile@@@std@@@std@@QAE@XZ ; std::vector<PushTile,std::allocator<PushTile> >::~vector<PushTile,std::allocator<PushTile> >
PUBLIC	?begin@?$vector@UPushTile@@V?$allocator@UPushTile@@@std@@@std@@QAE?AV?$_Vector_iterator@V?$_Vector_val@U?$_Simple_types@UPushTile@@@std@@@std@@@2@XZ ; std::vector<PushTile,std::allocator<PushTile> >::begin
PUBLIC	?begin@?$vector@UPushTile@@V?$allocator@UPushTile@@@std@@@std@@QBE?AV?$_Vector_const_iterator@V?$_Vector_val@U?$_Simple_types@UPushTile@@@std@@@std@@@2@XZ ; std::vector<PushTile,std::allocator<PushTile> >::begin
PUBLIC	?end@?$vector@UPushTile@@V?$allocator@UPushTile@@@std@@@std@@QAE?AV?$_Vector_iterator@V?$_Vector_val@U?$_Simple_types@UPushTile@@@std@@@std@@@2@XZ ; std::vector<PushTile,std::allocator<PushTile> >::end
PUBLIC	?end@?$vector@UPushTile@@V?$allocator@UPushTile@@@std@@@std@@QBE?AV?$_Vector_const_iterator@V?$_Vector_val@U?$_Simple_types@UPushTile@@@std@@@std@@@2@XZ ; std::vector<PushTile,std::allocator<PushTile> >::end
PUBLIC	?size@?$vector@UPushTile@@V?$allocator@UPushTile@@@std@@@std@@QBEIXZ ; std::vector<PushTile,std::allocator<PushTile> >::size
PUBLIC	?max_size@?$vector@UPushTile@@V?$allocator@UPushTile@@@std@@@std@@QBEIXZ ; std::vector<PushTile,std::allocator<PushTile> >::max_size
PUBLIC	?_Buy@?$vector@UPushTile@@V?$allocator@UPushTile@@@std@@@std@@IAE_NI@Z ; std::vector<PushTile,std::allocator<PushTile> >::_Buy
PUBLIC	?_Destroy@?$vector@UPushTile@@V?$allocator@UPushTile@@@std@@@std@@IAEXPAUPushTile@@0@Z ; std::vector<PushTile,std::allocator<PushTile> >::_Destroy
PUBLIC	?_Tidy@?$vector@UPushTile@@V?$allocator@UPushTile@@@std@@@std@@IAEXXZ ; std::vector<PushTile,std::allocator<PushTile> >::_Tidy
PUBLIC	?_Xlen@?$vector@UPushTile@@V?$allocator@UPushTile@@@std@@@std@@IBEXXZ ; std::vector<PushTile,std::allocator<PushTile> >::_Xlen
PUBLIC	??0?$_Iterator012@Urandom_access_iterator_tag@std@@UPushTile@@HPBU3@ABU3@U_Iterator_base12@2@@std@@QAE@XZ ; std::_Iterator012<std::random_access_iterator_tag,PushTile,int,PushTile const *,PushTile const &,std::_Iterator_base12>::_Iterator012<std::random_access_iterator_tag,PushTile,int,PushTile const *,PushTile const &,std::_Iterator_base12>
PUBLIC	??1?$_Iterator012@Urandom_access_iterator_tag@std@@UPushTile@@HPBU3@ABU3@U_Iterator_base12@2@@std@@QAE@XZ ; std::_Iterator012<std::random_access_iterator_tag,PushTile,int,PushTile const *,PushTile const &,std::_Iterator_base12>::~_Iterator012<std::random_access_iterator_tag,PushTile,int,PushTile const *,PushTile const &,std::_Iterator_base12>
PUBLIC	??0?$_Iterator012@Urandom_access_iterator_tag@std@@UPushTile@@HPBU3@ABU3@U_Iterator_base12@2@@std@@QAE@ABU01@@Z ; std::_Iterator012<std::random_access_iterator_tag,PushTile,int,PushTile const *,PushTile const &,std::_Iterator_base12>::_Iterator012<std::random_access_iterator_tag,PushTile,int,PushTile const *,PushTile const &,std::_Iterator_base12>
PUBLIC	??0?$_Vector_const_iterator@V?$_Vector_val@U?$_Simple_types@UPushTile@@@std@@@std@@@std@@QAE@PAUPushTile@@PBU_Container_base12@1@@Z ; std::_Vector_const_iterator<std::_Vector_val<std::_Simple_types<PushTile> > >::_Vector_const_iterator<std::_Vector_val<std::_Simple_types<PushTile> > >
PUBLIC	?_Unchecked@?$_Vector_const_iterator@V?$_Vector_val@U?$_Simple_types@UPushTile@@@std@@@std@@@std@@QBEPBUPushTile@@XZ ; std::_Vector_const_iterator<std::_Vector_val<std::_Simple_types<PushTile> > >::_Unchecked
PUBLIC	??D?$_Vector_const_iterator@V?$_Vector_val@U?$_Simple_types@UPushTile@@@std@@@std@@@std@@QBEABUPushTile@@XZ ; std::_Vector_const_iterator<std::_Vector_val<std::_Simple_types<PushTile> > >::operator*
PUBLIC	??E?$_Vector_const_iterator@V?$_Vector_val@U?$_Simple_types@UPushTile@@@std@@@std@@@std@@QAEAAV01@XZ ; std::_Vector_const_iterator<std::_Vector_val<std::_Simple_types<PushTile> > >::operator++
PUBLIC	??8?$_Vector_const_iterator@V?$_Vector_val@U?$_Simple_types@UPushTile@@@std@@@std@@@std@@QBE_NABV01@@Z ; std::_Vector_const_iterator<std::_Vector_val<std::_Simple_types<PushTile> > >::operator==
PUBLIC	??9?$_Vector_const_iterator@V?$_Vector_val@U?$_Simple_types@UPushTile@@@std@@@std@@@std@@QBE_NABV01@@Z ; std::_Vector_const_iterator<std::_Vector_val<std::_Simple_types<PushTile> > >::operator!=
PUBLIC	?_Compat@?$_Vector_const_iterator@V?$_Vector_val@U?$_Simple_types@UPushTile@@@std@@@std@@@std@@QBEXABV12@@Z ; std::_Vector_const_iterator<std::_Vector_val<std::_Simple_types<PushTile> > >::_Compat
PUBLIC	??1?$_Vector_const_iterator@V?$_Vector_val@U?$_Simple_types@UPushTile@@@std@@@std@@@std@@QAE@XZ ; std::_Vector_const_iterator<std::_Vector_val<std::_Simple_types<PushTile> > >::~_Vector_const_iterator<std::_Vector_val<std::_Simple_types<PushTile> > >
PUBLIC	??0?$_Vector_const_iterator@V?$_Vector_val@U?$_Simple_types@UPushTile@@@std@@@std@@@std@@QAE@ABV01@@Z ; std::_Vector_const_iterator<std::_Vector_val<std::_Simple_types<PushTile> > >::_Vector_const_iterator<std::_Vector_val<std::_Simple_types<PushTile> > >
PUBLIC	??0?$_Vector_iterator@V?$_Vector_val@U?$_Simple_types@UPushTile@@@std@@@std@@@std@@QAE@PAUPushTile@@PBU_Container_base12@1@@Z ; std::_Vector_iterator<std::_Vector_val<std::_Simple_types<PushTile> > >::_Vector_iterator<std::_Vector_val<std::_Simple_types<PushTile> > >
PUBLIC	??D?$_Vector_iterator@V?$_Vector_val@U?$_Simple_types@UPushTile@@@std@@@std@@@std@@QBEAAUPushTile@@XZ ; std::_Vector_iterator<std::_Vector_val<std::_Simple_types<PushTile> > >::operator*
PUBLIC	??E?$_Vector_iterator@V?$_Vector_val@U?$_Simple_types@UPushTile@@@std@@@std@@@std@@QAEAAV01@XZ ; std::_Vector_iterator<std::_Vector_val<std::_Simple_types<PushTile> > >::operator++
PUBLIC	??1?$_Vector_iterator@V?$_Vector_val@U?$_Simple_types@UPushTile@@@std@@@std@@@std@@QAE@XZ ; std::_Vector_iterator<std::_Vector_val<std::_Simple_types<PushTile> > >::~_Vector_iterator<std::_Vector_val<std::_Simple_types<PushTile> > >
PUBLIC	?__autoclassinit2@?$_Vector_iterator@V?$_Vector_val@U?$_Simple_types@UPushTile@@@std@@@std@@@std@@QAEXI@Z ; std::_Vector_iterator<std::_Vector_val<std::_Simple_types<PushTile> > >::__autoclassinit2
PUBLIC	?midpoint@Player@@QAE?AVVector2@@XZ		; Player::midpoint
PUBLIC	?top@Player@@QAENXZ				; Player::top
PUBLIC	?bottom@Player@@QAENXZ				; Player::bottom
PUBLIC	?left@Player@@QAENXZ				; Player::left
PUBLIC	?right@Player@@QAENXZ				; Player::right
PUBLIC	??0Player@@QAE@XZ				; Player::Player
PUBLIC	?UpdatePlayer@@YAXH@Z				; UpdatePlayer
PUBLIC	?DrawPlayer@@YAXXZ				; DrawPlayer
PUBLIC	?ResetPlayer@@YAXXZ				; ResetPlayer
PUBLIC	?CheckCollisionTop@@YA_NUTile@@@Z		; CheckCollisionTop
PUBLIC	?CheckCollisionBottom@@YA_NUTile@@@Z		; CheckCollisionBottom
PUBLIC	?CheckCollisionLeft@@YA_NUTile@@@Z		; CheckCollisionLeft
PUBLIC	?CheckCollisionRight@@YA_NUTile@@@Z		; CheckCollisionRight
PUBLIC	?CheckCollision@@YA_NUTile@@@Z			; CheckCollision
PUBLIC	?HandleCollision@@YAXUTile@@@Z			; HandleCollision
PUBLIC	?HandleBasicCollision@@YAXUTile@@@Z		; HandleBasicCollision
PUBLIC	?FloatingMovement@@YAXM@Z			; FloatingMovement
PUBLIC	?_Get_data@?$_Vector_alloc@U?$_Vec_base_types@HV?$allocator@H@std@@@std@@@std@@QAEAAV?$_Vector_val@U?$_Simple_types@H@std@@@2@XZ ; std::_Vector_alloc<std::_Vec_base_types<int,std::allocator<int> > >::_Get_data
PUBLIC	?_Myfirst@?$_Vector_alloc@U?$_Vec_base_types@HV?$allocator@H@std@@@std@@@std@@QAEAAPAHXZ ; std::_Vector_alloc<std::_Vec_base_types<int,std::allocator<int> > >::_Myfirst
PUBLIC	?_Mylast@?$_Vector_alloc@U?$_Vec_base_types@HV?$allocator@H@std@@@std@@@std@@QAEAAPAHXZ ; std::_Vector_alloc<std::_Vec_base_types<int,std::allocator<int> > >::_Mylast
PUBLIC	?_Get_second@?$_Compressed_pair@U?$_Wrap_alloc@V?$allocator@H@std@@@std@@V?$_Vector_val@U?$_Simple_types@H@std@@@2@$00@std@@QAEAAV?$_Vector_val@U?$_Simple_types@H@std@@@2@XZ ; std::_Compressed_pair<std::_Wrap_alloc<std::allocator<int> >,std::_Vector_val<std::_Simple_types<int> >,1>::_Get_second
PUBLIC	?begin@?$vector@HV?$allocator@H@std@@@std@@QAE?AV?$_Vector_iterator@V?$_Vector_val@U?$_Simple_types@H@std@@@std@@@2@XZ ; std::vector<int,std::allocator<int> >::begin
PUBLIC	?end@?$vector@HV?$allocator@H@std@@@std@@QAE?AV?$_Vector_iterator@V?$_Vector_val@U?$_Simple_types@H@std@@@std@@@2@XZ ; std::vector<int,std::allocator<int> >::end
PUBLIC	??0?$_Iterator012@Urandom_access_iterator_tag@std@@HHPBHABHU_Iterator_base12@2@@std@@QAE@XZ ; std::_Iterator012<std::random_access_iterator_tag,int,int,int const *,int const &,std::_Iterator_base12>::_Iterator012<std::random_access_iterator_tag,int,int,int const *,int const &,std::_Iterator_base12>
PUBLIC	??1?$_Iterator012@Urandom_access_iterator_tag@std@@HHPBHABHU_Iterator_base12@2@@std@@QAE@XZ ; std::_Iterator012<std::random_access_iterator_tag,int,int,int const *,int const &,std::_Iterator_base12>::~_Iterator012<std::random_access_iterator_tag,int,int,int const *,int const &,std::_Iterator_base12>
PUBLIC	??0?$_Iterator012@Urandom_access_iterator_tag@std@@HHPBHABHU_Iterator_base12@2@@std@@QAE@ABU01@@Z ; std::_Iterator012<std::random_access_iterator_tag,int,int,int const *,int const &,std::_Iterator_base12>::_Iterator012<std::random_access_iterator_tag,int,int,int const *,int const &,std::_Iterator_base12>
PUBLIC	??0?$_Vector_const_iterator@V?$_Vector_val@U?$_Simple_types@H@std@@@std@@@std@@QAE@PAHPBU_Container_base12@1@@Z ; std::_Vector_const_iterator<std::_Vector_val<std::_Simple_types<int> > >::_Vector_const_iterator<std::_Vector_val<std::_Simple_types<int> > >
PUBLIC	??8?$_Vector_const_iterator@V?$_Vector_val@U?$_Simple_types@H@std@@@std@@@std@@QBE_NABV01@@Z ; std::_Vector_const_iterator<std::_Vector_val<std::_Simple_types<int> > >::operator==
PUBLIC	??9?$_Vector_const_iterator@V?$_Vector_val@U?$_Simple_types@H@std@@@std@@@std@@QBE_NABV01@@Z ; std::_Vector_const_iterator<std::_Vector_val<std::_Simple_types<int> > >::operator!=
PUBLIC	??M?$_Vector_const_iterator@V?$_Vector_val@U?$_Simple_types@H@std@@@std@@@std@@QBE_NABV01@@Z ; std::_Vector_const_iterator<std::_Vector_val<std::_Simple_types<int> > >::operator<
PUBLIC	?_Compat@?$_Vector_const_iterator@V?$_Vector_val@U?$_Simple_types@H@std@@@std@@@std@@QBEXABV12@@Z ; std::_Vector_const_iterator<std::_Vector_val<std::_Simple_types<int> > >::_Compat
PUBLIC	??1?$_Vector_const_iterator@V?$_Vector_val@U?$_Simple_types@H@std@@@std@@@std@@QAE@XZ ; std::_Vector_const_iterator<std::_Vector_val<std::_Simple_types<int> > >::~_Vector_const_iterator<std::_Vector_val<std::_Simple_types<int> > >
PUBLIC	??0?$_Vector_const_iterator@V?$_Vector_val@U?$_Simple_types@H@std@@@std@@@std@@QAE@ABV01@@Z ; std::_Vector_const_iterator<std::_Vector_val<std::_Simple_types<int> > >::_Vector_const_iterator<std::_Vector_val<std::_Simple_types<int> > >
PUBLIC	??0?$_Vector_iterator@V?$_Vector_val@U?$_Simple_types@H@std@@@std@@@std@@QAE@PAHPBU_Container_base12@1@@Z ; std::_Vector_iterator<std::_Vector_val<std::_Simple_types<int> > >::_Vector_iterator<std::_Vector_val<std::_Simple_types<int> > >
PUBLIC	?_Rechecked@?$_Vector_iterator@V?$_Vector_val@U?$_Simple_types@H@std@@@std@@@std@@QAEAAV12@PAH@Z ; std::_Vector_iterator<std::_Vector_val<std::_Simple_types<int> > >::_Rechecked
PUBLIC	?_Unchecked@?$_Vector_iterator@V?$_Vector_val@U?$_Simple_types@H@std@@@std@@@std@@QBEPAHXZ ; std::_Vector_iterator<std::_Vector_val<std::_Simple_types<int> > >::_Unchecked
PUBLIC	??1?$_Vector_iterator@V?$_Vector_val@U?$_Simple_types@H@std@@@std@@@std@@QAE@XZ ; std::_Vector_iterator<std::_Vector_val<std::_Simple_types<int> > >::~_Vector_iterator<std::_Vector_val<std::_Simple_types<int> > >
PUBLIC	??0?$_Vector_iterator@V?$_Vector_val@U?$_Simple_types@H@std@@@std@@@std@@QAE@ABV01@@Z ; std::_Vector_iterator<std::_Vector_val<std::_Simple_types<int> > >::_Vector_iterator<std::_Vector_val<std::_Simple_types<int> > >
PUBLIC	??$find@V?$_Vector_iterator@V?$_Vector_val@U?$_Simple_types@H@std@@@std@@@std@@W4<unnamed-enum-SDLK_UNKNOWN>@@@std@@YA?AV?$_Vector_iterator@V?$_Vector_val@U?$_Simple_types@H@std@@@std@@@0@V10@0ABW4<unnamed-enum-SDLK_UNKNOWN>@@@Z ; std::find<std::_Vector_iterator<std::_Vector_val<std::_Simple_types<int> > >,enum <unnamed-enum-SDLK_UNKNOWN> >
PUBLIC	?_Get_data@?$_Vector_alloc@U?$_Vec_base_types@UAirTile@@V?$allocator@UAirTile@@@std@@@std@@@std@@QAEAAV?$_Vector_val@U?$_Simple_types@UAirTile@@@std@@@2@XZ ; std::_Vector_alloc<std::_Vec_base_types<AirTile,std::allocator<AirTile> > >::_Get_data
PUBLIC	?_Myfirst@?$_Vector_alloc@U?$_Vec_base_types@UAirTile@@V?$allocator@UAirTile@@@std@@@std@@@std@@QAEAAPAUAirTile@@XZ ; std::_Vector_alloc<std::_Vec_base_types<AirTile,std::allocator<AirTile> > >::_Myfirst
PUBLIC	?_Mylast@?$_Vector_alloc@U?$_Vec_base_types@UAirTile@@V?$allocator@UAirTile@@@std@@@std@@@std@@QAEAAPAUAirTile@@XZ ; std::_Vector_alloc<std::_Vec_base_types<AirTile,std::allocator<AirTile> > >::_Mylast
PUBLIC	?_Get_second@?$_Compressed_pair@U?$_Wrap_alloc@V?$allocator@UAirTile@@@std@@@std@@V?$_Vector_val@U?$_Simple_types@UAirTile@@@std@@@2@$00@std@@QAEAAV?$_Vector_val@U?$_Simple_types@UAirTile@@@std@@@2@XZ ; std::_Compressed_pair<std::_Wrap_alloc<std::allocator<AirTile> >,std::_Vector_val<std::_Simple_types<AirTile> >,1>::_Get_second
PUBLIC	?begin@?$vector@UAirTile@@V?$allocator@UAirTile@@@std@@@std@@QAE?AV?$_Vector_iterator@V?$_Vector_val@U?$_Simple_types@UAirTile@@@std@@@std@@@2@XZ ; std::vector<AirTile,std::allocator<AirTile> >::begin
PUBLIC	?end@?$vector@UAirTile@@V?$allocator@UAirTile@@@std@@@std@@QAE?AV?$_Vector_iterator@V?$_Vector_val@U?$_Simple_types@UAirTile@@@std@@@std@@@2@XZ ; std::vector<AirTile,std::allocator<AirTile> >::end
PUBLIC	??0?$_Iterator012@Urandom_access_iterator_tag@std@@UAirTile@@HPBU3@ABU3@U_Iterator_base12@2@@std@@QAE@XZ ; std::_Iterator012<std::random_access_iterator_tag,AirTile,int,AirTile const *,AirTile const &,std::_Iterator_base12>::_Iterator012<std::random_access_iterator_tag,AirTile,int,AirTile const *,AirTile const &,std::_Iterator_base12>
PUBLIC	??1?$_Iterator012@Urandom_access_iterator_tag@std@@UAirTile@@HPBU3@ABU3@U_Iterator_base12@2@@std@@QAE@XZ ; std::_Iterator012<std::random_access_iterator_tag,AirTile,int,AirTile const *,AirTile const &,std::_Iterator_base12>::~_Iterator012<std::random_access_iterator_tag,AirTile,int,AirTile const *,AirTile const &,std::_Iterator_base12>
PUBLIC	??0?$_Vector_const_iterator@V?$_Vector_val@U?$_Simple_types@UAirTile@@@std@@@std@@@std@@QAE@PAUAirTile@@PBU_Container_base12@1@@Z ; std::_Vector_const_iterator<std::_Vector_val<std::_Simple_types<AirTile> > >::_Vector_const_iterator<std::_Vector_val<std::_Simple_types<AirTile> > >
PUBLIC	??D?$_Vector_const_iterator@V?$_Vector_val@U?$_Simple_types@UAirTile@@@std@@@std@@@std@@QBEABUAirTile@@XZ ; std::_Vector_const_iterator<std::_Vector_val<std::_Simple_types<AirTile> > >::operator*
PUBLIC	??E?$_Vector_const_iterator@V?$_Vector_val@U?$_Simple_types@UAirTile@@@std@@@std@@@std@@QAEAAV01@XZ ; std::_Vector_const_iterator<std::_Vector_val<std::_Simple_types<AirTile> > >::operator++
PUBLIC	??8?$_Vector_const_iterator@V?$_Vector_val@U?$_Simple_types@UAirTile@@@std@@@std@@@std@@QBE_NABV01@@Z ; std::_Vector_const_iterator<std::_Vector_val<std::_Simple_types<AirTile> > >::operator==
PUBLIC	??9?$_Vector_const_iterator@V?$_Vector_val@U?$_Simple_types@UAirTile@@@std@@@std@@@std@@QBE_NABV01@@Z ; std::_Vector_const_iterator<std::_Vector_val<std::_Simple_types<AirTile> > >::operator!=
PUBLIC	?_Compat@?$_Vector_const_iterator@V?$_Vector_val@U?$_Simple_types@UAirTile@@@std@@@std@@@std@@QBEXABV12@@Z ; std::_Vector_const_iterator<std::_Vector_val<std::_Simple_types<AirTile> > >::_Compat
PUBLIC	??1?$_Vector_const_iterator@V?$_Vector_val@U?$_Simple_types@UAirTile@@@std@@@std@@@std@@QAE@XZ ; std::_Vector_const_iterator<std::_Vector_val<std::_Simple_types<AirTile> > >::~_Vector_const_iterator<std::_Vector_val<std::_Simple_types<AirTile> > >
PUBLIC	??0?$_Vector_iterator@V?$_Vector_val@U?$_Simple_types@UAirTile@@@std@@@std@@@std@@QAE@PAUAirTile@@PBU_Container_base12@1@@Z ; std::_Vector_iterator<std::_Vector_val<std::_Simple_types<AirTile> > >::_Vector_iterator<std::_Vector_val<std::_Simple_types<AirTile> > >
PUBLIC	??D?$_Vector_iterator@V?$_Vector_val@U?$_Simple_types@UAirTile@@@std@@@std@@@std@@QBEAAUAirTile@@XZ ; std::_Vector_iterator<std::_Vector_val<std::_Simple_types<AirTile> > >::operator*
PUBLIC	??E?$_Vector_iterator@V?$_Vector_val@U?$_Simple_types@UAirTile@@@std@@@std@@@std@@QAEAAV01@XZ ; std::_Vector_iterator<std::_Vector_val<std::_Simple_types<AirTile> > >::operator++
PUBLIC	??1?$_Vector_iterator@V?$_Vector_val@U?$_Simple_types@UAirTile@@@std@@@std@@@std@@QAE@XZ ; std::_Vector_iterator<std::_Vector_val<std::_Simple_types<AirTile> > >::~_Vector_iterator<std::_Vector_val<std::_Simple_types<AirTile> > >
PUBLIC	?__autoclassinit2@?$_Vector_iterator@V?$_Vector_val@U?$_Simple_types@UAirTile@@@std@@@std@@@std@@QAEXI@Z ; std::_Vector_iterator<std::_Vector_val<std::_Simple_types<AirTile> > >::__autoclassinit2
PUBLIC	?_Get_data@?$_Vector_alloc@U?$_Vec_base_types@UMovingTile@@V?$allocator@UMovingTile@@@std@@@std@@@std@@QAEAAV?$_Vector_val@U?$_Simple_types@UMovingTile@@@std@@@2@XZ ; std::_Vector_alloc<std::_Vec_base_types<MovingTile,std::allocator<MovingTile> > >::_Get_data
PUBLIC	?_Myfirst@?$_Vector_alloc@U?$_Vec_base_types@UMovingTile@@V?$allocator@UMovingTile@@@std@@@std@@@std@@QAEAAPAUMovingTile@@XZ ; std::_Vector_alloc<std::_Vec_base_types<MovingTile,std::allocator<MovingTile> > >::_Myfirst
PUBLIC	?_Mylast@?$_Vector_alloc@U?$_Vec_base_types@UMovingTile@@V?$allocator@UMovingTile@@@std@@@std@@@std@@QAEAAPAUMovingTile@@XZ ; std::_Vector_alloc<std::_Vec_base_types<MovingTile,std::allocator<MovingTile> > >::_Mylast
PUBLIC	?_Get_second@?$_Compressed_pair@U?$_Wrap_alloc@V?$allocator@UMovingTile@@@std@@@std@@V?$_Vector_val@U?$_Simple_types@UMovingTile@@@std@@@2@$00@std@@QAEAAV?$_Vector_val@U?$_Simple_types@UMovingTile@@@std@@@2@XZ ; std::_Compressed_pair<std::_Wrap_alloc<std::allocator<MovingTile> >,std::_Vector_val<std::_Simple_types<MovingTile> >,1>::_Get_second
PUBLIC	?begin@?$vector@UMovingTile@@V?$allocator@UMovingTile@@@std@@@std@@QAE?AV?$_Vector_iterator@V?$_Vector_val@U?$_Simple_types@UMovingTile@@@std@@@std@@@2@XZ ; std::vector<MovingTile,std::allocator<MovingTile> >::begin
PUBLIC	?end@?$vector@UMovingTile@@V?$allocator@UMovingTile@@@std@@@std@@QAE?AV?$_Vector_iterator@V?$_Vector_val@U?$_Simple_types@UMovingTile@@@std@@@std@@@2@XZ ; std::vector<MovingTile,std::allocator<MovingTile> >::end
PUBLIC	??0?$_Iterator012@Urandom_access_iterator_tag@std@@UMovingTile@@HPBU3@ABU3@U_Iterator_base12@2@@std@@QAE@XZ ; std::_Iterator012<std::random_access_iterator_tag,MovingTile,int,MovingTile const *,MovingTile const &,std::_Iterator_base12>::_Iterator012<std::random_access_iterator_tag,MovingTile,int,MovingTile const *,MovingTile const &,std::_Iterator_base12>
PUBLIC	??1?$_Iterator012@Urandom_access_iterator_tag@std@@UMovingTile@@HPBU3@ABU3@U_Iterator_base12@2@@std@@QAE@XZ ; std::_Iterator012<std::random_access_iterator_tag,MovingTile,int,MovingTile const *,MovingTile const &,std::_Iterator_base12>::~_Iterator012<std::random_access_iterator_tag,MovingTile,int,MovingTile const *,MovingTile const &,std::_Iterator_base12>
PUBLIC	??0?$_Vector_const_iterator@V?$_Vector_val@U?$_Simple_types@UMovingTile@@@std@@@std@@@std@@QAE@PAUMovingTile@@PBU_Container_base12@1@@Z ; std::_Vector_const_iterator<std::_Vector_val<std::_Simple_types<MovingTile> > >::_Vector_const_iterator<std::_Vector_val<std::_Simple_types<MovingTile> > >
PUBLIC	??D?$_Vector_const_iterator@V?$_Vector_val@U?$_Simple_types@UMovingTile@@@std@@@std@@@std@@QBEABUMovingTile@@XZ ; std::_Vector_const_iterator<std::_Vector_val<std::_Simple_types<MovingTile> > >::operator*
PUBLIC	??E?$_Vector_const_iterator@V?$_Vector_val@U?$_Simple_types@UMovingTile@@@std@@@std@@@std@@QAEAAV01@XZ ; std::_Vector_const_iterator<std::_Vector_val<std::_Simple_types<MovingTile> > >::operator++
PUBLIC	??8?$_Vector_const_iterator@V?$_Vector_val@U?$_Simple_types@UMovingTile@@@std@@@std@@@std@@QBE_NABV01@@Z ; std::_Vector_const_iterator<std::_Vector_val<std::_Simple_types<MovingTile> > >::operator==
PUBLIC	??9?$_Vector_const_iterator@V?$_Vector_val@U?$_Simple_types@UMovingTile@@@std@@@std@@@std@@QBE_NABV01@@Z ; std::_Vector_const_iterator<std::_Vector_val<std::_Simple_types<MovingTile> > >::operator!=
PUBLIC	?_Compat@?$_Vector_const_iterator@V?$_Vector_val@U?$_Simple_types@UMovingTile@@@std@@@std@@@std@@QBEXABV12@@Z ; std::_Vector_const_iterator<std::_Vector_val<std::_Simple_types<MovingTile> > >::_Compat
PUBLIC	??1?$_Vector_const_iterator@V?$_Vector_val@U?$_Simple_types@UMovingTile@@@std@@@std@@@std@@QAE@XZ ; std::_Vector_const_iterator<std::_Vector_val<std::_Simple_types<MovingTile> > >::~_Vector_const_iterator<std::_Vector_val<std::_Simple_types<MovingTile> > >
PUBLIC	??0?$_Vector_iterator@V?$_Vector_val@U?$_Simple_types@UMovingTile@@@std@@@std@@@std@@QAE@PAUMovingTile@@PBU_Container_base12@1@@Z ; std::_Vector_iterator<std::_Vector_val<std::_Simple_types<MovingTile> > >::_Vector_iterator<std::_Vector_val<std::_Simple_types<MovingTile> > >
PUBLIC	??D?$_Vector_iterator@V?$_Vector_val@U?$_Simple_types@UMovingTile@@@std@@@std@@@std@@QBEAAUMovingTile@@XZ ; std::_Vector_iterator<std::_Vector_val<std::_Simple_types<MovingTile> > >::operator*
PUBLIC	??E?$_Vector_iterator@V?$_Vector_val@U?$_Simple_types@UMovingTile@@@std@@@std@@@std@@QAEAAV01@XZ ; std::_Vector_iterator<std::_Vector_val<std::_Simple_types<MovingTile> > >::operator++
PUBLIC	??1?$_Vector_iterator@V?$_Vector_val@U?$_Simple_types@UMovingTile@@@std@@@std@@@std@@QAE@XZ ; std::_Vector_iterator<std::_Vector_val<std::_Simple_types<MovingTile> > >::~_Vector_iterator<std::_Vector_val<std::_Simple_types<MovingTile> > >
PUBLIC	?__autoclassinit2@?$_Vector_iterator@V?$_Vector_val@U?$_Simple_types@UMovingTile@@@std@@@std@@@std@@QAEXI@Z ; std::_Vector_iterator<std::_Vector_val<std::_Simple_types<MovingTile> > >::__autoclassinit2
PUBLIC	??$remove@V?$_Vector_iterator@V?$_Vector_val@U?$_Simple_types@UTile@@@std@@@std@@@std@@UTile@@@std@@YA?AV?$_Vector_iterator@V?$_Vector_val@U?$_Simple_types@UTile@@@std@@@std@@@0@V10@0ABUTile@@@Z ; std::remove<std::_Vector_iterator<std::_Vector_val<std::_Simple_types<Tile> > >,Tile>
PUBLIC	??$find@V?$_Vector_iterator@V?$_Vector_val@U?$_Simple_types@UTile@@@std@@@std@@@std@@UTile@@@std@@YA?AV?$_Vector_iterator@V?$_Vector_val@U?$_Simple_types@UTile@@@std@@@std@@@0@V10@0ABUTile@@@Z ; std::find<std::_Vector_iterator<std::_Vector_val<std::_Simple_types<Tile> > >,Tile>
PUBLIC	??$?0U?$_Wrap_alloc@V?$allocator@UPushTile@@@std@@@std@@X@?$_Vector_alloc@U?$_Vec_base_types@UPushTile@@V?$allocator@UPushTile@@@std@@@std@@@std@@QAE@$$QAU?$_Wrap_alloc@V?$allocator@UPushTile@@@std@@@1@@Z ; std::_Vector_alloc<std::_Vec_base_types<PushTile,std::allocator<PushTile> > >::_Vector_alloc<std::_Vec_base_types<PushTile,std::allocator<PushTile> > ><std::_Wrap_alloc<std::allocator<PushTile> >,void>
PUBLIC	??$_Ucopy@V?$_Vector_const_iterator@V?$_Vector_val@U?$_Simple_types@UPushTile@@@std@@@std@@@std@@@?$vector@UPushTile@@V?$allocator@UPushTile@@@std@@@std@@IAEPAUPushTile@@V?$_Vector_const_iterator@V?$_Vector_val@U?$_Simple_types@UPushTile@@@std@@@std@@@1@0PAU2@@Z ; std::vector<PushTile,std::allocator<PushTile> >::_Ucopy<std::_Vector_const_iterator<std::_Vector_val<std::_Simple_types<PushTile> > > >
PUBLIC	??$_Move_unchecked@PAUTile@@PAU1@@std@@YAPAUTile@@PAU1@00@Z ; std::_Move_unchecked<Tile *,Tile *>
PUBLIC	??$addressof@$$CBUTile@@@std@@YAPBUTile@@ABU1@@Z ; std::addressof<Tile const >
PUBLIC	??$_Unfancy@UTile@@@std@@YAPAUTile@@PAU1@@Z	; std::_Unfancy<Tile>
PUBLIC	??$construct@UTile@@AAU1@@?$_Wrap_alloc@V?$allocator@UTile@@@std@@@std@@QAEXPAUTile@@AAU2@@Z ; std::_Wrap_alloc<std::allocator<Tile> >::construct<Tile,Tile &>
PUBLIC	??$construct@UTile@@ABU1@@?$_Wrap_alloc@V?$allocator@UTile@@@std@@@std@@QAEXPAUTile@@ABU2@@Z ; std::_Wrap_alloc<std::allocator<Tile> >::construct<Tile,Tile const &>
PUBLIC	??$?0V?$allocator@UPushTile@@@std@@@?$_Wrap_alloc@V?$allocator@UPushTile@@@std@@@std@@QAE@$$QAV?$allocator@UPushTile@@@1@@Z ; std::_Wrap_alloc<std::allocator<PushTile> >::_Wrap_alloc<std::allocator<PushTile> ><std::allocator<PushTile> >
PUBLIC	??$?0$$V@?$_Compressed_pair@U?$_Wrap_alloc@V?$allocator@UTile@@@std@@@std@@V?$_Vector_val@U?$_Simple_types@UTile@@@std@@@2@$00@std@@QAE@U_Zero_then_variadic_args_t@1@@Z ; std::_Compressed_pair<std::_Wrap_alloc<std::allocator<Tile> >,std::_Vector_val<std::_Simple_types<Tile> >,1>::_Compressed_pair<std::_Wrap_alloc<std::allocator<Tile> >,std::_Vector_val<std::_Simple_types<Tile> >,1><>
PUBLIC	??$_Destroy_range@V?$allocator@UTile@@@std@@PAUTile@@@std@@YAXPAUTile@@0AAU?$_Wrap_alloc@V?$allocator@UTile@@@std@@@0@@Z ; std::_Destroy_range<std::allocator<Tile>,Tile *>
PUBLIC	?deallocate@?$allocator@U_Container_proxy@std@@@std@@QAEXPAU_Container_proxy@2@I@Z ; std::allocator<std::_Container_proxy>::deallocate
PUBLIC	?allocate@?$allocator@U_Container_proxy@std@@@std@@QAEPAU_Container_proxy@2@I@Z ; std::allocator<std::_Container_proxy>::allocate
PUBLIC	?address@?$_Wrap_alloc@V?$allocator@U_Container_proxy@std@@@std@@@std@@QBEPAU_Container_proxy@2@AAU32@@Z ; std::_Wrap_alloc<std::allocator<std::_Container_proxy> >::address
PUBLIC	?allocate@?$_Wrap_alloc@V?$allocator@U_Container_proxy@std@@@std@@@std@@QAEPAU_Container_proxy@2@I@Z ; std::_Wrap_alloc<std::allocator<std::_Container_proxy> >::allocate
PUBLIC	?deallocate@?$_Wrap_alloc@V?$allocator@U_Container_proxy@std@@@std@@@std@@QAEXPAU_Container_proxy@2@I@Z ; std::_Wrap_alloc<std::allocator<std::_Container_proxy> >::deallocate
PUBLIC	??$?0AAU?$_Wrap_alloc@V?$allocator@UPushTile@@@std@@@std@@@?$_Wrap_alloc@V?$allocator@U_Container_proxy@std@@@std@@@std@@QAE@AAU?$_Wrap_alloc@V?$allocator@UPushTile@@@std@@@1@@Z ; std::_Wrap_alloc<std::allocator<std::_Container_proxy> >::_Wrap_alloc<std::allocator<std::_Container_proxy> ><std::_Wrap_alloc<std::allocator<PushTile> > &>
PUBLIC	??$destroy@U_Container_proxy@std@@@?$_Wrap_alloc@V?$allocator@U_Container_proxy@std@@@std@@@std@@QAEXPAU_Container_proxy@1@@Z ; std::_Wrap_alloc<std::allocator<std::_Container_proxy> >::destroy<std::_Container_proxy>
PUBLIC	??$_Destroy_range@V?$allocator@UPushTile@@@std@@PAUPushTile@@@std@@YAXPAUPushTile@@0AAU?$_Wrap_alloc@V?$allocator@UPushTile@@@std@@@0@@Z ; std::_Destroy_range<std::allocator<PushTile>,PushTile *>
PUBLIC	??$?0AAU?$_Wrap_alloc@V?$allocator@UTile@@@std@@@std@@@?$_Wrap_alloc@V?$allocator@U_Container_proxy@std@@@std@@@std@@QAE@AAU?$_Wrap_alloc@V?$allocator@UTile@@@std@@@1@@Z ; std::_Wrap_alloc<std::allocator<std::_Container_proxy> >::_Wrap_alloc<std::allocator<std::_Container_proxy> ><std::_Wrap_alloc<std::allocator<Tile> > &>
PUBLIC	??$_Unfancy@U_Container_proxy@std@@@std@@YAPAU_Container_proxy@0@PAU10@@Z ; std::_Unfancy<std::_Container_proxy>
PUBLIC	??$construct@U_Container_proxy@std@@U12@@?$_Wrap_alloc@V?$allocator@U_Container_proxy@std@@@std@@@std@@QAEXPAU_Container_proxy@1@$$QAU21@@Z ; std::_Wrap_alloc<std::allocator<std::_Container_proxy> >::construct<std::_Container_proxy,std::_Container_proxy>
PUBLIC	??$_Umove@PAUTile@@@?$vector@UTile@@V?$allocator@UTile@@@std@@@std@@IAEPAUTile@@PAU2@00@Z ; std::vector<Tile,std::allocator<Tile> >::_Umove<Tile *>
PUBLIC	?pointer_to@?$pointer_traits@PAU_Container_proxy@std@@@std@@SAPAU_Container_proxy@2@AAU32@@Z ; std::pointer_traits<std::_Container_proxy *>::pointer_to
PUBLIC	??$addressof@U_Container_proxy@std@@@std@@YAPAU_Container_proxy@0@AAU10@@Z ; std::addressof<std::_Container_proxy>
PUBLIC	??$_Debug_range@V?$_Vector_iterator@V?$_Vector_val@U?$_Simple_types@H@std@@@std@@@std@@@std@@YAXV?$_Vector_iterator@V?$_Vector_val@U?$_Simple_types@H@std@@@std@@@0@0PB_WI@Z ; std::_Debug_range<std::_Vector_iterator<std::_Vector_val<std::_Simple_types<int> > > >
PUBLIC	??$_Unchecked@V?$_Vector_val@U?$_Simple_types@H@std@@@std@@@std@@YAPAHV?$_Vector_iterator@V?$_Vector_val@U?$_Simple_types@H@std@@@std@@@0@@Z ; std::_Unchecked<std::_Vector_val<std::_Simple_types<int> > >
PUBLIC	??$_Find_unchecked@PAHW4<unnamed-enum-SDLK_UNKNOWN>@@@std@@YAPAHPAH0ABW4<unnamed-enum-SDLK_UNKNOWN>@@@Z ; std::_Find_unchecked<int *,enum <unnamed-enum-SDLK_UNKNOWN> >
PUBLIC	??$_Rechecked@V?$_Vector_val@U?$_Simple_types@H@std@@@std@@@std@@YAAAV?$_Vector_iterator@V?$_Vector_val@U?$_Simple_types@H@std@@@std@@@0@AAV10@PAH@Z ; std::_Rechecked<std::_Vector_val<std::_Simple_types<int> > >
PUBLIC	??$_Debug_range@V?$_Vector_iterator@V?$_Vector_val@U?$_Simple_types@UTile@@@std@@@std@@@std@@@std@@YAXV?$_Vector_iterator@V?$_Vector_val@U?$_Simple_types@UTile@@@std@@@std@@@0@0PB_WI@Z ; std::_Debug_range<std::_Vector_iterator<std::_Vector_val<std::_Simple_types<Tile> > > >
PUBLIC	??$_Unchecked@V?$_Vector_val@U?$_Simple_types@UTile@@@std@@@std@@@std@@YAPAUTile@@V?$_Vector_iterator@V?$_Vector_val@U?$_Simple_types@UTile@@@std@@@std@@@0@@Z ; std::_Unchecked<std::_Vector_val<std::_Simple_types<Tile> > >
PUBLIC	??$_Remove_unchecked@PAUTile@@U1@@std@@YAPAUTile@@PAU1@0ABU1@@Z ; std::_Remove_unchecked<Tile *,Tile>
PUBLIC	??$_Rechecked@V?$_Vector_val@U?$_Simple_types@UTile@@@std@@@std@@@std@@YAAAV?$_Vector_iterator@V?$_Vector_val@U?$_Simple_types@UTile@@@std@@@std@@@0@AAV10@PAUTile@@@Z ; std::_Rechecked<std::_Vector_val<std::_Simple_types<Tile> > >
PUBLIC	??$_Find_unchecked@PAUTile@@U1@@std@@YAPAUTile@@PAU1@0ABU1@@Z ; std::_Find_unchecked<Tile *,Tile>
PUBLIC	??$forward@U?$_Wrap_alloc@V?$allocator@UPushTile@@@std@@@std@@@std@@YA$$QAU?$_Wrap_alloc@V?$allocator@UPushTile@@@std@@@0@AAU10@@Z ; std::forward<std::_Wrap_alloc<std::allocator<PushTile> > >
PUBLIC	??$?0U?$_Wrap_alloc@V?$allocator@UPushTile@@@std@@@std@@$$V@?$_Compressed_pair@U?$_Wrap_alloc@V?$allocator@UPushTile@@@std@@@std@@V?$_Vector_val@U?$_Simple_types@UPushTile@@@std@@@2@$00@std@@QAE@U_One_then_variadic_args_t@1@$$QAU?$_Wrap_alloc@V?$allocator@UPushTile@@@std@@@1@@Z ; std::_Compressed_pair<std::_Wrap_alloc<std::allocator<PushTile> >,std::_Vector_val<std::_Simple_types<PushTile> >,1>::_Compressed_pair<std::_Wrap_alloc<std::allocator<PushTile> >,std::_Vector_val<std::_Simple_types<PushTile> >,1><std::_Wrap_alloc<std::allocator<PushTile> > >
PUBLIC	??$_Uninitialized_copy@V?$_Vector_const_iterator@V?$_Vector_val@U?$_Simple_types@UPushTile@@@std@@@std@@@std@@PAUPushTile@@V?$allocator@UPushTile@@@2@@std@@YAPAUPushTile@@V?$_Vector_const_iterator@V?$_Vector_val@U?$_Simple_types@UPushTile@@@std@@@std@@@0@0PAU1@AAU?$_Wrap_alloc@V?$allocator@UPushTile@@@std@@@0@@Z ; std::_Uninitialized_copy<std::_Vector_const_iterator<std::_Vector_val<std::_Simple_types<PushTile> > >,PushTile *,std::allocator<PushTile> >
PUBLIC	??$_Ptr_move_cat@UTile@@U1@@std@@YA?AU_Trivially_copyable_ptr_iterator_tag@0@ABQAUTile@@0@Z ; std::_Ptr_move_cat<Tile,Tile>
PUBLIC	??$_Move_unchecked1@PAUTile@@PAU1@@std@@YAPAUTile@@PAU1@00U_Trivially_copyable_ptr_iterator_tag@0@@Z ; std::_Move_unchecked1<Tile *,Tile *>
PUBLIC	??$forward@AAUTile@@@std@@YAAAUTile@@AAU1@@Z	; std::forward<Tile &>
PUBLIC	??$construct@UTile@@AAU1@@?$allocator_traits@V?$allocator@UTile@@@std@@@std@@SAXAAV?$allocator@UTile@@@1@PAUTile@@AAU3@@Z ; std::allocator_traits<std::allocator<Tile> >::construct<Tile,Tile &>
PUBLIC	??$forward@ABUTile@@@std@@YAABUTile@@ABU1@@Z	; std::forward<Tile const &>
PUBLIC	??$construct@UTile@@ABU1@@?$allocator_traits@V?$allocator@UTile@@@std@@@std@@SAXAAV?$allocator@UTile@@@1@PAUTile@@ABU3@@Z ; std::allocator_traits<std::allocator<Tile> >::construct<Tile,Tile const &>
PUBLIC	??$forward@V?$allocator@UPushTile@@@std@@@std@@YA$$QAV?$allocator@UPushTile@@@0@AAV10@@Z ; std::forward<std::allocator<PushTile> >
PUBLIC	??$_Destroy_range1@V?$allocator@UTile@@@std@@PAUTile@@@std@@YAXPAUTile@@0AAU?$_Wrap_alloc@V?$allocator@UTile@@@std@@@0@U?$integral_constant@_N$00@0@@Z ; std::_Destroy_range1<std::allocator<Tile>,Tile *>
PUBLIC	??$forward@AAU?$_Wrap_alloc@V?$allocator@UPushTile@@@std@@@std@@@std@@YAAAU?$_Wrap_alloc@V?$allocator@UPushTile@@@std@@@0@AAU10@@Z ; std::forward<std::_Wrap_alloc<std::allocator<PushTile> > &>
PUBLIC	??$?0UPushTile@@@?$allocator@U_Container_proxy@std@@@std@@QAE@ABV?$allocator@UPushTile@@@1@@Z ; std::allocator<std::_Container_proxy>::allocator<std::_Container_proxy><PushTile>
PUBLIC	??$destroy@U_Container_proxy@std@@@?$allocator_traits@V?$allocator@U_Container_proxy@std@@@std@@@std@@SAXAAV?$allocator@U_Container_proxy@std@@@1@PAU_Container_proxy@1@@Z ; std::allocator_traits<std::allocator<std::_Container_proxy> >::destroy<std::_Container_proxy>
PUBLIC	??$_Destroy_range1@V?$allocator@UPushTile@@@std@@PAUPushTile@@@std@@YAXPAUPushTile@@0AAU?$_Wrap_alloc@V?$allocator@UPushTile@@@std@@@0@U?$integral_constant@_N$00@0@@Z ; std::_Destroy_range1<std::allocator<PushTile>,PushTile *>
PUBLIC	??$forward@AAU?$_Wrap_alloc@V?$allocator@UTile@@@std@@@std@@@std@@YAAAU?$_Wrap_alloc@V?$allocator@UTile@@@std@@@0@AAU10@@Z ; std::forward<std::_Wrap_alloc<std::allocator<Tile> > &>
PUBLIC	??$?0UTile@@@?$allocator@U_Container_proxy@std@@@std@@QAE@ABV?$allocator@UTile@@@1@@Z ; std::allocator<std::_Container_proxy>::allocator<std::_Container_proxy><Tile>
PUBLIC	??$forward@U_Container_proxy@std@@@std@@YA$$QAU_Container_proxy@0@AAU10@@Z ; std::forward<std::_Container_proxy>
PUBLIC	??$construct@U_Container_proxy@std@@U12@@?$allocator_traits@V?$allocator@U_Container_proxy@std@@@std@@@std@@SAXAAV?$allocator@U_Container_proxy@std@@@1@PAU_Container_proxy@1@$$QAU31@@Z ; std::allocator_traits<std::allocator<std::_Container_proxy> >::construct<std::_Container_proxy,std::_Container_proxy>
PUBLIC	??$_Uninitialized_move@PAUTile@@PAU1@V?$allocator@UTile@@@std@@@std@@YAPAUTile@@PAU1@00AAU?$_Wrap_alloc@V?$allocator@UTile@@@std@@@0@@Z ; std::_Uninitialized_move<Tile *,Tile *,std::allocator<Tile> >
PUBLIC	??$_Debug_range2@V?$_Vector_iterator@V?$_Vector_val@U?$_Simple_types@H@std@@@std@@@std@@@std@@YAXV?$_Vector_iterator@V?$_Vector_val@U?$_Simple_types@H@std@@@std@@@0@0PB_WIUrandom_access_iterator_tag@0@@Z ; std::_Debug_range2<std::_Vector_iterator<std::_Vector_val<std::_Simple_types<int> > > >
PUBLIC	??$_Find_unchecked1@PAHW4<unnamed-enum-SDLK_UNKNOWN>@@@std@@YAPAHPAH0ABW4<unnamed-enum-SDLK_UNKNOWN>@@U?$integral_constant@_N$0A@@0@@Z ; std::_Find_unchecked1<int *,enum <unnamed-enum-SDLK_UNKNOWN> >
PUBLIC	??$_Debug_range2@V?$_Vector_iterator@V?$_Vector_val@U?$_Simple_types@UTile@@@std@@@std@@@std@@@std@@YAXV?$_Vector_iterator@V?$_Vector_val@U?$_Simple_types@UTile@@@std@@@std@@@0@0PB_WIUrandom_access_iterator_tag@0@@Z ; std::_Debug_range2<std::_Vector_iterator<std::_Vector_val<std::_Simple_types<Tile> > > >
PUBLIC	??$move@AAUTile@@@std@@YA$$QAUTile@@AAU1@@Z	; std::move<Tile &>
PUBLIC	??$_Find_unchecked1@PAUTile@@U1@@std@@YAPAUTile@@PAU1@0ABU1@U?$integral_constant@_N$0A@@0@@Z ; std::_Find_unchecked1<Tile *,Tile>
PUBLIC	??$_Unchecked@V?$_Vector_val@U?$_Simple_types@UPushTile@@@std@@@std@@@std@@YAPBUPushTile@@V?$_Vector_const_iterator@V?$_Vector_val@U?$_Simple_types@UPushTile@@@std@@@std@@@0@@Z ; std::_Unchecked<std::_Vector_val<std::_Simple_types<PushTile> > >
PUBLIC	??$_Unchecked@PAUPushTile@@@std@@YAPAUPushTile@@PAU1@@Z ; std::_Unchecked<PushTile *>
PUBLIC	??$_Uninitialized_copy_al_unchecked@PBUPushTile@@PAU1@V?$allocator@UPushTile@@@std@@@std@@YAPAUPushTile@@PBU1@0PAU1@AAU?$_Wrap_alloc@V?$allocator@UPushTile@@@std@@@0@@Z ; std::_Uninitialized_copy_al_unchecked<PushTile const *,PushTile *,std::allocator<PushTile> >
PUBLIC	??$_Rechecked@PAUPushTile@@PAU1@@std@@YAAAPAUPushTile@@AAPAU1@PAU1@@Z ; std::_Rechecked<PushTile *,PushTile *>
PUBLIC	??$_Copy_memmove@PAUTile@@PAU1@@std@@YAPAUTile@@PAU1@00@Z ; std::_Copy_memmove<Tile *,Tile *>
PUBLIC	??$construct@UTile@@AAU1@@?$allocator@UTile@@@std@@QAEXPAUTile@@AAU2@@Z ; std::allocator<Tile>::construct<Tile,Tile &>
PUBLIC	??$construct@UTile@@ABU1@@?$allocator@UTile@@@std@@QAEXPAUTile@@ABU2@@Z ; std::allocator<Tile>::construct<Tile,Tile const &>
PUBLIC	??$destroy@U_Container_proxy@std@@@?$allocator@U_Container_proxy@std@@@std@@QAEXPAU_Container_proxy@1@@Z ; std::allocator<std::_Container_proxy>::destroy<std::_Container_proxy>
PUBLIC	??$construct@U_Container_proxy@std@@U12@@?$allocator@U_Container_proxy@std@@@std@@QAEXPAU_Container_proxy@1@$$QAU21@@Z ; std::allocator<std::_Container_proxy>::construct<std::_Container_proxy,std::_Container_proxy>
PUBLIC	??$_Unchecked@PAUTile@@@std@@YAPAUTile@@PAU1@@Z	; std::_Unchecked<Tile *>
PUBLIC	??$_Uninitialized_move_al_unchecked@PAUTile@@PAU1@V?$allocator@UTile@@@std@@@std@@YAPAUTile@@PAU1@00AAU?$_Wrap_alloc@V?$allocator@UTile@@@std@@@0@@Z ; std::_Uninitialized_move_al_unchecked<Tile *,Tile *,std::allocator<Tile> >
PUBLIC	??$_Rechecked@PAUTile@@PAU1@@std@@YAAAPAUTile@@AAPAU1@PAU1@@Z ; std::_Rechecked<Tile *,Tile *>
PUBLIC	??$move@AAU?$_Wrap_alloc@V?$allocator@UPushTile@@@std@@@std@@@std@@YA$$QAU?$_Wrap_alloc@V?$allocator@UPushTile@@@std@@@0@AAU10@@Z ; std::move<std::_Wrap_alloc<std::allocator<PushTile> > &>
PUBLIC	??$_Debug_pointer@V?$_Vector_iterator@V?$_Vector_val@U?$_Simple_types@H@std@@@std@@@std@@@std@@YAXAAV?$_Vector_iterator@V?$_Vector_val@U?$_Simple_types@H@std@@@std@@@0@PB_WI@Z ; std::_Debug_pointer<std::_Vector_iterator<std::_Vector_val<std::_Simple_types<int> > > >
PUBLIC	??$_Debug_pointer@V?$_Vector_iterator@V?$_Vector_val@U?$_Simple_types@UTile@@@std@@@std@@@std@@@std@@YAXAAV?$_Vector_iterator@V?$_Vector_val@U?$_Simple_types@UTile@@@std@@@std@@@0@PB_WI@Z ; std::_Debug_pointer<std::_Vector_iterator<std::_Vector_val<std::_Simple_types<Tile> > > >
PUBLIC	??$_Ptr_copy_cat@$$CBUPushTile@@U1@@std@@YA?AU_Trivially_copyable_ptr_iterator_tag@0@ABQBUPushTile@@ABQAU2@@Z ; std::_Ptr_copy_cat<PushTile const ,PushTile>
PUBLIC	??$_Unfancy@UPushTile@@@std@@YAPAUPushTile@@PAU1@@Z ; std::_Unfancy<PushTile>
PUBLIC	??$_Uninitialized_copy_al_unchecked1@PBUPushTile@@PAU1@V?$allocator@UPushTile@@@std@@@std@@YAPAUPushTile@@PBU1@0PAU1@AAU?$_Wrap_alloc@V?$allocator@UPushTile@@@std@@@0@U_General_ptr_iterator_tag@0@U_Any_tag@0@@Z ; std::_Uninitialized_copy_al_unchecked1<PushTile const *,PushTile *,std::allocator<PushTile> >
PUBLIC	??$?0U?$integral_constant@_N$00@std@@@_Any_tag@std@@QAE@$$QAU?$integral_constant@_N$00@1@@Z ; std::_Any_tag::_Any_tag<std::integral_constant<bool,1> >
PUBLIC	??$_Uninitialized_move_al_unchecked1@PAUTile@@PAU1@V?$allocator@UTile@@@std@@@std@@YAPAUTile@@PAU1@00AAU?$_Wrap_alloc@V?$allocator@UTile@@@std@@@0@U_General_ptr_iterator_tag@0@U_Any_tag@0@@Z ; std::_Uninitialized_move_al_unchecked1<Tile *,Tile *,std::allocator<Tile> >
PUBLIC	??$construct@UPushTile@@ABU1@@?$_Wrap_alloc@V?$allocator@UPushTile@@@std@@@std@@QAEXPAUPushTile@@ABU2@@Z ; std::_Wrap_alloc<std::allocator<PushTile> >::construct<PushTile,PushTile const &>
PUBLIC	??$construct@UTile@@U1@@?$_Wrap_alloc@V?$allocator@UTile@@@std@@@std@@QAEXPAUTile@@$$QAU2@@Z ; std::_Wrap_alloc<std::allocator<Tile> >::construct<Tile,Tile>
PUBLIC	??$forward@ABUPushTile@@@std@@YAABUPushTile@@ABU1@@Z ; std::forward<PushTile const &>
PUBLIC	??$construct@UPushTile@@ABU1@@?$allocator_traits@V?$allocator@UPushTile@@@std@@@std@@SAXAAV?$allocator@UPushTile@@@1@PAUPushTile@@ABU3@@Z ; std::allocator_traits<std::allocator<PushTile> >::construct<PushTile,PushTile const &>
PUBLIC	??$forward@UTile@@@std@@YA$$QAUTile@@AAU1@@Z	; std::forward<Tile>
PUBLIC	??$construct@UTile@@U1@@?$allocator_traits@V?$allocator@UTile@@@std@@@std@@SAXAAV?$allocator@UTile@@@1@PAUTile@@$$QAU3@@Z ; std::allocator_traits<std::allocator<Tile> >::construct<Tile,Tile>
PUBLIC	??$construct@UPushTile@@ABU1@@?$allocator@UPushTile@@@std@@QAEXPAUPushTile@@ABU2@@Z ; std::allocator<PushTile>::construct<PushTile,PushTile const &>
PUBLIC	??$construct@UTile@@U1@@?$allocator@UTile@@@std@@QAEXPAUTile@@$$QAU2@@Z ; std::allocator<Tile>::construct<Tile,Tile>
PUBLIC	??_C@_1JA@MHADJNIL@?$AAc?$AA?3?$AA?2?$AAp?$AAr?$AAo?$AAg?$AAr?$AAa?$AAm?$AA?5?$AAf?$AAi?$AAl?$AAe?$AAs?$AA?5?$AA?$CI?$AAx?$AA8?$AA6?$AA?$CJ?$AA?2?$AAm?$AAi?$AAc?$AAr?$AAo?$AAs?$AAo?$AAf?$AAt@ ; `string'
PUBLIC	??_C@_1DC@POOIKBAO@?$AAI?$AAT?$AAE?$AAR?$AAA?$AAT?$AAO?$AAR?$AA?5?$AAL?$AAI?$AAS?$AAT?$AA?5?$AAC?$AAO?$AAR?$AAR?$AAU?$AAP?$AAT?$AAE?$AAD?$AA?$CB?$AA?$AA@ ; `string'
PUBLIC	?__LINE__Var@?0??_Allocate@std@@YAPAXII_N@Z@4JA	; `std::_Allocate'::`1'::__LINE__Var
PUBLIC	??_C@_0BE@LMNLACIC@_Ptr_container?5?$CB?$DN?50?$AA@ ; `string'
PUBLIC	??_C@_1DG@HGDKEBPG@?$AA?$CC?$AA_?$AAP?$AAt?$AAr?$AA_?$AAc?$AAo?$AAn?$AAt?$AAa?$AAi?$AAn?$AAe?$AAr?$AA?5?$AA?$CB?$AA?$DN?$AA?5?$AA0?$AA?$CC?$AA?5?$AA?$CG?$AA?$CG?$AA?5?$AA0?$AA?$AA@ ; `string'
PUBLIC	??_C@_17CNPHIMPH@?$AA?$CF?$AAl?$AAs?$AA?$AA@	; `string'
PUBLIC	??_C@_1JA@DKOIEICI@?$AAc?$AA?3?$AA?2?$AAp?$AAr?$AAo?$AAg?$AAr?$AAa?$AAm?$AA?5?$AAf?$AAi?$AAl?$AAe?$AAs?$AA?5?$AA?$CI?$AAx?$AA8?$AA6?$AA?$CJ?$AA?2?$AAm?$AAi?$AAc?$AAr?$AAo?$AAs?$AAo?$AAf?$AAt@ ; `string'
PUBLIC	??_C@_1BO@NKFMJPA@?$AAs?$AAt?$AAd?$AA?3?$AA?3?$AA_?$AAA?$AAl?$AAl?$AAo?$AAc?$AAa?$AAt?$AAe?$AA?$AA@ ; `string'
PUBLIC	??_C@_1CG@JNLFBNGN@?$AA?$CC?$AAi?$AAn?$AAv?$AAa?$AAl?$AAi?$AAd?$AA?5?$AAa?$AAr?$AAg?$AAu?$AAm?$AAe?$AAn?$AAt?$AA?$CC?$AA?$AA@ ; `string'
PUBLIC	??_C@_09GLJCAGLP@_Ptr?5?$CB?$DN?50?$AA@		; `string'
PUBLIC	??_C@_1CC@GKJLLHIM@?$AA?$CC?$AA_?$AAP?$AAt?$AAr?$AA?5?$AA?$CB?$AA?$DN?$AA?5?$AA0?$AA?$CC?$AA?5?$AA?$CG?$AA?$CG?$AA?5?$AA0?$AA?$AA@ ; `string'
PUBLIC	?__LINE__Var@?0??_Deallocate@std@@YAXPAXII@Z@4JA ; `std::_Deallocate'::`1'::__LINE__Var
PUBLIC	??_C@_0BN@HMCJOMKN@_Count?5?$DM?$DN?5?$CIsize_t?$CJ?$CI?91?$CJ?5?1?5_Sz?$AA@ ; `string'
PUBLIC	??_C@_1EI@MLOBABC@?$AA?$CC?$AA_?$AAC?$AAo?$AAu?$AAn?$AAt?$AA?5?$AA?$DM?$AA?$DN?$AA?5?$AA?$CI?$AAs?$AAi?$AAz?$AAe?$AA_?$AAt?$AA?$CJ?$AA?$CI?$AA?9?$AA1?$AA?$CJ?$AA?5?$AA?1?$AA?5?$AA_?$AAS?$AAz?$AA?$CC?$AA?5?$AA?$CG@ ; `string'
PUBLIC	??_C@_1CC@LOFJFFDB@?$AAs?$AAt?$AAd?$AA?3?$AA?3?$AA_?$AAD?$AAe?$AAa?$AAl?$AAl?$AAo?$AAc?$AAa?$AAt?$AAe?$AA?$AA@ ; `string'
PUBLIC	??_C@_0DD@GBGGGKGG@?$CI_Ptr_user?5?$CG?5?$CI_BIG_ALLOCATION_AL@ ; `string'
PUBLIC	??_C@_1HE@CDMBFOKC@?$AA?$CC?$AA?$CI?$AA_?$AAP?$AAt?$AAr?$AA_?$AAu?$AAs?$AAe?$AAr?$AA?5?$AA?$CG?$AA?5?$AA?$CI?$AA_?$AAB?$AAI?$AAG?$AA_?$AAA?$AAL?$AAL?$AAO?$AAC?$AAA?$AAT?$AAI?$AAO?$AAN?$AA_?$AAA@ ; `string'
PUBLIC	??_C@_0EI@NOJHEJCJ@reinterpret_cast?$DMuintptr_t?5?$CK?$DO?$CI_P@ ; `string'
PUBLIC	??_C@_1JO@EKLKIEHP@?$AA?$CC?$AAr?$AAe?$AAi?$AAn?$AAt?$AAe?$AAr?$AAp?$AAr?$AAe?$AAt?$AA_?$AAc?$AAa?$AAs?$AAt?$AA?$DM?$AAu?$AAi?$AAn?$AAt?$AAp?$AAt?$AAr?$AA_?$AAt?$AA?5?$AA?$CK?$AA?$DO?$AA?$CI?$AA_@ ; `string'
PUBLIC	??_C@_0BL@OCKMEJON@_Ptr_container?5?$DM?5_Ptr_user?$AA@ ; `string'
PUBLIC	??_C@_1EE@PDHAHDDC@?$AA?$CC?$AA_?$AAP?$AAt?$AAr?$AA_?$AAc?$AAo?$AAn?$AAt?$AAa?$AAi?$AAn?$AAe?$AAr?$AA?5?$AA?$DM?$AA?5?$AA_?$AAP?$AAt?$AAr?$AA_?$AAu?$AAs?$AAe?$AAr?$AA?$CC?$AA?5?$AA?$CG?$AA?$CG?$AA?5@ ; `string'
PUBLIC	??_C@_0DB@GLFJLNCE@2?5?$CK?5sizeof?$CIvoid?5?$CK?$CJ?5?$DM?$DN?5_Ptr_user?5@ ; `string'
PUBLIC	??_C@_1HA@NAPGMHAO@?$AA?$CC?$AA2?$AA?5?$AA?$CK?$AA?5?$AAs?$AAi?$AAz?$AAe?$AAo?$AAf?$AA?$CI?$AAv?$AAo?$AAi?$AAd?$AA?5?$AA?$CK?$AA?$CJ?$AA?5?$AA?$DM?$AA?$DN?$AA?5?$AA_?$AAP?$AAt?$AAr?$AA_?$AAu?$AAs?$AAe?$AAr@ ; `string'
PUBLIC	??_C@_0CN@BLHJCAL@_Ptr_user?5?9?5_Ptr_container?5?$DM?$DN?5_N@ ; `string'
PUBLIC	??_C@_1GI@DHJGPFNI@?$AA?$CC?$AA_?$AAP?$AAt?$AAr?$AA_?$AAu?$AAs?$AAe?$AAr?$AA?5?$AA?9?$AA?5?$AA_?$AAP?$AAt?$AAr?$AA_?$AAc?$AAo?$AAn?$AAt?$AAa?$AAi?$AAn?$AAe?$AAr?$AA?5?$AA?$DM?$AA?$DN?$AA?5?$AA_@ ; `string'
PUBLIC	?player@@3UPlayer@@A				; player
PUBLIC	?groundTileList@@3V?$vector@UTile@@V?$allocator@UTile@@@std@@@std@@A ; groundTileList
PUBLIC	??_C@_0BG@EIAGFEK@?4?4?1Content?1player?4bmp?$AA@ ; `string'
PUBLIC	??_C@_1IM@NCODKBJH@?$AAc?$AA?3?$AA?2?$AAp?$AAr?$AAo?$AAg?$AAr?$AAa?$AAm?$AA?5?$AAf?$AAi?$AAl?$AAe?$AAs?$AA?5?$AA?$CI?$AAx?$AA8?$AA6?$AA?$CJ?$AA?2?$AAm?$AAi?$AAc?$AAr?$AAo?$AAs?$AAo?$AAf?$AAt@ ; `string'
PUBLIC	??_C@_1EI@HGIDLLCM@?$AAv?$AAe?$AAc?$AAt?$AAo?$AAr?$AA?5?$AAe?$AAr?$AAa?$AAs?$AAe?$AA?5?$AAi?$AAt?$AAe?$AAr?$AAa?$AAt?$AAo?$AAr?$AA?5?$AAo?$AAu?$AAt?$AAs?$AAi?$AAd?$AAe?$AA?5?$AAr?$AAa@ ; `string'
PUBLIC	??_C@_1EE@EJDKCLKB@?$AAv?$AAe?$AAc?$AAt?$AAo?$AAr?$AA?5?$AAi?$AAt?$AAe?$AAr?$AAa?$AAt?$AAo?$AAr?$AA?5?$AAn?$AAo?$AAt?$AA?5?$AAi?$AAn?$AAc?$AAr?$AAe?$AAm?$AAe?$AAn?$AAt?$AAa?$AAb?$AAl@ ; `string'
PUBLIC	??_C@_0CE@OFMIGAMM@Standard?5C?$CL?$CL?5Libraries?5Out?5of?5Ra@ ; `string'
PUBLIC	??_C@_1FG@IBPIFFN@?$AA?$CC?$AAS?$AAt?$AAa?$AAn?$AAd?$AAa?$AAr?$AAd?$AA?5?$AAC?$AA?$CL?$AA?$CL?$AA?5?$AAL?$AAi?$AAb?$AAr?$AAa?$AAr?$AAi?$AAe?$AAs?$AA?5?$AAO?$AAu?$AAt?$AA?5?$AAo?$AAf?$AA?5?$AAR@ ; `string'
PUBLIC	??_C@_1OC@EGHAOCGO@?$AAs?$AAt?$AAd?$AA?3?$AA?3?$AA_?$AAV?$AAe?$AAc?$AAt?$AAo?$AAr?$AA_?$AAc?$AAo?$AAn?$AAs?$AAt?$AA_?$AAi?$AAt?$AAe?$AAr?$AAa?$AAt?$AAo?$AAr?$AA?$DM?$AAc?$AAl?$AAa?$AAs@ ; `string'
PUBLIC	??_C@_1BO@MEPPHOO@?$AA?$CC?$AAo?$AAu?$AAt?$AA?5?$AAo?$AAf?$AA?5?$AAr?$AAa?$AAn?$AAg?$AAe?$AA?$CC?$AA?$AA@ ; `string'
PUBLIC	??_C@_1EG@FOHJJHAC@?$AAv?$AAe?$AAc?$AAt?$AAo?$AAr?$AA?5?$AAi?$AAt?$AAe?$AAr?$AAa?$AAt?$AAo?$AAr?$AA?5?$AAn?$AAo?$AAt?$AA?5?$AAd?$AAe?$AAr?$AAe?$AAf?$AAe?$AAr?$AAe?$AAn?$AAc?$AAa?$AAb@ ; `string'
PUBLIC	??_C@_1OA@POONEEJK@?$AAs?$AAt?$AAd?$AA?3?$AA?3?$AA_?$AAV?$AAe?$AAc?$AAt?$AAo?$AAr?$AA_?$AAc?$AAo?$AAn?$AAs?$AAt?$AA_?$AAi?$AAt?$AAe?$AAr?$AAa?$AAt?$AAo?$AAr?$AA?$DM?$AAc?$AAl?$AAa?$AAs@ ; `string'
PUBLIC	??_C@_1NM@NIBONEGJ@?$AAs?$AAt?$AAd?$AA?3?$AA?3?$AA_?$AAV?$AAe?$AAc?$AAt?$AAo?$AAr?$AA_?$AAc?$AAo?$AAn?$AAs?$AAt?$AA_?$AAi?$AAt?$AAe?$AAr?$AAa?$AAt?$AAo?$AAr?$AA?$DM?$AAc?$AAl?$AAa?$AAs@ ; `string'
PUBLIC	??_C@_1NK@FNOHGEBE@?$AAs?$AAt?$AAd?$AA?3?$AA?3?$AA_?$AAV?$AAe?$AAc?$AAt?$AAo?$AAr?$AA_?$AAc?$AAo?$AAn?$AAs?$AAt?$AA_?$AAi?$AAt?$AAe?$AAr?$AAa?$AAt?$AAo?$AAr?$AA?$DM?$AAc?$AAl?$AAa?$AAs@ ; `string'
PUBLIC	??_C@_1DM@HINDPMBP@?$AAv?$AAe?$AAc?$AAt?$AAo?$AAr?$AA?5?$AAi?$AAt?$AAe?$AAr?$AAa?$AAt?$AAo?$AAr?$AAs?$AA?5?$AAi?$AAn?$AAc?$AAo?$AAm?$AAp?$AAa?$AAt?$AAi?$AAb?$AAl?$AAe?$AA?$AA@ ; `string'
PUBLIC	??_C@_0CI@FNPHFCCM@Standard?5C?$CL?$CL?5Libraries?5Invalid?5A@ ; `string'
PUBLIC	??_C@_1FO@GJIHNDLM@?$AA?$CC?$AAS?$AAt?$AAa?$AAn?$AAd?$AAa?$AAr?$AAd?$AA?5?$AAC?$AA?$CL?$AA?$CL?$AA?5?$AAL?$AAi?$AAb?$AAr?$AAa?$AAr?$AAi?$AAe?$AAs?$AA?5?$AAI?$AAn?$AAv?$AAa?$AAl?$AAi?$AAd?$AA?5@ ; `string'
PUBLIC	??_C@_1LO@MGELDLOO@?$AAs?$AAt?$AAd?$AA?3?$AA?3?$AA_?$AAV?$AAe?$AAc?$AAt?$AAo?$AAr?$AA_?$AAc?$AAo?$AAn?$AAs?$AAt?$AA_?$AAi?$AAt?$AAe?$AAr?$AAa?$AAt?$AAo?$AAr?$AA?$DM?$AAc?$AAl?$AAa?$AAs@ ; `string'
PUBLIC	??_C@_1NO@MMDDECIN@?$AAs?$AAt?$AAd?$AA?3?$AA?3?$AA_?$AAV?$AAe?$AAc?$AAt?$AAo?$AAr?$AA_?$AAc?$AAo?$AAn?$AAs?$AAt?$AA_?$AAi?$AAt?$AAe?$AAr?$AAa?$AAt?$AAo?$AAr?$AA?$DM?$AAc?$AAl?$AAa?$AAs@ ; `string'
PUBLIC	??_C@_1NM@EONCPDKK@?$AAs?$AAt?$AAd?$AA?3?$AA?3?$AA_?$AAV?$AAe?$AAc?$AAt?$AAo?$AAr?$AA_?$AAc?$AAo?$AAn?$AAs?$AAt?$AA_?$AAi?$AAt?$AAe?$AAr?$AAa?$AAt?$AAo?$AAr?$AA?$DM?$AAc?$AAl?$AAa?$AAs@ ; `string'
PUBLIC	??_C@_1MO@FIOFHBNA@?$AAs?$AAt?$AAd?$AA?3?$AA?3?$AA_?$AAV?$AAe?$AAc?$AAt?$AAo?$AAr?$AA_?$AAc?$AAo?$AAn?$AAs?$AAt?$AA_?$AAi?$AAt?$AAe?$AAr?$AAa?$AAt?$AAo?$AAr?$AA?$DM?$AAc?$AAl?$AAa?$AAs@ ; `string'
PUBLIC	??_C@_1NG@NCMKFBLG@?$AAs?$AAt?$AAd?$AA?3?$AA?3?$AA_?$AAV?$AAe?$AAc?$AAt?$AAo?$AAr?$AA_?$AAc?$AAo?$AAn?$AAs?$AAt?$AA_?$AAi?$AAt?$AAe?$AAr?$AAa?$AAt?$AAo?$AAr?$AA?$DM?$AAc?$AAl?$AAa?$AAs@ ; `string'
PUBLIC	??_C@_1NE@MNCPAIHH@?$AAs?$AAt?$AAd?$AA?3?$AA?3?$AA_?$AAV?$AAe?$AAc?$AAt?$AAo?$AAr?$AA_?$AAc?$AAo?$AAn?$AAs?$AAt?$AA_?$AAi?$AAt?$AAe?$AAr?$AAa?$AAt?$AAo?$AAr?$AA?$DM?$AAc?$AAl?$AAa?$AAs@ ; `string'
PUBLIC	??_C@_1NK@NBKKOKHK@?$AAs?$AAt?$AAd?$AA?3?$AA?3?$AA_?$AAV?$AAe?$AAc?$AAt?$AAo?$AAr?$AA_?$AAc?$AAo?$AAn?$AAs?$AAt?$AA_?$AAi?$AAt?$AAe?$AAr?$AAa?$AAt?$AAo?$AAr?$AA?$DM?$AAc?$AAl?$AAa?$AAs@ ; `string'
PUBLIC	??_C@_1NE@PKGEKJGN@?$AAs?$AAt?$AAd?$AA?3?$AA?3?$AA_?$AAV?$AAe?$AAc?$AAt?$AAo?$AAr?$AA_?$AAc?$AAo?$AAn?$AAs?$AAt?$AA_?$AAi?$AAt?$AAe?$AAr?$AAa?$AAt?$AAo?$AAr?$AA?$DM?$AAc?$AAl?$AAa?$AAs@ ; `string'
PUBLIC	??_C@_1NG@COIFKLBO@?$AAs?$AAt?$AAd?$AA?3?$AA?3?$AA_?$AAV?$AAe?$AAc?$AAt?$AAo?$AAr?$AA_?$AAc?$AAo?$AAn?$AAs?$AAt?$AA_?$AAi?$AAt?$AAe?$AAr?$AAa?$AAt?$AAo?$AAr?$AA?$DM?$AAc?$AAl?$AAa?$AAs@ ; `string'
PUBLIC	??_C@_0BD@OLBABOEK@vector?$DMT?$DO?5too?5long?$AA@ ; `string'
PUBLIC	??_C@_1JC@ELNBGKIG@?$AAc?$AA?3?$AA?2?$AAp?$AAr?$AAo?$AAg?$AAr?$AAa?$AAm?$AA?5?$AAf?$AAi?$AAl?$AAe?$AAs?$AA?5?$AA?$CI?$AAx?$AA8?$AA6?$AA?$CJ?$AA?2?$AAm?$AAi?$AAc?$AAr?$AAo?$AAs?$AAo?$AAf?$AAt@ ; `string'
PUBLIC	??_C@_1CO@DGLIKNHI@?$AAi?$AAn?$AAv?$AAa?$AAl?$AAi?$AAd?$AA?5?$AAi?$AAt?$AAe?$AAr?$AAa?$AAt?$AAo?$AAr?$AA?5?$AAr?$AAa?$AAn?$AAg?$AAe?$AA?$AA@ ; `string'
PUBLIC	__real@0000000000000000
PUBLIC	__real@3ffc000000000000
PUBLIC	__real@4000000000000000
PUBLIC	__real@4004000000000000
PUBLIC	__real@4008000000000000
PUBLIC	__real@4014000000000000
PUBLIC	__real@402399999999999a
PUBLIC	__real@4049000000000000
PUBLIC	__real@4050400000000000
PUBLIC	__real@447a0000
PUBLIC	__xmm@80000000000000008000000000000000
EXTRN	??2@YAPAXI@Z:PROC				; operator new
EXTRN	??3@YAXPAX@Z:PROC				; operator delete
EXTRN	_atexit:PROC
EXTRN	__imp___invalid_parameter:PROC
EXTRN	__imp_??0_Lockit@std@@QAE@H@Z:PROC
EXTRN	__imp_??1_Lockit@std@@QAE@XZ:PROC
EXTRN	_fabs:PROC
EXTRN	__imp__memmove:PROC
EXTRN	__imp___CrtDbgReportW:PROC
EXTRN	__imp_?_Debug_message@std@@YAXPB_W0I@Z:PROC
EXTRN	__imp_?_Xbad_alloc@std@@YAXXZ:PROC
EXTRN	__imp_?_Xlength_error@std@@YAXPBD@Z:PROC
EXTRN	??0Vector2@@QAE@XZ:PROC				; Vector2::Vector2
EXTRN	??0Vector2@@QAE@NN@Z:PROC			; Vector2::Vector2
EXTRN	?LoadTexture@@YAIPBD@Z:PROC			; LoadTexture
EXTRN	?DrawRect@@YAXIVVector2@@HH@Z:PROC		; DrawRect
EXTRN	@_RTC_CheckStackVars@8:PROC
EXTRN	@__security_check_cookie@4:PROC
EXTRN	__CxxThrowException@8:PROC
EXTRN	__RTC_CheckEsp:PROC
EXTRN	__RTC_InitBase:PROC
EXTRN	__RTC_Shutdown:PROC
EXTRN	___CxxFrameHandler3:PROC
EXTRN	_memset:PROC
EXTRN	?keyList@@3V?$vector@HV?$allocator@H@std@@@std@@A:BYTE ; keyList
EXTRN	?pressKeyList@@3V?$vector@HV?$allocator@H@std@@@std@@A:BYTE ; pressKeyList
EXTRN	?tileMap@@3V?$vector@UTile@@V?$allocator@UTile@@@std@@@std@@A:BYTE ; tileMap
EXTRN	?movingTileMap@@3V?$vector@UMovingTile@@V?$allocator@UMovingTile@@@std@@@std@@A:BYTE ; movingTileMap
EXTRN	?airTileMap@@3V?$vector@UAirTile@@V?$allocator@UAirTile@@@std@@@std@@A:BYTE ; airTileMap
EXTRN	?spawnTile@@3USpawnTile@@A:BYTE			; spawnTile
EXTRN	?pushTileMap@@3V?$vector@UPushTile@@V?$allocator@UPushTile@@@std@@@std@@A:BYTE ; pushTileMap
EXTRN	___security_cookie:DWORD
EXTRN	__fltused:DWORD
_BSS	SEGMENT
	ALIGN	4

?player@@3UPlayer@@A DB 040H DUP (?)			; player
?groundTileList@@3V?$vector@UTile@@V?$allocator@UTile@@@std@@@std@@A DB 010H DUP (?) ; groundTileList
_BSS	ENDS
CRT$XCU	SEGMENT
?player$initializer$@@3P6AXXZA DD FLAT:??__Eplayer@@YAXXZ ; player$initializer$
CRT$XCU	ENDS
;	COMDAT __xmm@80000000000000008000000000000000
CONST	SEGMENT
__xmm@80000000000000008000000000000000 DB 00H, 00H, 00H, 00H, 00H, 00H, 00H
	DB	080H, 00H, 00H, 00H, 00H, 00H, 00H, 00H, 080H
CONST	ENDS
;	COMDAT __real@447a0000
CONST	SEGMENT
__real@447a0000 DD 0447a0000r			; 1000
CONST	ENDS
;	COMDAT __real@4050400000000000
CONST	SEGMENT
__real@4050400000000000 DQ 04050400000000000r	; 65
CONST	ENDS
;	COMDAT __real@4049000000000000
CONST	SEGMENT
__real@4049000000000000 DQ 04049000000000000r	; 50
CONST	ENDS
;	COMDAT __real@402399999999999a
CONST	SEGMENT
__real@402399999999999a DQ 0402399999999999ar	; 9.8
CONST	ENDS
;	COMDAT __real@4014000000000000
CONST	SEGMENT
__real@4014000000000000 DQ 04014000000000000r	; 5
CONST	ENDS
;	COMDAT __real@4008000000000000
CONST	SEGMENT
__real@4008000000000000 DQ 04008000000000000r	; 3
CONST	ENDS
;	COMDAT __real@4004000000000000
CONST	SEGMENT
__real@4004000000000000 DQ 04004000000000000r	; 2.5
CONST	ENDS
;	COMDAT __real@4000000000000000
CONST	SEGMENT
__real@4000000000000000 DQ 04000000000000000r	; 2
CONST	ENDS
;	COMDAT __real@3ffc000000000000
CONST	SEGMENT
__real@3ffc000000000000 DQ 03ffc000000000000r	; 1.75
CONST	ENDS
;	COMDAT __real@0000000000000000
CONST	SEGMENT
__real@0000000000000000 DQ 00000000000000000r	; 0
CONST	ENDS
;	COMDAT rtc$TMZ
rtc$TMZ	SEGMENT
__RTC_Shutdown.rtc$TMZ DD FLAT:__RTC_Shutdown
rtc$TMZ	ENDS
;	COMDAT rtc$IMZ
rtc$IMZ	SEGMENT
__RTC_InitBase.rtc$IMZ DD FLAT:__RTC_InitBase
rtc$IMZ	ENDS
;	COMDAT ??_C@_1CO@DGLIKNHI@?$AAi?$AAn?$AAv?$AAa?$AAl?$AAi?$AAd?$AA?5?$AAi?$AAt?$AAe?$AAr?$AAa?$AAt?$AAo?$AAr?$AA?5?$AAr?$AAa?$AAn?$AAg?$AAe?$AA?$AA@
CONST	SEGMENT
??_C@_1CO@DGLIKNHI@?$AAi?$AAn?$AAv?$AAa?$AAl?$AAi?$AAd?$AA?5?$AAi?$AAt?$AAe?$AAr?$AAa?$AAt?$AAo?$AAr?$AA?5?$AAr?$AAa?$AAn?$AAg?$AAe?$AA?$AA@ DB 'i'
	DB	00H, 'n', 00H, 'v', 00H, 'a', 00H, 'l', 00H, 'i', 00H, 'd', 00H
	DB	' ', 00H, 'i', 00H, 't', 00H, 'e', 00H, 'r', 00H, 'a', 00H, 't'
	DB	00H, 'o', 00H, 'r', 00H, ' ', 00H, 'r', 00H, 'a', 00H, 'n', 00H
	DB	'g', 00H, 'e', 00H, 00H, 00H			; `string'
CONST	ENDS
;	COMDAT ??_C@_1JC@ELNBGKIG@?$AAc?$AA?3?$AA?2?$AAp?$AAr?$AAo?$AAg?$AAr?$AAa?$AAm?$AA?5?$AAf?$AAi?$AAl?$AAe?$AAs?$AA?5?$AA?$CI?$AAx?$AA8?$AA6?$AA?$CJ?$AA?2?$AAm?$AAi?$AAc?$AAr?$AAo?$AAs?$AAo?$AAf?$AAt@
CONST	SEGMENT
??_C@_1JC@ELNBGKIG@?$AAc?$AA?3?$AA?2?$AAp?$AAr?$AAo?$AAg?$AAr?$AAa?$AAm?$AA?5?$AAf?$AAi?$AAl?$AAe?$AAs?$AA?5?$AA?$CI?$AAx?$AA8?$AA6?$AA?$CJ?$AA?2?$AAm?$AAi?$AAc?$AAr?$AAo?$AAs?$AAo?$AAf?$AAt@ DB 'c'
	DB	00H, ':', 00H, '\', 00H, 'p', 00H, 'r', 00H, 'o', 00H, 'g', 00H
	DB	'r', 00H, 'a', 00H, 'm', 00H, ' ', 00H, 'f', 00H, 'i', 00H, 'l'
	DB	00H, 'e', 00H, 's', 00H, ' ', 00H, '(', 00H, 'x', 00H, '8', 00H
	DB	'6', 00H, ')', 00H, '\', 00H, 'm', 00H, 'i', 00H, 'c', 00H, 'r'
	DB	00H, 'o', 00H, 's', 00H, 'o', 00H, 'f', 00H, 't', 00H, ' ', 00H
	DB	'v', 00H, 'i', 00H, 's', 00H, 'u', 00H, 'a', 00H, 'l', 00H, ' '
	DB	00H, 's', 00H, 't', 00H, 'u', 00H, 'd', 00H, 'i', 00H, 'o', 00H
	DB	' ', 00H, '1', 00H, '4', 00H, '.', 00H, '0', 00H, '\', 00H, 'v'
	DB	00H, 'c', 00H, '\', 00H, 'i', 00H, 'n', 00H, 'c', 00H, 'l', 00H
	DB	'u', 00H, 'd', 00H, 'e', 00H, '\', 00H, 'a', 00H, 'l', 00H, 'g'
	DB	00H, 'o', 00H, 'r', 00H, 'i', 00H, 't', 00H, 'h', 00H, 'm', 00H
	DB	00H, 00H					; `string'
CONST	ENDS
;	COMDAT ??_C@_0BD@OLBABOEK@vector?$DMT?$DO?5too?5long?$AA@
CONST	SEGMENT
??_C@_0BD@OLBABOEK@vector?$DMT?$DO?5too?5long?$AA@ DB 'vector<T> too long'
	DB	00H						; `string'
CONST	ENDS
;	COMDAT ??_C@_1NG@COIFKLBO@?$AAs?$AAt?$AAd?$AA?3?$AA?3?$AA_?$AAV?$AAe?$AAc?$AAt?$AAo?$AAr?$AA_?$AAc?$AAo?$AAn?$AAs?$AAt?$AA_?$AAi?$AAt?$AAe?$AAr?$AAa?$AAt?$AAo?$AAr?$AA?$DM?$AAc?$AAl?$AAa?$AAs@
CONST	SEGMENT
??_C@_1NG@COIFKLBO@?$AAs?$AAt?$AAd?$AA?3?$AA?3?$AA_?$AAV?$AAe?$AAc?$AAt?$AAo?$AAr?$AA_?$AAc?$AAo?$AAn?$AAs?$AAt?$AA_?$AAi?$AAt?$AAe?$AAr?$AAa?$AAt?$AAo?$AAr?$AA?$DM?$AAc?$AAl?$AAa?$AAs@ DB 's'
	DB	00H, 't', 00H, 'd', 00H, ':', 00H, ':', 00H, '_', 00H, 'V', 00H
	DB	'e', 00H, 'c', 00H, 't', 00H, 'o', 00H, 'r', 00H, '_', 00H, 'c'
	DB	00H, 'o', 00H, 'n', 00H, 's', 00H, 't', 00H, '_', 00H, 'i', 00H
	DB	't', 00H, 'e', 00H, 'r', 00H, 'a', 00H, 't', 00H, 'o', 00H, 'r'
	DB	00H, '<', 00H, 'c', 00H, 'l', 00H, 'a', 00H, 's', 00H, 's', 00H
	DB	' ', 00H, 's', 00H, 't', 00H, 'd', 00H, ':', 00H, ':', 00H, '_'
	DB	00H, 'V', 00H, 'e', 00H, 'c', 00H, 't', 00H, 'o', 00H, 'r', 00H
	DB	'_', 00H, 'v', 00H, 'a', 00H, 'l', 00H, '<', 00H, 's', 00H, 't'
	DB	00H, 'r', 00H, 'u', 00H, 'c', 00H, 't', 00H, ' ', 00H, 's', 00H
	DB	't', 00H, 'd', 00H, ':', 00H, ':', 00H, '_', 00H, 'S', 00H, 'i'
	DB	00H, 'm', 00H, 'p', 00H, 'l', 00H, 'e', 00H, '_', 00H, 't', 00H
	DB	'y', 00H, 'p', 00H, 'e', 00H, 's', 00H, '<', 00H, 's', 00H, 't'
	DB	00H, 'r', 00H, 'u', 00H, 'c', 00H, 't', 00H, ' ', 00H, 'P', 00H
	DB	'u', 00H, 's', 00H, 'h', 00H, 'T', 00H, 'i', 00H, 'l', 00H, 'e'
	DB	00H, '>', 00H, ' ', 00H, '>', 00H, ' ', 00H, '>', 00H, ':', 00H
	DB	':', 00H, '_', 00H, 'C', 00H, 'o', 00H, 'm', 00H, 'p', 00H, 'a'
	DB	00H, 't', 00H, 00H, 00H			; `string'
CONST	ENDS
;	COMDAT ??_C@_1NE@PKGEKJGN@?$AAs?$AAt?$AAd?$AA?3?$AA?3?$AA_?$AAV?$AAe?$AAc?$AAt?$AAo?$AAr?$AA_?$AAc?$AAo?$AAn?$AAs?$AAt?$AA_?$AAi?$AAt?$AAe?$AAr?$AAa?$AAt?$AAo?$AAr?$AA?$DM?$AAc?$AAl?$AAa?$AAs@
CONST	SEGMENT
??_C@_1NE@PKGEKJGN@?$AAs?$AAt?$AAd?$AA?3?$AA?3?$AA_?$AAV?$AAe?$AAc?$AAt?$AAo?$AAr?$AA_?$AAc?$AAo?$AAn?$AAs?$AAt?$AA_?$AAi?$AAt?$AAe?$AAr?$AAa?$AAt?$AAo?$AAr?$AA?$DM?$AAc?$AAl?$AAa?$AAs@ DB 's'
	DB	00H, 't', 00H, 'd', 00H, ':', 00H, ':', 00H, '_', 00H, 'V', 00H
	DB	'e', 00H, 'c', 00H, 't', 00H, 'o', 00H, 'r', 00H, '_', 00H, 'c'
	DB	00H, 'o', 00H, 'n', 00H, 's', 00H, 't', 00H, '_', 00H, 'i', 00H
	DB	't', 00H, 'e', 00H, 'r', 00H, 'a', 00H, 't', 00H, 'o', 00H, 'r'
	DB	00H, '<', 00H, 'c', 00H, 'l', 00H, 'a', 00H, 's', 00H, 's', 00H
	DB	' ', 00H, 's', 00H, 't', 00H, 'd', 00H, ':', 00H, ':', 00H, '_'
	DB	00H, 'V', 00H, 'e', 00H, 'c', 00H, 't', 00H, 'o', 00H, 'r', 00H
	DB	'_', 00H, 'v', 00H, 'a', 00H, 'l', 00H, '<', 00H, 's', 00H, 't'
	DB	00H, 'r', 00H, 'u', 00H, 'c', 00H, 't', 00H, ' ', 00H, 's', 00H
	DB	't', 00H, 'd', 00H, ':', 00H, ':', 00H, '_', 00H, 'S', 00H, 'i'
	DB	00H, 'm', 00H, 'p', 00H, 'l', 00H, 'e', 00H, '_', 00H, 't', 00H
	DB	'y', 00H, 'p', 00H, 'e', 00H, 's', 00H, '<', 00H, 's', 00H, 't'
	DB	00H, 'r', 00H, 'u', 00H, 'c', 00H, 't', 00H, ' ', 00H, 'A', 00H
	DB	'i', 00H, 'r', 00H, 'T', 00H, 'i', 00H, 'l', 00H, 'e', 00H, '>'
	DB	00H, ' ', 00H, '>', 00H, ' ', 00H, '>', 00H, ':', 00H, ':', 00H
	DB	'_', 00H, 'C', 00H, 'o', 00H, 'm', 00H, 'p', 00H, 'a', 00H, 't'
	DB	00H, 00H, 00H				; `string'
CONST	ENDS
;	COMDAT ??_C@_1NK@NBKKOKHK@?$AAs?$AAt?$AAd?$AA?3?$AA?3?$AA_?$AAV?$AAe?$AAc?$AAt?$AAo?$AAr?$AA_?$AAc?$AAo?$AAn?$AAs?$AAt?$AA_?$AAi?$AAt?$AAe?$AAr?$AAa?$AAt?$AAo?$AAr?$AA?$DM?$AAc?$AAl?$AAa?$AAs@
CONST	SEGMENT
??_C@_1NK@NBKKOKHK@?$AAs?$AAt?$AAd?$AA?3?$AA?3?$AA_?$AAV?$AAe?$AAc?$AAt?$AAo?$AAr?$AA_?$AAc?$AAo?$AAn?$AAs?$AAt?$AA_?$AAi?$AAt?$AAe?$AAr?$AAa?$AAt?$AAo?$AAr?$AA?$DM?$AAc?$AAl?$AAa?$AAs@ DB 's'
	DB	00H, 't', 00H, 'd', 00H, ':', 00H, ':', 00H, '_', 00H, 'V', 00H
	DB	'e', 00H, 'c', 00H, 't', 00H, 'o', 00H, 'r', 00H, '_', 00H, 'c'
	DB	00H, 'o', 00H, 'n', 00H, 's', 00H, 't', 00H, '_', 00H, 'i', 00H
	DB	't', 00H, 'e', 00H, 'r', 00H, 'a', 00H, 't', 00H, 'o', 00H, 'r'
	DB	00H, '<', 00H, 'c', 00H, 'l', 00H, 'a', 00H, 's', 00H, 's', 00H
	DB	' ', 00H, 's', 00H, 't', 00H, 'd', 00H, ':', 00H, ':', 00H, '_'
	DB	00H, 'V', 00H, 'e', 00H, 'c', 00H, 't', 00H, 'o', 00H, 'r', 00H
	DB	'_', 00H, 'v', 00H, 'a', 00H, 'l', 00H, '<', 00H, 's', 00H, 't'
	DB	00H, 'r', 00H, 'u', 00H, 'c', 00H, 't', 00H, ' ', 00H, 's', 00H
	DB	't', 00H, 'd', 00H, ':', 00H, ':', 00H, '_', 00H, 'S', 00H, 'i'
	DB	00H, 'm', 00H, 'p', 00H, 'l', 00H, 'e', 00H, '_', 00H, 't', 00H
	DB	'y', 00H, 'p', 00H, 'e', 00H, 's', 00H, '<', 00H, 's', 00H, 't'
	DB	00H, 'r', 00H, 'u', 00H, 'c', 00H, 't', 00H, ' ', 00H, 'M', 00H
	DB	'o', 00H, 'v', 00H, 'i', 00H, 'n', 00H, 'g', 00H, 'T', 00H, 'i'
	DB	00H, 'l', 00H, 'e', 00H, '>', 00H, ' ', 00H, '>', 00H, ' ', 00H
	DB	'>', 00H, ':', 00H, ':', 00H, '_', 00H, 'C', 00H, 'o', 00H, 'm'
	DB	00H, 'p', 00H, 'a', 00H, 't', 00H, 00H, 00H	; `string'
CONST	ENDS
;	COMDAT ??_C@_1NE@MNCPAIHH@?$AAs?$AAt?$AAd?$AA?3?$AA?3?$AA_?$AAV?$AAe?$AAc?$AAt?$AAo?$AAr?$AA_?$AAc?$AAo?$AAn?$AAs?$AAt?$AA_?$AAi?$AAt?$AAe?$AAr?$AAa?$AAt?$AAo?$AAr?$AA?$DM?$AAc?$AAl?$AAa?$AAs@
CONST	SEGMENT
??_C@_1NE@MNCPAIHH@?$AAs?$AAt?$AAd?$AA?3?$AA?3?$AA_?$AAV?$AAe?$AAc?$AAt?$AAo?$AAr?$AA_?$AAc?$AAo?$AAn?$AAs?$AAt?$AA_?$AAi?$AAt?$AAe?$AAr?$AAa?$AAt?$AAo?$AAr?$AA?$DM?$AAc?$AAl?$AAa?$AAs@ DB 's'
	DB	00H, 't', 00H, 'd', 00H, ':', 00H, ':', 00H, '_', 00H, 'V', 00H
	DB	'e', 00H, 'c', 00H, 't', 00H, 'o', 00H, 'r', 00H, '_', 00H, 'c'
	DB	00H, 'o', 00H, 'n', 00H, 's', 00H, 't', 00H, '_', 00H, 'i', 00H
	DB	't', 00H, 'e', 00H, 'r', 00H, 'a', 00H, 't', 00H, 'o', 00H, 'r'
	DB	00H, '<', 00H, 'c', 00H, 'l', 00H, 'a', 00H, 's', 00H, 's', 00H
	DB	' ', 00H, 's', 00H, 't', 00H, 'd', 00H, ':', 00H, ':', 00H, '_'
	DB	00H, 'V', 00H, 'e', 00H, 'c', 00H, 't', 00H, 'o', 00H, 'r', 00H
	DB	'_', 00H, 'v', 00H, 'a', 00H, 'l', 00H, '<', 00H, 's', 00H, 't'
	DB	00H, 'r', 00H, 'u', 00H, 'c', 00H, 't', 00H, ' ', 00H, 's', 00H
	DB	't', 00H, 'd', 00H, ':', 00H, ':', 00H, '_', 00H, 'S', 00H, 'i'
	DB	00H, 'm', 00H, 'p', 00H, 'l', 00H, 'e', 00H, '_', 00H, 't', 00H
	DB	'y', 00H, 'p', 00H, 'e', 00H, 's', 00H, '<', 00H, 's', 00H, 't'
	DB	00H, 'r', 00H, 'u', 00H, 'c', 00H, 't', 00H, ' ', 00H, 'T', 00H
	DB	'i', 00H, 'l', 00H, 'e', 00H, '>', 00H, ' ', 00H, '>', 00H, ' '
	DB	00H, '>', 00H, ':', 00H, ':', 00H, 'o', 00H, 'p', 00H, 'e', 00H
	DB	'r', 00H, 'a', 00H, 't', 00H, 'o', 00H, 'r', 00H, ' ', 00H, '*'
	DB	00H, 00H, 00H				; `string'
CONST	ENDS
;	COMDAT ??_C@_1NG@NCMKFBLG@?$AAs?$AAt?$AAd?$AA?3?$AA?3?$AA_?$AAV?$AAe?$AAc?$AAt?$AAo?$AAr?$AA_?$AAc?$AAo?$AAn?$AAs?$AAt?$AA_?$AAi?$AAt?$AAe?$AAr?$AAa?$AAt?$AAo?$AAr?$AA?$DM?$AAc?$AAl?$AAa?$AAs@
CONST	SEGMENT
??_C@_1NG@NCMKFBLG@?$AAs?$AAt?$AAd?$AA?3?$AA?3?$AA_?$AAV?$AAe?$AAc?$AAt?$AAo?$AAr?$AA_?$AAc?$AAo?$AAn?$AAs?$AAt?$AA_?$AAi?$AAt?$AAe?$AAr?$AAa?$AAt?$AAo?$AAr?$AA?$DM?$AAc?$AAl?$AAa?$AAs@ DB 's'
	DB	00H, 't', 00H, 'd', 00H, ':', 00H, ':', 00H, '_', 00H, 'V', 00H
	DB	'e', 00H, 'c', 00H, 't', 00H, 'o', 00H, 'r', 00H, '_', 00H, 'c'
	DB	00H, 'o', 00H, 'n', 00H, 's', 00H, 't', 00H, '_', 00H, 'i', 00H
	DB	't', 00H, 'e', 00H, 'r', 00H, 'a', 00H, 't', 00H, 'o', 00H, 'r'
	DB	00H, '<', 00H, 'c', 00H, 'l', 00H, 'a', 00H, 's', 00H, 's', 00H
	DB	' ', 00H, 's', 00H, 't', 00H, 'd', 00H, ':', 00H, ':', 00H, '_'
	DB	00H, 'V', 00H, 'e', 00H, 'c', 00H, 't', 00H, 'o', 00H, 'r', 00H
	DB	'_', 00H, 'v', 00H, 'a', 00H, 'l', 00H, '<', 00H, 's', 00H, 't'
	DB	00H, 'r', 00H, 'u', 00H, 'c', 00H, 't', 00H, ' ', 00H, 's', 00H
	DB	't', 00H, 'd', 00H, ':', 00H, ':', 00H, '_', 00H, 'S', 00H, 'i'
	DB	00H, 'm', 00H, 'p', 00H, 'l', 00H, 'e', 00H, '_', 00H, 't', 00H
	DB	'y', 00H, 'p', 00H, 'e', 00H, 's', 00H, '<', 00H, 's', 00H, 't'
	DB	00H, 'r', 00H, 'u', 00H, 'c', 00H, 't', 00H, ' ', 00H, 'T', 00H
	DB	'i', 00H, 'l', 00H, 'e', 00H, '>', 00H, ' ', 00H, '>', 00H, ' '
	DB	00H, '>', 00H, ':', 00H, ':', 00H, 'o', 00H, 'p', 00H, 'e', 00H
	DB	'r', 00H, 'a', 00H, 't', 00H, 'o', 00H, 'r', 00H, ' ', 00H, '+'
	DB	00H, '+', 00H, 00H, 00H			; `string'
CONST	ENDS
;	COMDAT ??_C@_1MO@FIOFHBNA@?$AAs?$AAt?$AAd?$AA?3?$AA?3?$AA_?$AAV?$AAe?$AAc?$AAt?$AAo?$AAr?$AA_?$AAc?$AAo?$AAn?$AAs?$AAt?$AA_?$AAi?$AAt?$AAe?$AAr?$AAa?$AAt?$AAo?$AAr?$AA?$DM?$AAc?$AAl?$AAa?$AAs@
CONST	SEGMENT
??_C@_1MO@FIOFHBNA@?$AAs?$AAt?$AAd?$AA?3?$AA?3?$AA_?$AAV?$AAe?$AAc?$AAt?$AAo?$AAr?$AA_?$AAc?$AAo?$AAn?$AAs?$AAt?$AA_?$AAi?$AAt?$AAe?$AAr?$AAa?$AAt?$AAo?$AAr?$AA?$DM?$AAc?$AAl?$AAa?$AAs@ DB 's'
	DB	00H, 't', 00H, 'd', 00H, ':', 00H, ':', 00H, '_', 00H, 'V', 00H
	DB	'e', 00H, 'c', 00H, 't', 00H, 'o', 00H, 'r', 00H, '_', 00H, 'c'
	DB	00H, 'o', 00H, 'n', 00H, 's', 00H, 't', 00H, '_', 00H, 'i', 00H
	DB	't', 00H, 'e', 00H, 'r', 00H, 'a', 00H, 't', 00H, 'o', 00H, 'r'
	DB	00H, '<', 00H, 'c', 00H, 'l', 00H, 'a', 00H, 's', 00H, 's', 00H
	DB	' ', 00H, 's', 00H, 't', 00H, 'd', 00H, ':', 00H, ':', 00H, '_'
	DB	00H, 'V', 00H, 'e', 00H, 'c', 00H, 't', 00H, 'o', 00H, 'r', 00H
	DB	'_', 00H, 'v', 00H, 'a', 00H, 'l', 00H, '<', 00H, 's', 00H, 't'
	DB	00H, 'r', 00H, 'u', 00H, 'c', 00H, 't', 00H, ' ', 00H, 's', 00H
	DB	't', 00H, 'd', 00H, ':', 00H, ':', 00H, '_', 00H, 'S', 00H, 'i'
	DB	00H, 'm', 00H, 'p', 00H, 'l', 00H, 'e', 00H, '_', 00H, 't', 00H
	DB	'y', 00H, 'p', 00H, 'e', 00H, 's', 00H, '<', 00H, 's', 00H, 't'
	DB	00H, 'r', 00H, 'u', 00H, 'c', 00H, 't', 00H, ' ', 00H, 'T', 00H
	DB	'i', 00H, 'l', 00H, 'e', 00H, '>', 00H, ' ', 00H, '>', 00H, ' '
	DB	00H, '>', 00H, ':', 00H, ':', 00H, '_', 00H, 'C', 00H, 'o', 00H
	DB	'm', 00H, 'p', 00H, 'a', 00H, 't', 00H, 00H, 00H ; `string'
CONST	ENDS
;	COMDAT ??_C@_1NM@EONCPDKK@?$AAs?$AAt?$AAd?$AA?3?$AA?3?$AA_?$AAV?$AAe?$AAc?$AAt?$AAo?$AAr?$AA_?$AAc?$AAo?$AAn?$AAs?$AAt?$AA_?$AAi?$AAt?$AAe?$AAr?$AAa?$AAt?$AAo?$AAr?$AA?$DM?$AAc?$AAl?$AAa?$AAs@
CONST	SEGMENT
??_C@_1NM@EONCPDKK@?$AAs?$AAt?$AAd?$AA?3?$AA?3?$AA_?$AAV?$AAe?$AAc?$AAt?$AAo?$AAr?$AA_?$AAc?$AAo?$AAn?$AAs?$AAt?$AA_?$AAi?$AAt?$AAe?$AAr?$AAa?$AAt?$AAo?$AAr?$AA?$DM?$AAc?$AAl?$AAa?$AAs@ DB 's'
	DB	00H, 't', 00H, 'd', 00H, ':', 00H, ':', 00H, '_', 00H, 'V', 00H
	DB	'e', 00H, 'c', 00H, 't', 00H, 'o', 00H, 'r', 00H, '_', 00H, 'c'
	DB	00H, 'o', 00H, 'n', 00H, 's', 00H, 't', 00H, '_', 00H, 'i', 00H
	DB	't', 00H, 'e', 00H, 'r', 00H, 'a', 00H, 't', 00H, 'o', 00H, 'r'
	DB	00H, '<', 00H, 'c', 00H, 'l', 00H, 'a', 00H, 's', 00H, 's', 00H
	DB	' ', 00H, 's', 00H, 't', 00H, 'd', 00H, ':', 00H, ':', 00H, '_'
	DB	00H, 'V', 00H, 'e', 00H, 'c', 00H, 't', 00H, 'o', 00H, 'r', 00H
	DB	'_', 00H, 'v', 00H, 'a', 00H, 'l', 00H, '<', 00H, 's', 00H, 't'
	DB	00H, 'r', 00H, 'u', 00H, 'c', 00H, 't', 00H, ' ', 00H, 's', 00H
	DB	't', 00H, 'd', 00H, ':', 00H, ':', 00H, '_', 00H, 'S', 00H, 'i'
	DB	00H, 'm', 00H, 'p', 00H, 'l', 00H, 'e', 00H, '_', 00H, 't', 00H
	DB	'y', 00H, 'p', 00H, 'e', 00H, 's', 00H, '<', 00H, 's', 00H, 't'
	DB	00H, 'r', 00H, 'u', 00H, 'c', 00H, 't', 00H, ' ', 00H, 'P', 00H
	DB	'u', 00H, 's', 00H, 'h', 00H, 'T', 00H, 'i', 00H, 'l', 00H, 'e'
	DB	00H, '>', 00H, ' ', 00H, '>', 00H, ' ', 00H, '>', 00H, ':', 00H
	DB	':', 00H, 'o', 00H, 'p', 00H, 'e', 00H, 'r', 00H, 'a', 00H, 't'
	DB	00H, 'o', 00H, 'r', 00H, ' ', 00H, '*', 00H, 00H, 00H ; `string'
CONST	ENDS
;	COMDAT ??_C@_1NO@MMDDECIN@?$AAs?$AAt?$AAd?$AA?3?$AA?3?$AA_?$AAV?$AAe?$AAc?$AAt?$AAo?$AAr?$AA_?$AAc?$AAo?$AAn?$AAs?$AAt?$AA_?$AAi?$AAt?$AAe?$AAr?$AAa?$AAt?$AAo?$AAr?$AA?$DM?$AAc?$AAl?$AAa?$AAs@
CONST	SEGMENT
??_C@_1NO@MMDDECIN@?$AAs?$AAt?$AAd?$AA?3?$AA?3?$AA_?$AAV?$AAe?$AAc?$AAt?$AAo?$AAr?$AA_?$AAc?$AAo?$AAn?$AAs?$AAt?$AA_?$AAi?$AAt?$AAe?$AAr?$AAa?$AAt?$AAo?$AAr?$AA?$DM?$AAc?$AAl?$AAa?$AAs@ DB 's'
	DB	00H, 't', 00H, 'd', 00H, ':', 00H, ':', 00H, '_', 00H, 'V', 00H
	DB	'e', 00H, 'c', 00H, 't', 00H, 'o', 00H, 'r', 00H, '_', 00H, 'c'
	DB	00H, 'o', 00H, 'n', 00H, 's', 00H, 't', 00H, '_', 00H, 'i', 00H
	DB	't', 00H, 'e', 00H, 'r', 00H, 'a', 00H, 't', 00H, 'o', 00H, 'r'
	DB	00H, '<', 00H, 'c', 00H, 'l', 00H, 'a', 00H, 's', 00H, 's', 00H
	DB	' ', 00H, 's', 00H, 't', 00H, 'd', 00H, ':', 00H, ':', 00H, '_'
	DB	00H, 'V', 00H, 'e', 00H, 'c', 00H, 't', 00H, 'o', 00H, 'r', 00H
	DB	'_', 00H, 'v', 00H, 'a', 00H, 'l', 00H, '<', 00H, 's', 00H, 't'
	DB	00H, 'r', 00H, 'u', 00H, 'c', 00H, 't', 00H, ' ', 00H, 's', 00H
	DB	't', 00H, 'd', 00H, ':', 00H, ':', 00H, '_', 00H, 'S', 00H, 'i'
	DB	00H, 'm', 00H, 'p', 00H, 'l', 00H, 'e', 00H, '_', 00H, 't', 00H
	DB	'y', 00H, 'p', 00H, 'e', 00H, 's', 00H, '<', 00H, 's', 00H, 't'
	DB	00H, 'r', 00H, 'u', 00H, 'c', 00H, 't', 00H, ' ', 00H, 'P', 00H
	DB	'u', 00H, 's', 00H, 'h', 00H, 'T', 00H, 'i', 00H, 'l', 00H, 'e'
	DB	00H, '>', 00H, ' ', 00H, '>', 00H, ' ', 00H, '>', 00H, ':', 00H
	DB	':', 00H, 'o', 00H, 'p', 00H, 'e', 00H, 'r', 00H, 'a', 00H, 't'
	DB	00H, 'o', 00H, 'r', 00H, ' ', 00H, '+', 00H, '+', 00H, 00H, 00H ; `string'
CONST	ENDS
;	COMDAT ??_C@_1LO@MGELDLOO@?$AAs?$AAt?$AAd?$AA?3?$AA?3?$AA_?$AAV?$AAe?$AAc?$AAt?$AAo?$AAr?$AA_?$AAc?$AAo?$AAn?$AAs?$AAt?$AA_?$AAi?$AAt?$AAe?$AAr?$AAa?$AAt?$AAo?$AAr?$AA?$DM?$AAc?$AAl?$AAa?$AAs@
CONST	SEGMENT
??_C@_1LO@MGELDLOO@?$AAs?$AAt?$AAd?$AA?3?$AA?3?$AA_?$AAV?$AAe?$AAc?$AAt?$AAo?$AAr?$AA_?$AAc?$AAo?$AAn?$AAs?$AAt?$AA_?$AAi?$AAt?$AAe?$AAr?$AAa?$AAt?$AAo?$AAr?$AA?$DM?$AAc?$AAl?$AAa?$AAs@ DB 's'
	DB	00H, 't', 00H, 'd', 00H, ':', 00H, ':', 00H, '_', 00H, 'V', 00H
	DB	'e', 00H, 'c', 00H, 't', 00H, 'o', 00H, 'r', 00H, '_', 00H, 'c'
	DB	00H, 'o', 00H, 'n', 00H, 's', 00H, 't', 00H, '_', 00H, 'i', 00H
	DB	't', 00H, 'e', 00H, 'r', 00H, 'a', 00H, 't', 00H, 'o', 00H, 'r'
	DB	00H, '<', 00H, 'c', 00H, 'l', 00H, 'a', 00H, 's', 00H, 's', 00H
	DB	' ', 00H, 's', 00H, 't', 00H, 'd', 00H, ':', 00H, ':', 00H, '_'
	DB	00H, 'V', 00H, 'e', 00H, 'c', 00H, 't', 00H, 'o', 00H, 'r', 00H
	DB	'_', 00H, 'v', 00H, 'a', 00H, 'l', 00H, '<', 00H, 's', 00H, 't'
	DB	00H, 'r', 00H, 'u', 00H, 'c', 00H, 't', 00H, ' ', 00H, 's', 00H
	DB	't', 00H, 'd', 00H, ':', 00H, ':', 00H, '_', 00H, 'S', 00H, 'i'
	DB	00H, 'm', 00H, 'p', 00H, 'l', 00H, 'e', 00H, '_', 00H, 't', 00H
	DB	'y', 00H, 'p', 00H, 'e', 00H, 's', 00H, '<', 00H, 'i', 00H, 'n'
	DB	00H, 't', 00H, '>', 00H, ' ', 00H, '>', 00H, ' ', 00H, '>', 00H
	DB	':', 00H, ':', 00H, '_', 00H, 'C', 00H, 'o', 00H, 'm', 00H, 'p'
	DB	00H, 'a', 00H, 't', 00H, 00H, 00H		; `string'
CONST	ENDS
;	COMDAT ??_C@_1FO@GJIHNDLM@?$AA?$CC?$AAS?$AAt?$AAa?$AAn?$AAd?$AAa?$AAr?$AAd?$AA?5?$AAC?$AA?$CL?$AA?$CL?$AA?5?$AAL?$AAi?$AAb?$AAr?$AAa?$AAr?$AAi?$AAe?$AAs?$AA?5?$AAI?$AAn?$AAv?$AAa?$AAl?$AAi?$AAd?$AA?5@
CONST	SEGMENT
??_C@_1FO@GJIHNDLM@?$AA?$CC?$AAS?$AAt?$AAa?$AAn?$AAd?$AAa?$AAr?$AAd?$AA?5?$AAC?$AA?$CL?$AA?$CL?$AA?5?$AAL?$AAi?$AAb?$AAr?$AAa?$AAr?$AAi?$AAe?$AAs?$AA?5?$AAI?$AAn?$AAv?$AAa?$AAl?$AAi?$AAd?$AA?5@ DB '"'
	DB	00H, 'S', 00H, 't', 00H, 'a', 00H, 'n', 00H, 'd', 00H, 'a', 00H
	DB	'r', 00H, 'd', 00H, ' ', 00H, 'C', 00H, '+', 00H, '+', 00H, ' '
	DB	00H, 'L', 00H, 'i', 00H, 'b', 00H, 'r', 00H, 'a', 00H, 'r', 00H
	DB	'i', 00H, 'e', 00H, 's', 00H, ' ', 00H, 'I', 00H, 'n', 00H, 'v'
	DB	00H, 'a', 00H, 'l', 00H, 'i', 00H, 'd', 00H, ' ', 00H, 'A', 00H
	DB	'r', 00H, 'g', 00H, 'u', 00H, 'm', 00H, 'e', 00H, 'n', 00H, 't'
	DB	00H, '"', 00H, ' ', 00H, '&', 00H, '&', 00H, ' ', 00H, '0', 00H
	DB	00H, 00H					; `string'
CONST	ENDS
;	COMDAT ??_C@_0CI@FNPHFCCM@Standard?5C?$CL?$CL?5Libraries?5Invalid?5A@
CONST	SEGMENT
??_C@_0CI@FNPHFCCM@Standard?5C?$CL?$CL?5Libraries?5Invalid?5A@ DB 'Standa'
	DB	'rd C++ Libraries Invalid Argument', 00H	; `string'
CONST	ENDS
;	COMDAT ??_C@_1DM@HINDPMBP@?$AAv?$AAe?$AAc?$AAt?$AAo?$AAr?$AA?5?$AAi?$AAt?$AAe?$AAr?$AAa?$AAt?$AAo?$AAr?$AAs?$AA?5?$AAi?$AAn?$AAc?$AAo?$AAm?$AAp?$AAa?$AAt?$AAi?$AAb?$AAl?$AAe?$AA?$AA@
CONST	SEGMENT
??_C@_1DM@HINDPMBP@?$AAv?$AAe?$AAc?$AAt?$AAo?$AAr?$AA?5?$AAi?$AAt?$AAe?$AAr?$AAa?$AAt?$AAo?$AAr?$AAs?$AA?5?$AAi?$AAn?$AAc?$AAo?$AAm?$AAp?$AAa?$AAt?$AAi?$AAb?$AAl?$AAe?$AA?$AA@ DB 'v'
	DB	00H, 'e', 00H, 'c', 00H, 't', 00H, 'o', 00H, 'r', 00H, ' ', 00H
	DB	'i', 00H, 't', 00H, 'e', 00H, 'r', 00H, 'a', 00H, 't', 00H, 'o'
	DB	00H, 'r', 00H, 's', 00H, ' ', 00H, 'i', 00H, 'n', 00H, 'c', 00H
	DB	'o', 00H, 'm', 00H, 'p', 00H, 'a', 00H, 't', 00H, 'i', 00H, 'b'
	DB	00H, 'l', 00H, 'e', 00H, 00H, 00H		; `string'
CONST	ENDS
;	COMDAT ??_C@_1NK@FNOHGEBE@?$AAs?$AAt?$AAd?$AA?3?$AA?3?$AA_?$AAV?$AAe?$AAc?$AAt?$AAo?$AAr?$AA_?$AAc?$AAo?$AAn?$AAs?$AAt?$AA_?$AAi?$AAt?$AAe?$AAr?$AAa?$AAt?$AAo?$AAr?$AA?$DM?$AAc?$AAl?$AAa?$AAs@
CONST	SEGMENT
??_C@_1NK@FNOHGEBE@?$AAs?$AAt?$AAd?$AA?3?$AA?3?$AA_?$AAV?$AAe?$AAc?$AAt?$AAo?$AAr?$AA_?$AAc?$AAo?$AAn?$AAs?$AAt?$AA_?$AAi?$AAt?$AAe?$AAr?$AAa?$AAt?$AAo?$AAr?$AA?$DM?$AAc?$AAl?$AAa?$AAs@ DB 's'
	DB	00H, 't', 00H, 'd', 00H, ':', 00H, ':', 00H, '_', 00H, 'V', 00H
	DB	'e', 00H, 'c', 00H, 't', 00H, 'o', 00H, 'r', 00H, '_', 00H, 'c'
	DB	00H, 'o', 00H, 'n', 00H, 's', 00H, 't', 00H, '_', 00H, 'i', 00H
	DB	't', 00H, 'e', 00H, 'r', 00H, 'a', 00H, 't', 00H, 'o', 00H, 'r'
	DB	00H, '<', 00H, 'c', 00H, 'l', 00H, 'a', 00H, 's', 00H, 's', 00H
	DB	' ', 00H, 's', 00H, 't', 00H, 'd', 00H, ':', 00H, ':', 00H, '_'
	DB	00H, 'V', 00H, 'e', 00H, 'c', 00H, 't', 00H, 'o', 00H, 'r', 00H
	DB	'_', 00H, 'v', 00H, 'a', 00H, 'l', 00H, '<', 00H, 's', 00H, 't'
	DB	00H, 'r', 00H, 'u', 00H, 'c', 00H, 't', 00H, ' ', 00H, 's', 00H
	DB	't', 00H, 'd', 00H, ':', 00H, ':', 00H, '_', 00H, 'S', 00H, 'i'
	DB	00H, 'm', 00H, 'p', 00H, 'l', 00H, 'e', 00H, '_', 00H, 't', 00H
	DB	'y', 00H, 'p', 00H, 'e', 00H, 's', 00H, '<', 00H, 's', 00H, 't'
	DB	00H, 'r', 00H, 'u', 00H, 'c', 00H, 't', 00H, ' ', 00H, 'A', 00H
	DB	'i', 00H, 'r', 00H, 'T', 00H, 'i', 00H, 'l', 00H, 'e', 00H, '>'
	DB	00H, ' ', 00H, '>', 00H, ' ', 00H, '>', 00H, ':', 00H, ':', 00H
	DB	'o', 00H, 'p', 00H, 'e', 00H, 'r', 00H, 'a', 00H, 't', 00H, 'o'
	DB	00H, 'r', 00H, ' ', 00H, '*', 00H, 00H, 00H	; `string'
CONST	ENDS
;	COMDAT ??_C@_1NM@NIBONEGJ@?$AAs?$AAt?$AAd?$AA?3?$AA?3?$AA_?$AAV?$AAe?$AAc?$AAt?$AAo?$AAr?$AA_?$AAc?$AAo?$AAn?$AAs?$AAt?$AA_?$AAi?$AAt?$AAe?$AAr?$AAa?$AAt?$AAo?$AAr?$AA?$DM?$AAc?$AAl?$AAa?$AAs@
CONST	SEGMENT
??_C@_1NM@NIBONEGJ@?$AAs?$AAt?$AAd?$AA?3?$AA?3?$AA_?$AAV?$AAe?$AAc?$AAt?$AAo?$AAr?$AA_?$AAc?$AAo?$AAn?$AAs?$AAt?$AA_?$AAi?$AAt?$AAe?$AAr?$AAa?$AAt?$AAo?$AAr?$AA?$DM?$AAc?$AAl?$AAa?$AAs@ DB 's'
	DB	00H, 't', 00H, 'd', 00H, ':', 00H, ':', 00H, '_', 00H, 'V', 00H
	DB	'e', 00H, 'c', 00H, 't', 00H, 'o', 00H, 'r', 00H, '_', 00H, 'c'
	DB	00H, 'o', 00H, 'n', 00H, 's', 00H, 't', 00H, '_', 00H, 'i', 00H
	DB	't', 00H, 'e', 00H, 'r', 00H, 'a', 00H, 't', 00H, 'o', 00H, 'r'
	DB	00H, '<', 00H, 'c', 00H, 'l', 00H, 'a', 00H, 's', 00H, 's', 00H
	DB	' ', 00H, 's', 00H, 't', 00H, 'd', 00H, ':', 00H, ':', 00H, '_'
	DB	00H, 'V', 00H, 'e', 00H, 'c', 00H, 't', 00H, 'o', 00H, 'r', 00H
	DB	'_', 00H, 'v', 00H, 'a', 00H, 'l', 00H, '<', 00H, 's', 00H, 't'
	DB	00H, 'r', 00H, 'u', 00H, 'c', 00H, 't', 00H, ' ', 00H, 's', 00H
	DB	't', 00H, 'd', 00H, ':', 00H, ':', 00H, '_', 00H, 'S', 00H, 'i'
	DB	00H, 'm', 00H, 'p', 00H, 'l', 00H, 'e', 00H, '_', 00H, 't', 00H
	DB	'y', 00H, 'p', 00H, 'e', 00H, 's', 00H, '<', 00H, 's', 00H, 't'
	DB	00H, 'r', 00H, 'u', 00H, 'c', 00H, 't', 00H, ' ', 00H, 'A', 00H
	DB	'i', 00H, 'r', 00H, 'T', 00H, 'i', 00H, 'l', 00H, 'e', 00H, '>'
	DB	00H, ' ', 00H, '>', 00H, ' ', 00H, '>', 00H, ':', 00H, ':', 00H
	DB	'o', 00H, 'p', 00H, 'e', 00H, 'r', 00H, 'a', 00H, 't', 00H, 'o'
	DB	00H, 'r', 00H, ' ', 00H, '+', 00H, '+', 00H, 00H, 00H ; `string'
CONST	ENDS
;	COMDAT ??_C@_1OA@POONEEJK@?$AAs?$AAt?$AAd?$AA?3?$AA?3?$AA_?$AAV?$AAe?$AAc?$AAt?$AAo?$AAr?$AA_?$AAc?$AAo?$AAn?$AAs?$AAt?$AA_?$AAi?$AAt?$AAe?$AAr?$AAa?$AAt?$AAo?$AAr?$AA?$DM?$AAc?$AAl?$AAa?$AAs@
CONST	SEGMENT
??_C@_1OA@POONEEJK@?$AAs?$AAt?$AAd?$AA?3?$AA?3?$AA_?$AAV?$AAe?$AAc?$AAt?$AAo?$AAr?$AA_?$AAc?$AAo?$AAn?$AAs?$AAt?$AA_?$AAi?$AAt?$AAe?$AAr?$AAa?$AAt?$AAo?$AAr?$AA?$DM?$AAc?$AAl?$AAa?$AAs@ DB 's'
	DB	00H, 't', 00H, 'd', 00H, ':', 00H, ':', 00H, '_', 00H, 'V', 00H
	DB	'e', 00H, 'c', 00H, 't', 00H, 'o', 00H, 'r', 00H, '_', 00H, 'c'
	DB	00H, 'o', 00H, 'n', 00H, 's', 00H, 't', 00H, '_', 00H, 'i', 00H
	DB	't', 00H, 'e', 00H, 'r', 00H, 'a', 00H, 't', 00H, 'o', 00H, 'r'
	DB	00H, '<', 00H, 'c', 00H, 'l', 00H, 'a', 00H, 's', 00H, 's', 00H
	DB	' ', 00H, 's', 00H, 't', 00H, 'd', 00H, ':', 00H, ':', 00H, '_'
	DB	00H, 'V', 00H, 'e', 00H, 'c', 00H, 't', 00H, 'o', 00H, 'r', 00H
	DB	'_', 00H, 'v', 00H, 'a', 00H, 'l', 00H, '<', 00H, 's', 00H, 't'
	DB	00H, 'r', 00H, 'u', 00H, 'c', 00H, 't', 00H, ' ', 00H, 's', 00H
	DB	't', 00H, 'd', 00H, ':', 00H, ':', 00H, '_', 00H, 'S', 00H, 'i'
	DB	00H, 'm', 00H, 'p', 00H, 'l', 00H, 'e', 00H, '_', 00H, 't', 00H
	DB	'y', 00H, 'p', 00H, 'e', 00H, 's', 00H, '<', 00H, 's', 00H, 't'
	DB	00H, 'r', 00H, 'u', 00H, 'c', 00H, 't', 00H, ' ', 00H, 'M', 00H
	DB	'o', 00H, 'v', 00H, 'i', 00H, 'n', 00H, 'g', 00H, 'T', 00H, 'i'
	DB	00H, 'l', 00H, 'e', 00H, '>', 00H, ' ', 00H, '>', 00H, ' ', 00H
	DB	'>', 00H, ':', 00H, ':', 00H, 'o', 00H, 'p', 00H, 'e', 00H, 'r'
	DB	00H, 'a', 00H, 't', 00H, 'o', 00H, 'r', 00H, ' ', 00H, '*', 00H
	DB	00H, 00H					; `string'
CONST	ENDS
;	COMDAT ??_C@_1EG@FOHJJHAC@?$AAv?$AAe?$AAc?$AAt?$AAo?$AAr?$AA?5?$AAi?$AAt?$AAe?$AAr?$AAa?$AAt?$AAo?$AAr?$AA?5?$AAn?$AAo?$AAt?$AA?5?$AAd?$AAe?$AAr?$AAe?$AAf?$AAe?$AAr?$AAe?$AAn?$AAc?$AAa?$AAb@
CONST	SEGMENT
??_C@_1EG@FOHJJHAC@?$AAv?$AAe?$AAc?$AAt?$AAo?$AAr?$AA?5?$AAi?$AAt?$AAe?$AAr?$AAa?$AAt?$AAo?$AAr?$AA?5?$AAn?$AAo?$AAt?$AA?5?$AAd?$AAe?$AAr?$AAe?$AAf?$AAe?$AAr?$AAe?$AAn?$AAc?$AAa?$AAb@ DB 'v'
	DB	00H, 'e', 00H, 'c', 00H, 't', 00H, 'o', 00H, 'r', 00H, ' ', 00H
	DB	'i', 00H, 't', 00H, 'e', 00H, 'r', 00H, 'a', 00H, 't', 00H, 'o'
	DB	00H, 'r', 00H, ' ', 00H, 'n', 00H, 'o', 00H, 't', 00H, ' ', 00H
	DB	'd', 00H, 'e', 00H, 'r', 00H, 'e', 00H, 'f', 00H, 'e', 00H, 'r'
	DB	00H, 'e', 00H, 'n', 00H, 'c', 00H, 'a', 00H, 'b', 00H, 'l', 00H
	DB	'e', 00H, 00H, 00H				; `string'
CONST	ENDS
;	COMDAT ??_C@_1BO@MEPPHOO@?$AA?$CC?$AAo?$AAu?$AAt?$AA?5?$AAo?$AAf?$AA?5?$AAr?$AAa?$AAn?$AAg?$AAe?$AA?$CC?$AA?$AA@
CONST	SEGMENT
??_C@_1BO@MEPPHOO@?$AA?$CC?$AAo?$AAu?$AAt?$AA?5?$AAo?$AAf?$AA?5?$AAr?$AAa?$AAn?$AAg?$AAe?$AA?$CC?$AA?$AA@ DB '"'
	DB	00H, 'o', 00H, 'u', 00H, 't', 00H, ' ', 00H, 'o', 00H, 'f', 00H
	DB	' ', 00H, 'r', 00H, 'a', 00H, 'n', 00H, 'g', 00H, 'e', 00H, '"'
	DB	00H, 00H, 00H				; `string'
CONST	ENDS
;	COMDAT ??_C@_1OC@EGHAOCGO@?$AAs?$AAt?$AAd?$AA?3?$AA?3?$AA_?$AAV?$AAe?$AAc?$AAt?$AAo?$AAr?$AA_?$AAc?$AAo?$AAn?$AAs?$AAt?$AA_?$AAi?$AAt?$AAe?$AAr?$AAa?$AAt?$AAo?$AAr?$AA?$DM?$AAc?$AAl?$AAa?$AAs@
CONST	SEGMENT
??_C@_1OC@EGHAOCGO@?$AAs?$AAt?$AAd?$AA?3?$AA?3?$AA_?$AAV?$AAe?$AAc?$AAt?$AAo?$AAr?$AA_?$AAc?$AAo?$AAn?$AAs?$AAt?$AA_?$AAi?$AAt?$AAe?$AAr?$AAa?$AAt?$AAo?$AAr?$AA?$DM?$AAc?$AAl?$AAa?$AAs@ DB 's'
	DB	00H, 't', 00H, 'd', 00H, ':', 00H, ':', 00H, '_', 00H, 'V', 00H
	DB	'e', 00H, 'c', 00H, 't', 00H, 'o', 00H, 'r', 00H, '_', 00H, 'c'
	DB	00H, 'o', 00H, 'n', 00H, 's', 00H, 't', 00H, '_', 00H, 'i', 00H
	DB	't', 00H, 'e', 00H, 'r', 00H, 'a', 00H, 't', 00H, 'o', 00H, 'r'
	DB	00H, '<', 00H, 'c', 00H, 'l', 00H, 'a', 00H, 's', 00H, 's', 00H
	DB	' ', 00H, 's', 00H, 't', 00H, 'd', 00H, ':', 00H, ':', 00H, '_'
	DB	00H, 'V', 00H, 'e', 00H, 'c', 00H, 't', 00H, 'o', 00H, 'r', 00H
	DB	'_', 00H, 'v', 00H, 'a', 00H, 'l', 00H, '<', 00H, 's', 00H, 't'
	DB	00H, 'r', 00H, 'u', 00H, 'c', 00H, 't', 00H, ' ', 00H, 's', 00H
	DB	't', 00H, 'd', 00H, ':', 00H, ':', 00H, '_', 00H, 'S', 00H, 'i'
	DB	00H, 'm', 00H, 'p', 00H, 'l', 00H, 'e', 00H, '_', 00H, 't', 00H
	DB	'y', 00H, 'p', 00H, 'e', 00H, 's', 00H, '<', 00H, 's', 00H, 't'
	DB	00H, 'r', 00H, 'u', 00H, 'c', 00H, 't', 00H, ' ', 00H, 'M', 00H
	DB	'o', 00H, 'v', 00H, 'i', 00H, 'n', 00H, 'g', 00H, 'T', 00H, 'i'
	DB	00H, 'l', 00H, 'e', 00H, '>', 00H, ' ', 00H, '>', 00H, ' ', 00H
	DB	'>', 00H, ':', 00H, ':', 00H, 'o', 00H, 'p', 00H, 'e', 00H, 'r'
	DB	00H, 'a', 00H, 't', 00H, 'o', 00H, 'r', 00H, ' ', 00H, '+', 00H
	DB	'+', 00H, 00H, 00H				; `string'
CONST	ENDS
;	COMDAT ??_C@_1FG@IBPIFFN@?$AA?$CC?$AAS?$AAt?$AAa?$AAn?$AAd?$AAa?$AAr?$AAd?$AA?5?$AAC?$AA?$CL?$AA?$CL?$AA?5?$AAL?$AAi?$AAb?$AAr?$AAa?$AAr?$AAi?$AAe?$AAs?$AA?5?$AAO?$AAu?$AAt?$AA?5?$AAo?$AAf?$AA?5?$AAR@
CONST	SEGMENT
??_C@_1FG@IBPIFFN@?$AA?$CC?$AAS?$AAt?$AAa?$AAn?$AAd?$AAa?$AAr?$AAd?$AA?5?$AAC?$AA?$CL?$AA?$CL?$AA?5?$AAL?$AAi?$AAb?$AAr?$AAa?$AAr?$AAi?$AAe?$AAs?$AA?5?$AAO?$AAu?$AAt?$AA?5?$AAo?$AAf?$AA?5?$AAR@ DB '"'
	DB	00H, 'S', 00H, 't', 00H, 'a', 00H, 'n', 00H, 'd', 00H, 'a', 00H
	DB	'r', 00H, 'd', 00H, ' ', 00H, 'C', 00H, '+', 00H, '+', 00H, ' '
	DB	00H, 'L', 00H, 'i', 00H, 'b', 00H, 'r', 00H, 'a', 00H, 'r', 00H
	DB	'i', 00H, 'e', 00H, 's', 00H, ' ', 00H, 'O', 00H, 'u', 00H, 't'
	DB	00H, ' ', 00H, 'o', 00H, 'f', 00H, ' ', 00H, 'R', 00H, 'a', 00H
	DB	'n', 00H, 'g', 00H, 'e', 00H, '"', 00H, ' ', 00H, '&', 00H, '&'
	DB	00H, ' ', 00H, '0', 00H, 00H, 00H		; `string'
CONST	ENDS
;	COMDAT ??_C@_0CE@OFMIGAMM@Standard?5C?$CL?$CL?5Libraries?5Out?5of?5Ra@
CONST	SEGMENT
??_C@_0CE@OFMIGAMM@Standard?5C?$CL?$CL?5Libraries?5Out?5of?5Ra@ DB 'Stand'
	DB	'ard C++ Libraries Out of Range', 00H	; `string'
CONST	ENDS
;	COMDAT ??_C@_1EE@EJDKCLKB@?$AAv?$AAe?$AAc?$AAt?$AAo?$AAr?$AA?5?$AAi?$AAt?$AAe?$AAr?$AAa?$AAt?$AAo?$AAr?$AA?5?$AAn?$AAo?$AAt?$AA?5?$AAi?$AAn?$AAc?$AAr?$AAe?$AAm?$AAe?$AAn?$AAt?$AAa?$AAb?$AAl@
CONST	SEGMENT
??_C@_1EE@EJDKCLKB@?$AAv?$AAe?$AAc?$AAt?$AAo?$AAr?$AA?5?$AAi?$AAt?$AAe?$AAr?$AAa?$AAt?$AAo?$AAr?$AA?5?$AAn?$AAo?$AAt?$AA?5?$AAi?$AAn?$AAc?$AAr?$AAe?$AAm?$AAe?$AAn?$AAt?$AAa?$AAb?$AAl@ DB 'v'
	DB	00H, 'e', 00H, 'c', 00H, 't', 00H, 'o', 00H, 'r', 00H, ' ', 00H
	DB	'i', 00H, 't', 00H, 'e', 00H, 'r', 00H, 'a', 00H, 't', 00H, 'o'
	DB	00H, 'r', 00H, ' ', 00H, 'n', 00H, 'o', 00H, 't', 00H, ' ', 00H
	DB	'i', 00H, 'n', 00H, 'c', 00H, 'r', 00H, 'e', 00H, 'm', 00H, 'e'
	DB	00H, 'n', 00H, 't', 00H, 'a', 00H, 'b', 00H, 'l', 00H, 'e', 00H
	DB	00H, 00H					; `string'
CONST	ENDS
;	COMDAT ??_C@_1EI@HGIDLLCM@?$AAv?$AAe?$AAc?$AAt?$AAo?$AAr?$AA?5?$AAe?$AAr?$AAa?$AAs?$AAe?$AA?5?$AAi?$AAt?$AAe?$AAr?$AAa?$AAt?$AAo?$AAr?$AA?5?$AAo?$AAu?$AAt?$AAs?$AAi?$AAd?$AAe?$AA?5?$AAr?$AAa@
CONST	SEGMENT
??_C@_1EI@HGIDLLCM@?$AAv?$AAe?$AAc?$AAt?$AAo?$AAr?$AA?5?$AAe?$AAr?$AAa?$AAs?$AAe?$AA?5?$AAi?$AAt?$AAe?$AAr?$AAa?$AAt?$AAo?$AAr?$AA?5?$AAo?$AAu?$AAt?$AAs?$AAi?$AAd?$AAe?$AA?5?$AAr?$AAa@ DB 'v'
	DB	00H, 'e', 00H, 'c', 00H, 't', 00H, 'o', 00H, 'r', 00H, ' ', 00H
	DB	'e', 00H, 'r', 00H, 'a', 00H, 's', 00H, 'e', 00H, ' ', 00H, 'i'
	DB	00H, 't', 00H, 'e', 00H, 'r', 00H, 'a', 00H, 't', 00H, 'o', 00H
	DB	'r', 00H, ' ', 00H, 'o', 00H, 'u', 00H, 't', 00H, 's', 00H, 'i'
	DB	00H, 'd', 00H, 'e', 00H, ' ', 00H, 'r', 00H, 'a', 00H, 'n', 00H
	DB	'g', 00H, 'e', 00H, 00H, 00H			; `string'
CONST	ENDS
;	COMDAT ??_C@_1IM@NCODKBJH@?$AAc?$AA?3?$AA?2?$AAp?$AAr?$AAo?$AAg?$AAr?$AAa?$AAm?$AA?5?$AAf?$AAi?$AAl?$AAe?$AAs?$AA?5?$AA?$CI?$AAx?$AA8?$AA6?$AA?$CJ?$AA?2?$AAm?$AAi?$AAc?$AAr?$AAo?$AAs?$AAo?$AAf?$AAt@
CONST	SEGMENT
??_C@_1IM@NCODKBJH@?$AAc?$AA?3?$AA?2?$AAp?$AAr?$AAo?$AAg?$AAr?$AAa?$AAm?$AA?5?$AAf?$AAi?$AAl?$AAe?$AAs?$AA?5?$AA?$CI?$AAx?$AA8?$AA6?$AA?$CJ?$AA?2?$AAm?$AAi?$AAc?$AAr?$AAo?$AAs?$AAo?$AAf?$AAt@ DB 'c'
	DB	00H, ':', 00H, '\', 00H, 'p', 00H, 'r', 00H, 'o', 00H, 'g', 00H
	DB	'r', 00H, 'a', 00H, 'm', 00H, ' ', 00H, 'f', 00H, 'i', 00H, 'l'
	DB	00H, 'e', 00H, 's', 00H, ' ', 00H, '(', 00H, 'x', 00H, '8', 00H
	DB	'6', 00H, ')', 00H, '\', 00H, 'm', 00H, 'i', 00H, 'c', 00H, 'r'
	DB	00H, 'o', 00H, 's', 00H, 'o', 00H, 'f', 00H, 't', 00H, ' ', 00H
	DB	'v', 00H, 'i', 00H, 's', 00H, 'u', 00H, 'a', 00H, 'l', 00H, ' '
	DB	00H, 's', 00H, 't', 00H, 'u', 00H, 'd', 00H, 'i', 00H, 'o', 00H
	DB	' ', 00H, '1', 00H, '4', 00H, '.', 00H, '0', 00H, '\', 00H, 'v'
	DB	00H, 'c', 00H, '\', 00H, 'i', 00H, 'n', 00H, 'c', 00H, 'l', 00H
	DB	'u', 00H, 'd', 00H, 'e', 00H, '\', 00H, 'v', 00H, 'e', 00H, 'c'
	DB	00H, 't', 00H, 'o', 00H, 'r', 00H, 00H, 00H	; `string'
CONST	ENDS
;	COMDAT ??_C@_0BG@EIAGFEK@?4?4?1Content?1player?4bmp?$AA@
CONST	SEGMENT
??_C@_0BG@EIAGFEK@?4?4?1Content?1player?4bmp?$AA@ DB '../Content/player.b'
	DB	'mp', 00H					; `string'
CONST	ENDS
;	COMDAT ??_C@_1GI@DHJGPFNI@?$AA?$CC?$AA_?$AAP?$AAt?$AAr?$AA_?$AAu?$AAs?$AAe?$AAr?$AA?5?$AA?9?$AA?5?$AA_?$AAP?$AAt?$AAr?$AA_?$AAc?$AAo?$AAn?$AAt?$AAa?$AAi?$AAn?$AAe?$AAr?$AA?5?$AA?$DM?$AA?$DN?$AA?5?$AA_@
CONST	SEGMENT
??_C@_1GI@DHJGPFNI@?$AA?$CC?$AA_?$AAP?$AAt?$AAr?$AA_?$AAu?$AAs?$AAe?$AAr?$AA?5?$AA?9?$AA?5?$AA_?$AAP?$AAt?$AAr?$AA_?$AAc?$AAo?$AAn?$AAt?$AAa?$AAi?$AAn?$AAe?$AAr?$AA?5?$AA?$DM?$AA?$DN?$AA?5?$AA_@ DB '"'
	DB	00H, '_', 00H, 'P', 00H, 't', 00H, 'r', 00H, '_', 00H, 'u', 00H
	DB	's', 00H, 'e', 00H, 'r', 00H, ' ', 00H, '-', 00H, ' ', 00H, '_'
	DB	00H, 'P', 00H, 't', 00H, 'r', 00H, '_', 00H, 'c', 00H, 'o', 00H
	DB	'n', 00H, 't', 00H, 'a', 00H, 'i', 00H, 'n', 00H, 'e', 00H, 'r'
	DB	00H, ' ', 00H, '<', 00H, '=', 00H, ' ', 00H, '_', 00H, 'N', 00H
	DB	'O', 00H, 'N', 00H, '_', 00H, 'U', 00H, 'S', 00H, 'E', 00H, 'R'
	DB	00H, '_', 00H, 'S', 00H, 'I', 00H, 'Z', 00H, 'E', 00H, '"', 00H
	DB	' ', 00H, '&', 00H, '&', 00H, ' ', 00H, '0', 00H, 00H, 00H ; `string'
CONST	ENDS
;	COMDAT ??_C@_0CN@BLHJCAL@_Ptr_user?5?9?5_Ptr_container?5?$DM?$DN?5_N@
CONST	SEGMENT
??_C@_0CN@BLHJCAL@_Ptr_user?5?9?5_Ptr_container?5?$DM?$DN?5_N@ DB '_Ptr_u'
	DB	'ser - _Ptr_container <= _NON_USER_SIZE', 00H ; `string'
CONST	ENDS
;	COMDAT ??_C@_1HA@NAPGMHAO@?$AA?$CC?$AA2?$AA?5?$AA?$CK?$AA?5?$AAs?$AAi?$AAz?$AAe?$AAo?$AAf?$AA?$CI?$AAv?$AAo?$AAi?$AAd?$AA?5?$AA?$CK?$AA?$CJ?$AA?5?$AA?$DM?$AA?$DN?$AA?5?$AA_?$AAP?$AAt?$AAr?$AA_?$AAu?$AAs?$AAe?$AAr@
CONST	SEGMENT
??_C@_1HA@NAPGMHAO@?$AA?$CC?$AA2?$AA?5?$AA?$CK?$AA?5?$AAs?$AAi?$AAz?$AAe?$AAo?$AAf?$AA?$CI?$AAv?$AAo?$AAi?$AAd?$AA?5?$AA?$CK?$AA?$CJ?$AA?5?$AA?$DM?$AA?$DN?$AA?5?$AA_?$AAP?$AAt?$AAr?$AA_?$AAu?$AAs?$AAe?$AAr@ DB '"'
	DB	00H, '2', 00H, ' ', 00H, '*', 00H, ' ', 00H, 's', 00H, 'i', 00H
	DB	'z', 00H, 'e', 00H, 'o', 00H, 'f', 00H, '(', 00H, 'v', 00H, 'o'
	DB	00H, 'i', 00H, 'd', 00H, ' ', 00H, '*', 00H, ')', 00H, ' ', 00H
	DB	'<', 00H, '=', 00H, ' ', 00H, '_', 00H, 'P', 00H, 't', 00H, 'r'
	DB	00H, '_', 00H, 'u', 00H, 's', 00H, 'e', 00H, 'r', 00H, ' ', 00H
	DB	'-', 00H, ' ', 00H, '_', 00H, 'P', 00H, 't', 00H, 'r', 00H, '_'
	DB	00H, 'c', 00H, 'o', 00H, 'n', 00H, 't', 00H, 'a', 00H, 'i', 00H
	DB	'n', 00H, 'e', 00H, 'r', 00H, '"', 00H, ' ', 00H, '&', 00H, '&'
	DB	00H, ' ', 00H, '0', 00H, 00H, 00H		; `string'
CONST	ENDS
;	COMDAT ??_C@_0DB@GLFJLNCE@2?5?$CK?5sizeof?$CIvoid?5?$CK?$CJ?5?$DM?$DN?5_Ptr_user?5@
CONST	SEGMENT
??_C@_0DB@GLFJLNCE@2?5?$CK?5sizeof?$CIvoid?5?$CK?$CJ?5?$DM?$DN?5_Ptr_user?5@ DB '2'
	DB	' * sizeof(void *) <= _Ptr_user - _Ptr_container', 00H ; `string'
CONST	ENDS
;	COMDAT ??_C@_1EE@PDHAHDDC@?$AA?$CC?$AA_?$AAP?$AAt?$AAr?$AA_?$AAc?$AAo?$AAn?$AAt?$AAa?$AAi?$AAn?$AAe?$AAr?$AA?5?$AA?$DM?$AA?5?$AA_?$AAP?$AAt?$AAr?$AA_?$AAu?$AAs?$AAe?$AAr?$AA?$CC?$AA?5?$AA?$CG?$AA?$CG?$AA?5@
CONST	SEGMENT
??_C@_1EE@PDHAHDDC@?$AA?$CC?$AA_?$AAP?$AAt?$AAr?$AA_?$AAc?$AAo?$AAn?$AAt?$AAa?$AAi?$AAn?$AAe?$AAr?$AA?5?$AA?$DM?$AA?5?$AA_?$AAP?$AAt?$AAr?$AA_?$AAu?$AAs?$AAe?$AAr?$AA?$CC?$AA?5?$AA?$CG?$AA?$CG?$AA?5@ DB '"'
	DB	00H, '_', 00H, 'P', 00H, 't', 00H, 'r', 00H, '_', 00H, 'c', 00H
	DB	'o', 00H, 'n', 00H, 't', 00H, 'a', 00H, 'i', 00H, 'n', 00H, 'e'
	DB	00H, 'r', 00H, ' ', 00H, '<', 00H, ' ', 00H, '_', 00H, 'P', 00H
	DB	't', 00H, 'r', 00H, '_', 00H, 'u', 00H, 's', 00H, 'e', 00H, 'r'
	DB	00H, '"', 00H, ' ', 00H, '&', 00H, '&', 00H, ' ', 00H, '0', 00H
	DB	00H, 00H					; `string'
CONST	ENDS
;	COMDAT ??_C@_0BL@OCKMEJON@_Ptr_container?5?$DM?5_Ptr_user?$AA@
CONST	SEGMENT
??_C@_0BL@OCKMEJON@_Ptr_container?5?$DM?5_Ptr_user?$AA@ DB '_Ptr_containe'
	DB	'r < _Ptr_user', 00H				; `string'
CONST	ENDS
;	COMDAT ??_C@_1JO@EKLKIEHP@?$AA?$CC?$AAr?$AAe?$AAi?$AAn?$AAt?$AAe?$AAr?$AAp?$AAr?$AAe?$AAt?$AA_?$AAc?$AAa?$AAs?$AAt?$AA?$DM?$AAu?$AAi?$AAn?$AAt?$AAp?$AAt?$AAr?$AA_?$AAt?$AA?5?$AA?$CK?$AA?$DO?$AA?$CI?$AA_@
CONST	SEGMENT
??_C@_1JO@EKLKIEHP@?$AA?$CC?$AAr?$AAe?$AAi?$AAn?$AAt?$AAe?$AAr?$AAp?$AAr?$AAe?$AAt?$AA_?$AAc?$AAa?$AAs?$AAt?$AA?$DM?$AAu?$AAi?$AAn?$AAt?$AAp?$AAt?$AAr?$AA_?$AAt?$AA?5?$AA?$CK?$AA?$DO?$AA?$CI?$AA_@ DB '"'
	DB	00H, 'r', 00H, 'e', 00H, 'i', 00H, 'n', 00H, 't', 00H, 'e', 00H
	DB	'r', 00H, 'p', 00H, 'r', 00H, 'e', 00H, 't', 00H, '_', 00H, 'c'
	DB	00H, 'a', 00H, 's', 00H, 't', 00H, '<', 00H, 'u', 00H, 'i', 00H
	DB	'n', 00H, 't', 00H, 'p', 00H, 't', 00H, 'r', 00H, '_', 00H, 't'
	DB	00H, ' ', 00H, '*', 00H, '>', 00H, '(', 00H, '_', 00H, 'P', 00H
	DB	't', 00H, 'r', 00H, '_', 00H, 'p', 00H, 't', 00H, 'r', 00H, ')'
	DB	00H, '[', 00H, '-', 00H, '1', 00H, ']', 00H, ' ', 00H, '=', 00H
	DB	'=', 00H, ' ', 00H, '_', 00H, 'B', 00H, 'I', 00H, 'G', 00H, '_'
	DB	00H, 'A', 00H, 'L', 00H, 'L', 00H, 'O', 00H, 'C', 00H, 'A', 00H
	DB	'T', 00H, 'I', 00H, 'O', 00H, 'N', 00H, '_', 00H, 'S', 00H, 'E'
	DB	00H, 'N', 00H, 'T', 00H, 'I', 00H, 'N', 00H, 'E', 00H, 'L', 00H
	DB	'"', 00H, ' ', 00H, '&', 00H, '&', 00H, ' ', 00H, '0', 00H, 00H
	DB	00H						; `string'
CONST	ENDS
;	COMDAT ??_C@_0EI@NOJHEJCJ@reinterpret_cast?$DMuintptr_t?5?$CK?$DO?$CI_P@
CONST	SEGMENT
??_C@_0EI@NOJHEJCJ@reinterpret_cast?$DMuintptr_t?5?$CK?$DO?$CI_P@ DB 'rei'
	DB	'nterpret_cast<uintptr_t *>(_Ptr_ptr)[-1] == _BIG_ALLOCATION_S'
	DB	'ENTINEL', 00H				; `string'
CONST	ENDS
;	COMDAT ??_C@_1HE@CDMBFOKC@?$AA?$CC?$AA?$CI?$AA_?$AAP?$AAt?$AAr?$AA_?$AAu?$AAs?$AAe?$AAr?$AA?5?$AA?$CG?$AA?5?$AA?$CI?$AA_?$AAB?$AAI?$AAG?$AA_?$AAA?$AAL?$AAL?$AAO?$AAC?$AAA?$AAT?$AAI?$AAO?$AAN?$AA_?$AAA@
CONST	SEGMENT
??_C@_1HE@CDMBFOKC@?$AA?$CC?$AA?$CI?$AA_?$AAP?$AAt?$AAr?$AA_?$AAu?$AAs?$AAe?$AAr?$AA?5?$AA?$CG?$AA?5?$AA?$CI?$AA_?$AAB?$AAI?$AAG?$AA_?$AAA?$AAL?$AAL?$AAO?$AAC?$AAA?$AAT?$AAI?$AAO?$AAN?$AA_?$AAA@ DB '"'
	DB	00H, '(', 00H, '_', 00H, 'P', 00H, 't', 00H, 'r', 00H, '_', 00H
	DB	'u', 00H, 's', 00H, 'e', 00H, 'r', 00H, ' ', 00H, '&', 00H, ' '
	DB	00H, '(', 00H, '_', 00H, 'B', 00H, 'I', 00H, 'G', 00H, '_', 00H
	DB	'A', 00H, 'L', 00H, 'L', 00H, 'O', 00H, 'C', 00H, 'A', 00H, 'T'
	DB	00H, 'I', 00H, 'O', 00H, 'N', 00H, '_', 00H, 'A', 00H, 'L', 00H
	DB	'I', 00H, 'G', 00H, 'N', 00H, 'M', 00H, 'E', 00H, 'N', 00H, 'T'
	DB	00H, ' ', 00H, '-', 00H, ' ', 00H, '1', 00H, ')', 00H, ')', 00H
	DB	' ', 00H, '=', 00H, '=', 00H, ' ', 00H, '0', 00H, '"', 00H, ' '
	DB	00H, '&', 00H, '&', 00H, ' ', 00H, '0', 00H, 00H, 00H ; `string'
CONST	ENDS
;	COMDAT ??_C@_0DD@GBGGGKGG@?$CI_Ptr_user?5?$CG?5?$CI_BIG_ALLOCATION_AL@
CONST	SEGMENT
??_C@_0DD@GBGGGKGG@?$CI_Ptr_user?5?$CG?5?$CI_BIG_ALLOCATION_AL@ DB '(_Ptr'
	DB	'_user & (_BIG_ALLOCATION_ALIGNMENT - 1)) == 0', 00H ; `string'
CONST	ENDS
;	COMDAT ??_C@_1CC@LOFJFFDB@?$AAs?$AAt?$AAd?$AA?3?$AA?3?$AA_?$AAD?$AAe?$AAa?$AAl?$AAl?$AAo?$AAc?$AAa?$AAt?$AAe?$AA?$AA@
CONST	SEGMENT
??_C@_1CC@LOFJFFDB@?$AAs?$AAt?$AAd?$AA?3?$AA?3?$AA_?$AAD?$AAe?$AAa?$AAl?$AAl?$AAo?$AAc?$AAa?$AAt?$AAe?$AA?$AA@ DB 's'
	DB	00H, 't', 00H, 'd', 00H, ':', 00H, ':', 00H, '_', 00H, 'D', 00H
	DB	'e', 00H, 'a', 00H, 'l', 00H, 'l', 00H, 'o', 00H, 'c', 00H, 'a'
	DB	00H, 't', 00H, 'e', 00H, 00H, 00H		; `string'
CONST	ENDS
;	COMDAT ??_C@_1EI@MLOBABC@?$AA?$CC?$AA_?$AAC?$AAo?$AAu?$AAn?$AAt?$AA?5?$AA?$DM?$AA?$DN?$AA?5?$AA?$CI?$AAs?$AAi?$AAz?$AAe?$AA_?$AAt?$AA?$CJ?$AA?$CI?$AA?9?$AA1?$AA?$CJ?$AA?5?$AA?1?$AA?5?$AA_?$AAS?$AAz?$AA?$CC?$AA?5?$AA?$CG@
CONST	SEGMENT
??_C@_1EI@MLOBABC@?$AA?$CC?$AA_?$AAC?$AAo?$AAu?$AAn?$AAt?$AA?5?$AA?$DM?$AA?$DN?$AA?5?$AA?$CI?$AAs?$AAi?$AAz?$AAe?$AA_?$AAt?$AA?$CJ?$AA?$CI?$AA?9?$AA1?$AA?$CJ?$AA?5?$AA?1?$AA?5?$AA_?$AAS?$AAz?$AA?$CC?$AA?5?$AA?$CG@ DB '"'
	DB	00H, '_', 00H, 'C', 00H, 'o', 00H, 'u', 00H, 'n', 00H, 't', 00H
	DB	' ', 00H, '<', 00H, '=', 00H, ' ', 00H, '(', 00H, 's', 00H, 'i'
	DB	00H, 'z', 00H, 'e', 00H, '_', 00H, 't', 00H, ')', 00H, '(', 00H
	DB	'-', 00H, '1', 00H, ')', 00H, ' ', 00H, '/', 00H, ' ', 00H, '_'
	DB	00H, 'S', 00H, 'z', 00H, '"', 00H, ' ', 00H, '&', 00H, '&', 00H
	DB	' ', 00H, '0', 00H, 00H, 00H			; `string'
CONST	ENDS
;	COMDAT ??_C@_0BN@HMCJOMKN@_Count?5?$DM?$DN?5?$CIsize_t?$CJ?$CI?91?$CJ?5?1?5_Sz?$AA@
CONST	SEGMENT
??_C@_0BN@HMCJOMKN@_Count?5?$DM?$DN?5?$CIsize_t?$CJ?$CI?91?$CJ?5?1?5_Sz?$AA@ DB '_'
	DB	'Count <= (size_t)(-1) / _Sz', 00H		; `string'
CONST	ENDS
;	COMDAT ?__LINE__Var@?0??_Deallocate@std@@YAXPAXII@Z@4JA
_DATA	SEGMENT
?__LINE__Var@?0??_Deallocate@std@@YAXPAXII@Z@4JA DD 05cH ; `std::_Deallocate'::`1'::__LINE__Var
_DATA	ENDS
;	COMDAT ??_C@_1CC@GKJLLHIM@?$AA?$CC?$AA_?$AAP?$AAt?$AAr?$AA?5?$AA?$CB?$AA?$DN?$AA?5?$AA0?$AA?$CC?$AA?5?$AA?$CG?$AA?$CG?$AA?5?$AA0?$AA?$AA@
CONST	SEGMENT
??_C@_1CC@GKJLLHIM@?$AA?$CC?$AA_?$AAP?$AAt?$AAr?$AA?5?$AA?$CB?$AA?$DN?$AA?5?$AA0?$AA?$CC?$AA?5?$AA?$CG?$AA?$CG?$AA?5?$AA0?$AA?$AA@ DB '"'
	DB	00H, '_', 00H, 'P', 00H, 't', 00H, 'r', 00H, ' ', 00H, '!', 00H
	DB	'=', 00H, ' ', 00H, '0', 00H, '"', 00H, ' ', 00H, '&', 00H, '&'
	DB	00H, ' ', 00H, '0', 00H, 00H, 00H		; `string'
CONST	ENDS
;	COMDAT ??_C@_09GLJCAGLP@_Ptr?5?$CB?$DN?50?$AA@
CONST	SEGMENT
??_C@_09GLJCAGLP@_Ptr?5?$CB?$DN?50?$AA@ DB '_Ptr != 0', 00H ; `string'
CONST	ENDS
;	COMDAT ??_C@_1CG@JNLFBNGN@?$AA?$CC?$AAi?$AAn?$AAv?$AAa?$AAl?$AAi?$AAd?$AA?5?$AAa?$AAr?$AAg?$AAu?$AAm?$AAe?$AAn?$AAt?$AA?$CC?$AA?$AA@
CONST	SEGMENT
??_C@_1CG@JNLFBNGN@?$AA?$CC?$AAi?$AAn?$AAv?$AAa?$AAl?$AAi?$AAd?$AA?5?$AAa?$AAr?$AAg?$AAu?$AAm?$AAe?$AAn?$AAt?$AA?$CC?$AA?$AA@ DB '"'
	DB	00H, 'i', 00H, 'n', 00H, 'v', 00H, 'a', 00H, 'l', 00H, 'i', 00H
	DB	'd', 00H, ' ', 00H, 'a', 00H, 'r', 00H, 'g', 00H, 'u', 00H, 'm'
	DB	00H, 'e', 00H, 'n', 00H, 't', 00H, '"', 00H, 00H, 00H ; `string'
CONST	ENDS
;	COMDAT ??_C@_1BO@NKFMJPA@?$AAs?$AAt?$AAd?$AA?3?$AA?3?$AA_?$AAA?$AAl?$AAl?$AAo?$AAc?$AAa?$AAt?$AAe?$AA?$AA@
CONST	SEGMENT
??_C@_1BO@NKFMJPA@?$AAs?$AAt?$AAd?$AA?3?$AA?3?$AA_?$AAA?$AAl?$AAl?$AAo?$AAc?$AAa?$AAt?$AAe?$AA?$AA@ DB 's'
	DB	00H, 't', 00H, 'd', 00H, ':', 00H, ':', 00H, '_', 00H, 'A', 00H
	DB	'l', 00H, 'l', 00H, 'o', 00H, 'c', 00H, 'a', 00H, 't', 00H, 'e'
	DB	00H, 00H, 00H				; `string'
CONST	ENDS
;	COMDAT ??_C@_1JA@DKOIEICI@?$AAc?$AA?3?$AA?2?$AAp?$AAr?$AAo?$AAg?$AAr?$AAa?$AAm?$AA?5?$AAf?$AAi?$AAl?$AAe?$AAs?$AA?5?$AA?$CI?$AAx?$AA8?$AA6?$AA?$CJ?$AA?2?$AAm?$AAi?$AAc?$AAr?$AAo?$AAs?$AAo?$AAf?$AAt@
CONST	SEGMENT
??_C@_1JA@DKOIEICI@?$AAc?$AA?3?$AA?2?$AAp?$AAr?$AAo?$AAg?$AAr?$AAa?$AAm?$AA?5?$AAf?$AAi?$AAl?$AAe?$AAs?$AA?5?$AA?$CI?$AAx?$AA8?$AA6?$AA?$CJ?$AA?2?$AAm?$AAi?$AAc?$AAr?$AAo?$AAs?$AAo?$AAf?$AAt@ DB 'c'
	DB	00H, ':', 00H, '\', 00H, 'p', 00H, 'r', 00H, 'o', 00H, 'g', 00H
	DB	'r', 00H, 'a', 00H, 'm', 00H, ' ', 00H, 'f', 00H, 'i', 00H, 'l'
	DB	00H, 'e', 00H, 's', 00H, ' ', 00H, '(', 00H, 'x', 00H, '8', 00H
	DB	'6', 00H, ')', 00H, '\', 00H, 'm', 00H, 'i', 00H, 'c', 00H, 'r'
	DB	00H, 'o', 00H, 's', 00H, 'o', 00H, 'f', 00H, 't', 00H, ' ', 00H
	DB	'v', 00H, 'i', 00H, 's', 00H, 'u', 00H, 'a', 00H, 'l', 00H, ' '
	DB	00H, 's', 00H, 't', 00H, 'u', 00H, 'd', 00H, 'i', 00H, 'o', 00H
	DB	' ', 00H, '1', 00H, '4', 00H, '.', 00H, '0', 00H, '\', 00H, 'v'
	DB	00H, 'c', 00H, '\', 00H, 'i', 00H, 'n', 00H, 'c', 00H, 'l', 00H
	DB	'u', 00H, 'd', 00H, 'e', 00H, '\', 00H, 'x', 00H, 'm', 00H, 'e'
	DB	00H, 'm', 00H, 'o', 00H, 'r', 00H, 'y', 00H, '0', 00H, 00H, 00H ; `string'
CONST	ENDS
;	COMDAT ??_C@_17CNPHIMPH@?$AA?$CF?$AAl?$AAs?$AA?$AA@
CONST	SEGMENT
??_C@_17CNPHIMPH@?$AA?$CF?$AAl?$AAs?$AA?$AA@ DB '%', 00H, 'l', 00H, 's', 00H
	DB	00H, 00H					; `string'
CONST	ENDS
;	COMDAT ??_C@_1DG@HGDKEBPG@?$AA?$CC?$AA_?$AAP?$AAt?$AAr?$AA_?$AAc?$AAo?$AAn?$AAt?$AAa?$AAi?$AAn?$AAe?$AAr?$AA?5?$AA?$CB?$AA?$DN?$AA?5?$AA0?$AA?$CC?$AA?5?$AA?$CG?$AA?$CG?$AA?5?$AA0?$AA?$AA@
CONST	SEGMENT
??_C@_1DG@HGDKEBPG@?$AA?$CC?$AA_?$AAP?$AAt?$AAr?$AA_?$AAc?$AAo?$AAn?$AAt?$AAa?$AAi?$AAn?$AAe?$AAr?$AA?5?$AA?$CB?$AA?$DN?$AA?5?$AA0?$AA?$CC?$AA?5?$AA?$CG?$AA?$CG?$AA?5?$AA0?$AA?$AA@ DB '"'
	DB	00H, '_', 00H, 'P', 00H, 't', 00H, 'r', 00H, '_', 00H, 'c', 00H
	DB	'o', 00H, 'n', 00H, 't', 00H, 'a', 00H, 'i', 00H, 'n', 00H, 'e'
	DB	00H, 'r', 00H, ' ', 00H, '!', 00H, '=', 00H, ' ', 00H, '0', 00H
	DB	'"', 00H, ' ', 00H, '&', 00H, '&', 00H, ' ', 00H, '0', 00H, 00H
	DB	00H						; `string'
CONST	ENDS
;	COMDAT ??_C@_0BE@LMNLACIC@_Ptr_container?5?$CB?$DN?50?$AA@
CONST	SEGMENT
??_C@_0BE@LMNLACIC@_Ptr_container?5?$CB?$DN?50?$AA@ DB '_Ptr_container !='
	DB	' 0', 00H					; `string'
CONST	ENDS
;	COMDAT ?__LINE__Var@?0??_Allocate@std@@YAPAXII_N@Z@4JA
_DATA	SEGMENT
?__LINE__Var@?0??_Allocate@std@@YAPAXII_N@Z@4JA DD 030H	; `std::_Allocate'::`1'::__LINE__Var
_DATA	ENDS
;	COMDAT ??_C@_1DC@POOIKBAO@?$AAI?$AAT?$AAE?$AAR?$AAA?$AAT?$AAO?$AAR?$AA?5?$AAL?$AAI?$AAS?$AAT?$AA?5?$AAC?$AAO?$AAR?$AAR?$AAU?$AAP?$AAT?$AAE?$AAD?$AA?$CB?$AA?$AA@
CONST	SEGMENT
??_C@_1DC@POOIKBAO@?$AAI?$AAT?$AAE?$AAR?$AAA?$AAT?$AAO?$AAR?$AA?5?$AAL?$AAI?$AAS?$AAT?$AA?5?$AAC?$AAO?$AAR?$AAR?$AAU?$AAP?$AAT?$AAE?$AAD?$AA?$CB?$AA?$AA@ DB 'I'
	DB	00H, 'T', 00H, 'E', 00H, 'R', 00H, 'A', 00H, 'T', 00H, 'O', 00H
	DB	'R', 00H, ' ', 00H, 'L', 00H, 'I', 00H, 'S', 00H, 'T', 00H, ' '
	DB	00H, 'C', 00H, 'O', 00H, 'R', 00H, 'R', 00H, 'U', 00H, 'P', 00H
	DB	'T', 00H, 'E', 00H, 'D', 00H, '!', 00H, 00H, 00H ; `string'
CONST	ENDS
;	COMDAT ??_C@_1JA@MHADJNIL@?$AAc?$AA?3?$AA?2?$AAp?$AAr?$AAo?$AAg?$AAr?$AAa?$AAm?$AA?5?$AAf?$AAi?$AAl?$AAe?$AAs?$AA?5?$AA?$CI?$AAx?$AA8?$AA6?$AA?$CJ?$AA?2?$AAm?$AAi?$AAc?$AAr?$AAo?$AAs?$AAo?$AAf?$AAt@
CONST	SEGMENT
??_C@_1JA@MHADJNIL@?$AAc?$AA?3?$AA?2?$AAp?$AAr?$AAo?$AAg?$AAr?$AAa?$AAm?$AA?5?$AAf?$AAi?$AAl?$AAe?$AAs?$AA?5?$AA?$CI?$AAx?$AA8?$AA6?$AA?$CJ?$AA?2?$AAm?$AAi?$AAc?$AAr?$AAo?$AAs?$AAo?$AAf?$AAt@ DB 'c'
	DB	00H, ':', 00H, '\', 00H, 'p', 00H, 'r', 00H, 'o', 00H, 'g', 00H
	DB	'r', 00H, 'a', 00H, 'm', 00H, ' ', 00H, 'f', 00H, 'i', 00H, 'l'
	DB	00H, 'e', 00H, 's', 00H, ' ', 00H, '(', 00H, 'x', 00H, '8', 00H
	DB	'6', 00H, ')', 00H, '\', 00H, 'm', 00H, 'i', 00H, 'c', 00H, 'r'
	DB	00H, 'o', 00H, 's', 00H, 'o', 00H, 'f', 00H, 't', 00H, ' ', 00H
	DB	'v', 00H, 'i', 00H, 's', 00H, 'u', 00H, 'a', 00H, 'l', 00H, ' '
	DB	00H, 's', 00H, 't', 00H, 'u', 00H, 'd', 00H, 'i', 00H, 'o', 00H
	DB	' ', 00H, '1', 00H, '4', 00H, '.', 00H, '0', 00H, '\', 00H, 'v'
	DB	00H, 'c', 00H, '\', 00H, 'i', 00H, 'n', 00H, 'c', 00H, 'l', 00H
	DB	'u', 00H, 'd', 00H, 'e', 00H, '\', 00H, 'x', 00H, 'u', 00H, 't'
	DB	00H, 'i', 00H, 'l', 00H, 'i', 00H, 't', 00H, 'y', 00H, 00H, 00H ; `string'
CONST	ENDS
;	COMDAT xdata$x
xdata$x	SEGMENT
__catchsym$??$_Uninitialized_move_al_unchecked1@PAUTile@@PAU1@V?$allocator@UTile@@@std@@@std@@YAPAUTile@@PAU1@00AAU?$_Wrap_alloc@V?$allocator@UTile@@@std@@@0@U_General_ptr_iterator_tag@0@U_Any_tag@0@@Z$2 DD 040H
	DD	00H
	DD	00H
	DD	FLAT:__catch$??$_Uninitialized_move_al_unchecked1@PAUTile@@PAU1@V?$allocator@UTile@@@std@@@std@@YAPAUTile@@PAU1@00AAU?$_Wrap_alloc@V?$allocator@UTile@@@std@@@0@U_General_ptr_iterator_tag@0@U_Any_tag@0@@Z$0
__unwindtable$??$_Uninitialized_move_al_unchecked1@PAUTile@@PAU1@V?$allocator@UTile@@@std@@@std@@YAPAUTile@@PAU1@00AAU?$_Wrap_alloc@V?$allocator@UTile@@@std@@@0@U_General_ptr_iterator_tag@0@U_Any_tag@0@@Z DD 0ffffffffH
	DD	00H
	DD	0ffffffffH
	DD	00H
__tryblocktable$??$_Uninitialized_move_al_unchecked1@PAUTile@@PAU1@V?$allocator@UTile@@@std@@@std@@YAPAUTile@@PAU1@00AAU?$_Wrap_alloc@V?$allocator@UTile@@@std@@@0@U_General_ptr_iterator_tag@0@U_Any_tag@0@@Z DD 00H
	DD	00H
	DD	01H
	DD	01H
	DD	FLAT:__catchsym$??$_Uninitialized_move_al_unchecked1@PAUTile@@PAU1@V?$allocator@UTile@@@std@@@std@@YAPAUTile@@PAU1@00AAU?$_Wrap_alloc@V?$allocator@UTile@@@std@@@0@U_General_ptr_iterator_tag@0@U_Any_tag@0@@Z$2
__ehfuncinfo$??$_Uninitialized_move_al_unchecked1@PAUTile@@PAU1@V?$allocator@UTile@@@std@@@std@@YAPAUTile@@PAU1@00AAU?$_Wrap_alloc@V?$allocator@UTile@@@std@@@0@U_General_ptr_iterator_tag@0@U_Any_tag@0@@Z DD 019930522H
	DD	02H
	DD	FLAT:__unwindtable$??$_Uninitialized_move_al_unchecked1@PAUTile@@PAU1@V?$allocator@UTile@@@std@@@std@@YAPAUTile@@PAU1@00AAU?$_Wrap_alloc@V?$allocator@UTile@@@std@@@0@U_General_ptr_iterator_tag@0@U_Any_tag@0@@Z
	DD	01H
	DD	FLAT:__tryblocktable$??$_Uninitialized_move_al_unchecked1@PAUTile@@PAU1@V?$allocator@UTile@@@std@@@std@@YAPAUTile@@PAU1@00AAU?$_Wrap_alloc@V?$allocator@UTile@@@std@@@0@U_General_ptr_iterator_tag@0@U_Any_tag@0@@Z
	DD	2 DUP(00H)
	DD	00H
	DD	01H
xdata$x	ENDS
;	COMDAT xdata$x
xdata$x	SEGMENT
__catchsym$??$_Uninitialized_copy_al_unchecked1@PBUPushTile@@PAU1@V?$allocator@UPushTile@@@std@@@std@@YAPAUPushTile@@PBU1@0PAU1@AAU?$_Wrap_alloc@V?$allocator@UPushTile@@@std@@@0@U_General_ptr_iterator_tag@0@U_Any_tag@0@@Z$2 DD 040H
	DD	00H
	DD	00H
	DD	FLAT:__catch$??$_Uninitialized_copy_al_unchecked1@PBUPushTile@@PAU1@V?$allocator@UPushTile@@@std@@@std@@YAPAUPushTile@@PBU1@0PAU1@AAU?$_Wrap_alloc@V?$allocator@UPushTile@@@std@@@0@U_General_ptr_iterator_tag@0@U_Any_tag@0@@Z$0
__unwindtable$??$_Uninitialized_copy_al_unchecked1@PBUPushTile@@PAU1@V?$allocator@UPushTile@@@std@@@std@@YAPAUPushTile@@PBU1@0PAU1@AAU?$_Wrap_alloc@V?$allocator@UPushTile@@@std@@@0@U_General_ptr_iterator_tag@0@U_Any_tag@0@@Z DD 0ffffffffH
	DD	00H
	DD	0ffffffffH
	DD	00H
__tryblocktable$??$_Uninitialized_copy_al_unchecked1@PBUPushTile@@PAU1@V?$allocator@UPushTile@@@std@@@std@@YAPAUPushTile@@PBU1@0PAU1@AAU?$_Wrap_alloc@V?$allocator@UPushTile@@@std@@@0@U_General_ptr_iterator_tag@0@U_Any_tag@0@@Z DD 00H
	DD	00H
	DD	01H
	DD	01H
	DD	FLAT:__catchsym$??$_Uninitialized_copy_al_unchecked1@PBUPushTile@@PAU1@V?$allocator@UPushTile@@@std@@@std@@YAPAUPushTile@@PBU1@0PAU1@AAU?$_Wrap_alloc@V?$allocator@UPushTile@@@std@@@0@U_General_ptr_iterator_tag@0@U_Any_tag@0@@Z$2
__ehfuncinfo$??$_Uninitialized_copy_al_unchecked1@PBUPushTile@@PAU1@V?$allocator@UPushTile@@@std@@@std@@YAPAUPushTile@@PBU1@0PAU1@AAU?$_Wrap_alloc@V?$allocator@UPushTile@@@std@@@0@U_General_ptr_iterator_tag@0@U_Any_tag@0@@Z DD 019930522H
	DD	02H
	DD	FLAT:__unwindtable$??$_Uninitialized_copy_al_unchecked1@PBUPushTile@@PAU1@V?$allocator@UPushTile@@@std@@@std@@YAPAUPushTile@@PBU1@0PAU1@AAU?$_Wrap_alloc@V?$allocator@UPushTile@@@std@@@0@U_General_ptr_iterator_tag@0@U_Any_tag@0@@Z
	DD	01H
	DD	FLAT:__tryblocktable$??$_Uninitialized_copy_al_unchecked1@PBUPushTile@@PAU1@V?$allocator@UPushTile@@@std@@@std@@YAPAUPushTile@@PBU1@0PAU1@AAU?$_Wrap_alloc@V?$allocator@UPushTile@@@std@@@0@U_General_ptr_iterator_tag@0@U_Any_tag@0@@Z
	DD	2 DUP(00H)
	DD	00H
	DD	01H
xdata$x	ENDS
;	COMDAT xdata$x
xdata$x	SEGMENT
__unwindtable$??$_Unchecked@V?$_Vector_val@U?$_Simple_types@UPushTile@@@std@@@std@@@std@@YAPBUPushTile@@V?$_Vector_const_iterator@V?$_Vector_val@U?$_Simple_types@UPushTile@@@std@@@std@@@0@@Z DD 0ffffffffH
	DD	FLAT:__unwindfunclet$??$_Unchecked@V?$_Vector_val@U?$_Simple_types@UPushTile@@@std@@@std@@@std@@YAPBUPushTile@@V?$_Vector_const_iterator@V?$_Vector_val@U?$_Simple_types@UPushTile@@@std@@@std@@@0@@Z$0
__ehfuncinfo$??$_Unchecked@V?$_Vector_val@U?$_Simple_types@UPushTile@@@std@@@std@@@std@@YAPBUPushTile@@V?$_Vector_const_iterator@V?$_Vector_val@U?$_Simple_types@UPushTile@@@std@@@std@@@0@@Z DD 019930522H
	DD	01H
	DD	FLAT:__unwindtable$??$_Unchecked@V?$_Vector_val@U?$_Simple_types@UPushTile@@@std@@@std@@@std@@YAPBUPushTile@@V?$_Vector_const_iterator@V?$_Vector_val@U?$_Simple_types@UPushTile@@@std@@@std@@@0@@Z
	DD	2 DUP(00H)
	DD	2 DUP(00H)
	DD	00H
	DD	01H
xdata$x	ENDS
;	COMDAT xdata$x
xdata$x	SEGMENT
__unwindtable$??$_Debug_range2@V?$_Vector_iterator@V?$_Vector_val@U?$_Simple_types@UTile@@@std@@@std@@@std@@@std@@YAXV?$_Vector_iterator@V?$_Vector_val@U?$_Simple_types@UTile@@@std@@@std@@@0@0PB_WIUrandom_access_iterator_tag@0@@Z DD 0ffffffffH
	DD	FLAT:__unwindfunclet$??$_Debug_range2@V?$_Vector_iterator@V?$_Vector_val@U?$_Simple_types@UTile@@@std@@@std@@@std@@@std@@YAXV?$_Vector_iterator@V?$_Vector_val@U?$_Simple_types@UTile@@@std@@@std@@@0@0PB_WIUrandom_access_iterator_tag@0@@Z$0
	DD	00H
	DD	FLAT:__unwindfunclet$??$_Debug_range2@V?$_Vector_iterator@V?$_Vector_val@U?$_Simple_types@UTile@@@std@@@std@@@std@@@std@@YAXV?$_Vector_iterator@V?$_Vector_val@U?$_Simple_types@UTile@@@std@@@std@@@0@0PB_WIUrandom_access_iterator_tag@0@@Z$1
__ehfuncinfo$??$_Debug_range2@V?$_Vector_iterator@V?$_Vector_val@U?$_Simple_types@UTile@@@std@@@std@@@std@@@std@@YAXV?$_Vector_iterator@V?$_Vector_val@U?$_Simple_types@UTile@@@std@@@std@@@0@0PB_WIUrandom_access_iterator_tag@0@@Z DD 019930522H
	DD	02H
	DD	FLAT:__unwindtable$??$_Debug_range2@V?$_Vector_iterator@V?$_Vector_val@U?$_Simple_types@UTile@@@std@@@std@@@std@@@std@@YAXV?$_Vector_iterator@V?$_Vector_val@U?$_Simple_types@UTile@@@std@@@std@@@0@0PB_WIUrandom_access_iterator_tag@0@@Z
	DD	2 DUP(00H)
	DD	2 DUP(00H)
	DD	00H
	DD	01H
xdata$x	ENDS
;	COMDAT xdata$x
xdata$x	SEGMENT
__unwindtable$??$_Debug_range2@V?$_Vector_iterator@V?$_Vector_val@U?$_Simple_types@H@std@@@std@@@std@@@std@@YAXV?$_Vector_iterator@V?$_Vector_val@U?$_Simple_types@H@std@@@std@@@0@0PB_WIUrandom_access_iterator_tag@0@@Z DD 0ffffffffH
	DD	FLAT:__unwindfunclet$??$_Debug_range2@V?$_Vector_iterator@V?$_Vector_val@U?$_Simple_types@H@std@@@std@@@std@@@std@@YAXV?$_Vector_iterator@V?$_Vector_val@U?$_Simple_types@H@std@@@std@@@0@0PB_WIUrandom_access_iterator_tag@0@@Z$0
	DD	00H
	DD	FLAT:__unwindfunclet$??$_Debug_range2@V?$_Vector_iterator@V?$_Vector_val@U?$_Simple_types@H@std@@@std@@@std@@@std@@YAXV?$_Vector_iterator@V?$_Vector_val@U?$_Simple_types@H@std@@@std@@@0@0PB_WIUrandom_access_iterator_tag@0@@Z$1
__ehfuncinfo$??$_Debug_range2@V?$_Vector_iterator@V?$_Vector_val@U?$_Simple_types@H@std@@@std@@@std@@@std@@YAXV?$_Vector_iterator@V?$_Vector_val@U?$_Simple_types@H@std@@@std@@@0@0PB_WIUrandom_access_iterator_tag@0@@Z DD 019930522H
	DD	02H
	DD	FLAT:__unwindtable$??$_Debug_range2@V?$_Vector_iterator@V?$_Vector_val@U?$_Simple_types@H@std@@@std@@@std@@@std@@YAXV?$_Vector_iterator@V?$_Vector_val@U?$_Simple_types@H@std@@@std@@@0@0PB_WIUrandom_access_iterator_tag@0@@Z
	DD	2 DUP(00H)
	DD	2 DUP(00H)
	DD	00H
	DD	01H
xdata$x	ENDS
;	COMDAT xdata$x
xdata$x	SEGMENT
__unwindtable$??$_Uninitialized_copy@V?$_Vector_const_iterator@V?$_Vector_val@U?$_Simple_types@UPushTile@@@std@@@std@@@std@@PAUPushTile@@V?$allocator@UPushTile@@@2@@std@@YAPAUPushTile@@V?$_Vector_const_iterator@V?$_Vector_val@U?$_Simple_types@UPushTile@@@std@@@std@@@0@0PAU1@AAU?$_Wrap_alloc@V?$allocator@UPushTile@@@std@@@0@@Z DD 0ffffffffH
	DD	FLAT:__unwindfunclet$??$_Uninitialized_copy@V?$_Vector_const_iterator@V?$_Vector_val@U?$_Simple_types@UPushTile@@@std@@@std@@@std@@PAUPushTile@@V?$allocator@UPushTile@@@2@@std@@YAPAUPushTile@@V?$_Vector_const_iterator@V?$_Vector_val@U?$_Simple_types@UPushTile@@@std@@@std@@@0@0PAU1@AAU?$_Wrap_alloc@V?$allocator@UPushTile@@@std@@@0@@Z$0
	DD	00H
	DD	FLAT:__unwindfunclet$??$_Uninitialized_copy@V?$_Vector_const_iterator@V?$_Vector_val@U?$_Simple_types@UPushTile@@@std@@@std@@@std@@PAUPushTile@@V?$allocator@UPushTile@@@2@@std@@YAPAUPushTile@@V?$_Vector_const_iterator@V?$_Vector_val@U?$_Simple_types@UPushTile@@@std@@@std@@@0@0PAU1@AAU?$_Wrap_alloc@V?$allocator@UPushTile@@@std@@@0@@Z$1
__ehfuncinfo$??$_Uninitialized_copy@V?$_Vector_const_iterator@V?$_Vector_val@U?$_Simple_types@UPushTile@@@std@@@std@@@std@@PAUPushTile@@V?$allocator@UPushTile@@@2@@std@@YAPAUPushTile@@V?$_Vector_const_iterator@V?$_Vector_val@U?$_Simple_types@UPushTile@@@std@@@std@@@0@0PAU1@AAU?$_Wrap_alloc@V?$allocator@UPushTile@@@std@@@0@@Z DD 019930522H
	DD	02H
	DD	FLAT:__unwindtable$??$_Uninitialized_copy@V?$_Vector_const_iterator@V?$_Vector_val@U?$_Simple_types@UPushTile@@@std@@@std@@@std@@PAUPushTile@@V?$allocator@UPushTile@@@2@@std@@YAPAUPushTile@@V?$_Vector_const_iterator@V?$_Vector_val@U?$_Simple_types@UPushTile@@@std@@@std@@@0@0PAU1@AAU?$_Wrap_alloc@V?$allocator@UPushTile@@@std@@@0@@Z
	DD	2 DUP(00H)
	DD	2 DUP(00H)
	DD	00H
	DD	01H
xdata$x	ENDS
;	COMDAT xdata$x
xdata$x	SEGMENT
__unwindtable$??$_Unchecked@V?$_Vector_val@U?$_Simple_types@UTile@@@std@@@std@@@std@@YAPAUTile@@V?$_Vector_iterator@V?$_Vector_val@U?$_Simple_types@UTile@@@std@@@std@@@0@@Z DD 0ffffffffH
	DD	FLAT:__unwindfunclet$??$_Unchecked@V?$_Vector_val@U?$_Simple_types@UTile@@@std@@@std@@@std@@YAPAUTile@@V?$_Vector_iterator@V?$_Vector_val@U?$_Simple_types@UTile@@@std@@@std@@@0@@Z$0
__ehfuncinfo$??$_Unchecked@V?$_Vector_val@U?$_Simple_types@UTile@@@std@@@std@@@std@@YAPAUTile@@V?$_Vector_iterator@V?$_Vector_val@U?$_Simple_types@UTile@@@std@@@std@@@0@@Z DD 019930522H
	DD	01H
	DD	FLAT:__unwindtable$??$_Unchecked@V?$_Vector_val@U?$_Simple_types@UTile@@@std@@@std@@@std@@YAPAUTile@@V?$_Vector_iterator@V?$_Vector_val@U?$_Simple_types@UTile@@@std@@@std@@@0@@Z
	DD	2 DUP(00H)
	DD	2 DUP(00H)
	DD	00H
	DD	01H
xdata$x	ENDS
;	COMDAT xdata$x
xdata$x	SEGMENT
__unwindtable$??$_Debug_range@V?$_Vector_iterator@V?$_Vector_val@U?$_Simple_types@UTile@@@std@@@std@@@std@@@std@@YAXV?$_Vector_iterator@V?$_Vector_val@U?$_Simple_types@UTile@@@std@@@std@@@0@0PB_WI@Z DD 0ffffffffH
	DD	FLAT:__unwindfunclet$??$_Debug_range@V?$_Vector_iterator@V?$_Vector_val@U?$_Simple_types@UTile@@@std@@@std@@@std@@@std@@YAXV?$_Vector_iterator@V?$_Vector_val@U?$_Simple_types@UTile@@@std@@@std@@@0@0PB_WI@Z$0
	DD	00H
	DD	FLAT:__unwindfunclet$??$_Debug_range@V?$_Vector_iterator@V?$_Vector_val@U?$_Simple_types@UTile@@@std@@@std@@@std@@@std@@YAXV?$_Vector_iterator@V?$_Vector_val@U?$_Simple_types@UTile@@@std@@@std@@@0@0PB_WI@Z$1
	DD	01H
	DD	FLAT:__unwindfunclet$??$_Debug_range@V?$_Vector_iterator@V?$_Vector_val@U?$_Simple_types@UTile@@@std@@@std@@@std@@@std@@YAXV?$_Vector_iterator@V?$_Vector_val@U?$_Simple_types@UTile@@@std@@@std@@@0@0PB_WI@Z$2
__ehfuncinfo$??$_Debug_range@V?$_Vector_iterator@V?$_Vector_val@U?$_Simple_types@UTile@@@std@@@std@@@std@@@std@@YAXV?$_Vector_iterator@V?$_Vector_val@U?$_Simple_types@UTile@@@std@@@std@@@0@0PB_WI@Z DD 019930522H
	DD	03H
	DD	FLAT:__unwindtable$??$_Debug_range@V?$_Vector_iterator@V?$_Vector_val@U?$_Simple_types@UTile@@@std@@@std@@@std@@@std@@YAXV?$_Vector_iterator@V?$_Vector_val@U?$_Simple_types@UTile@@@std@@@std@@@0@0PB_WI@Z
	DD	2 DUP(00H)
	DD	2 DUP(00H)
	DD	00H
	DD	01H
xdata$x	ENDS
;	COMDAT xdata$x
xdata$x	SEGMENT
__unwindtable$??$_Unchecked@V?$_Vector_val@U?$_Simple_types@H@std@@@std@@@std@@YAPAHV?$_Vector_iterator@V?$_Vector_val@U?$_Simple_types@H@std@@@std@@@0@@Z DD 0ffffffffH
	DD	FLAT:__unwindfunclet$??$_Unchecked@V?$_Vector_val@U?$_Simple_types@H@std@@@std@@@std@@YAPAHV?$_Vector_iterator@V?$_Vector_val@U?$_Simple_types@H@std@@@std@@@0@@Z$0
__ehfuncinfo$??$_Unchecked@V?$_Vector_val@U?$_Simple_types@H@std@@@std@@@std@@YAPAHV?$_Vector_iterator@V?$_Vector_val@U?$_Simple_types@H@std@@@std@@@0@@Z DD 019930522H
	DD	01H
	DD	FLAT:__unwindtable$??$_Unchecked@V?$_Vector_val@U?$_Simple_types@H@std@@@std@@@std@@YAPAHV?$_Vector_iterator@V?$_Vector_val@U?$_Simple_types@H@std@@@std@@@0@@Z
	DD	2 DUP(00H)
	DD	2 DUP(00H)
	DD	00H
	DD	01H
xdata$x	ENDS
;	COMDAT xdata$x
xdata$x	SEGMENT
__unwindtable$??$_Debug_range@V?$_Vector_iterator@V?$_Vector_val@U?$_Simple_types@H@std@@@std@@@std@@@std@@YAXV?$_Vector_iterator@V?$_Vector_val@U?$_Simple_types@H@std@@@std@@@0@0PB_WI@Z DD 0ffffffffH
	DD	FLAT:__unwindfunclet$??$_Debug_range@V?$_Vector_iterator@V?$_Vector_val@U?$_Simple_types@H@std@@@std@@@std@@@std@@YAXV?$_Vector_iterator@V?$_Vector_val@U?$_Simple_types@H@std@@@std@@@0@0PB_WI@Z$0
	DD	00H
	DD	FLAT:__unwindfunclet$??$_Debug_range@V?$_Vector_iterator@V?$_Vector_val@U?$_Simple_types@H@std@@@std@@@std@@@std@@YAXV?$_Vector_iterator@V?$_Vector_val@U?$_Simple_types@H@std@@@std@@@0@0PB_WI@Z$1
	DD	01H
	DD	FLAT:__unwindfunclet$??$_Debug_range@V?$_Vector_iterator@V?$_Vector_val@U?$_Simple_types@H@std@@@std@@@std@@@std@@YAXV?$_Vector_iterator@V?$_Vector_val@U?$_Simple_types@H@std@@@std@@@0@0PB_WI@Z$2
__ehfuncinfo$??$_Debug_range@V?$_Vector_iterator@V?$_Vector_val@U?$_Simple_types@H@std@@@std@@@std@@@std@@YAXV?$_Vector_iterator@V?$_Vector_val@U?$_Simple_types@H@std@@@std@@@0@0PB_WI@Z DD 019930522H
	DD	03H
	DD	FLAT:__unwindtable$??$_Debug_range@V?$_Vector_iterator@V?$_Vector_val@U?$_Simple_types@H@std@@@std@@@std@@@std@@YAXV?$_Vector_iterator@V?$_Vector_val@U?$_Simple_types@H@std@@@std@@@0@0PB_WI@Z
	DD	2 DUP(00H)
	DD	2 DUP(00H)
	DD	00H
	DD	01H
xdata$x	ENDS
;	COMDAT xdata$x
xdata$x	SEGMENT
__unwindtable$??$_Ucopy@V?$_Vector_const_iterator@V?$_Vector_val@U?$_Simple_types@UPushTile@@@std@@@std@@@std@@@?$vector@UPushTile@@V?$allocator@UPushTile@@@std@@@std@@IAEPAUPushTile@@V?$_Vector_const_iterator@V?$_Vector_val@U?$_Simple_types@UPushTile@@@std@@@std@@@1@0PAU2@@Z DD 0ffffffffH
	DD	FLAT:__unwindfunclet$??$_Ucopy@V?$_Vector_const_iterator@V?$_Vector_val@U?$_Simple_types@UPushTile@@@std@@@std@@@std@@@?$vector@UPushTile@@V?$allocator@UPushTile@@@std@@@std@@IAEPAUPushTile@@V?$_Vector_const_iterator@V?$_Vector_val@U?$_Simple_types@UPushTile@@@std@@@std@@@1@0PAU2@@Z$0
	DD	00H
	DD	FLAT:__unwindfunclet$??$_Ucopy@V?$_Vector_const_iterator@V?$_Vector_val@U?$_Simple_types@UPushTile@@@std@@@std@@@std@@@?$vector@UPushTile@@V?$allocator@UPushTile@@@std@@@std@@IAEPAUPushTile@@V?$_Vector_const_iterator@V?$_Vector_val@U?$_Simple_types@UPushTile@@@std@@@std@@@1@0PAU2@@Z$1
	DD	01H
	DD	FLAT:__unwindfunclet$??$_Ucopy@V?$_Vector_const_iterator@V?$_Vector_val@U?$_Simple_types@UPushTile@@@std@@@std@@@std@@@?$vector@UPushTile@@V?$allocator@UPushTile@@@std@@@std@@IAEPAUPushTile@@V?$_Vector_const_iterator@V?$_Vector_val@U?$_Simple_types@UPushTile@@@std@@@std@@@1@0PAU2@@Z$2
__ehfuncinfo$??$_Ucopy@V?$_Vector_const_iterator@V?$_Vector_val@U?$_Simple_types@UPushTile@@@std@@@std@@@std@@@?$vector@UPushTile@@V?$allocator@UPushTile@@@std@@@std@@IAEPAUPushTile@@V?$_Vector_const_iterator@V?$_Vector_val@U?$_Simple_types@UPushTile@@@std@@@std@@@1@0PAU2@@Z DD 019930522H
	DD	03H
	DD	FLAT:__unwindtable$??$_Ucopy@V?$_Vector_const_iterator@V?$_Vector_val@U?$_Simple_types@UPushTile@@@std@@@std@@@std@@@?$vector@UPushTile@@V?$allocator@UPushTile@@@std@@@std@@IAEPAUPushTile@@V?$_Vector_const_iterator@V?$_Vector_val@U?$_Simple_types@UPushTile@@@std@@@std@@@1@0PAU2@@Z
	DD	2 DUP(00H)
	DD	2 DUP(00H)
	DD	00H
	DD	01H
xdata$x	ENDS
;	COMDAT xdata$x
xdata$x	SEGMENT
__unwindtable$??$?0U?$_Wrap_alloc@V?$allocator@UPushTile@@@std@@@std@@X@?$_Vector_alloc@U?$_Vec_base_types@UPushTile@@V?$allocator@UPushTile@@@std@@@std@@@std@@QAE@$$QAU?$_Wrap_alloc@V?$allocator@UPushTile@@@std@@@1@@Z DD 0ffffffffH
	DD	FLAT:__unwindfunclet$??$?0U?$_Wrap_alloc@V?$allocator@UPushTile@@@std@@@std@@X@?$_Vector_alloc@U?$_Vec_base_types@UPushTile@@V?$allocator@UPushTile@@@std@@@std@@@std@@QAE@$$QAU?$_Wrap_alloc@V?$allocator@UPushTile@@@std@@@1@@Z$0
__ehfuncinfo$??$?0U?$_Wrap_alloc@V?$allocator@UPushTile@@@std@@@std@@X@?$_Vector_alloc@U?$_Vec_base_types@UPushTile@@V?$allocator@UPushTile@@@std@@@std@@@std@@QAE@$$QAU?$_Wrap_alloc@V?$allocator@UPushTile@@@std@@@1@@Z DD 019930522H
	DD	01H
	DD	FLAT:__unwindtable$??$?0U?$_Wrap_alloc@V?$allocator@UPushTile@@@std@@@std@@X@?$_Vector_alloc@U?$_Vec_base_types@UPushTile@@V?$allocator@UPushTile@@@std@@@std@@@std@@QAE@$$QAU?$_Wrap_alloc@V?$allocator@UPushTile@@@std@@@1@@Z
	DD	2 DUP(00H)
	DD	2 DUP(00H)
	DD	00H
	DD	01H
xdata$x	ENDS
;	COMDAT xdata$x
xdata$x	SEGMENT
__unwindtable$??$find@V?$_Vector_iterator@V?$_Vector_val@U?$_Simple_types@UTile@@@std@@@std@@@std@@UTile@@@std@@YA?AV?$_Vector_iterator@V?$_Vector_val@U?$_Simple_types@UTile@@@std@@@std@@@0@V10@0ABUTile@@@Z DD 0ffffffffH
	DD	FLAT:__unwindfunclet$??$find@V?$_Vector_iterator@V?$_Vector_val@U?$_Simple_types@UTile@@@std@@@std@@@std@@UTile@@@std@@YA?AV?$_Vector_iterator@V?$_Vector_val@U?$_Simple_types@UTile@@@std@@@std@@@0@V10@0ABUTile@@@Z$0
	DD	00H
	DD	FLAT:__unwindfunclet$??$find@V?$_Vector_iterator@V?$_Vector_val@U?$_Simple_types@UTile@@@std@@@std@@@std@@UTile@@@std@@YA?AV?$_Vector_iterator@V?$_Vector_val@U?$_Simple_types@UTile@@@std@@@std@@@0@V10@0ABUTile@@@Z$1
	DD	01H
	DD	FLAT:__unwindfunclet$??$find@V?$_Vector_iterator@V?$_Vector_val@U?$_Simple_types@UTile@@@std@@@std@@@std@@UTile@@@std@@YA?AV?$_Vector_iterator@V?$_Vector_val@U?$_Simple_types@UTile@@@std@@@std@@@0@V10@0ABUTile@@@Z$2
__ehfuncinfo$??$find@V?$_Vector_iterator@V?$_Vector_val@U?$_Simple_types@UTile@@@std@@@std@@@std@@UTile@@@std@@YA?AV?$_Vector_iterator@V?$_Vector_val@U?$_Simple_types@UTile@@@std@@@std@@@0@V10@0ABUTile@@@Z DD 019930522H
	DD	03H
	DD	FLAT:__unwindtable$??$find@V?$_Vector_iterator@V?$_Vector_val@U?$_Simple_types@UTile@@@std@@@std@@@std@@UTile@@@std@@YA?AV?$_Vector_iterator@V?$_Vector_val@U?$_Simple_types@UTile@@@std@@@std@@@0@V10@0ABUTile@@@Z
	DD	2 DUP(00H)
	DD	2 DUP(00H)
	DD	00H
	DD	01H
xdata$x	ENDS
;	COMDAT xdata$x
xdata$x	SEGMENT
__unwindtable$??$remove@V?$_Vector_iterator@V?$_Vector_val@U?$_Simple_types@UTile@@@std@@@std@@@std@@UTile@@@std@@YA?AV?$_Vector_iterator@V?$_Vector_val@U?$_Simple_types@UTile@@@std@@@std@@@0@V10@0ABUTile@@@Z DD 0ffffffffH
	DD	FLAT:__unwindfunclet$??$remove@V?$_Vector_iterator@V?$_Vector_val@U?$_Simple_types@UTile@@@std@@@std@@@std@@UTile@@@std@@YA?AV?$_Vector_iterator@V?$_Vector_val@U?$_Simple_types@UTile@@@std@@@std@@@0@V10@0ABUTile@@@Z$0
	DD	00H
	DD	FLAT:__unwindfunclet$??$remove@V?$_Vector_iterator@V?$_Vector_val@U?$_Simple_types@UTile@@@std@@@std@@@std@@UTile@@@std@@YA?AV?$_Vector_iterator@V?$_Vector_val@U?$_Simple_types@UTile@@@std@@@std@@@0@V10@0ABUTile@@@Z$1
	DD	01H
	DD	FLAT:__unwindfunclet$??$remove@V?$_Vector_iterator@V?$_Vector_val@U?$_Simple_types@UTile@@@std@@@std@@@std@@UTile@@@std@@YA?AV?$_Vector_iterator@V?$_Vector_val@U?$_Simple_types@UTile@@@std@@@std@@@0@V10@0ABUTile@@@Z$2
__ehfuncinfo$??$remove@V?$_Vector_iterator@V?$_Vector_val@U?$_Simple_types@UTile@@@std@@@std@@@std@@UTile@@@std@@YA?AV?$_Vector_iterator@V?$_Vector_val@U?$_Simple_types@UTile@@@std@@@std@@@0@V10@0ABUTile@@@Z DD 019930522H
	DD	03H
	DD	FLAT:__unwindtable$??$remove@V?$_Vector_iterator@V?$_Vector_val@U?$_Simple_types@UTile@@@std@@@std@@@std@@UTile@@@std@@YA?AV?$_Vector_iterator@V?$_Vector_val@U?$_Simple_types@UTile@@@std@@@std@@@0@V10@0ABUTile@@@Z
	DD	2 DUP(00H)
	DD	2 DUP(00H)
	DD	00H
	DD	01H
xdata$x	ENDS
;	COMDAT xdata$x
xdata$x	SEGMENT
__unwindtable$??0?$_Vector_const_iterator@V?$_Vector_val@U?$_Simple_types@UMovingTile@@@std@@@std@@@std@@QAE@PAUMovingTile@@PBU_Container_base12@1@@Z DD 0ffffffffH
	DD	FLAT:__unwindfunclet$??0?$_Vector_const_iterator@V?$_Vector_val@U?$_Simple_types@UMovingTile@@@std@@@std@@@std@@QAE@PAUMovingTile@@PBU_Container_base12@1@@Z$0
__ehfuncinfo$??0?$_Vector_const_iterator@V?$_Vector_val@U?$_Simple_types@UMovingTile@@@std@@@std@@@std@@QAE@PAUMovingTile@@PBU_Container_base12@1@@Z DD 019930522H
	DD	01H
	DD	FLAT:__unwindtable$??0?$_Vector_const_iterator@V?$_Vector_val@U?$_Simple_types@UMovingTile@@@std@@@std@@@std@@QAE@PAUMovingTile@@PBU_Container_base12@1@@Z
	DD	2 DUP(00H)
	DD	2 DUP(00H)
	DD	00H
	DD	01H
xdata$x	ENDS
;	COMDAT xdata$x
xdata$x	SEGMENT
__ehfuncinfo$?end@?$vector@UMovingTile@@V?$allocator@UMovingTile@@@std@@@std@@QAE?AV?$_Vector_iterator@V?$_Vector_val@U?$_Simple_types@UMovingTile@@@std@@@std@@@2@XZ DD 019930522H
	DD	00H
	DD	00H
	DD	2 DUP(00H)
	DD	2 DUP(00H)
	DD	00H
	DD	05H
xdata$x	ENDS
;	COMDAT xdata$x
xdata$x	SEGMENT
__ehfuncinfo$?begin@?$vector@UMovingTile@@V?$allocator@UMovingTile@@@std@@@std@@QAE?AV?$_Vector_iterator@V?$_Vector_val@U?$_Simple_types@UMovingTile@@@std@@@std@@@2@XZ DD 019930522H
	DD	00H
	DD	00H
	DD	2 DUP(00H)
	DD	2 DUP(00H)
	DD	00H
	DD	05H
xdata$x	ENDS
;	COMDAT xdata$x
xdata$x	SEGMENT
__unwindtable$??0?$_Vector_const_iterator@V?$_Vector_val@U?$_Simple_types@UAirTile@@@std@@@std@@@std@@QAE@PAUAirTile@@PBU_Container_base12@1@@Z DD 0ffffffffH
	DD	FLAT:__unwindfunclet$??0?$_Vector_const_iterator@V?$_Vector_val@U?$_Simple_types@UAirTile@@@std@@@std@@@std@@QAE@PAUAirTile@@PBU_Container_base12@1@@Z$0
__ehfuncinfo$??0?$_Vector_const_iterator@V?$_Vector_val@U?$_Simple_types@UAirTile@@@std@@@std@@@std@@QAE@PAUAirTile@@PBU_Container_base12@1@@Z DD 019930522H
	DD	01H
	DD	FLAT:__unwindtable$??0?$_Vector_const_iterator@V?$_Vector_val@U?$_Simple_types@UAirTile@@@std@@@std@@@std@@QAE@PAUAirTile@@PBU_Container_base12@1@@Z
	DD	2 DUP(00H)
	DD	2 DUP(00H)
	DD	00H
	DD	01H
xdata$x	ENDS
;	COMDAT xdata$x
xdata$x	SEGMENT
__ehfuncinfo$?end@?$vector@UAirTile@@V?$allocator@UAirTile@@@std@@@std@@QAE?AV?$_Vector_iterator@V?$_Vector_val@U?$_Simple_types@UAirTile@@@std@@@std@@@2@XZ DD 019930522H
	DD	00H
	DD	00H
	DD	2 DUP(00H)
	DD	2 DUP(00H)
	DD	00H
	DD	05H
xdata$x	ENDS
;	COMDAT xdata$x
xdata$x	SEGMENT
__ehfuncinfo$?begin@?$vector@UAirTile@@V?$allocator@UAirTile@@@std@@@std@@QAE?AV?$_Vector_iterator@V?$_Vector_val@U?$_Simple_types@UAirTile@@@std@@@std@@@2@XZ DD 019930522H
	DD	00H
	DD	00H
	DD	2 DUP(00H)
	DD	2 DUP(00H)
	DD	00H
	DD	05H
xdata$x	ENDS
;	COMDAT xdata$x
xdata$x	SEGMENT
__unwindtable$??$find@V?$_Vector_iterator@V?$_Vector_val@U?$_Simple_types@H@std@@@std@@@std@@W4<unnamed-enum-SDLK_UNKNOWN>@@@std@@YA?AV?$_Vector_iterator@V?$_Vector_val@U?$_Simple_types@H@std@@@std@@@0@V10@0ABW4<unnamed-enum-SDLK_UNKNOWN>@@@Z DD 0ffffffffH
	DD	FLAT:__unwindfunclet$??$find@V?$_Vector_iterator@V?$_Vector_val@U?$_Simple_types@H@std@@@std@@@std@@W4<unnamed-enum-SDLK_UNKNOWN>@@@std@@YA?AV?$_Vector_iterator@V?$_Vector_val@U?$_Simple_types@H@std@@@std@@@0@V10@0ABW4<unnamed-enum-SDLK_UNKNOWN>@@@Z$0
	DD	00H
	DD	FLAT:__unwindfunclet$??$find@V?$_Vector_iterator@V?$_Vector_val@U?$_Simple_types@H@std@@@std@@@std@@W4<unnamed-enum-SDLK_UNKNOWN>@@@std@@YA?AV?$_Vector_iterator@V?$_Vector_val@U?$_Simple_types@H@std@@@std@@@0@V10@0ABW4<unnamed-enum-SDLK_UNKNOWN>@@@Z$1
	DD	01H
	DD	FLAT:__unwindfunclet$??$find@V?$_Vector_iterator@V?$_Vector_val@U?$_Simple_types@H@std@@@std@@@std@@W4<unnamed-enum-SDLK_UNKNOWN>@@@std@@YA?AV?$_Vector_iterator@V?$_Vector_val@U?$_Simple_types@H@std@@@std@@@0@V10@0ABW4<unnamed-enum-SDLK_UNKNOWN>@@@Z$2
__ehfuncinfo$??$find@V?$_Vector_iterator@V?$_Vector_val@U?$_Simple_types@H@std@@@std@@@std@@W4<unnamed-enum-SDLK_UNKNOWN>@@@std@@YA?AV?$_Vector_iterator@V?$_Vector_val@U?$_Simple_types@H@std@@@std@@@0@V10@0ABW4<unnamed-enum-SDLK_UNKNOWN>@@@Z DD 019930522H
	DD	03H
	DD	FLAT:__unwindtable$??$find@V?$_Vector_iterator@V?$_Vector_val@U?$_Simple_types@H@std@@@std@@@std@@W4<unnamed-enum-SDLK_UNKNOWN>@@@std@@YA?AV?$_Vector_iterator@V?$_Vector_val@U?$_Simple_types@H@std@@@std@@@0@V10@0ABW4<unnamed-enum-SDLK_UNKNOWN>@@@Z
	DD	2 DUP(00H)
	DD	2 DUP(00H)
	DD	00H
	DD	01H
xdata$x	ENDS
;	COMDAT xdata$x
xdata$x	SEGMENT
__unwindtable$??0?$_Vector_const_iterator@V?$_Vector_val@U?$_Simple_types@H@std@@@std@@@std@@QAE@PAHPBU_Container_base12@1@@Z DD 0ffffffffH
	DD	FLAT:__unwindfunclet$??0?$_Vector_const_iterator@V?$_Vector_val@U?$_Simple_types@H@std@@@std@@@std@@QAE@PAHPBU_Container_base12@1@@Z$0
__ehfuncinfo$??0?$_Vector_const_iterator@V?$_Vector_val@U?$_Simple_types@H@std@@@std@@@std@@QAE@PAHPBU_Container_base12@1@@Z DD 019930522H
	DD	01H
	DD	FLAT:__unwindtable$??0?$_Vector_const_iterator@V?$_Vector_val@U?$_Simple_types@H@std@@@std@@@std@@QAE@PAHPBU_Container_base12@1@@Z
	DD	2 DUP(00H)
	DD	2 DUP(00H)
	DD	00H
	DD	01H
xdata$x	ENDS
;	COMDAT xdata$x
xdata$x	SEGMENT
__ehfuncinfo$?end@?$vector@HV?$allocator@H@std@@@std@@QAE?AV?$_Vector_iterator@V?$_Vector_val@U?$_Simple_types@H@std@@@std@@@2@XZ DD 019930522H
	DD	00H
	DD	00H
	DD	2 DUP(00H)
	DD	2 DUP(00H)
	DD	00H
	DD	05H
xdata$x	ENDS
;	COMDAT xdata$x
xdata$x	SEGMENT
__ehfuncinfo$?begin@?$vector@HV?$allocator@H@std@@@std@@QAE?AV?$_Vector_iterator@V?$_Vector_val@U?$_Simple_types@H@std@@@std@@@2@XZ DD 019930522H
	DD	00H
	DD	00H
	DD	2 DUP(00H)
	DD	2 DUP(00H)
	DD	00H
	DD	05H
xdata$x	ENDS
;	COMDAT xdata$x
xdata$x	SEGMENT
__ehfuncinfo$?FloatingMovement@@YAXM@Z DD 019930522H
	DD	010H
	DD	FLAT:__unwindtable$?FloatingMovement@@YAXM@Z
	DD	2 DUP(00H)
	DD	2 DUP(00H)
	DD	00H
	DD	01H
__unwindtable$?FloatingMovement@@YAXM@Z DD 0ffffffffH
	DD	FLAT:__unwindfunclet$?FloatingMovement@@YAXM@Z$0
	DD	00H
	DD	FLAT:__unwindfunclet$?FloatingMovement@@YAXM@Z$3
	DD	01H
	DD	FLAT:__unwindfunclet$?FloatingMovement@@YAXM@Z$4
	DD	02H
	DD	FLAT:__unwindfunclet$?FloatingMovement@@YAXM@Z$7
	DD	0ffffffffH
	DD	FLAT:__unwindfunclet$?FloatingMovement@@YAXM@Z$8
	DD	04H
	DD	FLAT:__unwindfunclet$?FloatingMovement@@YAXM@Z$11
	DD	05H
	DD	FLAT:__unwindfunclet$?FloatingMovement@@YAXM@Z$12
	DD	06H
	DD	FLAT:__unwindfunclet$?FloatingMovement@@YAXM@Z$15
	DD	0ffffffffH
	DD	FLAT:__unwindfunclet$?FloatingMovement@@YAXM@Z$16
	DD	08H
	DD	FLAT:__unwindfunclet$?FloatingMovement@@YAXM@Z$19
	DD	09H
	DD	FLAT:__unwindfunclet$?FloatingMovement@@YAXM@Z$20
	DD	0aH
	DD	FLAT:__unwindfunclet$?FloatingMovement@@YAXM@Z$23
	DD	0ffffffffH
	DD	FLAT:__unwindfunclet$?FloatingMovement@@YAXM@Z$24
	DD	0cH
	DD	FLAT:__unwindfunclet$?FloatingMovement@@YAXM@Z$27
	DD	0dH
	DD	FLAT:__unwindfunclet$?FloatingMovement@@YAXM@Z$28
	DD	0eH
	DD	FLAT:__unwindfunclet$?FloatingMovement@@YAXM@Z$31
xdata$x	ENDS
;	COMDAT xdata$x
xdata$x	SEGMENT
__unwindtable$?HandleCollision@@YAXUTile@@@Z DD 0ffffffffH
	DD	FLAT:__unwindfunclet$?HandleCollision@@YAXUTile@@@Z$0
	DD	00H
	DD	FLAT:__unwindfunclet$?HandleCollision@@YAXUTile@@@Z$3
__ehfuncinfo$?HandleCollision@@YAXUTile@@@Z DD 019930522H
	DD	02H
	DD	FLAT:__unwindtable$?HandleCollision@@YAXUTile@@@Z
	DD	2 DUP(00H)
	DD	2 DUP(00H)
	DD	00H
	DD	01H
xdata$x	ENDS
;	COMDAT xdata$x
xdata$x	SEGMENT
__ehfuncinfo$?UpdatePlayer@@YAXH@Z DD 019930522H
	DD	023H
	DD	FLAT:__unwindtable$?UpdatePlayer@@YAXH@Z
	DD	2 DUP(00H)
	DD	2 DUP(00H)
	DD	00H
	DD	01H
__unwindtable$?UpdatePlayer@@YAXH@Z DD 0ffffffffH
	DD	FLAT:__unwindfunclet$?UpdatePlayer@@YAXH@Z$0
	DD	00H
	DD	FLAT:__unwindfunclet$?UpdatePlayer@@YAXH@Z$1
	DD	0ffffffffH
	DD	FLAT:__unwindfunclet$?UpdatePlayer@@YAXH@Z$6
	DD	02H
	DD	FLAT:__unwindfunclet$?UpdatePlayer@@YAXH@Z$9
	DD	0ffffffffH
	DD	FLAT:__unwindfunclet$?UpdatePlayer@@YAXH@Z$10
	DD	04H
	DD	FLAT:__unwindfunclet$?UpdatePlayer@@YAXH@Z$13
	DD	0ffffffffH
	DD	FLAT:__unwindfunclet$?UpdatePlayer@@YAXH@Z$14
	DD	06H
	DD	FLAT:__unwindfunclet$?UpdatePlayer@@YAXH@Z$17
	DD	0ffffffffH
	DD	FLAT:__unwindfunclet$?UpdatePlayer@@YAXH@Z$18
	DD	08H
	DD	FLAT:__unwindfunclet$?UpdatePlayer@@YAXH@Z$21
	DD	09H
	DD	FLAT:__unwindfunclet$?UpdatePlayer@@YAXH@Z$22
	DD	0aH
	DD	FLAT:__unwindfunclet$?UpdatePlayer@@YAXH@Z$25
	DD	0ffffffffH
	DD	FLAT:__unwindfunclet$?UpdatePlayer@@YAXH@Z$26
	DD	0cH
	DD	FLAT:__unwindfunclet$?UpdatePlayer@@YAXH@Z$29
	DD	0dH
	DD	FLAT:__unwindfunclet$?UpdatePlayer@@YAXH@Z$30
	DD	0eH
	DD	FLAT:__unwindfunclet$?UpdatePlayer@@YAXH@Z$33
	DD	0ffffffffH
	DD	FLAT:__unwindfunclet$?UpdatePlayer@@YAXH@Z$34
	DD	010H
	DD	FLAT:__unwindfunclet$?UpdatePlayer@@YAXH@Z$35
	DD	0ffffffffH
	DD	FLAT:__unwindfunclet$?UpdatePlayer@@YAXH@Z$36
	DD	012H
	DD	FLAT:__unwindfunclet$?UpdatePlayer@@YAXH@Z$39
	DD	0ffffffffH
	DD	FLAT:__unwindfunclet$?UpdatePlayer@@YAXH@Z$40
	DD	014H
	DD	FLAT:__unwindfunclet$?UpdatePlayer@@YAXH@Z$43
	DD	0ffffffffH
	DD	FLAT:__unwindfunclet$?UpdatePlayer@@YAXH@Z$44
	DD	016H
	DD	FLAT:__unwindfunclet$?UpdatePlayer@@YAXH@Z$45
	DD	0ffffffffH
	DD	FLAT:__unwindfunclet$?UpdatePlayer@@YAXH@Z$46
	DD	018H
	DD	FLAT:__unwindfunclet$?UpdatePlayer@@YAXH@Z$47
	DD	0ffffffffH
	DD	FLAT:__unwindfunclet$?UpdatePlayer@@YAXH@Z$48
	DD	01aH
	DD	FLAT:__unwindfunclet$?UpdatePlayer@@YAXH@Z$49
	DD	01bH
	DD	FLAT:__unwindfunclet$?UpdatePlayer@@YAXH@Z$50
	DD	01aH
	DD	FLAT:__unwindfunclet$?UpdatePlayer@@YAXH@Z$51
	DD	01dH
	DD	FLAT:__unwindfunclet$?UpdatePlayer@@YAXH@Z$52
	DD	01eH
	DD	FLAT:__unwindfunclet$?UpdatePlayer@@YAXH@Z$53
	DD	01fH
	DD	FLAT:__unwindfunclet$?UpdatePlayer@@YAXH@Z$54
	DD	020H
	DD	FLAT:__unwindfunclet$?UpdatePlayer@@YAXH@Z$57
	DD	01fH
	DD	FLAT:__unwindfunclet$?UpdatePlayer@@YAXH@Z$57
xdata$x	ENDS
;	COMDAT xdata$x
xdata$x	SEGMENT
__unwindtable$??0?$_Vector_const_iterator@V?$_Vector_val@U?$_Simple_types@UPushTile@@@std@@@std@@@std@@QAE@PAUPushTile@@PBU_Container_base12@1@@Z DD 0ffffffffH
	DD	FLAT:__unwindfunclet$??0?$_Vector_const_iterator@V?$_Vector_val@U?$_Simple_types@UPushTile@@@std@@@std@@@std@@QAE@PAUPushTile@@PBU_Container_base12@1@@Z$0
__ehfuncinfo$??0?$_Vector_const_iterator@V?$_Vector_val@U?$_Simple_types@UPushTile@@@std@@@std@@@std@@QAE@PAUPushTile@@PBU_Container_base12@1@@Z DD 019930522H
	DD	01H
	DD	FLAT:__unwindtable$??0?$_Vector_const_iterator@V?$_Vector_val@U?$_Simple_types@UPushTile@@@std@@@std@@@std@@QAE@PAUPushTile@@PBU_Container_base12@1@@Z
	DD	2 DUP(00H)
	DD	2 DUP(00H)
	DD	00H
	DD	01H
xdata$x	ENDS
;	COMDAT xdata$x
xdata$x	SEGMENT
__ehfuncinfo$?end@?$vector@UPushTile@@V?$allocator@UPushTile@@@std@@@std@@QBE?AV?$_Vector_const_iterator@V?$_Vector_val@U?$_Simple_types@UPushTile@@@std@@@std@@@2@XZ DD 019930522H
	DD	00H
	DD	00H
	DD	2 DUP(00H)
	DD	2 DUP(00H)
	DD	00H
	DD	05H
xdata$x	ENDS
;	COMDAT xdata$x
xdata$x	SEGMENT
__ehfuncinfo$?end@?$vector@UPushTile@@V?$allocator@UPushTile@@@std@@@std@@QAE?AV?$_Vector_iterator@V?$_Vector_val@U?$_Simple_types@UPushTile@@@std@@@std@@@2@XZ DD 019930522H
	DD	00H
	DD	00H
	DD	2 DUP(00H)
	DD	2 DUP(00H)
	DD	00H
	DD	05H
xdata$x	ENDS
;	COMDAT xdata$x
xdata$x	SEGMENT
__ehfuncinfo$?begin@?$vector@UPushTile@@V?$allocator@UPushTile@@@std@@@std@@QBE?AV?$_Vector_const_iterator@V?$_Vector_val@U?$_Simple_types@UPushTile@@@std@@@std@@@2@XZ DD 019930522H
	DD	00H
	DD	00H
	DD	2 DUP(00H)
	DD	2 DUP(00H)
	DD	00H
	DD	05H
xdata$x	ENDS
;	COMDAT xdata$x
xdata$x	SEGMENT
__ehfuncinfo$?begin@?$vector@UPushTile@@V?$allocator@UPushTile@@@std@@@std@@QAE?AV?$_Vector_iterator@V?$_Vector_val@U?$_Simple_types@UPushTile@@@std@@@std@@@2@XZ DD 019930522H
	DD	00H
	DD	00H
	DD	2 DUP(00H)
	DD	2 DUP(00H)
	DD	00H
	DD	05H
xdata$x	ENDS
;	COMDAT xdata$x
xdata$x	SEGMENT
__ehfuncinfo$??1?$vector@UPushTile@@V?$allocator@UPushTile@@@std@@@std@@QAE@XZ DD 019930522H
	DD	00H
	DD	00H
	DD	2 DUP(00H)
	DD	2 DUP(00H)
	DD	00H
	DD	05H
xdata$x	ENDS
;	COMDAT xdata$x
xdata$x	SEGMENT
__catchsym$??0?$vector@UPushTile@@V?$allocator@UPushTile@@@std@@@std@@QAE@ABV01@@Z$5 DD 040H
	DD	00H
	DD	00H
	DD	FLAT:__catch$??0?$vector@UPushTile@@V?$allocator@UPushTile@@@std@@@std@@QAE@ABV01@@Z$0
__tryblocktable$??0?$vector@UPushTile@@V?$allocator@UPushTile@@@std@@@std@@QAE@ABV01@@Z DD 01H
	DD	01H
	DD	02H
	DD	01H
	DD	FLAT:__catchsym$??0?$vector@UPushTile@@V?$allocator@UPushTile@@@std@@@std@@QAE@ABV01@@Z$5
__unwindtable$??0?$vector@UPushTile@@V?$allocator@UPushTile@@@std@@@std@@QAE@ABV01@@Z DD 0ffffffffH
	DD	FLAT:__unwindfunclet$??0?$vector@UPushTile@@V?$allocator@UPushTile@@@std@@@std@@QAE@ABV01@@Z$2
	DD	00H
	DD	00H
	DD	00H
	DD	00H
__ehfuncinfo$??0?$vector@UPushTile@@V?$allocator@UPushTile@@@std@@@std@@QAE@ABV01@@Z DD 019930522H
	DD	03H
	DD	FLAT:__unwindtable$??0?$vector@UPushTile@@V?$allocator@UPushTile@@@std@@@std@@QAE@ABV01@@Z
	DD	01H
	DD	FLAT:__tryblocktable$??0?$vector@UPushTile@@V?$allocator@UPushTile@@@std@@@std@@QAE@ABV01@@Z
	DD	2 DUP(00H)
	DD	00H
	DD	01H
xdata$x	ENDS
;	COMDAT xdata$x
xdata$x	SEGMENT
__ehfuncinfo$??1?$_Vector_alloc@U?$_Vec_base_types@UPushTile@@V?$allocator@UPushTile@@@std@@@std@@@std@@QAE@XZ DD 019930522H
	DD	00H
	DD	00H
	DD	2 DUP(00H)
	DD	2 DUP(00H)
	DD	00H
	DD	05H
xdata$x	ENDS
;	COMDAT xdata$x
xdata$x	SEGMENT
__unwindtable$?GetDirection@PushTile@@QAEHV?$vector@UPushTile@@V?$allocator@UPushTile@@@std@@@std@@@Z DD 0ffffffffH
	DD	FLAT:__unwindfunclet$?GetDirection@PushTile@@QAEHV?$vector@UPushTile@@V?$allocator@UPushTile@@@std@@@std@@@Z$0
	DD	00H
	DD	FLAT:__unwindfunclet$?GetDirection@PushTile@@QAEHV?$vector@UPushTile@@V?$allocator@UPushTile@@@std@@@std@@@Z$1
	DD	01H
	DD	FLAT:__unwindfunclet$?GetDirection@PushTile@@QAEHV?$vector@UPushTile@@V?$allocator@UPushTile@@@std@@@std@@@Z$2
__ehfuncinfo$?GetDirection@PushTile@@QAEHV?$vector@UPushTile@@V?$allocator@UPushTile@@@std@@@std@@@Z DD 019930522H
	DD	03H
	DD	FLAT:__unwindtable$?GetDirection@PushTile@@QAEHV?$vector@UPushTile@@V?$allocator@UPushTile@@@std@@@std@@@Z
	DD	2 DUP(00H)
	DD	2 DUP(00H)
	DD	00H
	DD	01H
xdata$x	ENDS
;	COMDAT xdata$x
xdata$x	SEGMENT
__unwindtable$??0?$_Vector_const_iterator@V?$_Vector_val@U?$_Simple_types@UTile@@@std@@@std@@@std@@QAE@PAUTile@@PBU_Container_base12@1@@Z DD 0ffffffffH
	DD	FLAT:__unwindfunclet$??0?$_Vector_const_iterator@V?$_Vector_val@U?$_Simple_types@UTile@@@std@@@std@@@std@@QAE@PAUTile@@PBU_Container_base12@1@@Z$0
__ehfuncinfo$??0?$_Vector_const_iterator@V?$_Vector_val@U?$_Simple_types@UTile@@@std@@@std@@@std@@QAE@PAUTile@@PBU_Container_base12@1@@Z DD 019930522H
	DD	01H
	DD	FLAT:__unwindtable$??0?$_Vector_const_iterator@V?$_Vector_val@U?$_Simple_types@UTile@@@std@@@std@@@std@@QAE@PAUTile@@PBU_Container_base12@1@@Z
	DD	2 DUP(00H)
	DD	2 DUP(00H)
	DD	00H
	DD	01H
xdata$x	ENDS
;	COMDAT xdata$x
xdata$x	SEGMENT
__unwindtable$?_Orphan_range@?$vector@UTile@@V?$allocator@UTile@@@std@@@std@@IBEXPAUTile@@0@Z DD 0ffffffffH
	DD	FLAT:__unwindfunclet$?_Orphan_range@?$vector@UTile@@V?$allocator@UTile@@@std@@@std@@IBEXPAUTile@@0@Z$0
__ehfuncinfo$?_Orphan_range@?$vector@UTile@@V?$allocator@UTile@@@std@@@std@@IBEXPAUTile@@0@Z DD 019930522H
	DD	01H
	DD	FLAT:__unwindtable$?_Orphan_range@?$vector@UTile@@V?$allocator@UTile@@@std@@@std@@IBEXPAUTile@@0@Z
	DD	2 DUP(00H)
	DD	2 DUP(00H)
	DD	00H
	DD	01H
xdata$x	ENDS
;	COMDAT xdata$x
xdata$x	SEGMENT
__catchsym$?_Reallocate@?$vector@UTile@@V?$allocator@UTile@@@std@@@std@@IAEXI@Z$2 DD 040H
	DD	00H
	DD	00H
	DD	FLAT:__catch$?_Reallocate@?$vector@UTile@@V?$allocator@UTile@@@std@@@std@@IAEXI@Z$0
__unwindtable$?_Reallocate@?$vector@UTile@@V?$allocator@UTile@@@std@@@std@@IAEXI@Z DD 0ffffffffH
	DD	00H
	DD	0ffffffffH
	DD	00H
__tryblocktable$?_Reallocate@?$vector@UTile@@V?$allocator@UTile@@@std@@@std@@IAEXI@Z DD 00H
	DD	00H
	DD	01H
	DD	01H
	DD	FLAT:__catchsym$?_Reallocate@?$vector@UTile@@V?$allocator@UTile@@@std@@@std@@IAEXI@Z$2
__ehfuncinfo$?_Reallocate@?$vector@UTile@@V?$allocator@UTile@@@std@@@std@@IAEXI@Z DD 019930522H
	DD	02H
	DD	FLAT:__unwindtable$?_Reallocate@?$vector@UTile@@V?$allocator@UTile@@@std@@@std@@IAEXI@Z
	DD	01H
	DD	FLAT:__tryblocktable$?_Reallocate@?$vector@UTile@@V?$allocator@UTile@@@std@@@std@@IAEXI@Z
	DD	2 DUP(00H)
	DD	00H
	DD	01H
xdata$x	ENDS
;	COMDAT xdata$x
xdata$x	SEGMENT
__ehfuncinfo$?clear@?$vector@UTile@@V?$allocator@UTile@@@std@@@std@@QAEXXZ DD 019930522H
	DD	00H
	DD	00H
	DD	2 DUP(00H)
	DD	2 DUP(00H)
	DD	00H
	DD	05H
xdata$x	ENDS
;	COMDAT xdata$x
xdata$x	SEGMENT
__ehfuncinfo$?erase@?$vector@UTile@@V?$allocator@UTile@@@std@@@std@@QAE?AV?$_Vector_iterator@V?$_Vector_val@U?$_Simple_types@UTile@@@std@@@std@@@2@V?$_Vector_const_iterator@V?$_Vector_val@U?$_Simple_types@UTile@@@std@@@std@@@2@0@Z DD 019930522H
	DD	06H
	DD	FLAT:__unwindtable$?erase@?$vector@UTile@@V?$allocator@UTile@@@std@@@std@@QAE?AV?$_Vector_iterator@V?$_Vector_val@U?$_Simple_types@UTile@@@std@@@std@@@2@V?$_Vector_const_iterator@V?$_Vector_val@U?$_Simple_types@UTile@@@std@@@std@@@2@0@Z
	DD	2 DUP(00H)
	DD	2 DUP(00H)
	DD	00H
	DD	01H
__unwindtable$?erase@?$vector@UTile@@V?$allocator@UTile@@@std@@@std@@QAE?AV?$_Vector_iterator@V?$_Vector_val@U?$_Simple_types@UTile@@@std@@@std@@@2@V?$_Vector_const_iterator@V?$_Vector_val@U?$_Simple_types@UTile@@@std@@@std@@@2@0@Z DD 0ffffffffH
	DD	FLAT:__unwindfunclet$?erase@?$vector@UTile@@V?$allocator@UTile@@@std@@@std@@QAE?AV?$_Vector_iterator@V?$_Vector_val@U?$_Simple_types@UTile@@@std@@@std@@@2@V?$_Vector_const_iterator@V?$_Vector_val@U?$_Simple_types@UTile@@@std@@@std@@@2@0@Z$0
	DD	00H
	DD	FLAT:__unwindfunclet$?erase@?$vector@UTile@@V?$allocator@UTile@@@std@@@std@@QAE?AV?$_Vector_iterator@V?$_Vector_val@U?$_Simple_types@UTile@@@std@@@std@@@2@V?$_Vector_const_iterator@V?$_Vector_val@U?$_Simple_types@UTile@@@std@@@std@@@2@0@Z$1
	DD	01H
	DD	FLAT:__unwindfunclet$?erase@?$vector@UTile@@V?$allocator@UTile@@@std@@@std@@QAE?AV?$_Vector_iterator@V?$_Vector_val@U?$_Simple_types@UTile@@@std@@@std@@@2@V?$_Vector_const_iterator@V?$_Vector_val@U?$_Simple_types@UTile@@@std@@@std@@@2@0@Z$2
	DD	02H
	DD	FLAT:__unwindfunclet$?erase@?$vector@UTile@@V?$allocator@UTile@@@std@@@std@@QAE?AV?$_Vector_iterator@V?$_Vector_val@U?$_Simple_types@UTile@@@std@@@std@@@2@V?$_Vector_const_iterator@V?$_Vector_val@U?$_Simple_types@UTile@@@std@@@std@@@2@0@Z$3
	DD	01H
	DD	FLAT:__unwindfunclet$?erase@?$vector@UTile@@V?$allocator@UTile@@@std@@@std@@QAE?AV?$_Vector_iterator@V?$_Vector_val@U?$_Simple_types@UTile@@@std@@@std@@@2@V?$_Vector_const_iterator@V?$_Vector_val@U?$_Simple_types@UTile@@@std@@@std@@@2@0@Z$5
	DD	04H
	DD	FLAT:__unwindfunclet$?erase@?$vector@UTile@@V?$allocator@UTile@@@std@@@std@@QAE?AV?$_Vector_iterator@V?$_Vector_val@U?$_Simple_types@UTile@@@std@@@std@@@2@V?$_Vector_const_iterator@V?$_Vector_val@U?$_Simple_types@UTile@@@std@@@std@@@2@0@Z$7
xdata$x	ENDS
;	COMDAT xdata$x
xdata$x	SEGMENT
__unwindtable$?_Make_iter@?$vector@UTile@@V?$allocator@UTile@@@std@@@std@@QBE?AV?$_Vector_iterator@V?$_Vector_val@U?$_Simple_types@UTile@@@std@@@std@@@2@V?$_Vector_const_iterator@V?$_Vector_val@U?$_Simple_types@UTile@@@std@@@std@@@2@@Z DD 0ffffffffH
	DD	FLAT:__unwindfunclet$?_Make_iter@?$vector@UTile@@V?$allocator@UTile@@@std@@@std@@QBE?AV?$_Vector_iterator@V?$_Vector_val@U?$_Simple_types@UTile@@@std@@@std@@@2@V?$_Vector_const_iterator@V?$_Vector_val@U?$_Simple_types@UTile@@@std@@@std@@@2@@Z$0
__ehfuncinfo$?_Make_iter@?$vector@UTile@@V?$allocator@UTile@@@std@@@std@@QBE?AV?$_Vector_iterator@V?$_Vector_val@U?$_Simple_types@UTile@@@std@@@std@@@2@V?$_Vector_const_iterator@V?$_Vector_val@U?$_Simple_types@UTile@@@std@@@std@@@2@@Z DD 019930522H
	DD	01H
	DD	FLAT:__unwindtable$?_Make_iter@?$vector@UTile@@V?$allocator@UTile@@@std@@@std@@QBE?AV?$_Vector_iterator@V?$_Vector_val@U?$_Simple_types@UTile@@@std@@@std@@@2@V?$_Vector_const_iterator@V?$_Vector_val@U?$_Simple_types@UTile@@@std@@@std@@@2@@Z
	DD	2 DUP(00H)
	DD	2 DUP(00H)
	DD	00H
	DD	01H
xdata$x	ENDS
;	COMDAT xdata$x
xdata$x	SEGMENT
__ehfuncinfo$?end@?$vector@UTile@@V?$allocator@UTile@@@std@@@std@@QAE?AV?$_Vector_iterator@V?$_Vector_val@U?$_Simple_types@UTile@@@std@@@std@@@2@XZ DD 019930522H
	DD	00H
	DD	00H
	DD	2 DUP(00H)
	DD	2 DUP(00H)
	DD	00H
	DD	05H
xdata$x	ENDS
;	COMDAT xdata$x
xdata$x	SEGMENT
__ehfuncinfo$?begin@?$vector@UTile@@V?$allocator@UTile@@@std@@@std@@QAE?AV?$_Vector_iterator@V?$_Vector_val@U?$_Simple_types@UTile@@@std@@@std@@@2@XZ DD 019930522H
	DD	00H
	DD	00H
	DD	2 DUP(00H)
	DD	2 DUP(00H)
	DD	00H
	DD	05H
xdata$x	ENDS
;	COMDAT xdata$x
xdata$x	SEGMENT
__ehfuncinfo$??1?$vector@UTile@@V?$allocator@UTile@@@std@@@std@@QAE@XZ DD 019930522H
	DD	00H
	DD	00H
	DD	2 DUP(00H)
	DD	2 DUP(00H)
	DD	00H
	DD	05H
xdata$x	ENDS
;	COMDAT xdata$x
xdata$x	SEGMENT
__ehfuncinfo$??0?$vector@UTile@@V?$allocator@UTile@@@std@@@std@@QAE@XZ DD 019930522H
	DD	00H
	DD	00H
	DD	2 DUP(00H)
	DD	2 DUP(00H)
	DD	00H
	DD	05H
xdata$x	ENDS
;	COMDAT xdata$x
xdata$x	SEGMENT
__ehfuncinfo$??1?$_Vector_alloc@U?$_Vec_base_types@UTile@@V?$allocator@UTile@@@std@@@std@@@std@@QAE@XZ DD 019930522H
	DD	00H
	DD	00H
	DD	2 DUP(00H)
	DD	2 DUP(00H)
	DD	00H
	DD	05H
xdata$x	ENDS
;	COMDAT xdata$x
xdata$x	SEGMENT
__unwindtable$??0?$_Vector_alloc@U?$_Vec_base_types@UTile@@V?$allocator@UTile@@@std@@@std@@@std@@QAE@XZ DD 0ffffffffH
	DD	FLAT:__unwindfunclet$??0?$_Vector_alloc@U?$_Vec_base_types@UTile@@V?$allocator@UTile@@@std@@@std@@@std@@QAE@XZ$0
__ehfuncinfo$??0?$_Vector_alloc@U?$_Vec_base_types@UTile@@V?$allocator@UTile@@@std@@@std@@@std@@QAE@XZ DD 019930522H
	DD	01H
	DD	FLAT:__unwindtable$??0?$_Vector_alloc@U?$_Vec_base_types@UTile@@V?$allocator@UTile@@@std@@@std@@@std@@QAE@XZ
	DD	2 DUP(00H)
	DD	2 DUP(00H)
	DD	00H
	DD	01H
xdata$x	ENDS
;	COMDAT xdata$x
xdata$x	SEGMENT
__unwindtable$?_Adopt@_Iterator_base12@std@@QAEXPBU_Container_base12@2@@Z DD 0ffffffffH
	DD	FLAT:__unwindfunclet$?_Adopt@_Iterator_base12@std@@QAEXPBU_Container_base12@2@@Z$0
	DD	0ffffffffH
	DD	FLAT:__unwindfunclet$?_Adopt@_Iterator_base12@std@@QAEXPBU_Container_base12@2@@Z$1
__ehfuncinfo$?_Adopt@_Iterator_base12@std@@QAEXPBU_Container_base12@2@@Z DD 019930522H
	DD	02H
	DD	FLAT:__unwindtable$?_Adopt@_Iterator_base12@std@@QAEXPBU_Container_base12@2@@Z
	DD	2 DUP(00H)
	DD	2 DUP(00H)
	DD	00H
	DD	01H
xdata$x	ENDS
;	COMDAT xdata$x
xdata$x	SEGMENT
__ehfuncinfo$??1_Iterator_base12@std@@QAE@XZ DD 019930522H
	DD	00H
	DD	00H
	DD	2 DUP(00H)
	DD	2 DUP(00H)
	DD	00H
	DD	05H
xdata$x	ENDS
;	COMDAT xdata$x
xdata$x	SEGMENT
__unwindtable$??4_Iterator_base12@std@@QAEAAU01@ABU01@@Z DD 0ffffffffH
	DD	FLAT:__unwindfunclet$??4_Iterator_base12@std@@QAEAAU01@ABU01@@Z$0
__ehfuncinfo$??4_Iterator_base12@std@@QAEAAU01@ABU01@@Z DD 019930522H
	DD	01H
	DD	FLAT:__unwindtable$??4_Iterator_base12@std@@QAEAAU01@ABU01@@Z
	DD	2 DUP(00H)
	DD	2 DUP(00H)
	DD	00H
	DD	01H
xdata$x	ENDS
;	COMDAT xdata$x
xdata$x	SEGMENT
__ehfuncinfo$??1_Container_base12@std@@QAE@XZ DD 019930522H
	DD	00H
	DD	00H
	DD	2 DUP(00H)
	DD	2 DUP(00H)
	DD	00H
	DD	05H
xdata$x	ENDS
CRT$XCU	SEGMENT
?groundTileList$initializer$@@3P6AXXZA DD FLAT:??__EgroundTileList@@YAXXZ ; groundTileList$initializer$
CRT$XCU	ENDS
; Function compile flags: /Odtp /RTCsu /ZI
; File c:\program files (x86)\microsoft visual studio 14.0\vc\include\xmemory0
;	COMDAT ??$construct@UTile@@U1@@?$allocator@UTile@@@std@@QAEXPAUTile@@$$QAU2@@Z
_TEXT	SEGMENT
tv74 = -220						; size = 4
$T1 = -212						; size = 4
_this$ = -8						; size = 4
__Ptr$ = 8						; size = 4
_<_Args_0>$ = 12					; size = 4
??$construct@UTile@@U1@@?$allocator@UTile@@@std@@QAEXPAUTile@@$$QAU2@@Z PROC ; std::allocator<Tile>::construct<Tile,Tile>, COMDAT
; _this$ = ecx

; 736  : 		{	// construct _Objty(_Types...) at _Ptr

	push	ebp
	mov	ebp, esp
	sub	esp, 220				; 000000dcH
	push	ebx
	push	esi
	push	edi
	push	ecx
	lea	edi, DWORD PTR [ebp-220]
	mov	ecx, 55					; 00000037H
	mov	eax, -858993460				; ccccccccH
	rep stosd
	pop	ecx
	mov	DWORD PTR _this$[ebp], ecx

; 737  : 		::new ((void *)_Ptr) _Objty(_STD forward<_Types>(_Args)...);

	mov	eax, DWORD PTR __Ptr$[ebp]
	push	eax
	push	32					; 00000020H
	call	??2@YAPAXIPAX@Z				; operator new
	add	esp, 8
	mov	DWORD PTR $T1[ebp], eax
	cmp	DWORD PTR $T1[ebp], 0
	je	SHORT $LN3@construct
	mov	ecx, DWORD PTR _<_Args_0>$[ebp]
	push	ecx
	call	??$forward@UTile@@@std@@YA$$QAUTile@@AAU1@@Z ; std::forward<Tile>
	add	esp, 4
	mov	ecx, 8
	mov	esi, eax
	mov	edi, DWORD PTR $T1[ebp]
	rep movsd
	mov	edx, DWORD PTR $T1[ebp]
	mov	DWORD PTR tv74[ebp], edx
	jmp	SHORT $LN1@construct
$LN3@construct:
	mov	DWORD PTR tv74[ebp], 0
$LN1@construct:

; 738  : 		}

	pop	edi
	pop	esi
	pop	ebx
	add	esp, 220				; 000000dcH
	cmp	ebp, esp
	call	__RTC_CheckEsp
	mov	esp, ebp
	pop	ebp
	ret	8
??$construct@UTile@@U1@@?$allocator@UTile@@@std@@QAEXPAUTile@@$$QAU2@@Z ENDP ; std::allocator<Tile>::construct<Tile,Tile>
_TEXT	ENDS
; Function compile flags: /Odtp /RTCsu /ZI
; File c:\program files (x86)\microsoft visual studio 14.0\vc\include\xmemory0
;	COMDAT ??$construct@UPushTile@@ABU1@@?$allocator@UPushTile@@@std@@QAEXPAUPushTile@@ABU2@@Z
_TEXT	SEGMENT
tv74 = -220						; size = 4
$T1 = -212						; size = 4
_this$ = -8						; size = 4
__Ptr$ = 8						; size = 4
_<_Args_0>$ = 12					; size = 4
??$construct@UPushTile@@ABU1@@?$allocator@UPushTile@@@std@@QAEXPAUPushTile@@ABU2@@Z PROC ; std::allocator<PushTile>::construct<PushTile,PushTile const &>, COMDAT
; _this$ = ecx

; 736  : 		{	// construct _Objty(_Types...) at _Ptr

	push	ebp
	mov	ebp, esp
	sub	esp, 220				; 000000dcH
	push	ebx
	push	esi
	push	edi
	push	ecx
	lea	edi, DWORD PTR [ebp-220]
	mov	ecx, 55					; 00000037H
	mov	eax, -858993460				; ccccccccH
	rep stosd
	pop	ecx
	mov	DWORD PTR _this$[ebp], ecx

; 737  : 		::new ((void *)_Ptr) _Objty(_STD forward<_Types>(_Args)...);

	mov	eax, DWORD PTR __Ptr$[ebp]
	push	eax
	push	48					; 00000030H
	call	??2@YAPAXIPAX@Z				; operator new
	add	esp, 8
	mov	DWORD PTR $T1[ebp], eax
	cmp	DWORD PTR $T1[ebp], 0
	je	SHORT $LN3@construct
	mov	ecx, DWORD PTR _<_Args_0>$[ebp]
	push	ecx
	call	??$forward@ABUPushTile@@@std@@YAABUPushTile@@ABU1@@Z ; std::forward<PushTile const &>
	add	esp, 4
	mov	ecx, 12					; 0000000cH
	mov	esi, eax
	mov	edi, DWORD PTR $T1[ebp]
	rep movsd
	mov	edx, DWORD PTR $T1[ebp]
	mov	DWORD PTR tv74[ebp], edx
	jmp	SHORT $LN1@construct
$LN3@construct:
	mov	DWORD PTR tv74[ebp], 0
$LN1@construct:

; 738  : 		}

	pop	edi
	pop	esi
	pop	ebx
	add	esp, 220				; 000000dcH
	cmp	ebp, esp
	call	__RTC_CheckEsp
	mov	esp, ebp
	pop	ebp
	ret	8
??$construct@UPushTile@@ABU1@@?$allocator@UPushTile@@@std@@QAEXPAUPushTile@@ABU2@@Z ENDP ; std::allocator<PushTile>::construct<PushTile,PushTile const &>
_TEXT	ENDS
; Function compile flags: /Odtp /RTCsu /ZI
; File c:\program files (x86)\microsoft visual studio 14.0\vc\include\xmemory0
;	COMDAT ??$construct@UTile@@U1@@?$allocator_traits@V?$allocator@UTile@@@std@@@std@@SAXAAV?$allocator@UTile@@@1@PAUTile@@$$QAU3@@Z
_TEXT	SEGMENT
__Al$ = 8						; size = 4
__Ptr$ = 12						; size = 4
_<_Args_0>$ = 16					; size = 4
??$construct@UTile@@U1@@?$allocator_traits@V?$allocator@UTile@@@std@@@std@@SAXAAV?$allocator@UTile@@@1@PAUTile@@$$QAU3@@Z PROC ; std::allocator_traits<std::allocator<Tile> >::construct<Tile,Tile>, COMDAT

; 856  : 		{	// construct _Objty(_Types...) at _Ptr

	push	ebp
	mov	ebp, esp
	sub	esp, 192				; 000000c0H
	push	ebx
	push	esi
	push	edi
	lea	edi, DWORD PTR [ebp-192]
	mov	ecx, 48					; 00000030H
	mov	eax, -858993460				; ccccccccH
	rep stosd

; 857  : 		_Al.construct(_Ptr, _STD forward<_Types>(_Args)...);

	mov	eax, DWORD PTR _<_Args_0>$[ebp]
	push	eax
	call	??$forward@UTile@@@std@@YA$$QAUTile@@AAU1@@Z ; std::forward<Tile>
	add	esp, 4
	push	eax
	mov	ecx, DWORD PTR __Ptr$[ebp]
	push	ecx
	mov	ecx, DWORD PTR __Al$[ebp]
	call	??$construct@UTile@@U1@@?$allocator@UTile@@@std@@QAEXPAUTile@@$$QAU2@@Z ; std::allocator<Tile>::construct<Tile,Tile>

; 858  : 		}

	pop	edi
	pop	esi
	pop	ebx
	add	esp, 192				; 000000c0H
	cmp	ebp, esp
	call	__RTC_CheckEsp
	mov	esp, ebp
	pop	ebp
	ret	0
??$construct@UTile@@U1@@?$allocator_traits@V?$allocator@UTile@@@std@@@std@@SAXAAV?$allocator@UTile@@@1@PAUTile@@$$QAU3@@Z ENDP ; std::allocator_traits<std::allocator<Tile> >::construct<Tile,Tile>
_TEXT	ENDS
; Function compile flags: /Odtp /RTCsu /ZI
; File c:\program files (x86)\microsoft visual studio 14.0\vc\include\type_traits
;	COMDAT ??$forward@UTile@@@std@@YA$$QAUTile@@AAU1@@Z
_TEXT	SEGMENT
__Arg$ = 8						; size = 4
??$forward@UTile@@@std@@YA$$QAUTile@@AAU1@@Z PROC	; std::forward<Tile>, COMDAT

; 1275 : 	{	// forward an lvalue as either an lvalue or an rvalue

	push	ebp
	mov	ebp, esp
	sub	esp, 192				; 000000c0H
	push	ebx
	push	esi
	push	edi
	lea	edi, DWORD PTR [ebp-192]
	mov	ecx, 48					; 00000030H
	mov	eax, -858993460				; ccccccccH
	rep stosd

; 1276 : 	return (static_cast<_Ty&&>(_Arg));

	mov	eax, DWORD PTR __Arg$[ebp]

; 1277 : 	}

	pop	edi
	pop	esi
	pop	ebx
	mov	esp, ebp
	pop	ebp
	ret	0
??$forward@UTile@@@std@@YA$$QAUTile@@AAU1@@Z ENDP	; std::forward<Tile>
_TEXT	ENDS
; Function compile flags: /Odtp /RTCsu /ZI
; File c:\program files (x86)\microsoft visual studio 14.0\vc\include\xmemory0
;	COMDAT ??$construct@UPushTile@@ABU1@@?$allocator_traits@V?$allocator@UPushTile@@@std@@@std@@SAXAAV?$allocator@UPushTile@@@1@PAUPushTile@@ABU3@@Z
_TEXT	SEGMENT
__Al$ = 8						; size = 4
__Ptr$ = 12						; size = 4
_<_Args_0>$ = 16					; size = 4
??$construct@UPushTile@@ABU1@@?$allocator_traits@V?$allocator@UPushTile@@@std@@@std@@SAXAAV?$allocator@UPushTile@@@1@PAUPushTile@@ABU3@@Z PROC ; std::allocator_traits<std::allocator<PushTile> >::construct<PushTile,PushTile const &>, COMDAT

; 856  : 		{	// construct _Objty(_Types...) at _Ptr

	push	ebp
	mov	ebp, esp
	sub	esp, 192				; 000000c0H
	push	ebx
	push	esi
	push	edi
	lea	edi, DWORD PTR [ebp-192]
	mov	ecx, 48					; 00000030H
	mov	eax, -858993460				; ccccccccH
	rep stosd

; 857  : 		_Al.construct(_Ptr, _STD forward<_Types>(_Args)...);

	mov	eax, DWORD PTR _<_Args_0>$[ebp]
	push	eax
	call	??$forward@ABUPushTile@@@std@@YAABUPushTile@@ABU1@@Z ; std::forward<PushTile const &>
	add	esp, 4
	push	eax
	mov	ecx, DWORD PTR __Ptr$[ebp]
	push	ecx
	mov	ecx, DWORD PTR __Al$[ebp]
	call	??$construct@UPushTile@@ABU1@@?$allocator@UPushTile@@@std@@QAEXPAUPushTile@@ABU2@@Z ; std::allocator<PushTile>::construct<PushTile,PushTile const &>

; 858  : 		}

	pop	edi
	pop	esi
	pop	ebx
	add	esp, 192				; 000000c0H
	cmp	ebp, esp
	call	__RTC_CheckEsp
	mov	esp, ebp
	pop	ebp
	ret	0
??$construct@UPushTile@@ABU1@@?$allocator_traits@V?$allocator@UPushTile@@@std@@@std@@SAXAAV?$allocator@UPushTile@@@1@PAUPushTile@@ABU3@@Z ENDP ; std::allocator_traits<std::allocator<PushTile> >::construct<PushTile,PushTile const &>
_TEXT	ENDS
; Function compile flags: /Odtp /RTCsu /ZI
; File c:\program files (x86)\microsoft visual studio 14.0\vc\include\type_traits
;	COMDAT ??$forward@ABUPushTile@@@std@@YAABUPushTile@@ABU1@@Z
_TEXT	SEGMENT
__Arg$ = 8						; size = 4
??$forward@ABUPushTile@@@std@@YAABUPushTile@@ABU1@@Z PROC ; std::forward<PushTile const &>, COMDAT

; 1275 : 	{	// forward an lvalue as either an lvalue or an rvalue

	push	ebp
	mov	ebp, esp
	sub	esp, 192				; 000000c0H
	push	ebx
	push	esi
	push	edi
	lea	edi, DWORD PTR [ebp-192]
	mov	ecx, 48					; 00000030H
	mov	eax, -858993460				; ccccccccH
	rep stosd

; 1276 : 	return (static_cast<_Ty&&>(_Arg));

	mov	eax, DWORD PTR __Arg$[ebp]

; 1277 : 	}

	pop	edi
	pop	esi
	pop	ebx
	mov	esp, ebp
	pop	ebp
	ret	0
??$forward@ABUPushTile@@@std@@YAABUPushTile@@ABU1@@Z ENDP ; std::forward<PushTile const &>
_TEXT	ENDS
; Function compile flags: /Odtp /RTCsu /ZI
; File c:\program files (x86)\microsoft visual studio 14.0\vc\include\xmemory0
;	COMDAT ??$construct@UTile@@U1@@?$_Wrap_alloc@V?$allocator@UTile@@@std@@@std@@QAEXPAUTile@@$$QAU2@@Z
_TEXT	SEGMENT
_this$ = -8						; size = 4
__Ptr$ = 8						; size = 4
_<_Args_0>$ = 12					; size = 4
??$construct@UTile@@U1@@?$_Wrap_alloc@V?$allocator@UTile@@@std@@@std@@QAEXPAUTile@@$$QAU2@@Z PROC ; std::_Wrap_alloc<std::allocator<Tile> >::construct<Tile,Tile>, COMDAT
; _this$ = ecx

; 994  : 		{	// construct _Ty(_Types...) at _Ptr

	push	ebp
	mov	ebp, esp
	sub	esp, 204				; 000000ccH
	push	ebx
	push	esi
	push	edi
	push	ecx
	lea	edi, DWORD PTR [ebp-204]
	mov	ecx, 51					; 00000033H
	mov	eax, -858993460				; ccccccccH
	rep stosd
	pop	ecx
	mov	DWORD PTR _this$[ebp], ecx

; 995  : 		_Mytraits::construct(*this, _Ptr,

	mov	eax, DWORD PTR _<_Args_0>$[ebp]
	push	eax
	call	??$forward@UTile@@@std@@YA$$QAUTile@@AAU1@@Z ; std::forward<Tile>
	add	esp, 4
	push	eax
	mov	ecx, DWORD PTR __Ptr$[ebp]
	push	ecx
	mov	edx, DWORD PTR _this$[ebp]
	push	edx
	call	??$construct@UTile@@U1@@?$allocator_traits@V?$allocator@UTile@@@std@@@std@@SAXAAV?$allocator@UTile@@@1@PAUTile@@$$QAU3@@Z ; std::allocator_traits<std::allocator<Tile> >::construct<Tile,Tile>
	add	esp, 12					; 0000000cH

; 996  : 			_STD forward<_Types>(_Args)...);
; 997  : 		}

	pop	edi
	pop	esi
	pop	ebx
	add	esp, 204				; 000000ccH
	cmp	ebp, esp
	call	__RTC_CheckEsp
	mov	esp, ebp
	pop	ebp
	ret	8
??$construct@UTile@@U1@@?$_Wrap_alloc@V?$allocator@UTile@@@std@@@std@@QAEXPAUTile@@$$QAU2@@Z ENDP ; std::_Wrap_alloc<std::allocator<Tile> >::construct<Tile,Tile>
_TEXT	ENDS
; Function compile flags: /Odtp /RTCsu /ZI
; File c:\program files (x86)\microsoft visual studio 14.0\vc\include\xmemory0
;	COMDAT ??$construct@UPushTile@@ABU1@@?$_Wrap_alloc@V?$allocator@UPushTile@@@std@@@std@@QAEXPAUPushTile@@ABU2@@Z
_TEXT	SEGMENT
_this$ = -8						; size = 4
__Ptr$ = 8						; size = 4
_<_Args_0>$ = 12					; size = 4
??$construct@UPushTile@@ABU1@@?$_Wrap_alloc@V?$allocator@UPushTile@@@std@@@std@@QAEXPAUPushTile@@ABU2@@Z PROC ; std::_Wrap_alloc<std::allocator<PushTile> >::construct<PushTile,PushTile const &>, COMDAT
; _this$ = ecx

; 994  : 		{	// construct _Ty(_Types...) at _Ptr

	push	ebp
	mov	ebp, esp
	sub	esp, 204				; 000000ccH
	push	ebx
	push	esi
	push	edi
	push	ecx
	lea	edi, DWORD PTR [ebp-204]
	mov	ecx, 51					; 00000033H
	mov	eax, -858993460				; ccccccccH
	rep stosd
	pop	ecx
	mov	DWORD PTR _this$[ebp], ecx

; 995  : 		_Mytraits::construct(*this, _Ptr,

	mov	eax, DWORD PTR _<_Args_0>$[ebp]
	push	eax
	call	??$forward@ABUPushTile@@@std@@YAABUPushTile@@ABU1@@Z ; std::forward<PushTile const &>
	add	esp, 4
	push	eax
	mov	ecx, DWORD PTR __Ptr$[ebp]
	push	ecx
	mov	edx, DWORD PTR _this$[ebp]
	push	edx
	call	??$construct@UPushTile@@ABU1@@?$allocator_traits@V?$allocator@UPushTile@@@std@@@std@@SAXAAV?$allocator@UPushTile@@@1@PAUPushTile@@ABU3@@Z ; std::allocator_traits<std::allocator<PushTile> >::construct<PushTile,PushTile const &>
	add	esp, 12					; 0000000cH

; 996  : 			_STD forward<_Types>(_Args)...);
; 997  : 		}

	pop	edi
	pop	esi
	pop	ebx
	add	esp, 204				; 000000ccH
	cmp	ebp, esp
	call	__RTC_CheckEsp
	mov	esp, ebp
	pop	ebp
	ret	8
??$construct@UPushTile@@ABU1@@?$_Wrap_alloc@V?$allocator@UPushTile@@@std@@@std@@QAEXPAUPushTile@@ABU2@@Z ENDP ; std::_Wrap_alloc<std::allocator<PushTile> >::construct<PushTile,PushTile const &>
_TEXT	ENDS
; Function compile flags: /Odtp /RTCsu /ZI
; File c:\program files (x86)\microsoft visual studio 14.0\vc\include\xmemory
;	COMDAT ??$_Uninitialized_move_al_unchecked1@PAUTile@@PAU1@V?$allocator@UTile@@@std@@@std@@YAPAUTile@@PAU1@00AAU?$_Wrap_alloc@V?$allocator@UTile@@@std@@@0@U_General_ptr_iterator_tag@0@U_Any_tag@0@@Z
_TEXT	SEGMENT
tv80 = -224						; size = 4
__Next$ = -24						; size = 4
__$EHRec$ = -16						; size = 16
__First$ = 8						; size = 4
__Last$ = 12						; size = 4
__Dest$ = 16						; size = 4
__Al$ = 20						; size = 4
___formal$ = 24						; size = 1
___formal$ = 28						; size = 1
??$_Uninitialized_move_al_unchecked1@PAUTile@@PAU1@V?$allocator@UTile@@@std@@@std@@YAPAUTile@@PAU1@00AAU?$_Wrap_alloc@V?$allocator@UTile@@@std@@@0@U_General_ptr_iterator_tag@0@U_Any_tag@0@@Z PROC ; std::_Uninitialized_move_al_unchecked1<Tile *,Tile *,std::allocator<Tile> >, COMDAT

; 273  : 	{	// move [_First, _Last) to raw _Dest, using _Al, no special optimization

	push	ebp
	mov	ebp, esp
	push	-1
	push	__ehhandler$??$_Uninitialized_move_al_unchecked1@PAUTile@@PAU1@V?$allocator@UTile@@@std@@@std@@YAPAUTile@@PAU1@00AAU?$_Wrap_alloc@V?$allocator@UTile@@@std@@@0@U_General_ptr_iterator_tag@0@U_Any_tag@0@@Z
	mov	eax, DWORD PTR fs:0
	push	eax
	push	ecx
	sub	esp, 208				; 000000d0H
	push	ebx
	push	esi
	push	edi
	lea	edi, DWORD PTR [ebp-224]
	mov	ecx, 52					; 00000034H
	mov	eax, -858993460				; ccccccccH
	rep stosd
	mov	eax, DWORD PTR ___security_cookie
	xor	eax, ebp
	push	eax
	lea	eax, DWORD PTR __$EHRec$[ebp+4]
	mov	DWORD PTR fs:0, eax
	mov	DWORD PTR __$EHRec$[ebp], esp

; 274  : 	_FwdIt _Next = _Dest;

	mov	eax, DWORD PTR __Dest$[ebp]
	mov	DWORD PTR __Next$[ebp], eax

; 275  : 
; 276  : 	_TRY_BEGIN

	mov	DWORD PTR __$EHRec$[ebp+12], 0

; 277  : 	for (; _First != _Last; ++_Dest, (void)++_First)

	jmp	SHORT $LN4@Uninitiali
$LN2@Uninitiali:
	mov	eax, DWORD PTR __Dest$[ebp]
	add	eax, 32					; 00000020H
	mov	DWORD PTR __Dest$[ebp], eax
	mov	ecx, DWORD PTR __First$[ebp]
	add	ecx, 32					; 00000020H
	mov	DWORD PTR __First$[ebp], ecx
$LN4@Uninitiali:
	mov	eax, DWORD PTR __First$[ebp]
	cmp	eax, DWORD PTR __Last$[ebp]
	je	SHORT $LN3@Uninitiali

; 278  : 		_Al.construct(_Unfancy(_Dest), _STD move(*_First));

	mov	eax, DWORD PTR __Dest$[ebp]
	push	eax
	call	??$_Unfancy@UTile@@@std@@YAPAUTile@@PAU1@@Z ; std::_Unfancy<Tile>
	add	esp, 4
	mov	DWORD PTR tv80[ebp], eax
	mov	ecx, DWORD PTR __First$[ebp]
	push	ecx
	call	??$move@AAUTile@@@std@@YA$$QAUTile@@AAU1@@Z ; std::move<Tile &>
	add	esp, 4
	push	eax
	mov	edx, DWORD PTR tv80[ebp]
	push	edx
	mov	ecx, DWORD PTR __Al$[ebp]
	call	??$construct@UTile@@U1@@?$_Wrap_alloc@V?$allocator@UTile@@@std@@@std@@QAEXPAUTile@@$$QAU2@@Z ; std::_Wrap_alloc<std::allocator<Tile> >::construct<Tile,Tile>
	jmp	SHORT $LN2@Uninitiali
$LN3@Uninitiali:
	jmp	SHORT $LN7@Uninitiali
__catch$??$_Uninitialized_move_al_unchecked1@PAUTile@@PAU1@V?$allocator@UTile@@@std@@@std@@YAPAUTile@@PAU1@00AAU?$_Wrap_alloc@V?$allocator@UTile@@@std@@@0@U_General_ptr_iterator_tag@0@U_Any_tag@0@@Z$0:

; 279  : 	_CATCH_ALL
; 280  : 	_Destroy_range(_Next, _Dest, _Al);

	mov	eax, DWORD PTR __Al$[ebp]
	push	eax
	mov	ecx, DWORD PTR __Dest$[ebp]
	push	ecx
	mov	edx, DWORD PTR __Next$[ebp]
	push	edx
	call	??$_Destroy_range@V?$allocator@UTile@@@std@@PAUTile@@@std@@YAXPAUTile@@0AAU?$_Wrap_alloc@V?$allocator@UTile@@@std@@@0@@Z ; std::_Destroy_range<std::allocator<Tile>,Tile *>
	add	esp, 12					; 0000000cH

; 281  : 	_RERAISE;

	push	0
	push	0
	call	__CxxThrowException@8

; 282  : 	_CATCH_END

	mov	eax, $LN10@Uninitiali
	ret	0
$LN7@Uninitiali:
	mov	DWORD PTR __$EHRec$[ebp+12], -1
	jmp	SHORT __tryend$??$_Uninitialized_move_al_unchecked1@PAUTile@@PAU1@V?$allocator@UTile@@@std@@@std@@YAPAUTile@@PAU1@00AAU?$_Wrap_alloc@V?$allocator@UTile@@@std@@@0@U_General_ptr_iterator_tag@0@U_Any_tag@0@@Z$1
$LN10@Uninitiali:
	mov	DWORD PTR __$EHRec$[ebp+12], -1
__tryend$??$_Uninitialized_move_al_unchecked1@PAUTile@@PAU1@V?$allocator@UTile@@@std@@@std@@YAPAUTile@@PAU1@00AAU?$_Wrap_alloc@V?$allocator@UTile@@@std@@@0@U_General_ptr_iterator_tag@0@U_Any_tag@0@@Z$1:

; 283  : 
; 284  : 	return (_Dest);

	mov	eax, DWORD PTR __Dest$[ebp]
$LN6@Uninitiali:

; 285  : 	}

	mov	ecx, DWORD PTR __$EHRec$[ebp+4]
	mov	DWORD PTR fs:0, ecx
	pop	ecx
	pop	edi
	pop	esi
	pop	ebx
	add	esp, 224				; 000000e0H
	cmp	ebp, esp
	call	__RTC_CheckEsp
	mov	esp, ebp
	pop	ebp
	ret	0
_TEXT	ENDS
;	COMDAT text$x
text$x	SEGMENT
__ehhandler$??$_Uninitialized_move_al_unchecked1@PAUTile@@PAU1@V?$allocator@UTile@@@std@@@std@@YAPAUTile@@PAU1@00AAU?$_Wrap_alloc@V?$allocator@UTile@@@std@@@0@U_General_ptr_iterator_tag@0@U_Any_tag@0@@Z:
	mov	edx, DWORD PTR [esp+8]
	lea	eax, DWORD PTR [edx+12]
	mov	ecx, DWORD PTR [edx-228]
	xor	ecx, eax
	call	@__security_check_cookie@4
	mov	eax, OFFSET __ehfuncinfo$??$_Uninitialized_move_al_unchecked1@PAUTile@@PAU1@V?$allocator@UTile@@@std@@@std@@YAPAUTile@@PAU1@00AAU?$_Wrap_alloc@V?$allocator@UTile@@@std@@@0@U_General_ptr_iterator_tag@0@U_Any_tag@0@@Z
	jmp	___CxxFrameHandler3
text$x	ENDS
??$_Uninitialized_move_al_unchecked1@PAUTile@@PAU1@V?$allocator@UTile@@@std@@@std@@YAPAUTile@@PAU1@00AAU?$_Wrap_alloc@V?$allocator@UTile@@@std@@@0@U_General_ptr_iterator_tag@0@U_Any_tag@0@@Z ENDP ; std::_Uninitialized_move_al_unchecked1<Tile *,Tile *,std::allocator<Tile> >
; Function compile flags: /Odtp /RTCsu /ZI
; File c:\program files (x86)\microsoft visual studio 14.0\vc\include\xutility
;	COMDAT ??$?0U?$integral_constant@_N$00@std@@@_Any_tag@std@@QAE@$$QAU?$integral_constant@_N$00@1@@Z
_TEXT	SEGMENT
_this$ = -8						; size = 4
___formal$ = 8						; size = 4
??$?0U?$integral_constant@_N$00@std@@@_Any_tag@std@@QAE@$$QAU?$integral_constant@_N$00@1@@Z PROC ; std::_Any_tag::_Any_tag<std::integral_constant<bool,1> >, COMDAT
; _this$ = ecx

; 554  : 		constexpr _Any_tag(_Ty&&) _NOEXCEPT {}

	push	ebp
	mov	ebp, esp
	sub	esp, 204				; 000000ccH
	push	ebx
	push	esi
	push	edi
	push	ecx
	lea	edi, DWORD PTR [ebp-204]
	mov	ecx, 51					; 00000033H
	mov	eax, -858993460				; ccccccccH
	rep stosd
	pop	ecx
	mov	DWORD PTR _this$[ebp], ecx
	mov	eax, DWORD PTR _this$[ebp]
	pop	edi
	pop	esi
	pop	ebx
	mov	esp, ebp
	pop	ebp
	ret	4
??$?0U?$integral_constant@_N$00@std@@@_Any_tag@std@@QAE@$$QAU?$integral_constant@_N$00@1@@Z ENDP ; std::_Any_tag::_Any_tag<std::integral_constant<bool,1> >
_TEXT	ENDS
; Function compile flags: /Odtp /RTCsu /ZI
; File c:\program files (x86)\microsoft visual studio 14.0\vc\include\xmemory
;	COMDAT ??$_Uninitialized_copy_al_unchecked1@PBUPushTile@@PAU1@V?$allocator@UPushTile@@@std@@@std@@YAPAUPushTile@@PBU1@0PAU1@AAU?$_Wrap_alloc@V?$allocator@UPushTile@@@std@@@0@U_General_ptr_iterator_tag@0@U_Any_tag@0@@Z
_TEXT	SEGMENT
tv78 = -224						; size = 4
__Next$ = -24						; size = 4
__$EHRec$ = -16						; size = 16
__First$ = 8						; size = 4
__Last$ = 12						; size = 4
__Dest$ = 16						; size = 4
__Al$ = 20						; size = 4
___formal$ = 24						; size = 1
___formal$ = 28						; size = 1
??$_Uninitialized_copy_al_unchecked1@PBUPushTile@@PAU1@V?$allocator@UPushTile@@@std@@@std@@YAPAUPushTile@@PBU1@0PAU1@AAU?$_Wrap_alloc@V?$allocator@UPushTile@@@std@@@0@U_General_ptr_iterator_tag@0@U_Any_tag@0@@Z PROC ; std::_Uninitialized_copy_al_unchecked1<PushTile const *,PushTile *,std::allocator<PushTile> >, COMDAT

; 220  : 	{	// copy [_First, _Last) to raw _Dest, using _Al, no special optimization

	push	ebp
	mov	ebp, esp
	push	-1
	push	__ehhandler$??$_Uninitialized_copy_al_unchecked1@PBUPushTile@@PAU1@V?$allocator@UPushTile@@@std@@@std@@YAPAUPushTile@@PBU1@0PAU1@AAU?$_Wrap_alloc@V?$allocator@UPushTile@@@std@@@0@U_General_ptr_iterator_tag@0@U_Any_tag@0@@Z
	mov	eax, DWORD PTR fs:0
	push	eax
	push	ecx
	sub	esp, 208				; 000000d0H
	push	ebx
	push	esi
	push	edi
	lea	edi, DWORD PTR [ebp-224]
	mov	ecx, 52					; 00000034H
	mov	eax, -858993460				; ccccccccH
	rep stosd
	mov	eax, DWORD PTR ___security_cookie
	xor	eax, ebp
	push	eax
	lea	eax, DWORD PTR __$EHRec$[ebp+4]
	mov	DWORD PTR fs:0, eax
	mov	DWORD PTR __$EHRec$[ebp], esp

; 221  : 	_FwdIt _Next = _Dest;

	mov	eax, DWORD PTR __Dest$[ebp]
	mov	DWORD PTR __Next$[ebp], eax

; 222  : 
; 223  : 	_TRY_BEGIN

	mov	DWORD PTR __$EHRec$[ebp+12], 0

; 224  : 	for (; _First != _Last; ++_Dest, (void)++_First)

	jmp	SHORT $LN4@Uninitiali
$LN2@Uninitiali:
	mov	eax, DWORD PTR __Dest$[ebp]
	add	eax, 48					; 00000030H
	mov	DWORD PTR __Dest$[ebp], eax
	mov	ecx, DWORD PTR __First$[ebp]
	add	ecx, 48					; 00000030H
	mov	DWORD PTR __First$[ebp], ecx
$LN4@Uninitiali:
	mov	eax, DWORD PTR __First$[ebp]
	cmp	eax, DWORD PTR __Last$[ebp]
	je	SHORT $LN3@Uninitiali

; 225  : 		_Al.construct(_Unfancy(_Dest), *_First);

	mov	eax, DWORD PTR __Dest$[ebp]
	push	eax
	call	??$_Unfancy@UPushTile@@@std@@YAPAUPushTile@@PAU1@@Z ; std::_Unfancy<PushTile>
	add	esp, 4
	mov	DWORD PTR tv78[ebp], eax
	mov	ecx, DWORD PTR __First$[ebp]
	push	ecx
	mov	edx, DWORD PTR tv78[ebp]
	push	edx
	mov	ecx, DWORD PTR __Al$[ebp]
	call	??$construct@UPushTile@@ABU1@@?$_Wrap_alloc@V?$allocator@UPushTile@@@std@@@std@@QAEXPAUPushTile@@ABU2@@Z ; std::_Wrap_alloc<std::allocator<PushTile> >::construct<PushTile,PushTile const &>
	jmp	SHORT $LN2@Uninitiali
$LN3@Uninitiali:
	jmp	SHORT $LN7@Uninitiali
__catch$??$_Uninitialized_copy_al_unchecked1@PBUPushTile@@PAU1@V?$allocator@UPushTile@@@std@@@std@@YAPAUPushTile@@PBU1@0PAU1@AAU?$_Wrap_alloc@V?$allocator@UPushTile@@@std@@@0@U_General_ptr_iterator_tag@0@U_Any_tag@0@@Z$0:

; 226  : 	_CATCH_ALL
; 227  : 	_Destroy_range(_Next, _Dest, _Al);

	mov	eax, DWORD PTR __Al$[ebp]
	push	eax
	mov	ecx, DWORD PTR __Dest$[ebp]
	push	ecx
	mov	edx, DWORD PTR __Next$[ebp]
	push	edx
	call	??$_Destroy_range@V?$allocator@UPushTile@@@std@@PAUPushTile@@@std@@YAXPAUPushTile@@0AAU?$_Wrap_alloc@V?$allocator@UPushTile@@@std@@@0@@Z ; std::_Destroy_range<std::allocator<PushTile>,PushTile *>
	add	esp, 12					; 0000000cH

; 228  : 	_RERAISE;

	push	0
	push	0
	call	__CxxThrowException@8

; 229  : 	_CATCH_END

	mov	eax, $LN10@Uninitiali
	ret	0
$LN7@Uninitiali:
	mov	DWORD PTR __$EHRec$[ebp+12], -1
	jmp	SHORT __tryend$??$_Uninitialized_copy_al_unchecked1@PBUPushTile@@PAU1@V?$allocator@UPushTile@@@std@@@std@@YAPAUPushTile@@PBU1@0PAU1@AAU?$_Wrap_alloc@V?$allocator@UPushTile@@@std@@@0@U_General_ptr_iterator_tag@0@U_Any_tag@0@@Z$1
$LN10@Uninitiali:
	mov	DWORD PTR __$EHRec$[ebp+12], -1
__tryend$??$_Uninitialized_copy_al_unchecked1@PBUPushTile@@PAU1@V?$allocator@UPushTile@@@std@@@std@@YAPAUPushTile@@PBU1@0PAU1@AAU?$_Wrap_alloc@V?$allocator@UPushTile@@@std@@@0@U_General_ptr_iterator_tag@0@U_Any_tag@0@@Z$1:

; 230  : 
; 231  : 	return (_Dest);

	mov	eax, DWORD PTR __Dest$[ebp]
$LN6@Uninitiali:

; 232  : 	}

	mov	ecx, DWORD PTR __$EHRec$[ebp+4]
	mov	DWORD PTR fs:0, ecx
	pop	ecx
	pop	edi
	pop	esi
	pop	ebx
	add	esp, 224				; 000000e0H
	cmp	ebp, esp
	call	__RTC_CheckEsp
	mov	esp, ebp
	pop	ebp
	ret	0
_TEXT	ENDS
;	COMDAT text$x
text$x	SEGMENT
__ehhandler$??$_Uninitialized_copy_al_unchecked1@PBUPushTile@@PAU1@V?$allocator@UPushTile@@@std@@@std@@YAPAUPushTile@@PBU1@0PAU1@AAU?$_Wrap_alloc@V?$allocator@UPushTile@@@std@@@0@U_General_ptr_iterator_tag@0@U_Any_tag@0@@Z:
	mov	edx, DWORD PTR [esp+8]
	lea	eax, DWORD PTR [edx+12]
	mov	ecx, DWORD PTR [edx-228]
	xor	ecx, eax
	call	@__security_check_cookie@4
	mov	eax, OFFSET __ehfuncinfo$??$_Uninitialized_copy_al_unchecked1@PBUPushTile@@PAU1@V?$allocator@UPushTile@@@std@@@std@@YAPAUPushTile@@PBU1@0PAU1@AAU?$_Wrap_alloc@V?$allocator@UPushTile@@@std@@@0@U_General_ptr_iterator_tag@0@U_Any_tag@0@@Z
	jmp	___CxxFrameHandler3
text$x	ENDS
??$_Uninitialized_copy_al_unchecked1@PBUPushTile@@PAU1@V?$allocator@UPushTile@@@std@@@std@@YAPAUPushTile@@PBU1@0PAU1@AAU?$_Wrap_alloc@V?$allocator@UPushTile@@@std@@@0@U_General_ptr_iterator_tag@0@U_Any_tag@0@@Z ENDP ; std::_Uninitialized_copy_al_unchecked1<PushTile const *,PushTile *,std::allocator<PushTile> >
; Function compile flags: /Odtp /RTCsu /ZI
; File c:\program files (x86)\microsoft visual studio 14.0\vc\include\xstddef
;	COMDAT ??$_Unfancy@UPushTile@@@std@@YAPAUPushTile@@PAU1@@Z
_TEXT	SEGMENT
__Ptr$ = 8						; size = 4
??$_Unfancy@UPushTile@@@std@@YAPAUPushTile@@PAU1@@Z PROC ; std::_Unfancy<PushTile>, COMDAT

; 739  : 	{	// do nothing for plain pointers

	push	ebp
	mov	ebp, esp
	sub	esp, 192				; 000000c0H
	push	ebx
	push	esi
	push	edi
	lea	edi, DWORD PTR [ebp-192]
	mov	ecx, 48					; 00000030H
	mov	eax, -858993460				; ccccccccH
	rep stosd

; 740  : 	return (_Ptr);

	mov	eax, DWORD PTR __Ptr$[ebp]

; 741  : 	}

	pop	edi
	pop	esi
	pop	ebx
	mov	esp, ebp
	pop	ebp
	ret	0
??$_Unfancy@UPushTile@@@std@@YAPAUPushTile@@PAU1@@Z ENDP ; std::_Unfancy<PushTile>
_TEXT	ENDS
; Function compile flags: /Odtp /RTCsu /ZI
; File c:\program files (x86)\microsoft visual studio 14.0\vc\include\xutility
;	COMDAT ??$_Ptr_copy_cat@$$CBUPushTile@@U1@@std@@YA?AU_Trivially_copyable_ptr_iterator_tag@0@ABQBUPushTile@@ABQAU2@@Z
_TEXT	SEGMENT
___$ReturnUdt$ = 8					; size = 4
___formal$ = 12						; size = 4
___formal$ = 16						; size = 4
??$_Ptr_copy_cat@$$CBUPushTile@@U1@@std@@YA?AU_Trivially_copyable_ptr_iterator_tag@0@ABQBUPushTile@@ABQAU2@@Z PROC ; std::_Ptr_copy_cat<PushTile const ,PushTile>, COMDAT

; 792  : 	{	// return pointer copy optimization category for pointers

	push	ebp
	mov	ebp, esp
	sub	esp, 192				; 000000c0H
	push	ebx
	push	esi
	push	edi
	lea	edi, DWORD PTR [ebp-192]
	mov	ecx, 48					; 00000030H
	mov	eax, -858993460				; ccccccccH
	rep stosd

; 793  : 	return {};

	mov	eax, DWORD PTR ___$ReturnUdt$[ebp]

; 794  : 	}

	pop	edi
	pop	esi
	pop	ebx
	mov	esp, ebp
	pop	ebp
	ret	0
??$_Ptr_copy_cat@$$CBUPushTile@@U1@@std@@YA?AU_Trivially_copyable_ptr_iterator_tag@0@ABQBUPushTile@@ABQAU2@@Z ENDP ; std::_Ptr_copy_cat<PushTile const ,PushTile>
_TEXT	ENDS
; Function compile flags: /Odtp /RTCsu /ZI
; File c:\program files (x86)\microsoft visual studio 14.0\vc\include\xutility
;	COMDAT ??$_Debug_pointer@V?$_Vector_iterator@V?$_Vector_val@U?$_Simple_types@UTile@@@std@@@std@@@std@@@std@@YAXAAV?$_Vector_iterator@V?$_Vector_val@U?$_Simple_types@UTile@@@std@@@std@@@0@PB_WI@Z
_TEXT	SEGMENT
___formal$ = 8						; size = 4
___formal$ = 12						; size = 4
___formal$ = 16						; size = 4
??$_Debug_pointer@V?$_Vector_iterator@V?$_Vector_val@U?$_Simple_types@UTile@@@std@@@std@@@std@@@std@@YAXAAV?$_Vector_iterator@V?$_Vector_val@U?$_Simple_types@UTile@@@std@@@std@@@0@PB_WI@Z PROC ; std::_Debug_pointer<std::_Vector_iterator<std::_Vector_val<std::_Simple_types<Tile> > > >, COMDAT

; 918  : 	{	// (don't) test non-pointer for non-singularity, arbitrary type

	push	ebp
	mov	ebp, esp
	sub	esp, 192				; 000000c0H
	push	ebx
	push	esi
	push	edi
	lea	edi, DWORD PTR [ebp-192]
	mov	ecx, 48					; 00000030H
	mov	eax, -858993460				; ccccccccH
	rep stosd

; 919  : 	}

	pop	edi
	pop	esi
	pop	ebx
	mov	esp, ebp
	pop	ebp
	ret	0
??$_Debug_pointer@V?$_Vector_iterator@V?$_Vector_val@U?$_Simple_types@UTile@@@std@@@std@@@std@@@std@@YAXAAV?$_Vector_iterator@V?$_Vector_val@U?$_Simple_types@UTile@@@std@@@std@@@0@PB_WI@Z ENDP ; std::_Debug_pointer<std::_Vector_iterator<std::_Vector_val<std::_Simple_types<Tile> > > >
_TEXT	ENDS
; Function compile flags: /Odtp /RTCsu /ZI
; File c:\program files (x86)\microsoft visual studio 14.0\vc\include\xutility
;	COMDAT ??$_Debug_pointer@V?$_Vector_iterator@V?$_Vector_val@U?$_Simple_types@H@std@@@std@@@std@@@std@@YAXAAV?$_Vector_iterator@V?$_Vector_val@U?$_Simple_types@H@std@@@std@@@0@PB_WI@Z
_TEXT	SEGMENT
___formal$ = 8						; size = 4
___formal$ = 12						; size = 4
___formal$ = 16						; size = 4
??$_Debug_pointer@V?$_Vector_iterator@V?$_Vector_val@U?$_Simple_types@H@std@@@std@@@std@@@std@@YAXAAV?$_Vector_iterator@V?$_Vector_val@U?$_Simple_types@H@std@@@std@@@0@PB_WI@Z PROC ; std::_Debug_pointer<std::_Vector_iterator<std::_Vector_val<std::_Simple_types<int> > > >, COMDAT

; 918  : 	{	// (don't) test non-pointer for non-singularity, arbitrary type

	push	ebp
	mov	ebp, esp
	sub	esp, 192				; 000000c0H
	push	ebx
	push	esi
	push	edi
	lea	edi, DWORD PTR [ebp-192]
	mov	ecx, 48					; 00000030H
	mov	eax, -858993460				; ccccccccH
	rep stosd

; 919  : 	}

	pop	edi
	pop	esi
	pop	ebx
	mov	esp, ebp
	pop	ebp
	ret	0
??$_Debug_pointer@V?$_Vector_iterator@V?$_Vector_val@U?$_Simple_types@H@std@@@std@@@std@@@std@@YAXAAV?$_Vector_iterator@V?$_Vector_val@U?$_Simple_types@H@std@@@std@@@0@PB_WI@Z ENDP ; std::_Debug_pointer<std::_Vector_iterator<std::_Vector_val<std::_Simple_types<int> > > >
_TEXT	ENDS
; Function compile flags: /Odtp /RTCsu /ZI
; File c:\program files (x86)\microsoft visual studio 14.0\vc\include\type_traits
;	COMDAT ??$move@AAU?$_Wrap_alloc@V?$allocator@UPushTile@@@std@@@std@@@std@@YA$$QAU?$_Wrap_alloc@V?$allocator@UPushTile@@@std@@@0@AAU10@@Z
_TEXT	SEGMENT
__Arg$ = 8						; size = 4
??$move@AAU?$_Wrap_alloc@V?$allocator@UPushTile@@@std@@@std@@@std@@YA$$QAU?$_Wrap_alloc@V?$allocator@UPushTile@@@std@@@0@AAU10@@Z PROC ; std::move<std::_Wrap_alloc<std::allocator<PushTile> > &>, COMDAT

; 1291 : 	{	// forward _Arg as movable

	push	ebp
	mov	ebp, esp
	sub	esp, 192				; 000000c0H
	push	ebx
	push	esi
	push	edi
	lea	edi, DWORD PTR [ebp-192]
	mov	ecx, 48					; 00000030H
	mov	eax, -858993460				; ccccccccH
	rep stosd

; 1292 : 	return (static_cast<typename remove_reference<_Ty>::type&&>(_Arg));

	mov	eax, DWORD PTR __Arg$[ebp]

; 1293 : 	}

	pop	edi
	pop	esi
	pop	ebx
	mov	esp, ebp
	pop	ebp
	ret	0
??$move@AAU?$_Wrap_alloc@V?$allocator@UPushTile@@@std@@@std@@@std@@YA$$QAU?$_Wrap_alloc@V?$allocator@UPushTile@@@std@@@0@AAU10@@Z ENDP ; std::move<std::_Wrap_alloc<std::allocator<PushTile> > &>
_TEXT	ENDS
; Function compile flags: /Odtp /RTCsu /ZI
; File c:\program files (x86)\microsoft visual studio 14.0\vc\include\xutility
;	COMDAT ??$_Rechecked@PAUTile@@PAU1@@std@@YAAAPAUTile@@AAPAU1@PAU1@@Z
_TEXT	SEGMENT
__Dest$ = 8						; size = 4
__Src$ = 12						; size = 4
??$_Rechecked@PAUTile@@PAU1@@std@@YAAAPAUTile@@AAPAU1@PAU1@@Z PROC ; std::_Rechecked<Tile *,Tile *>, COMDAT

; 457  : 	{	// reset checked from unchecked, generic

	push	ebp
	mov	ebp, esp
	sub	esp, 192				; 000000c0H
	push	ebx
	push	esi
	push	edi
	lea	edi, DWORD PTR [ebp-192]
	mov	ecx, 48					; 00000030H
	mov	eax, -858993460				; ccccccccH
	rep stosd

; 458  : 	_Dest = _Src;

	mov	eax, DWORD PTR __Dest$[ebp]
	mov	ecx, DWORD PTR __Src$[ebp]
	mov	DWORD PTR [eax], ecx

; 459  : 	return (_Dest);

	mov	eax, DWORD PTR __Dest$[ebp]

; 460  : 	}

	pop	edi
	pop	esi
	pop	ebx
	mov	esp, ebp
	pop	ebp
	ret	0
??$_Rechecked@PAUTile@@PAU1@@std@@YAAAPAUTile@@AAPAU1@PAU1@@Z ENDP ; std::_Rechecked<Tile *,Tile *>
_TEXT	ENDS
; Function compile flags: /Odtp /RTCsu /ZI
; File c:\program files (x86)\microsoft visual studio 14.0\vc\include\xmemory
;	COMDAT ??$_Uninitialized_move_al_unchecked@PAUTile@@PAU1@V?$allocator@UTile@@@std@@@std@@YAPAUTile@@PAU1@00AAU?$_Wrap_alloc@V?$allocator@UTile@@@std@@@0@@Z
_TEXT	SEGMENT
$T1 = -233						; size = 1
$T2 = -221						; size = 1
$T3 = -209						; size = 1
__First$ = 8						; size = 4
__Last$ = 12						; size = 4
__Dest$ = 16						; size = 4
__Al$ = 20						; size = 4
??$_Uninitialized_move_al_unchecked@PAUTile@@PAU1@V?$allocator@UTile@@@std@@@std@@YAPAUTile@@PAU1@00AAU?$_Wrap_alloc@V?$allocator@UTile@@@std@@@0@@Z PROC ; std::_Uninitialized_move_al_unchecked<Tile *,Tile *,std::allocator<Tile> >, COMDAT

; 301  : 	{	// move [_First, _Last) to raw _Dest, using _Al, choose optimization

	push	ebp
	mov	ebp, esp
	sub	esp, 240				; 000000f0H
	push	ebx
	push	esi
	push	edi
	lea	edi, DWORD PTR [ebp-240]
	mov	ecx, 60					; 0000003cH
	mov	eax, -858993460				; ccccccccH
	rep stosd

; 302  : 	typedef decltype(_STD move(*_First)) _Src_type; // TRANSITION MODULES VSO#222794
; 303  : 	return (_Uninitialized_move_al_unchecked1(_First, _Last, _Dest, _Al,

	lea	eax, DWORD PTR __Dest$[ebp]
	push	eax
	lea	ecx, DWORD PTR __First$[ebp]
	push	ecx
	lea	edx, DWORD PTR $T2[ebp]
	push	edx
	call	??$_Ptr_move_cat@UTile@@U1@@std@@YA?AU_Trivially_copyable_ptr_iterator_tag@0@ABQAUTile@@0@Z ; std::_Ptr_move_cat<Tile,Tile>
	add	esp, 8
	mov	ecx, esp
	lea	eax, DWORD PTR $T3[ebp]
	push	eax
	call	??$?0U?$integral_constant@_N$00@std@@@_Any_tag@std@@QAE@$$QAU?$integral_constant@_N$00@1@@Z ; std::_Any_tag::_Any_tag<std::integral_constant<bool,1> >
	movzx	ecx, BYTE PTR $T1[ebp]
	push	ecx
	mov	edx, DWORD PTR __Al$[ebp]
	push	edx
	mov	eax, DWORD PTR __Dest$[ebp]
	push	eax
	mov	ecx, DWORD PTR __Last$[ebp]
	push	ecx
	mov	edx, DWORD PTR __First$[ebp]
	push	edx
	call	??$_Uninitialized_move_al_unchecked1@PAUTile@@PAU1@V?$allocator@UTile@@@std@@@std@@YAPAUTile@@PAU1@00AAU?$_Wrap_alloc@V?$allocator@UTile@@@std@@@0@U_General_ptr_iterator_tag@0@U_Any_tag@0@@Z ; std::_Uninitialized_move_al_unchecked1<Tile *,Tile *,std::allocator<Tile> >
	add	esp, 24					; 00000018H

; 304  : 		_Ptr_move_cat(_First, _Dest),
; 305  : 		_Uses_default_construct_t<_Alloc, decltype(_Unfancy(_Dest)), _Src_type>()));
; 306  : 	}

	pop	edi
	pop	esi
	pop	ebx
	add	esp, 240				; 000000f0H
	cmp	ebp, esp
	call	__RTC_CheckEsp
	mov	esp, ebp
	pop	ebp
	ret	0
??$_Uninitialized_move_al_unchecked@PAUTile@@PAU1@V?$allocator@UTile@@@std@@@std@@YAPAUTile@@PAU1@00AAU?$_Wrap_alloc@V?$allocator@UTile@@@std@@@0@@Z ENDP ; std::_Uninitialized_move_al_unchecked<Tile *,Tile *,std::allocator<Tile> >
_TEXT	ENDS
; Function compile flags: /Odtp /RTCsu /ZI
; File c:\program files (x86)\microsoft visual studio 14.0\vc\include\xutility
;	COMDAT ??$_Unchecked@PAUTile@@@std@@YAPAUTile@@PAU1@@Z
_TEXT	SEGMENT
__Src$ = 8						; size = 4
??$_Unchecked@PAUTile@@@std@@YAPAUTile@@PAU1@@Z PROC	; std::_Unchecked<Tile *>, COMDAT

; 427  : 	{	// construct unchecked from checked, generic

	push	ebp
	mov	ebp, esp
	sub	esp, 192				; 000000c0H
	push	ebx
	push	esi
	push	edi
	lea	edi, DWORD PTR [ebp-192]
	mov	ecx, 48					; 00000030H
	mov	eax, -858993460				; ccccccccH
	rep stosd

; 428  : 	return (_Src);

	mov	eax, DWORD PTR __Src$[ebp]

; 429  : 	}

	pop	edi
	pop	esi
	pop	ebx
	mov	esp, ebp
	pop	ebp
	ret	0
??$_Unchecked@PAUTile@@@std@@YAPAUTile@@PAU1@@Z ENDP	; std::_Unchecked<Tile *>
_TEXT	ENDS
; Function compile flags: /Odtp /RTCsu /ZI
; File c:\program files (x86)\microsoft visual studio 14.0\vc\include\xmemory0
;	COMDAT ??$construct@U_Container_proxy@std@@U12@@?$allocator@U_Container_proxy@std@@@std@@QAEXPAU_Container_proxy@1@$$QAU21@@Z
_TEXT	SEGMENT
tv74 = -220						; size = 4
$T1 = -212						; size = 4
_this$ = -8						; size = 4
__Ptr$ = 8						; size = 4
_<_Args_0>$ = 12					; size = 4
??$construct@U_Container_proxy@std@@U12@@?$allocator@U_Container_proxy@std@@@std@@QAEXPAU_Container_proxy@1@$$QAU21@@Z PROC ; std::allocator<std::_Container_proxy>::construct<std::_Container_proxy,std::_Container_proxy>, COMDAT
; _this$ = ecx

; 736  : 		{	// construct _Objty(_Types...) at _Ptr

	push	ebp
	mov	ebp, esp
	sub	esp, 220				; 000000dcH
	push	ebx
	push	esi
	push	edi
	push	ecx
	lea	edi, DWORD PTR [ebp-220]
	mov	ecx, 55					; 00000037H
	mov	eax, -858993460				; ccccccccH
	rep stosd
	pop	ecx
	mov	DWORD PTR _this$[ebp], ecx

; 737  : 		::new ((void *)_Ptr) _Objty(_STD forward<_Types>(_Args)...);

	mov	eax, DWORD PTR __Ptr$[ebp]
	push	eax
	push	8
	call	??2@YAPAXIPAX@Z				; operator new
	add	esp, 8
	mov	DWORD PTR $T1[ebp], eax
	cmp	DWORD PTR $T1[ebp], 0
	je	SHORT $LN3@construct
	mov	ecx, DWORD PTR _<_Args_0>$[ebp]
	push	ecx
	call	??$forward@U_Container_proxy@std@@@std@@YA$$QAU_Container_proxy@0@AAU10@@Z ; std::forward<std::_Container_proxy>
	add	esp, 4
	mov	edx, DWORD PTR [eax]
	mov	eax, DWORD PTR [eax+4]
	mov	ecx, DWORD PTR $T1[ebp]
	mov	DWORD PTR [ecx], edx
	mov	DWORD PTR [ecx+4], eax
	mov	edx, DWORD PTR $T1[ebp]
	mov	DWORD PTR tv74[ebp], edx
	jmp	SHORT $LN1@construct
$LN3@construct:
	mov	DWORD PTR tv74[ebp], 0
$LN1@construct:

; 738  : 		}

	pop	edi
	pop	esi
	pop	ebx
	add	esp, 220				; 000000dcH
	cmp	ebp, esp
	call	__RTC_CheckEsp
	mov	esp, ebp
	pop	ebp
	ret	8
??$construct@U_Container_proxy@std@@U12@@?$allocator@U_Container_proxy@std@@@std@@QAEXPAU_Container_proxy@1@$$QAU21@@Z ENDP ; std::allocator<std::_Container_proxy>::construct<std::_Container_proxy,std::_Container_proxy>
_TEXT	ENDS
; Function compile flags: /Odtp /RTCsu /ZI
; File c:\program files (x86)\microsoft visual studio 14.0\vc\include\xmemory0
;	COMDAT ??$destroy@U_Container_proxy@std@@@?$allocator@U_Container_proxy@std@@@std@@QAEXPAU_Container_proxy@1@@Z
_TEXT	SEGMENT
_this$ = -8						; size = 4
__Ptr$ = 8						; size = 4
??$destroy@U_Container_proxy@std@@@?$allocator@U_Container_proxy@std@@@std@@QAEXPAU_Container_proxy@1@@Z PROC ; std::allocator<std::_Container_proxy>::destroy<std::_Container_proxy>, COMDAT
; _this$ = ecx

; 743  : 		{	// destroy object at _Ptr

	push	ebp
	mov	ebp, esp
	sub	esp, 204				; 000000ccH
	push	ebx
	push	esi
	push	edi
	push	ecx
	lea	edi, DWORD PTR [ebp-204]
	mov	ecx, 51					; 00000033H
	mov	eax, -858993460				; ccccccccH
	rep stosd
	pop	ecx
	mov	DWORD PTR _this$[ebp], ecx

; 744  : 		_Ptr->~_Uty();
; 745  : 		}

	pop	edi
	pop	esi
	pop	ebx
	mov	esp, ebp
	pop	ebp
	ret	4
??$destroy@U_Container_proxy@std@@@?$allocator@U_Container_proxy@std@@@std@@QAEXPAU_Container_proxy@1@@Z ENDP ; std::allocator<std::_Container_proxy>::destroy<std::_Container_proxy>
_TEXT	ENDS
; Function compile flags: /Odtp /RTCsu /ZI
; File c:\program files (x86)\microsoft visual studio 14.0\vc\include\xmemory0
;	COMDAT ??$construct@UTile@@ABU1@@?$allocator@UTile@@@std@@QAEXPAUTile@@ABU2@@Z
_TEXT	SEGMENT
tv74 = -220						; size = 4
$T1 = -212						; size = 4
_this$ = -8						; size = 4
__Ptr$ = 8						; size = 4
_<_Args_0>$ = 12					; size = 4
??$construct@UTile@@ABU1@@?$allocator@UTile@@@std@@QAEXPAUTile@@ABU2@@Z PROC ; std::allocator<Tile>::construct<Tile,Tile const &>, COMDAT
; _this$ = ecx

; 736  : 		{	// construct _Objty(_Types...) at _Ptr

	push	ebp
	mov	ebp, esp
	sub	esp, 220				; 000000dcH
	push	ebx
	push	esi
	push	edi
	push	ecx
	lea	edi, DWORD PTR [ebp-220]
	mov	ecx, 55					; 00000037H
	mov	eax, -858993460				; ccccccccH
	rep stosd
	pop	ecx
	mov	DWORD PTR _this$[ebp], ecx

; 737  : 		::new ((void *)_Ptr) _Objty(_STD forward<_Types>(_Args)...);

	mov	eax, DWORD PTR __Ptr$[ebp]
	push	eax
	push	32					; 00000020H
	call	??2@YAPAXIPAX@Z				; operator new
	add	esp, 8
	mov	DWORD PTR $T1[ebp], eax
	cmp	DWORD PTR $T1[ebp], 0
	je	SHORT $LN3@construct
	mov	ecx, DWORD PTR _<_Args_0>$[ebp]
	push	ecx
	call	??$forward@ABUTile@@@std@@YAABUTile@@ABU1@@Z ; std::forward<Tile const &>
	add	esp, 4
	mov	ecx, 8
	mov	esi, eax
	mov	edi, DWORD PTR $T1[ebp]
	rep movsd
	mov	edx, DWORD PTR $T1[ebp]
	mov	DWORD PTR tv74[ebp], edx
	jmp	SHORT $LN1@construct
$LN3@construct:
	mov	DWORD PTR tv74[ebp], 0
$LN1@construct:

; 738  : 		}

	pop	edi
	pop	esi
	pop	ebx
	add	esp, 220				; 000000dcH
	cmp	ebp, esp
	call	__RTC_CheckEsp
	mov	esp, ebp
	pop	ebp
	ret	8
??$construct@UTile@@ABU1@@?$allocator@UTile@@@std@@QAEXPAUTile@@ABU2@@Z ENDP ; std::allocator<Tile>::construct<Tile,Tile const &>
_TEXT	ENDS
; Function compile flags: /Odtp /RTCsu /ZI
; File c:\program files (x86)\microsoft visual studio 14.0\vc\include\xmemory0
;	COMDAT ??$construct@UTile@@AAU1@@?$allocator@UTile@@@std@@QAEXPAUTile@@AAU2@@Z
_TEXT	SEGMENT
tv74 = -220						; size = 4
$T1 = -212						; size = 4
_this$ = -8						; size = 4
__Ptr$ = 8						; size = 4
_<_Args_0>$ = 12					; size = 4
??$construct@UTile@@AAU1@@?$allocator@UTile@@@std@@QAEXPAUTile@@AAU2@@Z PROC ; std::allocator<Tile>::construct<Tile,Tile &>, COMDAT
; _this$ = ecx

; 736  : 		{	// construct _Objty(_Types...) at _Ptr

	push	ebp
	mov	ebp, esp
	sub	esp, 220				; 000000dcH
	push	ebx
	push	esi
	push	edi
	push	ecx
	lea	edi, DWORD PTR [ebp-220]
	mov	ecx, 55					; 00000037H
	mov	eax, -858993460				; ccccccccH
	rep stosd
	pop	ecx
	mov	DWORD PTR _this$[ebp], ecx

; 737  : 		::new ((void *)_Ptr) _Objty(_STD forward<_Types>(_Args)...);

	mov	eax, DWORD PTR __Ptr$[ebp]
	push	eax
	push	32					; 00000020H
	call	??2@YAPAXIPAX@Z				; operator new
	add	esp, 8
	mov	DWORD PTR $T1[ebp], eax
	cmp	DWORD PTR $T1[ebp], 0
	je	SHORT $LN3@construct
	mov	ecx, DWORD PTR _<_Args_0>$[ebp]
	push	ecx
	call	??$forward@AAUTile@@@std@@YAAAUTile@@AAU1@@Z ; std::forward<Tile &>
	add	esp, 4
	mov	ecx, 8
	mov	esi, eax
	mov	edi, DWORD PTR $T1[ebp]
	rep movsd
	mov	edx, DWORD PTR $T1[ebp]
	mov	DWORD PTR tv74[ebp], edx
	jmp	SHORT $LN1@construct
$LN3@construct:
	mov	DWORD PTR tv74[ebp], 0
$LN1@construct:

; 738  : 		}

	pop	edi
	pop	esi
	pop	ebx
	add	esp, 220				; 000000dcH
	cmp	ebp, esp
	call	__RTC_CheckEsp
	mov	esp, ebp
	pop	ebp
	ret	8
??$construct@UTile@@AAU1@@?$allocator@UTile@@@std@@QAEXPAUTile@@AAU2@@Z ENDP ; std::allocator<Tile>::construct<Tile,Tile &>
_TEXT	ENDS
; Function compile flags: /Odtp /RTCsu /ZI
; File c:\program files (x86)\microsoft visual studio 14.0\vc\include\xutility
;	COMDAT ??$_Copy_memmove@PAUTile@@PAU1@@std@@YAPAUTile@@PAU1@00@Z
_TEXT	SEGMENT
__Count$ = -44						; size = 4
__Dest_ch$ = -32					; size = 4
__Last_ch$ = -20					; size = 4
__First_ch$ = -8					; size = 4
__First$ = 8						; size = 4
__Last$ = 12						; size = 4
__Dest$ = 16						; size = 4
??$_Copy_memmove@PAUTile@@PAU1@@std@@YAPAUTile@@PAU1@00@Z PROC ; std::_Copy_memmove<Tile *,Tile *>, COMDAT

; 2301 : 	{	// implement copy-like function as memmove

	push	ebp
	mov	ebp, esp
	sub	esp, 240				; 000000f0H
	push	ebx
	push	esi
	push	edi
	lea	edi, DWORD PTR [ebp-240]
	mov	ecx, 60					; 0000003cH
	mov	eax, -858993460				; ccccccccH
	rep stosd

; 2302 : 	const char * const _First_ch = reinterpret_cast<const char *>(_First);

	mov	eax, DWORD PTR __First$[ebp]
	mov	DWORD PTR __First_ch$[ebp], eax

; 2303 : 	const char * const _Last_ch = reinterpret_cast<const char *>(_Last);

	mov	eax, DWORD PTR __Last$[ebp]
	mov	DWORD PTR __Last_ch$[ebp], eax

; 2304 : 	char * const _Dest_ch = reinterpret_cast<char *>(_Dest);

	mov	eax, DWORD PTR __Dest$[ebp]
	mov	DWORD PTR __Dest_ch$[ebp], eax

; 2305 : 	const size_t _Count = _Last_ch - _First_ch;

	mov	eax, DWORD PTR __Last_ch$[ebp]
	sub	eax, DWORD PTR __First_ch$[ebp]
	mov	DWORD PTR __Count$[ebp], eax

; 2306 : 	_CSTD memmove(_Dest_ch, _First_ch, _Count);

	mov	esi, esp
	mov	eax, DWORD PTR __Count$[ebp]
	push	eax
	mov	ecx, DWORD PTR __First_ch$[ebp]
	push	ecx
	mov	edx, DWORD PTR __Dest_ch$[ebp]
	push	edx
	call	DWORD PTR __imp__memmove
	add	esp, 12					; 0000000cH
	cmp	esi, esp
	call	__RTC_CheckEsp

; 2307 : 	return (reinterpret_cast<_OutIt>(_Dest_ch + _Count));

	mov	eax, DWORD PTR __Dest_ch$[ebp]
	add	eax, DWORD PTR __Count$[ebp]

; 2308 : 	}

	pop	edi
	pop	esi
	pop	ebx
	add	esp, 240				; 000000f0H
	cmp	ebp, esp
	call	__RTC_CheckEsp
	mov	esp, ebp
	pop	ebp
	ret	0
??$_Copy_memmove@PAUTile@@PAU1@@std@@YAPAUTile@@PAU1@00@Z ENDP ; std::_Copy_memmove<Tile *,Tile *>
_TEXT	ENDS
; Function compile flags: /Odtp /RTCsu /ZI
; File c:\program files (x86)\microsoft visual studio 14.0\vc\include\xutility
;	COMDAT ??$_Rechecked@PAUPushTile@@PAU1@@std@@YAAAPAUPushTile@@AAPAU1@PAU1@@Z
_TEXT	SEGMENT
__Dest$ = 8						; size = 4
__Src$ = 12						; size = 4
??$_Rechecked@PAUPushTile@@PAU1@@std@@YAAAPAUPushTile@@AAPAU1@PAU1@@Z PROC ; std::_Rechecked<PushTile *,PushTile *>, COMDAT

; 457  : 	{	// reset checked from unchecked, generic

	push	ebp
	mov	ebp, esp
	sub	esp, 192				; 000000c0H
	push	ebx
	push	esi
	push	edi
	lea	edi, DWORD PTR [ebp-192]
	mov	ecx, 48					; 00000030H
	mov	eax, -858993460				; ccccccccH
	rep stosd

; 458  : 	_Dest = _Src;

	mov	eax, DWORD PTR __Dest$[ebp]
	mov	ecx, DWORD PTR __Src$[ebp]
	mov	DWORD PTR [eax], ecx

; 459  : 	return (_Dest);

	mov	eax, DWORD PTR __Dest$[ebp]

; 460  : 	}

	pop	edi
	pop	esi
	pop	ebx
	mov	esp, ebp
	pop	ebp
	ret	0
??$_Rechecked@PAUPushTile@@PAU1@@std@@YAAAPAUPushTile@@AAPAU1@PAU1@@Z ENDP ; std::_Rechecked<PushTile *,PushTile *>
_TEXT	ENDS
; Function compile flags: /Odtp /RTCsu /ZI
; File c:\program files (x86)\microsoft visual studio 14.0\vc\include\xmemory
;	COMDAT ??$_Uninitialized_copy_al_unchecked@PBUPushTile@@PAU1@V?$allocator@UPushTile@@@std@@@std@@YAPAUPushTile@@PBU1@0PAU1@AAU?$_Wrap_alloc@V?$allocator@UPushTile@@@std@@@0@@Z
_TEXT	SEGMENT
$T1 = -233						; size = 1
$T2 = -221						; size = 1
$T3 = -209						; size = 1
__First$ = 8						; size = 4
__Last$ = 12						; size = 4
__Dest$ = 16						; size = 4
__Al$ = 20						; size = 4
??$_Uninitialized_copy_al_unchecked@PBUPushTile@@PAU1@V?$allocator@UPushTile@@@std@@@std@@YAPAUPushTile@@PBU1@0PAU1@AAU?$_Wrap_alloc@V?$allocator@UPushTile@@@std@@@0@@Z PROC ; std::_Uninitialized_copy_al_unchecked<PushTile const *,PushTile *,std::allocator<PushTile> >, COMDAT

; 248  : 	{	// copy [_First, _Last) to raw _Dest, using _Al, choose optimization

	push	ebp
	mov	ebp, esp
	sub	esp, 240				; 000000f0H
	push	ebx
	push	esi
	push	edi
	lea	edi, DWORD PTR [ebp-240]
	mov	ecx, 60					; 0000003cH
	mov	eax, -858993460				; ccccccccH
	rep stosd

; 249  : 	return (_Uninitialized_copy_al_unchecked1(_First, _Last, _Dest, _Al,

	lea	eax, DWORD PTR __Dest$[ebp]
	push	eax
	lea	ecx, DWORD PTR __First$[ebp]
	push	ecx
	lea	edx, DWORD PTR $T2[ebp]
	push	edx
	call	??$_Ptr_copy_cat@$$CBUPushTile@@U1@@std@@YA?AU_Trivially_copyable_ptr_iterator_tag@0@ABQBUPushTile@@ABQAU2@@Z ; std::_Ptr_copy_cat<PushTile const ,PushTile>
	add	esp, 8
	mov	ecx, esp
	lea	eax, DWORD PTR $T3[ebp]
	push	eax
	call	??$?0U?$integral_constant@_N$00@std@@@_Any_tag@std@@QAE@$$QAU?$integral_constant@_N$00@1@@Z ; std::_Any_tag::_Any_tag<std::integral_constant<bool,1> >
	movzx	ecx, BYTE PTR $T1[ebp]
	push	ecx
	mov	edx, DWORD PTR __Al$[ebp]
	push	edx
	mov	eax, DWORD PTR __Dest$[ebp]
	push	eax
	mov	ecx, DWORD PTR __Last$[ebp]
	push	ecx
	mov	edx, DWORD PTR __First$[ebp]
	push	edx
	call	??$_Uninitialized_copy_al_unchecked1@PBUPushTile@@PAU1@V?$allocator@UPushTile@@@std@@@std@@YAPAUPushTile@@PBU1@0PAU1@AAU?$_Wrap_alloc@V?$allocator@UPushTile@@@std@@@0@U_General_ptr_iterator_tag@0@U_Any_tag@0@@Z ; std::_Uninitialized_copy_al_unchecked1<PushTile const *,PushTile *,std::allocator<PushTile> >
	add	esp, 24					; 00000018H

; 250  : 		_Ptr_copy_cat(_First, _Dest),
; 251  : 		_Uses_default_construct_t<_Alloc, decltype(_Unfancy(_Dest)), decltype(*_First)>()));
; 252  : 	}

	pop	edi
	pop	esi
	pop	ebx
	add	esp, 240				; 000000f0H
	cmp	ebp, esp
	call	__RTC_CheckEsp
	mov	esp, ebp
	pop	ebp
	ret	0
??$_Uninitialized_copy_al_unchecked@PBUPushTile@@PAU1@V?$allocator@UPushTile@@@std@@@std@@YAPAUPushTile@@PBU1@0PAU1@AAU?$_Wrap_alloc@V?$allocator@UPushTile@@@std@@@0@@Z ENDP ; std::_Uninitialized_copy_al_unchecked<PushTile const *,PushTile *,std::allocator<PushTile> >
_TEXT	ENDS
; Function compile flags: /Odtp /RTCsu /ZI
; File c:\program files (x86)\microsoft visual studio 14.0\vc\include\xutility
;	COMDAT ??$_Unchecked@PAUPushTile@@@std@@YAPAUPushTile@@PAU1@@Z
_TEXT	SEGMENT
__Src$ = 8						; size = 4
??$_Unchecked@PAUPushTile@@@std@@YAPAUPushTile@@PAU1@@Z PROC ; std::_Unchecked<PushTile *>, COMDAT

; 427  : 	{	// construct unchecked from checked, generic

	push	ebp
	mov	ebp, esp
	sub	esp, 192				; 000000c0H
	push	ebx
	push	esi
	push	edi
	lea	edi, DWORD PTR [ebp-192]
	mov	ecx, 48					; 00000030H
	mov	eax, -858993460				; ccccccccH
	rep stosd

; 428  : 	return (_Src);

	mov	eax, DWORD PTR __Src$[ebp]

; 429  : 	}

	pop	edi
	pop	esi
	pop	ebx
	mov	esp, ebp
	pop	ebp
	ret	0
??$_Unchecked@PAUPushTile@@@std@@YAPAUPushTile@@PAU1@@Z ENDP ; std::_Unchecked<PushTile *>
_TEXT	ENDS
; Function compile flags: /Odtp /RTCsu /ZI
; File c:\program files (x86)\microsoft visual studio 14.0\vc\include\vector
;	COMDAT ??$_Unchecked@V?$_Vector_val@U?$_Simple_types@UPushTile@@@std@@@std@@@std@@YAPBUPushTile@@V?$_Vector_const_iterator@V?$_Vector_val@U?$_Simple_types@UPushTile@@@std@@@std@@@0@@Z
_TEXT	SEGMENT
$T2 = -212						; size = 4
__$EHRec$ = -12						; size = 12
__Iter$ = 8						; size = 12
??$_Unchecked@V?$_Vector_val@U?$_Simple_types@UPushTile@@@std@@@std@@@std@@YAPBUPushTile@@V?$_Vector_const_iterator@V?$_Vector_val@U?$_Simple_types@UPushTile@@@std@@@std@@@0@@Z PROC ; std::_Unchecked<std::_Vector_val<std::_Simple_types<PushTile> > >, COMDAT

; 271  : 	{	// convert to unchecked

	push	ebp
	mov	ebp, esp
	push	-1
	push	__ehhandler$??$_Unchecked@V?$_Vector_val@U?$_Simple_types@UPushTile@@@std@@@std@@@std@@YAPBUPushTile@@V?$_Vector_const_iterator@V?$_Vector_val@U?$_Simple_types@UPushTile@@@std@@@std@@@0@@Z
	mov	eax, DWORD PTR fs:0
	push	eax
	sub	esp, 204				; 000000ccH
	push	ebx
	push	esi
	push	edi
	lea	edi, DWORD PTR [ebp-216]
	mov	ecx, 51					; 00000033H
	mov	eax, -858993460				; ccccccccH
	rep stosd
	mov	eax, DWORD PTR ___security_cookie
	xor	eax, ebp
	push	eax
	lea	eax, DWORD PTR __$EHRec$[ebp]
	mov	DWORD PTR fs:0, eax
	mov	DWORD PTR __$EHRec$[ebp+8], 0

; 272  : 	return (_Iter._Unchecked());

	lea	ecx, DWORD PTR __Iter$[ebp]
	call	?_Unchecked@?$_Vector_const_iterator@V?$_Vector_val@U?$_Simple_types@UPushTile@@@std@@@std@@@std@@QBEPBUPushTile@@XZ ; std::_Vector_const_iterator<std::_Vector_val<std::_Simple_types<PushTile> > >::_Unchecked
	mov	DWORD PTR $T2[ebp], eax
	mov	DWORD PTR __$EHRec$[ebp+8], -1
	lea	ecx, DWORD PTR __Iter$[ebp]
	call	??1?$_Vector_const_iterator@V?$_Vector_val@U?$_Simple_types@UPushTile@@@std@@@std@@@std@@QAE@XZ
	mov	eax, DWORD PTR $T2[ebp]

; 273  : 	}

	mov	ecx, DWORD PTR __$EHRec$[ebp]
	mov	DWORD PTR fs:0, ecx
	pop	ecx
	pop	edi
	pop	esi
	pop	ebx
	add	esp, 216				; 000000d8H
	cmp	ebp, esp
	call	__RTC_CheckEsp
	mov	esp, ebp
	pop	ebp
	ret	0
_TEXT	ENDS
;	COMDAT text$x
text$x	SEGMENT
__unwindfunclet$??$_Unchecked@V?$_Vector_val@U?$_Simple_types@UPushTile@@@std@@@std@@@std@@YAPBUPushTile@@V?$_Vector_const_iterator@V?$_Vector_val@U?$_Simple_types@UPushTile@@@std@@@std@@@0@@Z$0:
	lea	ecx, DWORD PTR __Iter$[ebp]
	jmp	??1?$_Vector_const_iterator@V?$_Vector_val@U?$_Simple_types@UPushTile@@@std@@@std@@@std@@QAE@XZ
__ehhandler$??$_Unchecked@V?$_Vector_val@U?$_Simple_types@UPushTile@@@std@@@std@@@std@@YAPBUPushTile@@V?$_Vector_const_iterator@V?$_Vector_val@U?$_Simple_types@UPushTile@@@std@@@std@@@0@@Z:
	mov	edx, DWORD PTR [esp+8]
	lea	eax, DWORD PTR [edx+12]
	mov	ecx, DWORD PTR [edx-220]
	xor	ecx, eax
	call	@__security_check_cookie@4
	mov	eax, OFFSET __ehfuncinfo$??$_Unchecked@V?$_Vector_val@U?$_Simple_types@UPushTile@@@std@@@std@@@std@@YAPBUPushTile@@V?$_Vector_const_iterator@V?$_Vector_val@U?$_Simple_types@UPushTile@@@std@@@std@@@0@@Z
	jmp	___CxxFrameHandler3
text$x	ENDS
??$_Unchecked@V?$_Vector_val@U?$_Simple_types@UPushTile@@@std@@@std@@@std@@YAPBUPushTile@@V?$_Vector_const_iterator@V?$_Vector_val@U?$_Simple_types@UPushTile@@@std@@@std@@@0@@Z ENDP ; std::_Unchecked<std::_Vector_val<std::_Simple_types<PushTile> > >
; Function compile flags: /Odtp /RTCsu /ZI
; File c:\program files (x86)\microsoft visual studio 14.0\vc\include\xutility
;	COMDAT ??$_Find_unchecked1@PAUTile@@U1@@std@@YAPAUTile@@PAU1@0ABU1@U?$integral_constant@_N$0A@@0@@Z
_TEXT	SEGMENT
__First$ = 8						; size = 4
__Last$ = 12						; size = 4
__Val$ = 16						; size = 4
___formal$ = 20						; size = 1
??$_Find_unchecked1@PAUTile@@U1@@std@@YAPAUTile@@PAU1@0ABU1@U?$integral_constant@_N$0A@@0@@Z PROC ; std::_Find_unchecked1<Tile *,Tile>, COMDAT

; 3256 : 	{	// find first matching _Val

	push	ebp
	mov	ebp, esp
	sub	esp, 192				; 000000c0H
	push	ebx
	push	esi
	push	edi
	lea	edi, DWORD PTR [ebp-192]
	mov	ecx, 48					; 00000030H
	mov	eax, -858993460				; ccccccccH
	rep stosd

; 3257 : 	for (; _First != _Last; ++_First)

	jmp	SHORT $LN4@Find_unche
$LN2@Find_unche:
	mov	eax, DWORD PTR __First$[ebp]
	add	eax, 32					; 00000020H
	mov	DWORD PTR __First$[ebp], eax
$LN4@Find_unche:
	mov	eax, DWORD PTR __First$[ebp]
	cmp	eax, DWORD PTR __Last$[ebp]
	je	SHORT $LN3@Find_unche

; 3258 : 		if (*_First == _Val)

	mov	eax, DWORD PTR __Val$[ebp]
	push	eax
	mov	ecx, DWORD PTR __First$[ebp]
	call	??8Tile@@QBEHABU0@@Z			; Tile::operator==
	test	eax, eax
	je	SHORT $LN5@Find_unche

; 3259 : 			break;

	jmp	SHORT $LN3@Find_unche
$LN5@Find_unche:

; 3260 : 	return (_First);

	jmp	SHORT $LN2@Find_unche
$LN3@Find_unche:
	mov	eax, DWORD PTR __First$[ebp]

; 3261 : 	}

	pop	edi
	pop	esi
	pop	ebx
	add	esp, 192				; 000000c0H
	cmp	ebp, esp
	call	__RTC_CheckEsp
	mov	esp, ebp
	pop	ebp
	ret	0
??$_Find_unchecked1@PAUTile@@U1@@std@@YAPAUTile@@PAU1@0ABU1@U?$integral_constant@_N$0A@@0@@Z ENDP ; std::_Find_unchecked1<Tile *,Tile>
_TEXT	ENDS
; Function compile flags: /Odtp /RTCsu /ZI
; File c:\program files (x86)\microsoft visual studio 14.0\vc\include\type_traits
;	COMDAT ??$move@AAUTile@@@std@@YA$$QAUTile@@AAU1@@Z
_TEXT	SEGMENT
__Arg$ = 8						; size = 4
??$move@AAUTile@@@std@@YA$$QAUTile@@AAU1@@Z PROC	; std::move<Tile &>, COMDAT

; 1291 : 	{	// forward _Arg as movable

	push	ebp
	mov	ebp, esp
	sub	esp, 192				; 000000c0H
	push	ebx
	push	esi
	push	edi
	lea	edi, DWORD PTR [ebp-192]
	mov	ecx, 48					; 00000030H
	mov	eax, -858993460				; ccccccccH
	rep stosd

; 1292 : 	return (static_cast<typename remove_reference<_Ty>::type&&>(_Arg));

	mov	eax, DWORD PTR __Arg$[ebp]

; 1293 : 	}

	pop	edi
	pop	esi
	pop	ebx
	mov	esp, ebp
	pop	ebp
	ret	0
??$move@AAUTile@@@std@@YA$$QAUTile@@AAU1@@Z ENDP	; std::move<Tile &>
_TEXT	ENDS
; Function compile flags: /Odtp /RTCsu /ZI
; File c:\program files (x86)\microsoft visual studio 14.0\vc\include\xutility
;	COMDAT ??$_Debug_range2@V?$_Vector_iterator@V?$_Vector_val@U?$_Simple_types@UTile@@@std@@@std@@@std@@@std@@YAXV?$_Vector_iterator@V?$_Vector_val@U?$_Simple_types@UTile@@@std@@@std@@@0@0PB_WIUrandom_access_iterator_tag@0@@Z
_TEXT	SEGMENT
__$EHRec$ = -12						; size = 12
__First$ = 8						; size = 12
__Last$ = 20						; size = 12
__File$ = 32						; size = 4
__Line$ = 36						; size = 4
___formal$ = 40						; size = 1
??$_Debug_range2@V?$_Vector_iterator@V?$_Vector_val@U?$_Simple_types@UTile@@@std@@@std@@@std@@@std@@YAXV?$_Vector_iterator@V?$_Vector_val@U?$_Simple_types@UTile@@@std@@@std@@@0@0PB_WIUrandom_access_iterator_tag@0@@Z PROC ; std::_Debug_range2<std::_Vector_iterator<std::_Vector_val<std::_Simple_types<Tile> > > >, COMDAT

; 953  : 	{	// test iterator pair for valid range, random-access iterators

	push	ebp
	mov	ebp, esp
	push	-1
	push	__ehhandler$??$_Debug_range2@V?$_Vector_iterator@V?$_Vector_val@U?$_Simple_types@UTile@@@std@@@std@@@std@@@std@@YAXV?$_Vector_iterator@V?$_Vector_val@U?$_Simple_types@UTile@@@std@@@std@@@0@0PB_WIUrandom_access_iterator_tag@0@@Z
	mov	eax, DWORD PTR fs:0
	push	eax
	sub	esp, 192				; 000000c0H
	push	ebx
	push	esi
	push	edi
	lea	edi, DWORD PTR [ebp-204]
	mov	ecx, 48					; 00000030H
	mov	eax, -858993460				; ccccccccH
	rep stosd
	mov	eax, DWORD PTR ___security_cookie
	xor	eax, ebp
	push	eax
	lea	eax, DWORD PTR __$EHRec$[ebp]
	mov	DWORD PTR fs:0, eax
	mov	DWORD PTR __$EHRec$[ebp+8], 1

; 954  : 	if (_First != _Last)

	lea	eax, DWORD PTR __Last$[ebp]
	push	eax
	lea	ecx, DWORD PTR __First$[ebp]
	call	??9?$_Vector_const_iterator@V?$_Vector_val@U?$_Simple_types@UTile@@@std@@@std@@@std@@QBE_NABV01@@Z ; std::_Vector_const_iterator<std::_Vector_val<std::_Simple_types<Tile> > >::operator!=
	movzx	ecx, al
	test	ecx, ecx
	je	SHORT $LN2@Debug_rang

; 955  : 		{	// check for non-null pointers, valid range
; 956  : 		_DEBUG_POINTER2(_First, _File, _Line);

	mov	eax, DWORD PTR __Line$[ebp]
	push	eax
	mov	ecx, DWORD PTR __File$[ebp]
	push	ecx
	lea	edx, DWORD PTR __First$[ebp]
	push	edx
	call	??$_Debug_pointer@V?$_Vector_iterator@V?$_Vector_val@U?$_Simple_types@UTile@@@std@@@std@@@std@@@std@@YAXAAV?$_Vector_iterator@V?$_Vector_val@U?$_Simple_types@UTile@@@std@@@std@@@0@PB_WI@Z ; std::_Debug_pointer<std::_Vector_iterator<std::_Vector_val<std::_Simple_types<Tile> > > >
	add	esp, 12					; 0000000cH

; 957  : 		_DEBUG_POINTER2(_Last, _File, _Line);

	mov	eax, DWORD PTR __Line$[ebp]
	push	eax
	mov	ecx, DWORD PTR __File$[ebp]
	push	ecx
	lea	edx, DWORD PTR __Last$[ebp]
	push	edx
	call	??$_Debug_pointer@V?$_Vector_iterator@V?$_Vector_val@U?$_Simple_types@UTile@@@std@@@std@@@std@@@std@@YAXAAV?$_Vector_iterator@V?$_Vector_val@U?$_Simple_types@UTile@@@std@@@std@@@0@PB_WI@Z ; std::_Debug_pointer<std::_Vector_iterator<std::_Vector_val<std::_Simple_types<Tile> > > >
	add	esp, 12					; 0000000cH

; 958  : 		if (_Last < _First)

	lea	eax, DWORD PTR __First$[ebp]
	push	eax
	lea	ecx, DWORD PTR __Last$[ebp]
	call	??M?$_Vector_const_iterator@V?$_Vector_val@U?$_Simple_types@UTile@@@std@@@std@@@std@@QBE_NABV01@@Z ; std::_Vector_const_iterator<std::_Vector_val<std::_Simple_types<Tile> > >::operator<
	movzx	ecx, al
	test	ecx, ecx
	je	SHORT $LN2@Debug_rang

; 959  : 			_DEBUG_ERROR2("invalid iterator range", _File, _Line);

	mov	esi, esp
	mov	eax, DWORD PTR __Line$[ebp]
	push	eax
	mov	ecx, DWORD PTR __File$[ebp]
	push	ecx
	push	OFFSET ??_C@_1CO@DGLIKNHI@?$AAi?$AAn?$AAv?$AAa?$AAl?$AAi?$AAd?$AA?5?$AAi?$AAt?$AAe?$AAr?$AAa?$AAt?$AAo?$AAr?$AA?5?$AAr?$AAa?$AAn?$AAg?$AAe?$AA?$AA@
	call	DWORD PTR __imp_?_Debug_message@std@@YAXPB_W0I@Z
	add	esp, 12					; 0000000cH
	cmp	esi, esp
	call	__RTC_CheckEsp
$LN2@Debug_rang:

; 960  : 		}
; 961  : 	}

	mov	BYTE PTR __$EHRec$[ebp+8], 0
	lea	ecx, DWORD PTR __First$[ebp]
	call	??1?$_Vector_iterator@V?$_Vector_val@U?$_Simple_types@UTile@@@std@@@std@@@std@@QAE@XZ
	mov	DWORD PTR __$EHRec$[ebp+8], -1
	lea	ecx, DWORD PTR __Last$[ebp]
	call	??1?$_Vector_iterator@V?$_Vector_val@U?$_Simple_types@UTile@@@std@@@std@@@std@@QAE@XZ
	mov	ecx, DWORD PTR __$EHRec$[ebp]
	mov	DWORD PTR fs:0, ecx
	pop	ecx
	pop	edi
	pop	esi
	pop	ebx
	add	esp, 204				; 000000ccH
	cmp	ebp, esp
	call	__RTC_CheckEsp
	mov	esp, ebp
	pop	ebp
	ret	0
_TEXT	ENDS
;	COMDAT text$x
text$x	SEGMENT
__unwindfunclet$??$_Debug_range2@V?$_Vector_iterator@V?$_Vector_val@U?$_Simple_types@UTile@@@std@@@std@@@std@@@std@@YAXV?$_Vector_iterator@V?$_Vector_val@U?$_Simple_types@UTile@@@std@@@std@@@0@0PB_WIUrandom_access_iterator_tag@0@@Z$0:
	lea	ecx, DWORD PTR __Last$[ebp]
	jmp	??1?$_Vector_iterator@V?$_Vector_val@U?$_Simple_types@UTile@@@std@@@std@@@std@@QAE@XZ
__unwindfunclet$??$_Debug_range2@V?$_Vector_iterator@V?$_Vector_val@U?$_Simple_types@UTile@@@std@@@std@@@std@@@std@@YAXV?$_Vector_iterator@V?$_Vector_val@U?$_Simple_types@UTile@@@std@@@std@@@0@0PB_WIUrandom_access_iterator_tag@0@@Z$1:
	lea	ecx, DWORD PTR __First$[ebp]
	jmp	??1?$_Vector_iterator@V?$_Vector_val@U?$_Simple_types@UTile@@@std@@@std@@@std@@QAE@XZ
__ehhandler$??$_Debug_range2@V?$_Vector_iterator@V?$_Vector_val@U?$_Simple_types@UTile@@@std@@@std@@@std@@@std@@YAXV?$_Vector_iterator@V?$_Vector_val@U?$_Simple_types@UTile@@@std@@@std@@@0@0PB_WIUrandom_access_iterator_tag@0@@Z:
	mov	edx, DWORD PTR [esp+8]
	lea	eax, DWORD PTR [edx+12]
	mov	ecx, DWORD PTR [edx-208]
	xor	ecx, eax
	call	@__security_check_cookie@4
	mov	eax, OFFSET __ehfuncinfo$??$_Debug_range2@V?$_Vector_iterator@V?$_Vector_val@U?$_Simple_types@UTile@@@std@@@std@@@std@@@std@@YAXV?$_Vector_iterator@V?$_Vector_val@U?$_Simple_types@UTile@@@std@@@std@@@0@0PB_WIUrandom_access_iterator_tag@0@@Z
	jmp	___CxxFrameHandler3
text$x	ENDS
??$_Debug_range2@V?$_Vector_iterator@V?$_Vector_val@U?$_Simple_types@UTile@@@std@@@std@@@std@@@std@@YAXV?$_Vector_iterator@V?$_Vector_val@U?$_Simple_types@UTile@@@std@@@std@@@0@0PB_WIUrandom_access_iterator_tag@0@@Z ENDP ; std::_Debug_range2<std::_Vector_iterator<std::_Vector_val<std::_Simple_types<Tile> > > >
; Function compile flags: /Odtp /RTCsu /ZI
; File c:\program files (x86)\microsoft visual studio 14.0\vc\include\xutility
;	COMDAT ??$_Find_unchecked1@PAHW4<unnamed-enum-SDLK_UNKNOWN>@@@std@@YAPAHPAH0ABW4<unnamed-enum-SDLK_UNKNOWN>@@U?$integral_constant@_N$0A@@0@@Z
_TEXT	SEGMENT
__First$ = 8						; size = 4
__Last$ = 12						; size = 4
__Val$ = 16						; size = 4
___formal$ = 20						; size = 1
??$_Find_unchecked1@PAHW4<unnamed-enum-SDLK_UNKNOWN>@@@std@@YAPAHPAH0ABW4<unnamed-enum-SDLK_UNKNOWN>@@U?$integral_constant@_N$0A@@0@@Z PROC ; std::_Find_unchecked1<int *,enum <unnamed-enum-SDLK_UNKNOWN> >, COMDAT

; 3256 : 	{	// find first matching _Val

	push	ebp
	mov	ebp, esp
	sub	esp, 192				; 000000c0H
	push	ebx
	push	esi
	push	edi
	lea	edi, DWORD PTR [ebp-192]
	mov	ecx, 48					; 00000030H
	mov	eax, -858993460				; ccccccccH
	rep stosd

; 3257 : 	for (; _First != _Last; ++_First)

	jmp	SHORT $LN4@Find_unche
$LN2@Find_unche:
	mov	eax, DWORD PTR __First$[ebp]
	add	eax, 4
	mov	DWORD PTR __First$[ebp], eax
$LN4@Find_unche:
	mov	eax, DWORD PTR __First$[ebp]
	cmp	eax, DWORD PTR __Last$[ebp]
	je	SHORT $LN3@Find_unche

; 3258 : 		if (*_First == _Val)

	mov	eax, DWORD PTR __First$[ebp]
	mov	ecx, DWORD PTR __Val$[ebp]
	mov	edx, DWORD PTR [eax]
	cmp	edx, DWORD PTR [ecx]
	jne	SHORT $LN5@Find_unche

; 3259 : 			break;

	jmp	SHORT $LN3@Find_unche
$LN5@Find_unche:

; 3260 : 	return (_First);

	jmp	SHORT $LN2@Find_unche
$LN3@Find_unche:
	mov	eax, DWORD PTR __First$[ebp]

; 3261 : 	}

	pop	edi
	pop	esi
	pop	ebx
	mov	esp, ebp
	pop	ebp
	ret	0
??$_Find_unchecked1@PAHW4<unnamed-enum-SDLK_UNKNOWN>@@@std@@YAPAHPAH0ABW4<unnamed-enum-SDLK_UNKNOWN>@@U?$integral_constant@_N$0A@@0@@Z ENDP ; std::_Find_unchecked1<int *,enum <unnamed-enum-SDLK_UNKNOWN> >
_TEXT	ENDS
; Function compile flags: /Odtp /RTCsu /ZI
; File c:\program files (x86)\microsoft visual studio 14.0\vc\include\xutility
;	COMDAT ??$_Debug_range2@V?$_Vector_iterator@V?$_Vector_val@U?$_Simple_types@H@std@@@std@@@std@@@std@@YAXV?$_Vector_iterator@V?$_Vector_val@U?$_Simple_types@H@std@@@std@@@0@0PB_WIUrandom_access_iterator_tag@0@@Z
_TEXT	SEGMENT
__$EHRec$ = -12						; size = 12
__First$ = 8						; size = 12
__Last$ = 20						; size = 12
__File$ = 32						; size = 4
__Line$ = 36						; size = 4
___formal$ = 40						; size = 1
??$_Debug_range2@V?$_Vector_iterator@V?$_Vector_val@U?$_Simple_types@H@std@@@std@@@std@@@std@@YAXV?$_Vector_iterator@V?$_Vector_val@U?$_Simple_types@H@std@@@std@@@0@0PB_WIUrandom_access_iterator_tag@0@@Z PROC ; std::_Debug_range2<std::_Vector_iterator<std::_Vector_val<std::_Simple_types<int> > > >, COMDAT

; 953  : 	{	// test iterator pair for valid range, random-access iterators

	push	ebp
	mov	ebp, esp
	push	-1
	push	__ehhandler$??$_Debug_range2@V?$_Vector_iterator@V?$_Vector_val@U?$_Simple_types@H@std@@@std@@@std@@@std@@YAXV?$_Vector_iterator@V?$_Vector_val@U?$_Simple_types@H@std@@@std@@@0@0PB_WIUrandom_access_iterator_tag@0@@Z
	mov	eax, DWORD PTR fs:0
	push	eax
	sub	esp, 192				; 000000c0H
	push	ebx
	push	esi
	push	edi
	lea	edi, DWORD PTR [ebp-204]
	mov	ecx, 48					; 00000030H
	mov	eax, -858993460				; ccccccccH
	rep stosd
	mov	eax, DWORD PTR ___security_cookie
	xor	eax, ebp
	push	eax
	lea	eax, DWORD PTR __$EHRec$[ebp]
	mov	DWORD PTR fs:0, eax
	mov	DWORD PTR __$EHRec$[ebp+8], 1

; 954  : 	if (_First != _Last)

	lea	eax, DWORD PTR __Last$[ebp]
	push	eax
	lea	ecx, DWORD PTR __First$[ebp]
	call	??9?$_Vector_const_iterator@V?$_Vector_val@U?$_Simple_types@H@std@@@std@@@std@@QBE_NABV01@@Z ; std::_Vector_const_iterator<std::_Vector_val<std::_Simple_types<int> > >::operator!=
	movzx	ecx, al
	test	ecx, ecx
	je	SHORT $LN2@Debug_rang

; 955  : 		{	// check for non-null pointers, valid range
; 956  : 		_DEBUG_POINTER2(_First, _File, _Line);

	mov	eax, DWORD PTR __Line$[ebp]
	push	eax
	mov	ecx, DWORD PTR __File$[ebp]
	push	ecx
	lea	edx, DWORD PTR __First$[ebp]
	push	edx
	call	??$_Debug_pointer@V?$_Vector_iterator@V?$_Vector_val@U?$_Simple_types@H@std@@@std@@@std@@@std@@YAXAAV?$_Vector_iterator@V?$_Vector_val@U?$_Simple_types@H@std@@@std@@@0@PB_WI@Z ; std::_Debug_pointer<std::_Vector_iterator<std::_Vector_val<std::_Simple_types<int> > > >
	add	esp, 12					; 0000000cH

; 957  : 		_DEBUG_POINTER2(_Last, _File, _Line);

	mov	eax, DWORD PTR __Line$[ebp]
	push	eax
	mov	ecx, DWORD PTR __File$[ebp]
	push	ecx
	lea	edx, DWORD PTR __Last$[ebp]
	push	edx
	call	??$_Debug_pointer@V?$_Vector_iterator@V?$_Vector_val@U?$_Simple_types@H@std@@@std@@@std@@@std@@YAXAAV?$_Vector_iterator@V?$_Vector_val@U?$_Simple_types@H@std@@@std@@@0@PB_WI@Z ; std::_Debug_pointer<std::_Vector_iterator<std::_Vector_val<std::_Simple_types<int> > > >
	add	esp, 12					; 0000000cH

; 958  : 		if (_Last < _First)

	lea	eax, DWORD PTR __First$[ebp]
	push	eax
	lea	ecx, DWORD PTR __Last$[ebp]
	call	??M?$_Vector_const_iterator@V?$_Vector_val@U?$_Simple_types@H@std@@@std@@@std@@QBE_NABV01@@Z ; std::_Vector_const_iterator<std::_Vector_val<std::_Simple_types<int> > >::operator<
	movzx	ecx, al
	test	ecx, ecx
	je	SHORT $LN2@Debug_rang

; 959  : 			_DEBUG_ERROR2("invalid iterator range", _File, _Line);

	mov	esi, esp
	mov	eax, DWORD PTR __Line$[ebp]
	push	eax
	mov	ecx, DWORD PTR __File$[ebp]
	push	ecx
	push	OFFSET ??_C@_1CO@DGLIKNHI@?$AAi?$AAn?$AAv?$AAa?$AAl?$AAi?$AAd?$AA?5?$AAi?$AAt?$AAe?$AAr?$AAa?$AAt?$AAo?$AAr?$AA?5?$AAr?$AAa?$AAn?$AAg?$AAe?$AA?$AA@
	call	DWORD PTR __imp_?_Debug_message@std@@YAXPB_W0I@Z
	add	esp, 12					; 0000000cH
	cmp	esi, esp
	call	__RTC_CheckEsp
$LN2@Debug_rang:

; 960  : 		}
; 961  : 	}

	mov	BYTE PTR __$EHRec$[ebp+8], 0
	lea	ecx, DWORD PTR __First$[ebp]
	call	??1?$_Vector_iterator@V?$_Vector_val@U?$_Simple_types@H@std@@@std@@@std@@QAE@XZ
	mov	DWORD PTR __$EHRec$[ebp+8], -1
	lea	ecx, DWORD PTR __Last$[ebp]
	call	??1?$_Vector_iterator@V?$_Vector_val@U?$_Simple_types@H@std@@@std@@@std@@QAE@XZ
	mov	ecx, DWORD PTR __$EHRec$[ebp]
	mov	DWORD PTR fs:0, ecx
	pop	ecx
	pop	edi
	pop	esi
	pop	ebx
	add	esp, 204				; 000000ccH
	cmp	ebp, esp
	call	__RTC_CheckEsp
	mov	esp, ebp
	pop	ebp
	ret	0
_TEXT	ENDS
;	COMDAT text$x
text$x	SEGMENT
__unwindfunclet$??$_Debug_range2@V?$_Vector_iterator@V?$_Vector_val@U?$_Simple_types@H@std@@@std@@@std@@@std@@YAXV?$_Vector_iterator@V?$_Vector_val@U?$_Simple_types@H@std@@@std@@@0@0PB_WIUrandom_access_iterator_tag@0@@Z$0:
	lea	ecx, DWORD PTR __Last$[ebp]
	jmp	??1?$_Vector_iterator@V?$_Vector_val@U?$_Simple_types@H@std@@@std@@@std@@QAE@XZ
__unwindfunclet$??$_Debug_range2@V?$_Vector_iterator@V?$_Vector_val@U?$_Simple_types@H@std@@@std@@@std@@@std@@YAXV?$_Vector_iterator@V?$_Vector_val@U?$_Simple_types@H@std@@@std@@@0@0PB_WIUrandom_access_iterator_tag@0@@Z$1:
	lea	ecx, DWORD PTR __First$[ebp]
	jmp	??1?$_Vector_iterator@V?$_Vector_val@U?$_Simple_types@H@std@@@std@@@std@@QAE@XZ
__ehhandler$??$_Debug_range2@V?$_Vector_iterator@V?$_Vector_val@U?$_Simple_types@H@std@@@std@@@std@@@std@@YAXV?$_Vector_iterator@V?$_Vector_val@U?$_Simple_types@H@std@@@std@@@0@0PB_WIUrandom_access_iterator_tag@0@@Z:
	mov	edx, DWORD PTR [esp+8]
	lea	eax, DWORD PTR [edx+12]
	mov	ecx, DWORD PTR [edx-208]
	xor	ecx, eax
	call	@__security_check_cookie@4
	mov	eax, OFFSET __ehfuncinfo$??$_Debug_range2@V?$_Vector_iterator@V?$_Vector_val@U?$_Simple_types@H@std@@@std@@@std@@@std@@YAXV?$_Vector_iterator@V?$_Vector_val@U?$_Simple_types@H@std@@@std@@@0@0PB_WIUrandom_access_iterator_tag@0@@Z
	jmp	___CxxFrameHandler3
text$x	ENDS
??$_Debug_range2@V?$_Vector_iterator@V?$_Vector_val@U?$_Simple_types@H@std@@@std@@@std@@@std@@YAXV?$_Vector_iterator@V?$_Vector_val@U?$_Simple_types@H@std@@@std@@@0@0PB_WIUrandom_access_iterator_tag@0@@Z ENDP ; std::_Debug_range2<std::_Vector_iterator<std::_Vector_val<std::_Simple_types<int> > > >
; Function compile flags: /Odtp /RTCsu /ZI
; File c:\program files (x86)\microsoft visual studio 14.0\vc\include\xmemory
;	COMDAT ??$_Uninitialized_move@PAUTile@@PAU1@V?$allocator@UTile@@@std@@@std@@YAPAUTile@@PAU1@00AAU?$_Wrap_alloc@V?$allocator@UTile@@@std@@@0@@Z
_TEXT	SEGMENT
__First$ = 8						; size = 4
__Last$ = 12						; size = 4
__Dest$ = 16						; size = 4
__Al$ = 20						; size = 4
??$_Uninitialized_move@PAUTile@@PAU1@V?$allocator@UTile@@@std@@@std@@YAPAUTile@@PAU1@00AAU?$_Wrap_alloc@V?$allocator@UTile@@@std@@@0@@Z PROC ; std::_Uninitialized_move<Tile *,Tile *,std::allocator<Tile> >, COMDAT

; 313  : 	{	// move [_First, _Last) to raw _Dest, using _Al

	push	ebp
	mov	ebp, esp
	sub	esp, 192				; 000000c0H
	push	ebx
	push	esi
	push	edi
	lea	edi, DWORD PTR [ebp-192]
	mov	ecx, 48					; 00000030H
	mov	eax, -858993460				; ccccccccH
	rep stosd

; 314  : 		// note: only called internally from elsewhere in the STL, debug checks
; 315  : 		// and deprecation warnings omitted
; 316  : 	return (_Rechecked(_Dest,

	mov	eax, DWORD PTR __Al$[ebp]
	push	eax
	mov	ecx, DWORD PTR __Dest$[ebp]
	push	ecx
	call	??$_Unchecked@PAUTile@@@std@@YAPAUTile@@PAU1@@Z ; std::_Unchecked<Tile *>
	add	esp, 4
	push	eax
	mov	edx, DWORD PTR __Last$[ebp]
	push	edx
	call	??$_Unchecked@PAUTile@@@std@@YAPAUTile@@PAU1@@Z ; std::_Unchecked<Tile *>
	add	esp, 4
	push	eax
	mov	eax, DWORD PTR __First$[ebp]
	push	eax
	call	??$_Unchecked@PAUTile@@@std@@YAPAUTile@@PAU1@@Z ; std::_Unchecked<Tile *>
	add	esp, 4
	push	eax
	call	??$_Uninitialized_move_al_unchecked@PAUTile@@PAU1@V?$allocator@UTile@@@std@@@std@@YAPAUTile@@PAU1@00AAU?$_Wrap_alloc@V?$allocator@UTile@@@std@@@0@@Z ; std::_Uninitialized_move_al_unchecked<Tile *,Tile *,std::allocator<Tile> >
	add	esp, 16					; 00000010H
	push	eax
	lea	ecx, DWORD PTR __Dest$[ebp]
	push	ecx
	call	??$_Rechecked@PAUTile@@PAU1@@std@@YAAAPAUTile@@AAPAU1@PAU1@@Z ; std::_Rechecked<Tile *,Tile *>
	add	esp, 8
	mov	eax, DWORD PTR [eax]

; 317  : 		_Uninitialized_move_al_unchecked(_Unchecked(_First), _Unchecked(_Last),
; 318  : 			_Unchecked(_Dest), _Al)));
; 319  : 	}

	pop	edi
	pop	esi
	pop	ebx
	add	esp, 192				; 000000c0H
	cmp	ebp, esp
	call	__RTC_CheckEsp
	mov	esp, ebp
	pop	ebp
	ret	0
??$_Uninitialized_move@PAUTile@@PAU1@V?$allocator@UTile@@@std@@@std@@YAPAUTile@@PAU1@00AAU?$_Wrap_alloc@V?$allocator@UTile@@@std@@@0@@Z ENDP ; std::_Uninitialized_move<Tile *,Tile *,std::allocator<Tile> >
_TEXT	ENDS
; Function compile flags: /Odtp /RTCsu /ZI
; File c:\program files (x86)\microsoft visual studio 14.0\vc\include\xmemory0
;	COMDAT ??$construct@U_Container_proxy@std@@U12@@?$allocator_traits@V?$allocator@U_Container_proxy@std@@@std@@@std@@SAXAAV?$allocator@U_Container_proxy@std@@@1@PAU_Container_proxy@1@$$QAU31@@Z
_TEXT	SEGMENT
__Al$ = 8						; size = 4
__Ptr$ = 12						; size = 4
_<_Args_0>$ = 16					; size = 4
??$construct@U_Container_proxy@std@@U12@@?$allocator_traits@V?$allocator@U_Container_proxy@std@@@std@@@std@@SAXAAV?$allocator@U_Container_proxy@std@@@1@PAU_Container_proxy@1@$$QAU31@@Z PROC ; std::allocator_traits<std::allocator<std::_Container_proxy> >::construct<std::_Container_proxy,std::_Container_proxy>, COMDAT

; 856  : 		{	// construct _Objty(_Types...) at _Ptr

	push	ebp
	mov	ebp, esp
	sub	esp, 192				; 000000c0H
	push	ebx
	push	esi
	push	edi
	lea	edi, DWORD PTR [ebp-192]
	mov	ecx, 48					; 00000030H
	mov	eax, -858993460				; ccccccccH
	rep stosd

; 857  : 		_Al.construct(_Ptr, _STD forward<_Types>(_Args)...);

	mov	eax, DWORD PTR _<_Args_0>$[ebp]
	push	eax
	call	??$forward@U_Container_proxy@std@@@std@@YA$$QAU_Container_proxy@0@AAU10@@Z ; std::forward<std::_Container_proxy>
	add	esp, 4
	push	eax
	mov	ecx, DWORD PTR __Ptr$[ebp]
	push	ecx
	mov	ecx, DWORD PTR __Al$[ebp]
	call	??$construct@U_Container_proxy@std@@U12@@?$allocator@U_Container_proxy@std@@@std@@QAEXPAU_Container_proxy@1@$$QAU21@@Z ; std::allocator<std::_Container_proxy>::construct<std::_Container_proxy,std::_Container_proxy>

; 858  : 		}

	pop	edi
	pop	esi
	pop	ebx
	add	esp, 192				; 000000c0H
	cmp	ebp, esp
	call	__RTC_CheckEsp
	mov	esp, ebp
	pop	ebp
	ret	0
??$construct@U_Container_proxy@std@@U12@@?$allocator_traits@V?$allocator@U_Container_proxy@std@@@std@@@std@@SAXAAV?$allocator@U_Container_proxy@std@@@1@PAU_Container_proxy@1@$$QAU31@@Z ENDP ; std::allocator_traits<std::allocator<std::_Container_proxy> >::construct<std::_Container_proxy,std::_Container_proxy>
_TEXT	ENDS
; Function compile flags: /Odtp /RTCsu /ZI
; File c:\program files (x86)\microsoft visual studio 14.0\vc\include\type_traits
;	COMDAT ??$forward@U_Container_proxy@std@@@std@@YA$$QAU_Container_proxy@0@AAU10@@Z
_TEXT	SEGMENT
__Arg$ = 8						; size = 4
??$forward@U_Container_proxy@std@@@std@@YA$$QAU_Container_proxy@0@AAU10@@Z PROC ; std::forward<std::_Container_proxy>, COMDAT

; 1275 : 	{	// forward an lvalue as either an lvalue or an rvalue

	push	ebp
	mov	ebp, esp
	sub	esp, 192				; 000000c0H
	push	ebx
	push	esi
	push	edi
	lea	edi, DWORD PTR [ebp-192]
	mov	ecx, 48					; 00000030H
	mov	eax, -858993460				; ccccccccH
	rep stosd

; 1276 : 	return (static_cast<_Ty&&>(_Arg));

	mov	eax, DWORD PTR __Arg$[ebp]

; 1277 : 	}

	pop	edi
	pop	esi
	pop	ebx
	mov	esp, ebp
	pop	ebp
	ret	0
??$forward@U_Container_proxy@std@@@std@@YA$$QAU_Container_proxy@0@AAU10@@Z ENDP ; std::forward<std::_Container_proxy>
_TEXT	ENDS
; Function compile flags: /Odtp /RTCsu /ZI
; File c:\program files (x86)\microsoft visual studio 14.0\vc\include\xmemory0
;	COMDAT ??$?0UTile@@@?$allocator@U_Container_proxy@std@@@std@@QAE@ABV?$allocator@UTile@@@1@@Z
_TEXT	SEGMENT
_this$ = -8						; size = 4
___formal$ = 8						; size = 4
??$?0UTile@@@?$allocator@U_Container_proxy@std@@@std@@QAE@ABV?$allocator@UTile@@@1@@Z PROC ; std::allocator<std::_Container_proxy>::allocator<std::_Container_proxy><Tile>, COMDAT
; _this$ = ecx

; 709  : 		{	// construct from a related allocator (do nothing)

	push	ebp
	mov	ebp, esp
	sub	esp, 204				; 000000ccH
	push	ebx
	push	esi
	push	edi
	push	ecx
	lea	edi, DWORD PTR [ebp-204]
	mov	ecx, 51					; 00000033H
	mov	eax, -858993460				; ccccccccH
	rep stosd
	pop	ecx
	mov	DWORD PTR _this$[ebp], ecx

; 710  : 		}

	mov	eax, DWORD PTR _this$[ebp]
	pop	edi
	pop	esi
	pop	ebx
	mov	esp, ebp
	pop	ebp
	ret	4
??$?0UTile@@@?$allocator@U_Container_proxy@std@@@std@@QAE@ABV?$allocator@UTile@@@1@@Z ENDP ; std::allocator<std::_Container_proxy>::allocator<std::_Container_proxy><Tile>
_TEXT	ENDS
; Function compile flags: /Odtp /RTCsu /ZI
; File c:\program files (x86)\microsoft visual studio 14.0\vc\include\type_traits
;	COMDAT ??$forward@AAU?$_Wrap_alloc@V?$allocator@UTile@@@std@@@std@@@std@@YAAAU?$_Wrap_alloc@V?$allocator@UTile@@@std@@@0@AAU10@@Z
_TEXT	SEGMENT
__Arg$ = 8						; size = 4
??$forward@AAU?$_Wrap_alloc@V?$allocator@UTile@@@std@@@std@@@std@@YAAAU?$_Wrap_alloc@V?$allocator@UTile@@@std@@@0@AAU10@@Z PROC ; std::forward<std::_Wrap_alloc<std::allocator<Tile> > &>, COMDAT

; 1275 : 	{	// forward an lvalue as either an lvalue or an rvalue

	push	ebp
	mov	ebp, esp
	sub	esp, 192				; 000000c0H
	push	ebx
	push	esi
	push	edi
	lea	edi, DWORD PTR [ebp-192]
	mov	ecx, 48					; 00000030H
	mov	eax, -858993460				; ccccccccH
	rep stosd

; 1276 : 	return (static_cast<_Ty&&>(_Arg));

	mov	eax, DWORD PTR __Arg$[ebp]

; 1277 : 	}

	pop	edi
	pop	esi
	pop	ebx
	mov	esp, ebp
	pop	ebp
	ret	0
??$forward@AAU?$_Wrap_alloc@V?$allocator@UTile@@@std@@@std@@@std@@YAAAU?$_Wrap_alloc@V?$allocator@UTile@@@std@@@0@AAU10@@Z ENDP ; std::forward<std::_Wrap_alloc<std::allocator<Tile> > &>
_TEXT	ENDS
; Function compile flags: /Odtp /RTCsu /ZI
; File c:\program files (x86)\microsoft visual studio 14.0\vc\include\xmemory0
;	COMDAT ??$_Destroy_range1@V?$allocator@UPushTile@@@std@@PAUPushTile@@@std@@YAXPAUPushTile@@0AAU?$_Wrap_alloc@V?$allocator@UPushTile@@@std@@@0@U?$integral_constant@_N$00@0@@Z
_TEXT	SEGMENT
___formal$ = 8						; size = 4
___formal$ = 12						; size = 4
___formal$ = 16						; size = 4
___formal$ = 20						; size = 1
??$_Destroy_range1@V?$allocator@UPushTile@@@std@@PAUPushTile@@@std@@YAXPAUPushTile@@0AAU?$_Wrap_alloc@V?$allocator@UPushTile@@@std@@@0@U?$integral_constant@_N$00@0@@Z PROC ; std::_Destroy_range1<std::allocator<PushTile>,PushTile *>, COMDAT

; 1107 : 	{	// destroy [_First, _Last), trivially destructible and default destroy

	push	ebp
	mov	ebp, esp
	sub	esp, 192				; 000000c0H
	push	ebx
	push	esi
	push	edi
	lea	edi, DWORD PTR [ebp-192]
	mov	ecx, 48					; 00000030H
	mov	eax, -858993460				; ccccccccH
	rep stosd

; 1108 : 		// nothing to do
; 1109 : 	}

	pop	edi
	pop	esi
	pop	ebx
	mov	esp, ebp
	pop	ebp
	ret	0
??$_Destroy_range1@V?$allocator@UPushTile@@@std@@PAUPushTile@@@std@@YAXPAUPushTile@@0AAU?$_Wrap_alloc@V?$allocator@UPushTile@@@std@@@0@U?$integral_constant@_N$00@0@@Z ENDP ; std::_Destroy_range1<std::allocator<PushTile>,PushTile *>
_TEXT	ENDS
; Function compile flags: /Odtp /RTCsu /ZI
; File c:\program files (x86)\microsoft visual studio 14.0\vc\include\xmemory0
;	COMDAT ??$destroy@U_Container_proxy@std@@@?$allocator_traits@V?$allocator@U_Container_proxy@std@@@std@@@std@@SAXAAV?$allocator@U_Container_proxy@std@@@1@PAU_Container_proxy@1@@Z
_TEXT	SEGMENT
__Al$ = 8						; size = 4
__Ptr$ = 12						; size = 4
??$destroy@U_Container_proxy@std@@@?$allocator_traits@V?$allocator@U_Container_proxy@std@@@std@@@std@@SAXAAV?$allocator@U_Container_proxy@std@@@1@PAU_Container_proxy@1@@Z PROC ; std::allocator_traits<std::allocator<std::_Container_proxy> >::destroy<std::_Container_proxy>, COMDAT

; 863  : 		{	// destroy object at _Ptr

	push	ebp
	mov	ebp, esp
	sub	esp, 192				; 000000c0H
	push	ebx
	push	esi
	push	edi
	lea	edi, DWORD PTR [ebp-192]
	mov	ecx, 48					; 00000030H
	mov	eax, -858993460				; ccccccccH
	rep stosd

; 864  : 		_Al.destroy(_Ptr);

	mov	eax, DWORD PTR __Ptr$[ebp]
	push	eax
	mov	ecx, DWORD PTR __Al$[ebp]
	call	??$destroy@U_Container_proxy@std@@@?$allocator@U_Container_proxy@std@@@std@@QAEXPAU_Container_proxy@1@@Z ; std::allocator<std::_Container_proxy>::destroy<std::_Container_proxy>

; 865  : 		}

	pop	edi
	pop	esi
	pop	ebx
	add	esp, 192				; 000000c0H
	cmp	ebp, esp
	call	__RTC_CheckEsp
	mov	esp, ebp
	pop	ebp
	ret	0
??$destroy@U_Container_proxy@std@@@?$allocator_traits@V?$allocator@U_Container_proxy@std@@@std@@@std@@SAXAAV?$allocator@U_Container_proxy@std@@@1@PAU_Container_proxy@1@@Z ENDP ; std::allocator_traits<std::allocator<std::_Container_proxy> >::destroy<std::_Container_proxy>
_TEXT	ENDS
; Function compile flags: /Odtp /RTCsu /ZI
; File c:\program files (x86)\microsoft visual studio 14.0\vc\include\xmemory0
;	COMDAT ??$?0UPushTile@@@?$allocator@U_Container_proxy@std@@@std@@QAE@ABV?$allocator@UPushTile@@@1@@Z
_TEXT	SEGMENT
_this$ = -8						; size = 4
___formal$ = 8						; size = 4
??$?0UPushTile@@@?$allocator@U_Container_proxy@std@@@std@@QAE@ABV?$allocator@UPushTile@@@1@@Z PROC ; std::allocator<std::_Container_proxy>::allocator<std::_Container_proxy><PushTile>, COMDAT
; _this$ = ecx

; 709  : 		{	// construct from a related allocator (do nothing)

	push	ebp
	mov	ebp, esp
	sub	esp, 204				; 000000ccH
	push	ebx
	push	esi
	push	edi
	push	ecx
	lea	edi, DWORD PTR [ebp-204]
	mov	ecx, 51					; 00000033H
	mov	eax, -858993460				; ccccccccH
	rep stosd
	pop	ecx
	mov	DWORD PTR _this$[ebp], ecx

; 710  : 		}

	mov	eax, DWORD PTR _this$[ebp]
	pop	edi
	pop	esi
	pop	ebx
	mov	esp, ebp
	pop	ebp
	ret	4
??$?0UPushTile@@@?$allocator@U_Container_proxy@std@@@std@@QAE@ABV?$allocator@UPushTile@@@1@@Z ENDP ; std::allocator<std::_Container_proxy>::allocator<std::_Container_proxy><PushTile>
_TEXT	ENDS
; Function compile flags: /Odtp /RTCsu /ZI
; File c:\program files (x86)\microsoft visual studio 14.0\vc\include\type_traits
;	COMDAT ??$forward@AAU?$_Wrap_alloc@V?$allocator@UPushTile@@@std@@@std@@@std@@YAAAU?$_Wrap_alloc@V?$allocator@UPushTile@@@std@@@0@AAU10@@Z
_TEXT	SEGMENT
__Arg$ = 8						; size = 4
??$forward@AAU?$_Wrap_alloc@V?$allocator@UPushTile@@@std@@@std@@@std@@YAAAU?$_Wrap_alloc@V?$allocator@UPushTile@@@std@@@0@AAU10@@Z PROC ; std::forward<std::_Wrap_alloc<std::allocator<PushTile> > &>, COMDAT

; 1275 : 	{	// forward an lvalue as either an lvalue or an rvalue

	push	ebp
	mov	ebp, esp
	sub	esp, 192				; 000000c0H
	push	ebx
	push	esi
	push	edi
	lea	edi, DWORD PTR [ebp-192]
	mov	ecx, 48					; 00000030H
	mov	eax, -858993460				; ccccccccH
	rep stosd

; 1276 : 	return (static_cast<_Ty&&>(_Arg));

	mov	eax, DWORD PTR __Arg$[ebp]

; 1277 : 	}

	pop	edi
	pop	esi
	pop	ebx
	mov	esp, ebp
	pop	ebp
	ret	0
??$forward@AAU?$_Wrap_alloc@V?$allocator@UPushTile@@@std@@@std@@@std@@YAAAU?$_Wrap_alloc@V?$allocator@UPushTile@@@std@@@0@AAU10@@Z ENDP ; std::forward<std::_Wrap_alloc<std::allocator<PushTile> > &>
_TEXT	ENDS
; Function compile flags: /Odtp /RTCsu /ZI
; File c:\program files (x86)\microsoft visual studio 14.0\vc\include\xmemory0
;	COMDAT ??$_Destroy_range1@V?$allocator@UTile@@@std@@PAUTile@@@std@@YAXPAUTile@@0AAU?$_Wrap_alloc@V?$allocator@UTile@@@std@@@0@U?$integral_constant@_N$00@0@@Z
_TEXT	SEGMENT
___formal$ = 8						; size = 4
___formal$ = 12						; size = 4
___formal$ = 16						; size = 4
___formal$ = 20						; size = 1
??$_Destroy_range1@V?$allocator@UTile@@@std@@PAUTile@@@std@@YAXPAUTile@@0AAU?$_Wrap_alloc@V?$allocator@UTile@@@std@@@0@U?$integral_constant@_N$00@0@@Z PROC ; std::_Destroy_range1<std::allocator<Tile>,Tile *>, COMDAT

; 1107 : 	{	// destroy [_First, _Last), trivially destructible and default destroy

	push	ebp
	mov	ebp, esp
	sub	esp, 192				; 000000c0H
	push	ebx
	push	esi
	push	edi
	lea	edi, DWORD PTR [ebp-192]
	mov	ecx, 48					; 00000030H
	mov	eax, -858993460				; ccccccccH
	rep stosd

; 1108 : 		// nothing to do
; 1109 : 	}

	pop	edi
	pop	esi
	pop	ebx
	mov	esp, ebp
	pop	ebp
	ret	0
??$_Destroy_range1@V?$allocator@UTile@@@std@@PAUTile@@@std@@YAXPAUTile@@0AAU?$_Wrap_alloc@V?$allocator@UTile@@@std@@@0@U?$integral_constant@_N$00@0@@Z ENDP ; std::_Destroy_range1<std::allocator<Tile>,Tile *>
_TEXT	ENDS
; Function compile flags: /Odtp /RTCsu /ZI
; File c:\program files (x86)\microsoft visual studio 14.0\vc\include\type_traits
;	COMDAT ??$forward@V?$allocator@UPushTile@@@std@@@std@@YA$$QAV?$allocator@UPushTile@@@0@AAV10@@Z
_TEXT	SEGMENT
__Arg$ = 8						; size = 4
??$forward@V?$allocator@UPushTile@@@std@@@std@@YA$$QAV?$allocator@UPushTile@@@0@AAV10@@Z PROC ; std::forward<std::allocator<PushTile> >, COMDAT

; 1275 : 	{	// forward an lvalue as either an lvalue or an rvalue

	push	ebp
	mov	ebp, esp
	sub	esp, 192				; 000000c0H
	push	ebx
	push	esi
	push	edi
	lea	edi, DWORD PTR [ebp-192]
	mov	ecx, 48					; 00000030H
	mov	eax, -858993460				; ccccccccH
	rep stosd

; 1276 : 	return (static_cast<_Ty&&>(_Arg));

	mov	eax, DWORD PTR __Arg$[ebp]

; 1277 : 	}

	pop	edi
	pop	esi
	pop	ebx
	mov	esp, ebp
	pop	ebp
	ret	0
??$forward@V?$allocator@UPushTile@@@std@@@std@@YA$$QAV?$allocator@UPushTile@@@0@AAV10@@Z ENDP ; std::forward<std::allocator<PushTile> >
_TEXT	ENDS
; Function compile flags: /Odtp /RTCsu /ZI
; File c:\program files (x86)\microsoft visual studio 14.0\vc\include\xmemory0
;	COMDAT ??$construct@UTile@@ABU1@@?$allocator_traits@V?$allocator@UTile@@@std@@@std@@SAXAAV?$allocator@UTile@@@1@PAUTile@@ABU3@@Z
_TEXT	SEGMENT
__Al$ = 8						; size = 4
__Ptr$ = 12						; size = 4
_<_Args_0>$ = 16					; size = 4
??$construct@UTile@@ABU1@@?$allocator_traits@V?$allocator@UTile@@@std@@@std@@SAXAAV?$allocator@UTile@@@1@PAUTile@@ABU3@@Z PROC ; std::allocator_traits<std::allocator<Tile> >::construct<Tile,Tile const &>, COMDAT

; 856  : 		{	// construct _Objty(_Types...) at _Ptr

	push	ebp
	mov	ebp, esp
	sub	esp, 192				; 000000c0H
	push	ebx
	push	esi
	push	edi
	lea	edi, DWORD PTR [ebp-192]
	mov	ecx, 48					; 00000030H
	mov	eax, -858993460				; ccccccccH
	rep stosd

; 857  : 		_Al.construct(_Ptr, _STD forward<_Types>(_Args)...);

	mov	eax, DWORD PTR _<_Args_0>$[ebp]
	push	eax
	call	??$forward@ABUTile@@@std@@YAABUTile@@ABU1@@Z ; std::forward<Tile const &>
	add	esp, 4
	push	eax
	mov	ecx, DWORD PTR __Ptr$[ebp]
	push	ecx
	mov	ecx, DWORD PTR __Al$[ebp]
	call	??$construct@UTile@@ABU1@@?$allocator@UTile@@@std@@QAEXPAUTile@@ABU2@@Z ; std::allocator<Tile>::construct<Tile,Tile const &>

; 858  : 		}

	pop	edi
	pop	esi
	pop	ebx
	add	esp, 192				; 000000c0H
	cmp	ebp, esp
	call	__RTC_CheckEsp
	mov	esp, ebp
	pop	ebp
	ret	0
??$construct@UTile@@ABU1@@?$allocator_traits@V?$allocator@UTile@@@std@@@std@@SAXAAV?$allocator@UTile@@@1@PAUTile@@ABU3@@Z ENDP ; std::allocator_traits<std::allocator<Tile> >::construct<Tile,Tile const &>
_TEXT	ENDS
; Function compile flags: /Odtp /RTCsu /ZI
; File c:\program files (x86)\microsoft visual studio 14.0\vc\include\type_traits
;	COMDAT ??$forward@ABUTile@@@std@@YAABUTile@@ABU1@@Z
_TEXT	SEGMENT
__Arg$ = 8						; size = 4
??$forward@ABUTile@@@std@@YAABUTile@@ABU1@@Z PROC	; std::forward<Tile const &>, COMDAT

; 1275 : 	{	// forward an lvalue as either an lvalue or an rvalue

	push	ebp
	mov	ebp, esp
	sub	esp, 192				; 000000c0H
	push	ebx
	push	esi
	push	edi
	lea	edi, DWORD PTR [ebp-192]
	mov	ecx, 48					; 00000030H
	mov	eax, -858993460				; ccccccccH
	rep stosd

; 1276 : 	return (static_cast<_Ty&&>(_Arg));

	mov	eax, DWORD PTR __Arg$[ebp]

; 1277 : 	}

	pop	edi
	pop	esi
	pop	ebx
	mov	esp, ebp
	pop	ebp
	ret	0
??$forward@ABUTile@@@std@@YAABUTile@@ABU1@@Z ENDP	; std::forward<Tile const &>
_TEXT	ENDS
; Function compile flags: /Odtp /RTCsu /ZI
; File c:\program files (x86)\microsoft visual studio 14.0\vc\include\xmemory0
;	COMDAT ??$construct@UTile@@AAU1@@?$allocator_traits@V?$allocator@UTile@@@std@@@std@@SAXAAV?$allocator@UTile@@@1@PAUTile@@AAU3@@Z
_TEXT	SEGMENT
__Al$ = 8						; size = 4
__Ptr$ = 12						; size = 4
_<_Args_0>$ = 16					; size = 4
??$construct@UTile@@AAU1@@?$allocator_traits@V?$allocator@UTile@@@std@@@std@@SAXAAV?$allocator@UTile@@@1@PAUTile@@AAU3@@Z PROC ; std::allocator_traits<std::allocator<Tile> >::construct<Tile,Tile &>, COMDAT

; 856  : 		{	// construct _Objty(_Types...) at _Ptr

	push	ebp
	mov	ebp, esp
	sub	esp, 192				; 000000c0H
	push	ebx
	push	esi
	push	edi
	lea	edi, DWORD PTR [ebp-192]
	mov	ecx, 48					; 00000030H
	mov	eax, -858993460				; ccccccccH
	rep stosd

; 857  : 		_Al.construct(_Ptr, _STD forward<_Types>(_Args)...);

	mov	eax, DWORD PTR _<_Args_0>$[ebp]
	push	eax
	call	??$forward@AAUTile@@@std@@YAAAUTile@@AAU1@@Z ; std::forward<Tile &>
	add	esp, 4
	push	eax
	mov	ecx, DWORD PTR __Ptr$[ebp]
	push	ecx
	mov	ecx, DWORD PTR __Al$[ebp]
	call	??$construct@UTile@@AAU1@@?$allocator@UTile@@@std@@QAEXPAUTile@@AAU2@@Z ; std::allocator<Tile>::construct<Tile,Tile &>

; 858  : 		}

	pop	edi
	pop	esi
	pop	ebx
	add	esp, 192				; 000000c0H
	cmp	ebp, esp
	call	__RTC_CheckEsp
	mov	esp, ebp
	pop	ebp
	ret	0
??$construct@UTile@@AAU1@@?$allocator_traits@V?$allocator@UTile@@@std@@@std@@SAXAAV?$allocator@UTile@@@1@PAUTile@@AAU3@@Z ENDP ; std::allocator_traits<std::allocator<Tile> >::construct<Tile,Tile &>
_TEXT	ENDS
; Function compile flags: /Odtp /RTCsu /ZI
; File c:\program files (x86)\microsoft visual studio 14.0\vc\include\type_traits
;	COMDAT ??$forward@AAUTile@@@std@@YAAAUTile@@AAU1@@Z
_TEXT	SEGMENT
__Arg$ = 8						; size = 4
??$forward@AAUTile@@@std@@YAAAUTile@@AAU1@@Z PROC	; std::forward<Tile &>, COMDAT

; 1275 : 	{	// forward an lvalue as either an lvalue or an rvalue

	push	ebp
	mov	ebp, esp
	sub	esp, 192				; 000000c0H
	push	ebx
	push	esi
	push	edi
	lea	edi, DWORD PTR [ebp-192]
	mov	ecx, 48					; 00000030H
	mov	eax, -858993460				; ccccccccH
	rep stosd

; 1276 : 	return (static_cast<_Ty&&>(_Arg));

	mov	eax, DWORD PTR __Arg$[ebp]

; 1277 : 	}

	pop	edi
	pop	esi
	pop	ebx
	mov	esp, ebp
	pop	ebp
	ret	0
??$forward@AAUTile@@@std@@YAAAUTile@@AAU1@@Z ENDP	; std::forward<Tile &>
_TEXT	ENDS
; Function compile flags: /Odtp /RTCsu /ZI
; File c:\program files (x86)\microsoft visual studio 14.0\vc\include\xutility
;	COMDAT ??$_Move_unchecked1@PAUTile@@PAU1@@std@@YAPAUTile@@PAU1@00U_Trivially_copyable_ptr_iterator_tag@0@@Z
_TEXT	SEGMENT
__First$ = 8						; size = 4
__Last$ = 12						; size = 4
__Dest$ = 16						; size = 4
___formal$ = 20						; size = 1
??$_Move_unchecked1@PAUTile@@PAU1@@std@@YAPAUTile@@PAU1@00U_Trivially_copyable_ptr_iterator_tag@0@@Z PROC ; std::_Move_unchecked1<Tile *,Tile *>, COMDAT

; 2589 : 	{	// move [_First, _Last) to [_Dest, ...), memmove optimization

	push	ebp
	mov	ebp, esp
	sub	esp, 192				; 000000c0H
	push	ebx
	push	esi
	push	edi
	lea	edi, DWORD PTR [ebp-192]
	mov	ecx, 48					; 00000030H
	mov	eax, -858993460				; ccccccccH
	rep stosd

; 2590 : 	return (_Copy_memmove(_First, _Last, _Dest));

	mov	eax, DWORD PTR __Dest$[ebp]
	push	eax
	mov	ecx, DWORD PTR __Last$[ebp]
	push	ecx
	mov	edx, DWORD PTR __First$[ebp]
	push	edx
	call	??$_Copy_memmove@PAUTile@@PAU1@@std@@YAPAUTile@@PAU1@00@Z ; std::_Copy_memmove<Tile *,Tile *>
	add	esp, 12					; 0000000cH

; 2591 : 	}

	pop	edi
	pop	esi
	pop	ebx
	add	esp, 192				; 000000c0H
	cmp	ebp, esp
	call	__RTC_CheckEsp
	mov	esp, ebp
	pop	ebp
	ret	0
??$_Move_unchecked1@PAUTile@@PAU1@@std@@YAPAUTile@@PAU1@00U_Trivially_copyable_ptr_iterator_tag@0@@Z ENDP ; std::_Move_unchecked1<Tile *,Tile *>
_TEXT	ENDS
; Function compile flags: /Odtp /RTCsu /ZI
; File c:\program files (x86)\microsoft visual studio 14.0\vc\include\xutility
;	COMDAT ??$_Ptr_move_cat@UTile@@U1@@std@@YA?AU_Trivially_copyable_ptr_iterator_tag@0@ABQAUTile@@0@Z
_TEXT	SEGMENT
___$ReturnUdt$ = 8					; size = 4
___formal$ = 12						; size = 4
___formal$ = 16						; size = 4
??$_Ptr_move_cat@UTile@@U1@@std@@YA?AU_Trivially_copyable_ptr_iterator_tag@0@ABQAUTile@@0@Z PROC ; std::_Ptr_move_cat<Tile,Tile>, COMDAT

; 809  : 	{	// return pointer move optimization category for pointers

	push	ebp
	mov	ebp, esp
	sub	esp, 192				; 000000c0H
	push	ebx
	push	esi
	push	edi
	lea	edi, DWORD PTR [ebp-192]
	mov	ecx, 48					; 00000030H
	mov	eax, -858993460				; ccccccccH
	rep stosd

; 810  : 	return {};

	mov	eax, DWORD PTR ___$ReturnUdt$[ebp]

; 811  : 	}

	pop	edi
	pop	esi
	pop	ebx
	mov	esp, ebp
	pop	ebp
	ret	0
??$_Ptr_move_cat@UTile@@U1@@std@@YA?AU_Trivially_copyable_ptr_iterator_tag@0@ABQAUTile@@0@Z ENDP ; std::_Ptr_move_cat<Tile,Tile>
_TEXT	ENDS
; Function compile flags: /Odtp /RTCsu /ZI
; File c:\program files (x86)\microsoft visual studio 14.0\vc\include\xmemory
;	COMDAT ??$_Uninitialized_copy@V?$_Vector_const_iterator@V?$_Vector_val@U?$_Simple_types@UPushTile@@@std@@@std@@@std@@PAUPushTile@@V?$allocator@UPushTile@@@2@@std@@YAPAUPushTile@@V?$_Vector_const_iterator@V?$_Vector_val@U?$_Simple_types@UPushTile@@@std@@@std@@@0@0PAU1@AAU?$_Wrap_alloc@V?$allocator@UPushTile@@@std@@@0@@Z
_TEXT	SEGMENT
tv67 = -260						; size = 4
tv148 = -256						; size = 4
tv147 = -252						; size = 4
tv144 = -248						; size = 4
tv143 = -244						; size = 4
$T2 = -236						; size = 4
$T3 = -224						; size = 4
$T4 = -212						; size = 4
__$EHRec$ = -12						; size = 12
__First$ = 8						; size = 12
__Last$ = 20						; size = 12
__Dest$ = 32						; size = 4
__Al$ = 36						; size = 4
??$_Uninitialized_copy@V?$_Vector_const_iterator@V?$_Vector_val@U?$_Simple_types@UPushTile@@@std@@@std@@@std@@PAUPushTile@@V?$allocator@UPushTile@@@2@@std@@YAPAUPushTile@@V?$_Vector_const_iterator@V?$_Vector_val@U?$_Simple_types@UPushTile@@@std@@@std@@@0@0PAU1@AAU?$_Wrap_alloc@V?$allocator@UPushTile@@@std@@@0@@Z PROC ; std::_Uninitialized_copy<std::_Vector_const_iterator<std::_Vector_val<std::_Simple_types<PushTile> > >,PushTile *,std::allocator<PushTile> >, COMDAT

